ARM GAS  C:\Users\krisa\AppData\Local\Temp\ccoeKVOr.s 			page 1


   1              		.cpu cortex-m4
   2              		.arch armv7e-m
   3              		.fpu fpv4-sp-d16
   4              		.eabi_attribute 27, 1
   5              		.eabi_attribute 28, 1
   6              		.eabi_attribute 20, 1
   7              		.eabi_attribute 21, 1
   8              		.eabi_attribute 23, 3
   9              		.eabi_attribute 24, 1
  10              		.eabi_attribute 25, 1
  11              		.eabi_attribute 26, 1
  12              		.eabi_attribute 30, 1
  13              		.eabi_attribute 34, 1
  14              		.eabi_attribute 18, 4
  15              		.file	"cdc_device.c"
  16              		.text
  17              	.Ltext0:
  18              		.cfi_sections	.debug_frame
  19              		.section	.text.tud_cdc_rx_cb,"ax",%progbits
  20              		.align	1
  21              		.weak	tud_cdc_rx_cb
  22              		.syntax unified
  23              		.thumb
  24              		.thumb_func
  26              	tud_cdc_rx_cb:
  27              	.LVL0:
  28              	.LFB110:
  29              		.file 1 "lib/TinyUSB/src/class/cdc/cdc_device.c"
   1:lib/TinyUSB/src/class/cdc/cdc_device.c **** /*
   2:lib/TinyUSB/src/class/cdc/cdc_device.c ****  * The MIT License (MIT)
   3:lib/TinyUSB/src/class/cdc/cdc_device.c ****  *
   4:lib/TinyUSB/src/class/cdc/cdc_device.c ****  * Copyright (c) 2019 Ha Thach (tinyusb.org)
   5:lib/TinyUSB/src/class/cdc/cdc_device.c ****  *
   6:lib/TinyUSB/src/class/cdc/cdc_device.c ****  * Permission is hereby granted, free of charge, to any person obtaining a copy
   7:lib/TinyUSB/src/class/cdc/cdc_device.c ****  * of this software and associated documentation files (the "Software"), to deal
   8:lib/TinyUSB/src/class/cdc/cdc_device.c ****  * in the Software without restriction, including without limitation the rights
   9:lib/TinyUSB/src/class/cdc/cdc_device.c ****  * to use, copy, modify, merge, publish, distribute, sublicense, and/or sell
  10:lib/TinyUSB/src/class/cdc/cdc_device.c ****  * copies of the Software, and to permit persons to whom the Software is
  11:lib/TinyUSB/src/class/cdc/cdc_device.c ****  * furnished to do so, subject to the following conditions:
  12:lib/TinyUSB/src/class/cdc/cdc_device.c ****  *
  13:lib/TinyUSB/src/class/cdc/cdc_device.c ****  * The above copyright notice and this permission notice shall be included in
  14:lib/TinyUSB/src/class/cdc/cdc_device.c ****  * all copies or substantial portions of the Software.
  15:lib/TinyUSB/src/class/cdc/cdc_device.c ****  *
  16:lib/TinyUSB/src/class/cdc/cdc_device.c ****  * THE SOFTWARE IS PROVIDED "AS IS", WITHOUT WARRANTY OF ANY KIND, EXPRESS OR
  17:lib/TinyUSB/src/class/cdc/cdc_device.c ****  * IMPLIED, INCLUDING BUT NOT LIMITED TO THE WARRANTIES OF MERCHANTABILITY,
  18:lib/TinyUSB/src/class/cdc/cdc_device.c ****  * FITNESS FOR A PARTICULAR PURPOSE AND NONINFRINGEMENT. IN NO EVENT SHALL THE
  19:lib/TinyUSB/src/class/cdc/cdc_device.c ****  * AUTHORS OR COPYRIGHT HOLDERS BE LIABLE FOR ANY CLAIM, DAMAGES OR OTHER
  20:lib/TinyUSB/src/class/cdc/cdc_device.c ****  * LIABILITY, WHETHER IN AN ACTION OF CONTRACT, TORT OR OTHERWISE, ARISING FROM,
  21:lib/TinyUSB/src/class/cdc/cdc_device.c ****  * OUT OF OR IN CONNECTION WITH THE SOFTWARE OR THE USE OR OTHER DEALINGS IN
  22:lib/TinyUSB/src/class/cdc/cdc_device.c ****  * THE SOFTWARE.
  23:lib/TinyUSB/src/class/cdc/cdc_device.c ****  *
  24:lib/TinyUSB/src/class/cdc/cdc_device.c ****  * This file is part of the TinyUSB stack.
  25:lib/TinyUSB/src/class/cdc/cdc_device.c ****  */
  26:lib/TinyUSB/src/class/cdc/cdc_device.c **** 
  27:lib/TinyUSB/src/class/cdc/cdc_device.c **** #include "tusb_option.h"
  28:lib/TinyUSB/src/class/cdc/cdc_device.c **** 
  29:lib/TinyUSB/src/class/cdc/cdc_device.c **** #if (CFG_TUD_ENABLED && CFG_TUD_CDC)
ARM GAS  C:\Users\krisa\AppData\Local\Temp\ccoeKVOr.s 			page 2


  30:lib/TinyUSB/src/class/cdc/cdc_device.c **** 
  31:lib/TinyUSB/src/class/cdc/cdc_device.c **** #include "device/usbd.h"
  32:lib/TinyUSB/src/class/cdc/cdc_device.c **** #include "device/usbd_pvt.h"
  33:lib/TinyUSB/src/class/cdc/cdc_device.c **** 
  34:lib/TinyUSB/src/class/cdc/cdc_device.c **** #include "cdc_device.h"
  35:lib/TinyUSB/src/class/cdc/cdc_device.c **** 
  36:lib/TinyUSB/src/class/cdc/cdc_device.c **** // Level where CFG_TUSB_DEBUG must be at least for this driver is logged
  37:lib/TinyUSB/src/class/cdc/cdc_device.c **** #ifndef CFG_TUD_CDC_LOG_LEVEL
  38:lib/TinyUSB/src/class/cdc/cdc_device.c ****   #define CFG_TUD_CDC_LOG_LEVEL   CFG_TUD_LOG_LEVEL
  39:lib/TinyUSB/src/class/cdc/cdc_device.c **** #endif
  40:lib/TinyUSB/src/class/cdc/cdc_device.c **** 
  41:lib/TinyUSB/src/class/cdc/cdc_device.c **** #define TU_LOG_DRV(...)   TU_LOG(CFG_TUD_CDC_LOG_LEVEL, __VA_ARGS__)
  42:lib/TinyUSB/src/class/cdc/cdc_device.c **** 
  43:lib/TinyUSB/src/class/cdc/cdc_device.c **** //--------------------------------------------------------------------+
  44:lib/TinyUSB/src/class/cdc/cdc_device.c **** // MACRO CONSTANT TYPEDEF
  45:lib/TinyUSB/src/class/cdc/cdc_device.c **** //--------------------------------------------------------------------+
  46:lib/TinyUSB/src/class/cdc/cdc_device.c **** typedef struct {
  47:lib/TinyUSB/src/class/cdc/cdc_device.c ****   uint8_t rhport;
  48:lib/TinyUSB/src/class/cdc/cdc_device.c ****   uint8_t itf_num;
  49:lib/TinyUSB/src/class/cdc/cdc_device.c ****   uint8_t ep_notify;
  50:lib/TinyUSB/src/class/cdc/cdc_device.c ****   uint8_t line_state; // Bit 0: DTR, Bit 1: RTS
  51:lib/TinyUSB/src/class/cdc/cdc_device.c **** 
  52:lib/TinyUSB/src/class/cdc/cdc_device.c ****   /*------------- From this point, data is not cleared by bus reset -------------*/
  53:lib/TinyUSB/src/class/cdc/cdc_device.c ****   TU_ATTR_ALIGNED(4) cdc_line_coding_t line_coding;
  54:lib/TinyUSB/src/class/cdc/cdc_device.c ****   char wanted_char;
  55:lib/TinyUSB/src/class/cdc/cdc_device.c **** 
  56:lib/TinyUSB/src/class/cdc/cdc_device.c ****   tu_edpt_stream_t tx_stream;
  57:lib/TinyUSB/src/class/cdc/cdc_device.c ****   tu_edpt_stream_t rx_stream;
  58:lib/TinyUSB/src/class/cdc/cdc_device.c **** 
  59:lib/TinyUSB/src/class/cdc/cdc_device.c ****   uint8_t tx_ff_buf[CFG_TUD_CDC_TX_BUFSIZE];
  60:lib/TinyUSB/src/class/cdc/cdc_device.c ****   uint8_t rx_ff_buf[CFG_TUD_CDC_RX_BUFSIZE];
  61:lib/TinyUSB/src/class/cdc/cdc_device.c **** } cdcd_interface_t;
  62:lib/TinyUSB/src/class/cdc/cdc_device.c **** 
  63:lib/TinyUSB/src/class/cdc/cdc_device.c **** #define ITF_MEM_RESET_SIZE offsetof(cdcd_interface_t, line_coding)
  64:lib/TinyUSB/src/class/cdc/cdc_device.c **** 
  65:lib/TinyUSB/src/class/cdc/cdc_device.c **** // Skip local EP buffer if dedicated hw FIFO is supported
  66:lib/TinyUSB/src/class/cdc/cdc_device.c ****   #if CFG_TUD_EDPT_DEDICATED_HWFIFO == 0
  67:lib/TinyUSB/src/class/cdc/cdc_device.c **** typedef struct {
  68:lib/TinyUSB/src/class/cdc/cdc_device.c ****   TUD_EPBUF_DEF(epout, CFG_TUD_CDC_EP_BUFSIZE);
  69:lib/TinyUSB/src/class/cdc/cdc_device.c ****   TUD_EPBUF_DEF(epin, CFG_TUD_CDC_EP_BUFSIZE);
  70:lib/TinyUSB/src/class/cdc/cdc_device.c **** 
  71:lib/TinyUSB/src/class/cdc/cdc_device.c ****   #if CFG_TUD_CDC_NOTIFY
  72:lib/TinyUSB/src/class/cdc/cdc_device.c ****   TUD_EPBUF_TYPE_DEF(cdc_notify_msg_t, epnotify);
  73:lib/TinyUSB/src/class/cdc/cdc_device.c ****   #endif
  74:lib/TinyUSB/src/class/cdc/cdc_device.c **** } cdcd_epbuf_t;
  75:lib/TinyUSB/src/class/cdc/cdc_device.c **** 
  76:lib/TinyUSB/src/class/cdc/cdc_device.c **** CFG_TUD_MEM_SECTION static cdcd_epbuf_t _cdcd_epbuf[CFG_TUD_CDC];
  77:lib/TinyUSB/src/class/cdc/cdc_device.c **** #endif
  78:lib/TinyUSB/src/class/cdc/cdc_device.c **** 
  79:lib/TinyUSB/src/class/cdc/cdc_device.c **** //--------------------------------------------------------------------+
  80:lib/TinyUSB/src/class/cdc/cdc_device.c **** // Weak stubs: invoked if no strong implementation is available
  81:lib/TinyUSB/src/class/cdc/cdc_device.c **** //--------------------------------------------------------------------+
  82:lib/TinyUSB/src/class/cdc/cdc_device.c **** TU_ATTR_WEAK void tud_cdc_rx_cb(uint8_t itf) {
  30              		.loc 1 82 46 view -0
  31              		.cfi_startproc
  32              		@ args = 0, pretend = 0, frame = 0
  33              		@ frame_needed = 0, uses_anonymous_args = 0
ARM GAS  C:\Users\krisa\AppData\Local\Temp\ccoeKVOr.s 			page 3


  34              		@ link register save eliminated.
  83:lib/TinyUSB/src/class/cdc/cdc_device.c ****   (void)itf;
  35              		.loc 1 83 3 view .LVU1
  84:lib/TinyUSB/src/class/cdc/cdc_device.c **** }
  36              		.loc 1 84 1 is_stmt 0 view .LVU2
  37 0000 7047     		bx	lr
  38              		.cfi_endproc
  39              	.LFE110:
  41              		.section	.text.tud_cdc_rx_wanted_cb,"ax",%progbits
  42              		.align	1
  43              		.weak	tud_cdc_rx_wanted_cb
  44              		.syntax unified
  45              		.thumb
  46              		.thumb_func
  48              	tud_cdc_rx_wanted_cb:
  49              	.LVL1:
  50              	.LFB111:
  85:lib/TinyUSB/src/class/cdc/cdc_device.c **** 
  86:lib/TinyUSB/src/class/cdc/cdc_device.c **** TU_ATTR_WEAK void tud_cdc_rx_wanted_cb(uint8_t itf, char wanted_char) {
  51              		.loc 1 86 71 is_stmt 1 view -0
  52              		.cfi_startproc
  53              		@ args = 0, pretend = 0, frame = 0
  54              		@ frame_needed = 0, uses_anonymous_args = 0
  55              		@ link register save eliminated.
  87:lib/TinyUSB/src/class/cdc/cdc_device.c ****   (void)itf;
  56              		.loc 1 87 3 view .LVU4
  88:lib/TinyUSB/src/class/cdc/cdc_device.c ****   (void)wanted_char;
  57              		.loc 1 88 3 view .LVU5
  89:lib/TinyUSB/src/class/cdc/cdc_device.c **** }
  58              		.loc 1 89 1 is_stmt 0 view .LVU6
  59 0000 7047     		bx	lr
  60              		.cfi_endproc
  61              	.LFE111:
  63              		.section	.text.tud_cdc_tx_complete_cb,"ax",%progbits
  64              		.align	1
  65              		.weak	tud_cdc_tx_complete_cb
  66              		.syntax unified
  67              		.thumb
  68              		.thumb_func
  70              	tud_cdc_tx_complete_cb:
  71              	.LVL2:
  72              	.LFB112:
  90:lib/TinyUSB/src/class/cdc/cdc_device.c **** 
  91:lib/TinyUSB/src/class/cdc/cdc_device.c **** TU_ATTR_WEAK void tud_cdc_tx_complete_cb(uint8_t itf) {
  73              		.loc 1 91 55 is_stmt 1 view -0
  74              		.cfi_startproc
  75              		@ args = 0, pretend = 0, frame = 0
  76              		@ frame_needed = 0, uses_anonymous_args = 0
  77              		@ link register save eliminated.
  92:lib/TinyUSB/src/class/cdc/cdc_device.c ****   (void)itf;
  78              		.loc 1 92 3 view .LVU8
  93:lib/TinyUSB/src/class/cdc/cdc_device.c **** }
  79              		.loc 1 93 1 is_stmt 0 view .LVU9
  80 0000 7047     		bx	lr
  81              		.cfi_endproc
  82              	.LFE112:
  84              		.section	.text.tud_cdc_notify_complete_cb,"ax",%progbits
ARM GAS  C:\Users\krisa\AppData\Local\Temp\ccoeKVOr.s 			page 4


  85              		.align	1
  86              		.weak	tud_cdc_notify_complete_cb
  87              		.syntax unified
  88              		.thumb
  89              		.thumb_func
  91              	tud_cdc_notify_complete_cb:
  92              	.LVL3:
  93              	.LFB113:
  94:lib/TinyUSB/src/class/cdc/cdc_device.c **** 
  95:lib/TinyUSB/src/class/cdc/cdc_device.c **** TU_ATTR_WEAK void tud_cdc_notify_complete_cb(uint8_t itf) {
  94              		.loc 1 95 59 is_stmt 1 view -0
  95              		.cfi_startproc
  96              		@ args = 0, pretend = 0, frame = 0
  97              		@ frame_needed = 0, uses_anonymous_args = 0
  98              		@ link register save eliminated.
  96:lib/TinyUSB/src/class/cdc/cdc_device.c ****   (void)itf;
  99              		.loc 1 96 3 view .LVU11
  97:lib/TinyUSB/src/class/cdc/cdc_device.c **** }
 100              		.loc 1 97 1 is_stmt 0 view .LVU12
 101 0000 7047     		bx	lr
 102              		.cfi_endproc
 103              	.LFE113:
 105              		.section	.text.tud_cdc_line_state_cb,"ax",%progbits
 106              		.align	1
 107              		.weak	tud_cdc_line_state_cb
 108              		.syntax unified
 109              		.thumb
 110              		.thumb_func
 112              	tud_cdc_line_state_cb:
 113              	.LVL4:
 114              	.LFB114:
  98:lib/TinyUSB/src/class/cdc/cdc_device.c **** 
  99:lib/TinyUSB/src/class/cdc/cdc_device.c **** TU_ATTR_WEAK void tud_cdc_line_state_cb(uint8_t itf, bool dtr, bool rts) {
 115              		.loc 1 99 74 is_stmt 1 view -0
 116              		.cfi_startproc
 117              		@ args = 0, pretend = 0, frame = 0
 118              		@ frame_needed = 0, uses_anonymous_args = 0
 119              		@ link register save eliminated.
 100:lib/TinyUSB/src/class/cdc/cdc_device.c ****   (void)itf;
 120              		.loc 1 100 3 view .LVU14
 101:lib/TinyUSB/src/class/cdc/cdc_device.c ****   (void)dtr;
 121              		.loc 1 101 3 view .LVU15
 102:lib/TinyUSB/src/class/cdc/cdc_device.c ****   (void)rts;
 122              		.loc 1 102 3 view .LVU16
 103:lib/TinyUSB/src/class/cdc/cdc_device.c **** }
 123              		.loc 1 103 1 is_stmt 0 view .LVU17
 124 0000 7047     		bx	lr
 125              		.cfi_endproc
 126              	.LFE114:
 128              		.section	.text.tud_cdc_line_coding_cb,"ax",%progbits
 129              		.align	1
 130              		.weak	tud_cdc_line_coding_cb
 131              		.syntax unified
 132              		.thumb
 133              		.thumb_func
 135              	tud_cdc_line_coding_cb:
 136              	.LVL5:
ARM GAS  C:\Users\krisa\AppData\Local\Temp\ccoeKVOr.s 			page 5


 137              	.LFB115:
 104:lib/TinyUSB/src/class/cdc/cdc_device.c **** 
 105:lib/TinyUSB/src/class/cdc/cdc_device.c **** TU_ATTR_WEAK void tud_cdc_line_coding_cb(uint8_t itf, const cdc_line_coding_t *p_line_coding) {
 138              		.loc 1 105 95 is_stmt 1 view -0
 139              		.cfi_startproc
 140              		@ args = 0, pretend = 0, frame = 0
 141              		@ frame_needed = 0, uses_anonymous_args = 0
 142              		@ link register save eliminated.
 106:lib/TinyUSB/src/class/cdc/cdc_device.c ****   (void)itf;
 143              		.loc 1 106 3 view .LVU19
 107:lib/TinyUSB/src/class/cdc/cdc_device.c ****   (void)p_line_coding;
 144              		.loc 1 107 3 view .LVU20
 108:lib/TinyUSB/src/class/cdc/cdc_device.c **** }
 145              		.loc 1 108 1 is_stmt 0 view .LVU21
 146 0000 7047     		bx	lr
 147              		.cfi_endproc
 148              	.LFE115:
 150              		.section	.text.tud_cdc_send_break_cb,"ax",%progbits
 151              		.align	1
 152              		.weak	tud_cdc_send_break_cb
 153              		.syntax unified
 154              		.thumb
 155              		.thumb_func
 157              	tud_cdc_send_break_cb:
 158              	.LVL6:
 159              	.LFB116:
 109:lib/TinyUSB/src/class/cdc/cdc_device.c **** 
 110:lib/TinyUSB/src/class/cdc/cdc_device.c **** TU_ATTR_WEAK void tud_cdc_send_break_cb(uint8_t itf, uint16_t duration_ms) {
 160              		.loc 1 110 76 is_stmt 1 view -0
 161              		.cfi_startproc
 162              		@ args = 0, pretend = 0, frame = 0
 163              		@ frame_needed = 0, uses_anonymous_args = 0
 164              		@ link register save eliminated.
 111:lib/TinyUSB/src/class/cdc/cdc_device.c ****   (void)itf;
 165              		.loc 1 111 3 view .LVU23
 112:lib/TinyUSB/src/class/cdc/cdc_device.c ****   (void)duration_ms;
 166              		.loc 1 112 3 view .LVU24
 113:lib/TinyUSB/src/class/cdc/cdc_device.c **** }
 167              		.loc 1 113 1 is_stmt 0 view .LVU25
 168 0000 7047     		bx	lr
 169              		.cfi_endproc
 170              	.LFE116:
 172              		.section	.text.tud_cdc_configure,"ax",%progbits
 173              		.align	1
 174              		.global	tud_cdc_configure
 175              		.syntax unified
 176              		.thumb
 177              		.thumb_func
 179              	tud_cdc_configure:
 180              	.LVL7:
 181              	.LFB118:
 114:lib/TinyUSB/src/class/cdc/cdc_device.c **** 
 115:lib/TinyUSB/src/class/cdc/cdc_device.c **** //--------------------------------------------------------------------+
 116:lib/TinyUSB/src/class/cdc/cdc_device.c **** // INTERNAL OBJECT & FUNCTION DECLARATION
 117:lib/TinyUSB/src/class/cdc/cdc_device.c **** //--------------------------------------------------------------------+
 118:lib/TinyUSB/src/class/cdc/cdc_device.c **** static cdcd_interface_t _cdcd_itf[CFG_TUD_CDC];
 119:lib/TinyUSB/src/class/cdc/cdc_device.c **** static tud_cdc_configure_t _cdcd_cfg = TUD_CDC_CONFIGURE_DEFAULT();
ARM GAS  C:\Users\krisa\AppData\Local\Temp\ccoeKVOr.s 			page 6


 120:lib/TinyUSB/src/class/cdc/cdc_device.c **** 
 121:lib/TinyUSB/src/class/cdc/cdc_device.c **** TU_ATTR_ALWAYS_INLINE static inline uint8_t find_cdc_itf(uint8_t ep_addr) {
 122:lib/TinyUSB/src/class/cdc/cdc_device.c ****   for (uint8_t idx = 0; idx < CFG_TUD_CDC; idx++) {
 123:lib/TinyUSB/src/class/cdc/cdc_device.c ****     const cdcd_interface_t *p_cdc = &_cdcd_itf[idx];
 124:lib/TinyUSB/src/class/cdc/cdc_device.c ****     if (ep_addr == p_cdc->rx_stream.ep_addr || ep_addr == p_cdc->tx_stream.ep_addr ||
 125:lib/TinyUSB/src/class/cdc/cdc_device.c ****         (ep_addr == p_cdc->ep_notify && ep_addr != 0)) {
 126:lib/TinyUSB/src/class/cdc/cdc_device.c ****       return idx;
 127:lib/TinyUSB/src/class/cdc/cdc_device.c ****     }
 128:lib/TinyUSB/src/class/cdc/cdc_device.c ****   }
 129:lib/TinyUSB/src/class/cdc/cdc_device.c ****   return TUSB_INDEX_INVALID_8;
 130:lib/TinyUSB/src/class/cdc/cdc_device.c **** }
 131:lib/TinyUSB/src/class/cdc/cdc_device.c **** 
 132:lib/TinyUSB/src/class/cdc/cdc_device.c **** //--------------------------------------------------------------------+
 133:lib/TinyUSB/src/class/cdc/cdc_device.c **** // APPLICATION API
 134:lib/TinyUSB/src/class/cdc/cdc_device.c **** //--------------------------------------------------------------------+
 135:lib/TinyUSB/src/class/cdc/cdc_device.c **** bool tud_cdc_configure(const tud_cdc_configure_t* driver_cfg) {
 182              		.loc 1 135 63 is_stmt 1 view -0
 183              		.cfi_startproc
 184              		@ args = 0, pretend = 0, frame = 0
 185              		@ frame_needed = 0, uses_anonymous_args = 0
 186              		@ link register save eliminated.
 136:lib/TinyUSB/src/class/cdc/cdc_device.c ****   TU_VERIFY(driver_cfg != NULL);
 187              		.loc 1 136 3 view .LVU27
 188              		.loc 1 136 3 view .LVU28
 189 0000 20B1     		cbz	r0, .L10
 190              		.loc 1 136 3 discriminator 2 view .LVU29
 137:lib/TinyUSB/src/class/cdc/cdc_device.c ****   _cdcd_cfg = *driver_cfg;
 191              		.loc 1 137 3 discriminator 2 view .LVU30
 192              		.loc 1 137 13 is_stmt 0 discriminator 2 view .LVU31
 193 0002 0278     		ldrb	r2, [r0]	@ zero_extendqisi2
 194 0004 024B     		ldr	r3, .L11
 195 0006 1A70     		strb	r2, [r3]
 138:lib/TinyUSB/src/class/cdc/cdc_device.c ****   return true;
 196              		.loc 1 138 3 is_stmt 1 discriminator 2 view .LVU32
 197              		.loc 1 138 10 is_stmt 0 discriminator 2 view .LVU33
 198 0008 0120     		movs	r0, #1
 199              	.LVL8:
 200              		.loc 1 138 10 discriminator 2 view .LVU34
 201 000a 7047     		bx	lr
 202              	.LVL9:
 203              	.L10:
 136:lib/TinyUSB/src/class/cdc/cdc_device.c ****   TU_VERIFY(driver_cfg != NULL);
 204              		.loc 1 136 3 view .LVU35
 205 000c 0020     		movs	r0, #0
 206              	.LVL10:
 139:lib/TinyUSB/src/class/cdc/cdc_device.c **** }
 207              		.loc 1 139 1 view .LVU36
 208 000e 7047     		bx	lr
 209              	.L12:
 210              		.align	2
 211              	.L11:
 212 0010 00000000 		.word	.LANCHOR0
 213              		.cfi_endproc
 214              	.LFE118:
 216              		.section	.text.tud_cdc_n_ready,"ax",%progbits
 217              		.align	1
 218              		.global	tud_cdc_n_ready
ARM GAS  C:\Users\krisa\AppData\Local\Temp\ccoeKVOr.s 			page 7


 219              		.syntax unified
 220              		.thumb
 221              		.thumb_func
 223              	tud_cdc_n_ready:
 224              	.LVL11:
 225              	.LFB119:
 140:lib/TinyUSB/src/class/cdc/cdc_device.c **** 
 141:lib/TinyUSB/src/class/cdc/cdc_device.c **** bool tud_cdc_n_ready(uint8_t itf) {
 226              		.loc 1 141 35 is_stmt 1 view -0
 227              		.cfi_startproc
 228              		@ args = 0, pretend = 0, frame = 0
 229              		@ frame_needed = 0, uses_anonymous_args = 0
 142:lib/TinyUSB/src/class/cdc/cdc_device.c ****   TU_VERIFY(itf < CFG_TUD_CDC);
 230              		.loc 1 142 3 view .LVU38
 231              		.loc 1 142 3 view .LVU39
 232 0000 08B1     		cbz	r0, .L26
 233 0002 0020     		movs	r0, #0
 234              	.LVL12:
 143:lib/TinyUSB/src/class/cdc/cdc_device.c ****   TU_VERIFY(tud_ready());
 144:lib/TinyUSB/src/class/cdc/cdc_device.c ****   const cdcd_interface_t *p_cdc = &_cdcd_itf[itf];
 145:lib/TinyUSB/src/class/cdc/cdc_device.c **** 
 146:lib/TinyUSB/src/class/cdc/cdc_device.c ****   const bool in_opened  = tu_edpt_stream_is_opened(&p_cdc->tx_stream);
 147:lib/TinyUSB/src/class/cdc/cdc_device.c ****   const bool out_opened = tu_edpt_stream_is_opened(&p_cdc->rx_stream);
 148:lib/TinyUSB/src/class/cdc/cdc_device.c ****   return in_opened && out_opened;
 149:lib/TinyUSB/src/class/cdc/cdc_device.c **** }
 235              		.loc 1 149 1 is_stmt 0 view .LVU40
 236 0004 7047     		bx	lr
 237              	.LVL13:
 238              	.L26:
 141:lib/TinyUSB/src/class/cdc/cdc_device.c ****   TU_VERIFY(itf < CFG_TUD_CDC);
 239              		.loc 1 141 35 view .LVU41
 240 0006 38B5     		push	{r3, r4, r5, lr}
 241              	.LCFI0:
 242              		.cfi_def_cfa_offset 16
 243              		.cfi_offset 3, -16
 244              		.cfi_offset 4, -12
 245              		.cfi_offset 5, -8
 246              		.cfi_offset 14, -4
 247 0008 0546     		mov	r5, r0
 142:lib/TinyUSB/src/class/cdc/cdc_device.c ****   TU_VERIFY(itf < CFG_TUD_CDC);
 248              		.loc 1 142 3 is_stmt 1 view .LVU42
 143:lib/TinyUSB/src/class/cdc/cdc_device.c ****   TU_VERIFY(tud_ready());
 249              		.loc 1 143 3 view .LVU43
 143:lib/TinyUSB/src/class/cdc/cdc_device.c ****   TU_VERIFY(tud_ready());
 250              		.loc 1 143 3 view .LVU44
 251              	.LBB129:
 252              	.LBI129:
 253              		.file 2 "lib/TinyUSB/src/device/usbd.h"
   1:lib/TinyUSB/src/device/usbd.h **** /*
   2:lib/TinyUSB/src/device/usbd.h ****  * The MIT License (MIT)
   3:lib/TinyUSB/src/device/usbd.h ****  *
   4:lib/TinyUSB/src/device/usbd.h ****  * Copyright (c) 2019 Ha Thach (tinyusb.org)
   5:lib/TinyUSB/src/device/usbd.h ****  *
   6:lib/TinyUSB/src/device/usbd.h ****  * Permission is hereby granted, free of charge, to any person obtaining a copy
   7:lib/TinyUSB/src/device/usbd.h ****  * of this software and associated documentation files (the "Software"), to deal
   8:lib/TinyUSB/src/device/usbd.h ****  * in the Software without restriction, including without limitation the rights
   9:lib/TinyUSB/src/device/usbd.h ****  * to use, copy, modify, merge, publish, distribute, sublicense, and/or sell
ARM GAS  C:\Users\krisa\AppData\Local\Temp\ccoeKVOr.s 			page 8


  10:lib/TinyUSB/src/device/usbd.h ****  * copies of the Software, and to permit persons to whom the Software is
  11:lib/TinyUSB/src/device/usbd.h ****  * furnished to do so, subject to the following conditions:
  12:lib/TinyUSB/src/device/usbd.h ****  *
  13:lib/TinyUSB/src/device/usbd.h ****  * The above copyright notice and this permission notice shall be included in
  14:lib/TinyUSB/src/device/usbd.h ****  * all copies or substantial portions of the Software.
  15:lib/TinyUSB/src/device/usbd.h ****  *
  16:lib/TinyUSB/src/device/usbd.h ****  * THE SOFTWARE IS PROVIDED "AS IS", WITHOUT WARRANTY OF ANY KIND, EXPRESS OR
  17:lib/TinyUSB/src/device/usbd.h ****  * IMPLIED, INCLUDING BUT NOT LIMITED TO THE WARRANTIES OF MERCHANTABILITY,
  18:lib/TinyUSB/src/device/usbd.h ****  * FITNESS FOR A PARTICULAR PURPOSE AND NONINFRINGEMENT. IN NO EVENT SHALL THE
  19:lib/TinyUSB/src/device/usbd.h ****  * AUTHORS OR COPYRIGHT HOLDERS BE LIABLE FOR ANY CLAIM, DAMAGES OR OTHER
  20:lib/TinyUSB/src/device/usbd.h ****  * LIABILITY, WHETHER IN AN ACTION OF CONTRACT, TORT OR OTHERWISE, ARISING FROM,
  21:lib/TinyUSB/src/device/usbd.h ****  * OUT OF OR IN CONNECTION WITH THE SOFTWARE OR THE USE OR OTHER DEALINGS IN
  22:lib/TinyUSB/src/device/usbd.h ****  * THE SOFTWARE.
  23:lib/TinyUSB/src/device/usbd.h ****  *
  24:lib/TinyUSB/src/device/usbd.h ****  * This file is part of the TinyUSB stack.
  25:lib/TinyUSB/src/device/usbd.h ****  */
  26:lib/TinyUSB/src/device/usbd.h **** 
  27:lib/TinyUSB/src/device/usbd.h **** #ifndef TUSB_USBD_H_
  28:lib/TinyUSB/src/device/usbd.h **** #define TUSB_USBD_H_
  29:lib/TinyUSB/src/device/usbd.h **** 
  30:lib/TinyUSB/src/device/usbd.h **** #include "common/tusb_common.h"
  31:lib/TinyUSB/src/device/usbd.h **** 
  32:lib/TinyUSB/src/device/usbd.h **** #ifdef __cplusplus
  33:lib/TinyUSB/src/device/usbd.h **** extern "C" {
  34:lib/TinyUSB/src/device/usbd.h **** #endif
  35:lib/TinyUSB/src/device/usbd.h **** 
  36:lib/TinyUSB/src/device/usbd.h **** // ConfigID for tud_configure()
  37:lib/TinyUSB/src/device/usbd.h **** enum {
  38:lib/TinyUSB/src/device/usbd.h ****   TUD_CFGID_INVALID = 0,
  39:lib/TinyUSB/src/device/usbd.h ****   TUD_CFGID_DWC2 = 100,
  40:lib/TinyUSB/src/device/usbd.h **** };
  41:lib/TinyUSB/src/device/usbd.h **** 
  42:lib/TinyUSB/src/device/usbd.h **** typedef struct {
  43:lib/TinyUSB/src/device/usbd.h ****   uint16_t bm_double_buffered; // bitmap of IN endpoints to be double buffered, only effective for 
  44:lib/TinyUSB/src/device/usbd.h **** } tud_configure_dwc2_t;
  45:lib/TinyUSB/src/device/usbd.h **** 
  46:lib/TinyUSB/src/device/usbd.h **** typedef union {
  47:lib/TinyUSB/src/device/usbd.h ****   tud_configure_dwc2_t dwc2;
  48:lib/TinyUSB/src/device/usbd.h **** } tud_configure_param_t;
  49:lib/TinyUSB/src/device/usbd.h **** 
  50:lib/TinyUSB/src/device/usbd.h **** //--------------------------------------------------------------------+
  51:lib/TinyUSB/src/device/usbd.h **** // Application API
  52:lib/TinyUSB/src/device/usbd.h **** //--------------------------------------------------------------------+
  53:lib/TinyUSB/src/device/usbd.h **** 
  54:lib/TinyUSB/src/device/usbd.h **** // Configure device stack behavior with dynamic or port-specific parameters.
  55:lib/TinyUSB/src/device/usbd.h **** // Should be called before initialization of the device stack
  56:lib/TinyUSB/src/device/usbd.h **** // - cfg_id   : configure ID from TUD_CFGID_* enum values
  57:lib/TinyUSB/src/device/usbd.h **** // - cfg_param: configure data, structure depends on the ID
  58:lib/TinyUSB/src/device/usbd.h **** bool tud_configure(uint8_t rhport, uint32_t cfg_id, const void* cfg_param);
  59:lib/TinyUSB/src/device/usbd.h **** 
  60:lib/TinyUSB/src/device/usbd.h **** // New API to replace tud_init() to init device stack on specific roothub port
  61:lib/TinyUSB/src/device/usbd.h **** bool tud_rhport_init(uint8_t rhport, const tusb_rhport_init_t* rh_init);
  62:lib/TinyUSB/src/device/usbd.h **** 
  63:lib/TinyUSB/src/device/usbd.h **** // Init device stack on roothub port
  64:lib/TinyUSB/src/device/usbd.h **** #if TUSB_VERSION_NUMBER > 2000  // 0.20.0
  65:lib/TinyUSB/src/device/usbd.h **** TU_ATTR_DEPRECATED("Please use tusb_init(rhport, rh_init) instead")
  66:lib/TinyUSB/src/device/usbd.h **** #endif
ARM GAS  C:\Users\krisa\AppData\Local\Temp\ccoeKVOr.s 			page 9


  67:lib/TinyUSB/src/device/usbd.h **** TU_ATTR_ALWAYS_INLINE static inline bool tud_init (uint8_t rhport) {
  68:lib/TinyUSB/src/device/usbd.h ****   const tusb_rhport_init_t rh_init = {
  69:lib/TinyUSB/src/device/usbd.h ****     .role = TUSB_ROLE_DEVICE,
  70:lib/TinyUSB/src/device/usbd.h ****     .speed = TUD_OPT_HIGH_SPEED ? TUSB_SPEED_HIGH : TUSB_SPEED_FULL
  71:lib/TinyUSB/src/device/usbd.h ****   };
  72:lib/TinyUSB/src/device/usbd.h ****   return tud_rhport_init(rhport, &rh_init);
  73:lib/TinyUSB/src/device/usbd.h **** }
  74:lib/TinyUSB/src/device/usbd.h **** 
  75:lib/TinyUSB/src/device/usbd.h **** // Deinit device stack on roothub port
  76:lib/TinyUSB/src/device/usbd.h **** bool tud_deinit(uint8_t rhport);
  77:lib/TinyUSB/src/device/usbd.h **** 
  78:lib/TinyUSB/src/device/usbd.h **** // Check if device stack is already initialized
  79:lib/TinyUSB/src/device/usbd.h **** bool tud_inited(void);
  80:lib/TinyUSB/src/device/usbd.h **** 
  81:lib/TinyUSB/src/device/usbd.h **** // Task function should be called in main/rtos loop, extended version of tud_task()
  82:lib/TinyUSB/src/device/usbd.h **** // - timeout_ms: millisecond to wait, zero = no wait, 0xFFFFFFFF = wait forever
  83:lib/TinyUSB/src/device/usbd.h **** // - in_isr: if function is called in ISR
  84:lib/TinyUSB/src/device/usbd.h **** void tud_task_ext(uint32_t timeout_ms, bool in_isr);
  85:lib/TinyUSB/src/device/usbd.h **** 
  86:lib/TinyUSB/src/device/usbd.h **** // Task function should be called in main/rtos loop
  87:lib/TinyUSB/src/device/usbd.h **** TU_ATTR_ALWAYS_INLINE static inline
  88:lib/TinyUSB/src/device/usbd.h **** void tud_task (void) {
  89:lib/TinyUSB/src/device/usbd.h ****   tud_task_ext(UINT32_MAX, false);
  90:lib/TinyUSB/src/device/usbd.h **** }
  91:lib/TinyUSB/src/device/usbd.h **** 
  92:lib/TinyUSB/src/device/usbd.h **** // Check if there is pending events need processing by tud_task()
  93:lib/TinyUSB/src/device/usbd.h **** bool tud_task_event_ready(void);
  94:lib/TinyUSB/src/device/usbd.h **** 
  95:lib/TinyUSB/src/device/usbd.h **** #ifndef TUSB_DCD_H_
  96:lib/TinyUSB/src/device/usbd.h **** extern void dcd_int_handler(uint8_t rhport);
  97:lib/TinyUSB/src/device/usbd.h **** #endif
  98:lib/TinyUSB/src/device/usbd.h **** 
  99:lib/TinyUSB/src/device/usbd.h **** // Interrupt handler, name alias to DCD
 100:lib/TinyUSB/src/device/usbd.h **** #define tud_int_handler   dcd_int_handler
 101:lib/TinyUSB/src/device/usbd.h **** 
 102:lib/TinyUSB/src/device/usbd.h **** // Get current bus speed
 103:lib/TinyUSB/src/device/usbd.h **** tusb_speed_t tud_speed_get(void);
 104:lib/TinyUSB/src/device/usbd.h **** 
 105:lib/TinyUSB/src/device/usbd.h **** // Check if device is connected (may not mounted/configured yet)
 106:lib/TinyUSB/src/device/usbd.h **** // True if just got out of Bus Reset and received the very first data from host
 107:lib/TinyUSB/src/device/usbd.h **** bool tud_connected(void);
 108:lib/TinyUSB/src/device/usbd.h **** 
 109:lib/TinyUSB/src/device/usbd.h **** // Check if device is connected and configured
 110:lib/TinyUSB/src/device/usbd.h **** bool tud_mounted(void);
 111:lib/TinyUSB/src/device/usbd.h **** 
 112:lib/TinyUSB/src/device/usbd.h **** // Check if device is suspended
 113:lib/TinyUSB/src/device/usbd.h **** bool tud_suspended(void);
 114:lib/TinyUSB/src/device/usbd.h **** 
 115:lib/TinyUSB/src/device/usbd.h **** // Check if device is ready to transfer
 116:lib/TinyUSB/src/device/usbd.h **** TU_ATTR_ALWAYS_INLINE static inline
 117:lib/TinyUSB/src/device/usbd.h **** bool tud_ready(void) {
 254              		.loc 2 117 6 view .LVU45
 255              	.LBB130:
 118:lib/TinyUSB/src/device/usbd.h ****   const bool is_mounted = tud_mounted();
 256              		.loc 2 118 3 view .LVU46
 257              		.loc 2 118 27 is_stmt 0 view .LVU47
 258 000a FFF7FEFF 		bl	tud_mounted
ARM GAS  C:\Users\krisa\AppData\Local\Temp\ccoeKVOr.s 			page 10


 259              	.LVL14:
 260              		.loc 2 118 27 view .LVU48
 261 000e 0446     		mov	r4, r0
 262              	.LVL15:
 119:lib/TinyUSB/src/device/usbd.h ****   const bool is_suspended = tud_suspended();
 263              		.loc 2 119 3 is_stmt 1 view .LVU49
 264              		.loc 2 119 29 is_stmt 0 view .LVU50
 265 0010 FFF7FEFF 		bl	tud_suspended
 266              	.LVL16:
 120:lib/TinyUSB/src/device/usbd.h ****   return is_mounted && !is_suspended;
 267              		.loc 2 120 3 is_stmt 1 view .LVU51
 268              		.loc 2 120 21 is_stmt 0 view .LVU52
 269 0014 14B1     		cbz	r4, .L18
 270 0016 78B1     		cbz	r0, .L19
 271 0018 0023     		movs	r3, #0
 272 001a 00E0     		b	.L15
 273              	.L18:
 274 001c 0023     		movs	r3, #0
 275              	.L15:
 276              	.LVL17:
 277              		.loc 2 120 21 view .LVU53
 278              	.LBE130:
 279              	.LBE129:
 143:lib/TinyUSB/src/class/cdc/cdc_device.c ****   const cdcd_interface_t *p_cdc = &_cdcd_itf[itf];
 280              		.loc 1 143 3 view .LVU54
 281 001e 1846     		mov	r0, r3
 282 0020 6BB1     		cbz	r3, .L14
 143:lib/TinyUSB/src/class/cdc/cdc_device.c ****   const cdcd_interface_t *p_cdc = &_cdcd_itf[itf];
 283              		.loc 1 143 3 is_stmt 1 discriminator 2 view .LVU55
 144:lib/TinyUSB/src/class/cdc/cdc_device.c **** 
 284              		.loc 1 144 3 discriminator 2 view .LVU56
 285              	.LVL18:
 146:lib/TinyUSB/src/class/cdc/cdc_device.c ****   const bool out_opened = tu_edpt_stream_is_opened(&p_cdc->rx_stream);
 286              		.loc 1 146 3 discriminator 2 view .LVU57
 287              	.LBB132:
 288              	.LBI132:
 289              		.file 3 "lib/TinyUSB/src/common/tusb_private.h"
   1:lib/TinyUSB/src/common/tusb_private.h **** /*
   2:lib/TinyUSB/src/common/tusb_private.h ****  * The MIT License (MIT)
   3:lib/TinyUSB/src/common/tusb_private.h ****  *
   4:lib/TinyUSB/src/common/tusb_private.h ****  * Copyright (c) 2022, Ha Thach (tinyusb.org)
   5:lib/TinyUSB/src/common/tusb_private.h ****  *
   6:lib/TinyUSB/src/common/tusb_private.h ****  * Permission is hereby granted, free of charge, to any person obtaining a copy
   7:lib/TinyUSB/src/common/tusb_private.h ****  * of this software and associated documentation files (the "Software"), to deal
   8:lib/TinyUSB/src/common/tusb_private.h ****  * in the Software without restriction, including without limitation the rights
   9:lib/TinyUSB/src/common/tusb_private.h ****  * to use, copy, modify, merge, publish, distribute, sublicense, and/or sell
  10:lib/TinyUSB/src/common/tusb_private.h ****  * copies of the Software, and to permit persons to whom the Software is
  11:lib/TinyUSB/src/common/tusb_private.h ****  * furnished to do so, subject to the following conditions:
  12:lib/TinyUSB/src/common/tusb_private.h ****  *
  13:lib/TinyUSB/src/common/tusb_private.h ****  * The above copyright notice and this permission notice shall be included in
  14:lib/TinyUSB/src/common/tusb_private.h ****  * all copies or substantial portions of the Software.
  15:lib/TinyUSB/src/common/tusb_private.h ****  *
  16:lib/TinyUSB/src/common/tusb_private.h ****  * THE SOFTWARE IS PROVIDED "AS IS", WITHOUT WARRANTY OF ANY KIND, EXPRESS OR
  17:lib/TinyUSB/src/common/tusb_private.h ****  * IMPLIED, INCLUDING BUT NOT LIMITED TO THE WARRANTIES OF MERCHANTABILITY,
  18:lib/TinyUSB/src/common/tusb_private.h ****  * FITNESS FOR A PARTICULAR PURPOSE AND NONINFRINGEMENT. IN NO EVENT SHALL THE
  19:lib/TinyUSB/src/common/tusb_private.h ****  * AUTHORS OR COPYRIGHT HOLDERS BE LIABLE FOR ANY CLAIM, DAMAGES OR OTHER
  20:lib/TinyUSB/src/common/tusb_private.h ****  * LIABILITY, WHETHER IN AN ACTION OF CONTRACT, TORT OR OTHERWISE, ARISING FROM,
ARM GAS  C:\Users\krisa\AppData\Local\Temp\ccoeKVOr.s 			page 11


  21:lib/TinyUSB/src/common/tusb_private.h ****  * OUT OF OR IN CONNECTION WITH THE SOFTWARE OR THE USE OR OTHER DEALINGS IN
  22:lib/TinyUSB/src/common/tusb_private.h ****  * THE SOFTWARE.
  23:lib/TinyUSB/src/common/tusb_private.h ****  *
  24:lib/TinyUSB/src/common/tusb_private.h ****  * This file is part of the TinyUSB stack.
  25:lib/TinyUSB/src/common/tusb_private.h ****  */
  26:lib/TinyUSB/src/common/tusb_private.h **** 
  27:lib/TinyUSB/src/common/tusb_private.h **** #ifndef TUSB_PRIVATE_H_
  28:lib/TinyUSB/src/common/tusb_private.h **** #define TUSB_PRIVATE_H_
  29:lib/TinyUSB/src/common/tusb_private.h **** 
  30:lib/TinyUSB/src/common/tusb_private.h **** // Internal Helper used by Host and Device Stack
  31:lib/TinyUSB/src/common/tusb_private.h **** 
  32:lib/TinyUSB/src/common/tusb_private.h **** #ifdef __cplusplus
  33:lib/TinyUSB/src/common/tusb_private.h ****  extern "C" {
  34:lib/TinyUSB/src/common/tusb_private.h **** #endif
  35:lib/TinyUSB/src/common/tusb_private.h **** 
  36:lib/TinyUSB/src/common/tusb_private.h **** //--------------------------------------------------------------------+
  37:lib/TinyUSB/src/common/tusb_private.h **** // Configuration
  38:lib/TinyUSB/src/common/tusb_private.h **** //--------------------------------------------------------------------+
  39:lib/TinyUSB/src/common/tusb_private.h **** 
  40:lib/TinyUSB/src/common/tusb_private.h **** #if CFG_TUD_ENABLED && CFG_TUD_VENDOR && (CFG_TUD_VENDOR_TX_BUFSIZE == 0 || CFG_TUD_VENDOR_RX_BUFSI
  41:lib/TinyUSB/src/common/tusb_private.h ****   #define CFG_TUSB_EDPT_STREAM_NO_FIFO_ENABLED 1
  42:lib/TinyUSB/src/common/tusb_private.h **** #endif
  43:lib/TinyUSB/src/common/tusb_private.h **** 
  44:lib/TinyUSB/src/common/tusb_private.h **** #ifndef CFG_TUSB_EDPT_STREAM_NO_FIFO_ENABLED
  45:lib/TinyUSB/src/common/tusb_private.h ****   #define CFG_TUSB_EDPT_STREAM_NO_FIFO_ENABLED 0
  46:lib/TinyUSB/src/common/tusb_private.h **** #endif
  47:lib/TinyUSB/src/common/tusb_private.h **** 
  48:lib/TinyUSB/src/common/tusb_private.h **** #define TUP_USBIP_CONTROLLER_NUM 2
  49:lib/TinyUSB/src/common/tusb_private.h **** extern tusb_role_t _tusb_rhport_role[TUP_USBIP_CONTROLLER_NUM];
  50:lib/TinyUSB/src/common/tusb_private.h **** 
  51:lib/TinyUSB/src/common/tusb_private.h **** //--------------------------------------------------------------------+
  52:lib/TinyUSB/src/common/tusb_private.h **** // Endpoint
  53:lib/TinyUSB/src/common/tusb_private.h **** //--------------------------------------------------------------------+
  54:lib/TinyUSB/src/common/tusb_private.h **** 
  55:lib/TinyUSB/src/common/tusb_private.h **** enum {
  56:lib/TinyUSB/src/common/tusb_private.h ****  TU_EDPT_STATE_BUSY    = 0x01,
  57:lib/TinyUSB/src/common/tusb_private.h ****  TU_EDPT_STATE_STALLED = 0x02,
  58:lib/TinyUSB/src/common/tusb_private.h ****  TU_EDPT_STATE_CLAIMED = 0x04,
  59:lib/TinyUSB/src/common/tusb_private.h **** };
  60:lib/TinyUSB/src/common/tusb_private.h **** 
  61:lib/TinyUSB/src/common/tusb_private.h **** typedef struct TU_ATTR_PACKED {
  62:lib/TinyUSB/src/common/tusb_private.h ****   volatile uint8_t busy    : 1;
  63:lib/TinyUSB/src/common/tusb_private.h ****   volatile uint8_t stalled : 1;
  64:lib/TinyUSB/src/common/tusb_private.h ****   volatile uint8_t claimed : 1;
  65:lib/TinyUSB/src/common/tusb_private.h **** } tu_edpt_state_t;
  66:lib/TinyUSB/src/common/tusb_private.h **** 
  67:lib/TinyUSB/src/common/tusb_private.h **** typedef struct {
  68:lib/TinyUSB/src/common/tusb_private.h ****   uint8_t  hwid;    // device: rhport, host: daddr
  69:lib/TinyUSB/src/common/tusb_private.h ****   bool     is_host; // 1: host, 0: device
  70:lib/TinyUSB/src/common/tusb_private.h ****   uint8_t ep_addr;
  71:lib/TinyUSB/src/common/tusb_private.h ****   uint16_t mps;
  72:lib/TinyUSB/src/common/tusb_private.h **** 
  73:lib/TinyUSB/src/common/tusb_private.h ****   uint16_t ep_bufsize;
  74:lib/TinyUSB/src/common/tusb_private.h ****   uint8_t  *ep_buf; // set to NULL to use xfer_fifo when CFG_TUD_EDPT_DEDICATED_HWFIFO = 1
  75:lib/TinyUSB/src/common/tusb_private.h ****   tu_fifo_t ff;
  76:lib/TinyUSB/src/common/tusb_private.h **** 
  77:lib/TinyUSB/src/common/tusb_private.h ****   // mutex: read if rx, otherwise write
ARM GAS  C:\Users\krisa\AppData\Local\Temp\ccoeKVOr.s 			page 12


  78:lib/TinyUSB/src/common/tusb_private.h ****   OSAL_MUTEX_DEF(ff_mutexdef);
  79:lib/TinyUSB/src/common/tusb_private.h **** }tu_edpt_stream_t;
  80:lib/TinyUSB/src/common/tusb_private.h **** 
  81:lib/TinyUSB/src/common/tusb_private.h **** //--------------------------------------------------------------------+
  82:lib/TinyUSB/src/common/tusb_private.h **** // Endpoint
  83:lib/TinyUSB/src/common/tusb_private.h **** //--------------------------------------------------------------------+
  84:lib/TinyUSB/src/common/tusb_private.h **** 
  85:lib/TinyUSB/src/common/tusb_private.h **** // Check if endpoint descriptor is valid per USB specs if debug is enabled
  86:lib/TinyUSB/src/common/tusb_private.h **** #if CFG_TUSB_DEBUG
  87:lib/TinyUSB/src/common/tusb_private.h **** bool tu_edpt_validate(const tusb_desc_endpoint_t *desc_ep, tusb_speed_t speed);
  88:lib/TinyUSB/src/common/tusb_private.h **** #else
  89:lib/TinyUSB/src/common/tusb_private.h **** TU_ATTR_ALWAYS_INLINE static inline bool tu_edpt_validate(const tusb_desc_endpoint_t *desc_ep, tusb
  90:lib/TinyUSB/src/common/tusb_private.h ****   (void)desc_ep;
  91:lib/TinyUSB/src/common/tusb_private.h ****   (void)speed;
  92:lib/TinyUSB/src/common/tusb_private.h ****   return true;
  93:lib/TinyUSB/src/common/tusb_private.h **** }
  94:lib/TinyUSB/src/common/tusb_private.h **** #endif
  95:lib/TinyUSB/src/common/tusb_private.h **** 
  96:lib/TinyUSB/src/common/tusb_private.h **** // Bind drivers to all interfaces and endpoints in the provided configuration descriptor
  97:lib/TinyUSB/src/common/tusb_private.h **** bool tu_bind_driver_to_ep_itf(uint8_t driver_id, uint8_t ep2drv[][2], uint8_t itf2drv[], uint8_t it
  98:lib/TinyUSB/src/common/tusb_private.h ****                               const uint8_t *p_desc, uint16_t desc_len);
  99:lib/TinyUSB/src/common/tusb_private.h **** 
 100:lib/TinyUSB/src/common/tusb_private.h **** // Claim an endpoint with provided mutex
 101:lib/TinyUSB/src/common/tusb_private.h **** bool tu_edpt_claim(tu_edpt_state_t* ep_state, osal_mutex_t mutex);
 102:lib/TinyUSB/src/common/tusb_private.h **** 
 103:lib/TinyUSB/src/common/tusb_private.h **** // Release an endpoint with provided mutex
 104:lib/TinyUSB/src/common/tusb_private.h **** bool tu_edpt_release(tu_edpt_state_t* ep_state, osal_mutex_t mutex);
 105:lib/TinyUSB/src/common/tusb_private.h **** 
 106:lib/TinyUSB/src/common/tusb_private.h **** //--------------------------------------------------------------------+
 107:lib/TinyUSB/src/common/tusb_private.h **** // Endpoint Stream
 108:lib/TinyUSB/src/common/tusb_private.h **** //--------------------------------------------------------------------+
 109:lib/TinyUSB/src/common/tusb_private.h **** 
 110:lib/TinyUSB/src/common/tusb_private.h **** // Init an endpoint stream
 111:lib/TinyUSB/src/common/tusb_private.h **** bool tu_edpt_stream_init(tu_edpt_stream_t *s, bool is_host, bool is_tx, bool overwritable, void *ff
 112:lib/TinyUSB/src/common/tusb_private.h ****                          uint16_t ff_bufsize, uint8_t *ep_buf, uint16_t ep_bufsize);
 113:lib/TinyUSB/src/common/tusb_private.h **** 
 114:lib/TinyUSB/src/common/tusb_private.h **** // Deinit an endpoint stream
 115:lib/TinyUSB/src/common/tusb_private.h **** TU_ATTR_ALWAYS_INLINE static inline void tu_edpt_stream_deinit(tu_edpt_stream_t *s) {
 116:lib/TinyUSB/src/common/tusb_private.h ****   (void)s;
 117:lib/TinyUSB/src/common/tusb_private.h **** #if OSAL_MUTEX_REQUIRED
 118:lib/TinyUSB/src/common/tusb_private.h ****   if (s->ff.mutex_wr) {
 119:lib/TinyUSB/src/common/tusb_private.h ****     osal_mutex_delete(s->ff.mutex_wr);
 120:lib/TinyUSB/src/common/tusb_private.h ****   }
 121:lib/TinyUSB/src/common/tusb_private.h ****   if (s->ff.mutex_rd) {
 122:lib/TinyUSB/src/common/tusb_private.h ****     osal_mutex_delete(s->ff.mutex_rd);
 123:lib/TinyUSB/src/common/tusb_private.h ****   }
 124:lib/TinyUSB/src/common/tusb_private.h **** #endif
 125:lib/TinyUSB/src/common/tusb_private.h **** }
 126:lib/TinyUSB/src/common/tusb_private.h **** 
 127:lib/TinyUSB/src/common/tusb_private.h **** // Open an endpoint stream
 128:lib/TinyUSB/src/common/tusb_private.h **** TU_ATTR_ALWAYS_INLINE static inline void tu_edpt_stream_open(tu_edpt_stream_t *s, uint8_t hwid,
 129:lib/TinyUSB/src/common/tusb_private.h ****                                                              const tusb_desc_endpoint_t *desc_ep) {
 130:lib/TinyUSB/src/common/tusb_private.h ****   s->hwid    = hwid;
 131:lib/TinyUSB/src/common/tusb_private.h ****   s->ep_addr = desc_ep->bEndpointAddress;
 132:lib/TinyUSB/src/common/tusb_private.h ****   s->mps = tu_edpt_packet_size(desc_ep);
 133:lib/TinyUSB/src/common/tusb_private.h **** }
 134:lib/TinyUSB/src/common/tusb_private.h **** 
ARM GAS  C:\Users\krisa\AppData\Local\Temp\ccoeKVOr.s 			page 13


 135:lib/TinyUSB/src/common/tusb_private.h **** TU_ATTR_ALWAYS_INLINE static inline bool tu_edpt_stream_is_opened(const tu_edpt_stream_t *s) {
 290              		.loc 3 135 42 discriminator 2 view .LVU58
 291              	.LBB133:
 136:lib/TinyUSB/src/common/tusb_private.h ****   return s->ep_addr != 0;
 292              		.loc 3 136 3 discriminator 2 view .LVU59
 293              		.loc 3 136 11 is_stmt 0 discriminator 2 view .LVU60
 294 0022 084B     		ldr	r3, .L27
 295 0024 BC22     		movs	r2, #188
 296 0026 02FB0533 		mla	r3, r2, r5, r3
 297 002a 9A7B     		ldrb	r2, [r3, #14]	@ zero_extendqisi2
 298              	.LVL19:
 299              		.loc 3 136 11 discriminator 2 view .LVU61
 300              	.LBE133:
 301              	.LBE132:
 147:lib/TinyUSB/src/class/cdc/cdc_device.c ****   return in_opened && out_opened;
 302              		.loc 1 147 3 is_stmt 1 discriminator 2 view .LVU62
 303              	.LBB134:
 304              	.LBI134:
 135:lib/TinyUSB/src/common/tusb_private.h ****   return s->ep_addr != 0;
 305              		.loc 3 135 42 discriminator 2 view .LVU63
 306              	.LBB135:
 307              		.loc 3 136 3 discriminator 2 view .LVU64
 308              		.loc 3 136 11 is_stmt 0 discriminator 2 view .LVU65
 309 002c 93F82630 		ldrb	r3, [r3, #38]	@ zero_extendqisi2
 310              	.LVL20:
 311              		.loc 3 136 11 discriminator 2 view .LVU66
 312              	.LBE135:
 313              	.LBE134:
 148:lib/TinyUSB/src/class/cdc/cdc_device.c **** }
 314              		.loc 1 148 3 is_stmt 1 discriminator 2 view .LVU67
 148:lib/TinyUSB/src/class/cdc/cdc_device.c **** }
 315              		.loc 1 148 20 is_stmt 0 discriminator 2 view .LVU68
 316 0030 22B1     		cbz	r2, .L20
 148:lib/TinyUSB/src/class/cdc/cdc_device.c **** }
 317              		.loc 1 148 20 discriminator 1 view .LVU69
 318 0032 2BB9     		cbnz	r3, .L21
 148:lib/TinyUSB/src/class/cdc/cdc_device.c **** }
 319              		.loc 1 148 20 view .LVU70
 320 0034 0020     		movs	r0, #0
 321 0036 02E0     		b	.L14
 322              	.LVL21:
 323              	.L19:
 324              	.LBB136:
 325              	.LBB131:
 326              		.loc 2 120 21 view .LVU71
 327 0038 0123     		movs	r3, #1
 328 003a F0E7     		b	.L15
 329              	.LVL22:
 330              	.L20:
 331              		.loc 2 120 21 view .LVU72
 332              	.LBE131:
 333              	.LBE136:
 148:lib/TinyUSB/src/class/cdc/cdc_device.c **** }
 334              		.loc 1 148 20 view .LVU73
 335 003c 0020     		movs	r0, #0
 336              	.LVL23:
 337              	.L14:
ARM GAS  C:\Users\krisa\AppData\Local\Temp\ccoeKVOr.s 			page 14


 338              		.loc 1 149 1 view .LVU74
 339 003e 38BD     		pop	{r3, r4, r5, pc}
 340              	.LVL24:
 341              	.L21:
 148:lib/TinyUSB/src/class/cdc/cdc_device.c **** }
 342              		.loc 1 148 20 view .LVU75
 343 0040 0120     		movs	r0, #1
 344 0042 FCE7     		b	.L14
 345              	.L28:
 346              		.align	2
 347              	.L27:
 348 0044 00000000 		.word	.LANCHOR1
 349              		.cfi_endproc
 350              	.LFE119:
 352              		.section	.text.tud_cdc_n_connected,"ax",%progbits
 353              		.align	1
 354              		.global	tud_cdc_n_connected
 355              		.syntax unified
 356              		.thumb
 357              		.thumb_func
 359              	tud_cdc_n_connected:
 360              	.LVL25:
 361              	.LFB120:
 150:lib/TinyUSB/src/class/cdc/cdc_device.c **** 
 151:lib/TinyUSB/src/class/cdc/cdc_device.c **** bool tud_cdc_n_connected(uint8_t itf) {
 362              		.loc 1 151 39 is_stmt 1 view -0
 363              		.cfi_startproc
 364              		@ args = 0, pretend = 0, frame = 0
 365              		@ frame_needed = 0, uses_anonymous_args = 0
 152:lib/TinyUSB/src/class/cdc/cdc_device.c ****   TU_VERIFY(itf < CFG_TUD_CDC);
 366              		.loc 1 152 3 view .LVU77
 367              		.loc 1 152 3 view .LVU78
 368 0000 08B1     		cbz	r0, .L39
 369 0002 0020     		movs	r0, #0
 370              	.LVL26:
 153:lib/TinyUSB/src/class/cdc/cdc_device.c ****   TU_VERIFY(tud_ready());
 154:lib/TinyUSB/src/class/cdc/cdc_device.c ****   // DTR (bit 0) active  is considered as connected
 155:lib/TinyUSB/src/class/cdc/cdc_device.c ****   return tu_bit_test(_cdcd_itf[itf].line_state, 0);
 156:lib/TinyUSB/src/class/cdc/cdc_device.c **** }
 371              		.loc 1 156 1 is_stmt 0 view .LVU79
 372 0004 7047     		bx	lr
 373              	.LVL27:
 374              	.L39:
 151:lib/TinyUSB/src/class/cdc/cdc_device.c ****   TU_VERIFY(itf < CFG_TUD_CDC);
 375              		.loc 1 151 39 view .LVU80
 376 0006 38B5     		push	{r3, r4, r5, lr}
 377              	.LCFI1:
 378              		.cfi_def_cfa_offset 16
 379              		.cfi_offset 3, -16
 380              		.cfi_offset 4, -12
 381              		.cfi_offset 5, -8
 382              		.cfi_offset 14, -4
 383 0008 0546     		mov	r5, r0
 152:lib/TinyUSB/src/class/cdc/cdc_device.c ****   TU_VERIFY(itf < CFG_TUD_CDC);
 384              		.loc 1 152 3 is_stmt 1 view .LVU81
 153:lib/TinyUSB/src/class/cdc/cdc_device.c ****   TU_VERIFY(tud_ready());
 385              		.loc 1 153 3 view .LVU82
ARM GAS  C:\Users\krisa\AppData\Local\Temp\ccoeKVOr.s 			page 15


 153:lib/TinyUSB/src/class/cdc/cdc_device.c ****   TU_VERIFY(tud_ready());
 386              		.loc 1 153 3 view .LVU83
 387              	.LBB137:
 388              	.LBI137:
 117:lib/TinyUSB/src/device/usbd.h ****   const bool is_mounted = tud_mounted();
 389              		.loc 2 117 6 view .LVU84
 390              	.LBB138:
 118:lib/TinyUSB/src/device/usbd.h ****   const bool is_suspended = tud_suspended();
 391              		.loc 2 118 3 view .LVU85
 118:lib/TinyUSB/src/device/usbd.h ****   const bool is_suspended = tud_suspended();
 392              		.loc 2 118 27 is_stmt 0 view .LVU86
 393 000a FFF7FEFF 		bl	tud_mounted
 394              	.LVL28:
 118:lib/TinyUSB/src/device/usbd.h ****   const bool is_suspended = tud_suspended();
 395              		.loc 2 118 27 view .LVU87
 396 000e 0446     		mov	r4, r0
 397              	.LVL29:
 119:lib/TinyUSB/src/device/usbd.h ****   return is_mounted && !is_suspended;
 398              		.loc 2 119 3 is_stmt 1 view .LVU88
 119:lib/TinyUSB/src/device/usbd.h ****   return is_mounted && !is_suspended;
 399              		.loc 2 119 29 is_stmt 0 view .LVU89
 400 0010 FFF7FEFF 		bl	tud_suspended
 401              	.LVL30:
 402              		.loc 2 120 3 is_stmt 1 view .LVU90
 403              		.loc 2 120 21 is_stmt 0 view .LVU91
 404 0014 14B1     		cbz	r4, .L33
 405 0016 60B1     		cbz	r0, .L34
 406 0018 0023     		movs	r3, #0
 407 001a 00E0     		b	.L31
 408              	.L33:
 409 001c 0023     		movs	r3, #0
 410              	.L31:
 411              	.LVL31:
 412              		.loc 2 120 21 view .LVU92
 413              	.LBE138:
 414              	.LBE137:
 153:lib/TinyUSB/src/class/cdc/cdc_device.c ****   // DTR (bit 0) active  is considered as connected
 415              		.loc 1 153 3 view .LVU93
 416 001e 1846     		mov	r0, r3
 417 0020 33B1     		cbz	r3, .L30
 153:lib/TinyUSB/src/class/cdc/cdc_device.c ****   // DTR (bit 0) active  is considered as connected
 418              		.loc 1 153 3 is_stmt 1 discriminator 2 view .LVU94
 155:lib/TinyUSB/src/class/cdc/cdc_device.c **** }
 419              		.loc 1 155 3 discriminator 2 view .LVU95
 155:lib/TinyUSB/src/class/cdc/cdc_device.c **** }
 420              		.loc 1 155 36 is_stmt 0 discriminator 2 view .LVU96
 421 0022 054B     		ldr	r3, .L40
 422 0024 BC22     		movs	r2, #188
 423 0026 02FB0535 		mla	r5, r2, r5, r3
 424 002a E878     		ldrb	r0, [r5, #3]	@ zero_extendqisi2
 425              	.LVL32:
 426              	.LBB140:
 427              	.LBI140:
 428              		.file 4 "lib/TinyUSB/src/common/tusb_common.h"
   1:lib/TinyUSB/src/common/tusb_common.h **** /*
   2:lib/TinyUSB/src/common/tusb_common.h ****  * The MIT License (MIT)
   3:lib/TinyUSB/src/common/tusb_common.h ****  *
ARM GAS  C:\Users\krisa\AppData\Local\Temp\ccoeKVOr.s 			page 16


   4:lib/TinyUSB/src/common/tusb_common.h ****  * Copyright (c) 2019 Ha Thach (tinyusb.org)
   5:lib/TinyUSB/src/common/tusb_common.h ****  *
   6:lib/TinyUSB/src/common/tusb_common.h ****  * Permission is hereby granted, free of charge, to any person obtaining a copy
   7:lib/TinyUSB/src/common/tusb_common.h ****  * of this software and associated documentation files (the "Software"), to deal
   8:lib/TinyUSB/src/common/tusb_common.h ****  * in the Software without restriction, including without limitation the rights
   9:lib/TinyUSB/src/common/tusb_common.h ****  * to use, copy, modify, merge, publish, distribute, sublicense, and/or sell
  10:lib/TinyUSB/src/common/tusb_common.h ****  * copies of the Software, and to permit persons to whom the Software is
  11:lib/TinyUSB/src/common/tusb_common.h ****  * furnished to do so, subject to the following conditions:
  12:lib/TinyUSB/src/common/tusb_common.h ****  *
  13:lib/TinyUSB/src/common/tusb_common.h ****  * The above copyright notice and this permission notice shall be included in
  14:lib/TinyUSB/src/common/tusb_common.h ****  * all copies or substantial portions of the Software.
  15:lib/TinyUSB/src/common/tusb_common.h ****  *
  16:lib/TinyUSB/src/common/tusb_common.h ****  * THE SOFTWARE IS PROVIDED "AS IS", WITHOUT WARRANTY OF ANY KIND, EXPRESS OR
  17:lib/TinyUSB/src/common/tusb_common.h ****  * IMPLIED, INCLUDING BUT NOT LIMITED TO THE WARRANTIES OF MERCHANTABILITY,
  18:lib/TinyUSB/src/common/tusb_common.h ****  * FITNESS FOR A PARTICULAR PURPOSE AND NONINFRINGEMENT. IN NO EVENT SHALL THE
  19:lib/TinyUSB/src/common/tusb_common.h ****  * AUTHORS OR COPYRIGHT HOLDERS BE LIABLE FOR ANY CLAIM, DAMAGES OR OTHER
  20:lib/TinyUSB/src/common/tusb_common.h ****  * LIABILITY, WHETHER IN AN ACTION OF CONTRACT, TORT OR OTHERWISE, ARISING FROM,
  21:lib/TinyUSB/src/common/tusb_common.h ****  * OUT OF OR IN CONNECTION WITH THE SOFTWARE OR THE USE OR OTHER DEALINGS IN
  22:lib/TinyUSB/src/common/tusb_common.h ****  * THE SOFTWARE.
  23:lib/TinyUSB/src/common/tusb_common.h ****  *
  24:lib/TinyUSB/src/common/tusb_common.h ****  * This file is part of the TinyUSB stack.
  25:lib/TinyUSB/src/common/tusb_common.h ****  */
  26:lib/TinyUSB/src/common/tusb_common.h **** 
  27:lib/TinyUSB/src/common/tusb_common.h **** #ifndef TUSB_COMMON_H_
  28:lib/TinyUSB/src/common/tusb_common.h **** #define TUSB_COMMON_H_
  29:lib/TinyUSB/src/common/tusb_common.h **** 
  30:lib/TinyUSB/src/common/tusb_common.h **** #ifdef __cplusplus
  31:lib/TinyUSB/src/common/tusb_common.h ****  extern "C" {
  32:lib/TinyUSB/src/common/tusb_common.h **** #endif
  33:lib/TinyUSB/src/common/tusb_common.h **** 
  34:lib/TinyUSB/src/common/tusb_common.h **** //--------------------------------------------------------------------+
  35:lib/TinyUSB/src/common/tusb_common.h **** // Macros Helper
  36:lib/TinyUSB/src/common/tusb_common.h **** //--------------------------------------------------------------------+
  37:lib/TinyUSB/src/common/tusb_common.h **** #define TU_ARRAY_SIZE(_arr)           ( sizeof(_arr) / sizeof(_arr[0]) )
  38:lib/TinyUSB/src/common/tusb_common.h **** #define TU_FIELD_SIZE(_type, _field)  (sizeof(((_type *)0)->_field))
  39:lib/TinyUSB/src/common/tusb_common.h **** #define TU_MIN(_x, _y)                ( ( (_x) < (_y) ) ? (_x) : (_y) )
  40:lib/TinyUSB/src/common/tusb_common.h **** #define TU_MAX(_x, _y)                ( ( (_x) > (_y) ) ? (_x) : (_y) )
  41:lib/TinyUSB/src/common/tusb_common.h **** #define TU_DIV_CEIL(n, d)             (((n) + (d) - 1) / (d))
  42:lib/TinyUSB/src/common/tusb_common.h **** #define TU_DIV_ROUND_NEAREST(v, d)    (((v) + (d)/2) / (d) ) // round to nearest integer
  43:lib/TinyUSB/src/common/tusb_common.h **** 
  44:lib/TinyUSB/src/common/tusb_common.h **** #define TU_U16(_high, _low)           ((uint16_t) ((((uint16_t) (_high)) << 8) | ((uint16_t) (_low)
  45:lib/TinyUSB/src/common/tusb_common.h **** #define TU_U16_HIGH(_u16)             ((uint8_t) (((uint16_t) (_u16) >> 8) & 0x00ffu))
  46:lib/TinyUSB/src/common/tusb_common.h **** #define TU_U16_LOW(_u16)              ((uint8_t) ((uint16_t) (_u16) & 0x00ffu))
  47:lib/TinyUSB/src/common/tusb_common.h **** #define U16_TO_U8S_BE(_u16)           TU_U16_HIGH(_u16), TU_U16_LOW(_u16)
  48:lib/TinyUSB/src/common/tusb_common.h **** #define U16_TO_U8S_LE(_u16)           TU_U16_LOW(_u16), TU_U16_HIGH(_u16)
  49:lib/TinyUSB/src/common/tusb_common.h **** 
  50:lib/TinyUSB/src/common/tusb_common.h **** #define TU_U24(_high, _mid, _low)     ((uint32_t) ((((uint32_t) (_high)) << 16) | (((uint32_t) (_mi
  51:lib/TinyUSB/src/common/tusb_common.h **** #define TU_U24_HIGH(_u24)             ((uint8_t) (((uint32_t) (_u24) >> 16) & 0x0000ffu))
  52:lib/TinyUSB/src/common/tusb_common.h **** #define TU_U24_MID(_u24)              ((uint8_t) (((uint32_t) (_u24) >>  8) & 0x0000ffu))
  53:lib/TinyUSB/src/common/tusb_common.h **** #define TU_U24_LOW(_u24)              ((uint8_t) ((uint32_t) (_u24) & 0x0000ffu))
  54:lib/TinyUSB/src/common/tusb_common.h **** #define U24_TO_U8S_BE(_u24)           TU_U24_HIGH(_u24), TU_U24_MID(_u24), TU_U24_LOW(_u24)
  55:lib/TinyUSB/src/common/tusb_common.h **** #define U24_TO_U8S_LE(_u24)           TU_U24_LOW(_u24), TU_U24_MID(_u24), TU_U24_HIGH(_u24)
  56:lib/TinyUSB/src/common/tusb_common.h **** 
  57:lib/TinyUSB/src/common/tusb_common.h **** #define TU_U32_BYTE3(_u32)            ((uint8_t) ((((uint32_t) _u32) >> 24) & 0x000000ff)) // MSB
  58:lib/TinyUSB/src/common/tusb_common.h **** #define TU_U32_BYTE2(_u32)            ((uint8_t) ((((uint32_t) _u32) >> 16) & 0x000000ff))
  59:lib/TinyUSB/src/common/tusb_common.h **** #define TU_U32_BYTE1(_u32)            ((uint8_t) ((((uint32_t) _u32) >>  8) & 0x000000ff))
  60:lib/TinyUSB/src/common/tusb_common.h **** #define TU_U32_BYTE0(_u32)            ((uint8_t) (((uint32_t)  _u32)        & 0x000000ff)) // LSB
ARM GAS  C:\Users\krisa\AppData\Local\Temp\ccoeKVOr.s 			page 17


  61:lib/TinyUSB/src/common/tusb_common.h **** 
  62:lib/TinyUSB/src/common/tusb_common.h **** #define U32_TO_U8S_BE(_u32)           TU_U32_BYTE3(_u32), TU_U32_BYTE2(_u32), TU_U32_BYTE1(_u32), T
  63:lib/TinyUSB/src/common/tusb_common.h **** #define U32_TO_U8S_LE(_u32)           TU_U32_BYTE0(_u32), TU_U32_BYTE1(_u32), TU_U32_BYTE2(_u32), T
  64:lib/TinyUSB/src/common/tusb_common.h **** 
  65:lib/TinyUSB/src/common/tusb_common.h **** #define TU_BIT(n)                     (1UL << (n))
  66:lib/TinyUSB/src/common/tusb_common.h **** 
  67:lib/TinyUSB/src/common/tusb_common.h **** // Generate a mask with bit from high (31) to low (0) set, e.g TU_GENMASK(3, 0) = 0b1111
  68:lib/TinyUSB/src/common/tusb_common.h **** #define TU_GENMASK(h, l)              ( (UINT32_MAX << (l)) & (UINT32_MAX >> (31 - (h))) )
  69:lib/TinyUSB/src/common/tusb_common.h **** 
  70:lib/TinyUSB/src/common/tusb_common.h **** //--------------------------------------------------------------------+
  71:lib/TinyUSB/src/common/tusb_common.h **** // Includes
  72:lib/TinyUSB/src/common/tusb_common.h **** //--------------------------------------------------------------------+
  73:lib/TinyUSB/src/common/tusb_common.h **** 
  74:lib/TinyUSB/src/common/tusb_common.h **** // Standard Headers
  75:lib/TinyUSB/src/common/tusb_common.h **** #include <stdbool.h>
  76:lib/TinyUSB/src/common/tusb_common.h **** #include <stdint.h>
  77:lib/TinyUSB/src/common/tusb_common.h **** #include <inttypes.h>
  78:lib/TinyUSB/src/common/tusb_common.h **** #include <stddef.h>
  79:lib/TinyUSB/src/common/tusb_common.h **** #include <string.h>
  80:lib/TinyUSB/src/common/tusb_common.h **** 
  81:lib/TinyUSB/src/common/tusb_common.h **** // Tinyusb Common Headers
  82:lib/TinyUSB/src/common/tusb_common.h **** #include "tusb_option.h"
  83:lib/TinyUSB/src/common/tusb_common.h **** #include "tusb_compiler.h"
  84:lib/TinyUSB/src/common/tusb_common.h **** #include "tusb_verify.h"
  85:lib/TinyUSB/src/common/tusb_common.h **** #include "tusb_types.h"
  86:lib/TinyUSB/src/common/tusb_common.h **** #include "tusb_debug.h"
  87:lib/TinyUSB/src/common/tusb_common.h **** 
  88:lib/TinyUSB/src/common/tusb_common.h **** //--------------------------------------------------------------------+
  89:lib/TinyUSB/src/common/tusb_common.h **** // API implemented by application if needed
  90:lib/TinyUSB/src/common/tusb_common.h **** // TODO move to a more obvious place/file
  91:lib/TinyUSB/src/common/tusb_common.h **** //--------------------------------------------------------------------+
  92:lib/TinyUSB/src/common/tusb_common.h **** 
  93:lib/TinyUSB/src/common/tusb_common.h **** // Get current milliseconds, required by some port/configuration without RTOS
  94:lib/TinyUSB/src/common/tusb_common.h **** extern uint32_t tusb_time_millis_api(void);
  95:lib/TinyUSB/src/common/tusb_common.h **** 
  96:lib/TinyUSB/src/common/tusb_common.h **** // Delay in milliseconds, use tusb_time_millis_api() by default. required by some port/configuratio
  97:lib/TinyUSB/src/common/tusb_common.h **** extern void tusb_time_delay_ms_api(uint32_t ms);
  98:lib/TinyUSB/src/common/tusb_common.h **** 
  99:lib/TinyUSB/src/common/tusb_common.h **** // flush data cache
 100:lib/TinyUSB/src/common/tusb_common.h **** extern void tusb_app_dcache_flush(uintptr_t addr, uint32_t data_size);
 101:lib/TinyUSB/src/common/tusb_common.h **** 
 102:lib/TinyUSB/src/common/tusb_common.h **** // invalidate data cache
 103:lib/TinyUSB/src/common/tusb_common.h **** extern void tusb_app_dcache_invalidate(uintptr_t addr, uint32_t data_size);
 104:lib/TinyUSB/src/common/tusb_common.h **** 
 105:lib/TinyUSB/src/common/tusb_common.h **** // Optional physical <-> virtual address translation
 106:lib/TinyUSB/src/common/tusb_common.h **** extern void* tusb_app_virt_to_phys(void *virt_addr);
 107:lib/TinyUSB/src/common/tusb_common.h **** extern void* tusb_app_phys_to_virt(void *phys_addr);
 108:lib/TinyUSB/src/common/tusb_common.h **** 
 109:lib/TinyUSB/src/common/tusb_common.h **** //--------------------------------------------------------------------+
 110:lib/TinyUSB/src/common/tusb_common.h **** // Internal Inline Functions
 111:lib/TinyUSB/src/common/tusb_common.h **** //--------------------------------------------------------------------+
 112:lib/TinyUSB/src/common/tusb_common.h **** 
 113:lib/TinyUSB/src/common/tusb_common.h **** //------------- Mem -------------//
 114:lib/TinyUSB/src/common/tusb_common.h **** #define tu_memclr(buffer, size)  (void) memset((buffer), 0, (size))
 115:lib/TinyUSB/src/common/tusb_common.h **** #define tu_varclr(_var)          tu_memclr(_var, sizeof(*(_var)))
 116:lib/TinyUSB/src/common/tusb_common.h **** 
 117:lib/TinyUSB/src/common/tusb_common.h **** // This is a backport of memset_s from c11
ARM GAS  C:\Users\krisa\AppData\Local\Temp\ccoeKVOr.s 			page 18


 118:lib/TinyUSB/src/common/tusb_common.h **** TU_ATTR_ALWAYS_INLINE static inline int tu_memset_s(void *dest, size_t destsz, int ch, size_t count
 119:lib/TinyUSB/src/common/tusb_common.h ****   // Validate parameters
 120:lib/TinyUSB/src/common/tusb_common.h ****   if (dest == NULL) {
 121:lib/TinyUSB/src/common/tusb_common.h ****     return -1;
 122:lib/TinyUSB/src/common/tusb_common.h ****   }
 123:lib/TinyUSB/src/common/tusb_common.h **** 
 124:lib/TinyUSB/src/common/tusb_common.h ****   if (count == 0u) {
 125:lib/TinyUSB/src/common/tusb_common.h ****     return 0;
 126:lib/TinyUSB/src/common/tusb_common.h ****   }
 127:lib/TinyUSB/src/common/tusb_common.h **** 
 128:lib/TinyUSB/src/common/tusb_common.h ****   if (count > destsz) {
 129:lib/TinyUSB/src/common/tusb_common.h ****     return -1;
 130:lib/TinyUSB/src/common/tusb_common.h ****   }
 131:lib/TinyUSB/src/common/tusb_common.h **** 
 132:lib/TinyUSB/src/common/tusb_common.h ****   (void) memset(dest, ch, count);
 133:lib/TinyUSB/src/common/tusb_common.h ****   return 0;
 134:lib/TinyUSB/src/common/tusb_common.h **** }
 135:lib/TinyUSB/src/common/tusb_common.h **** 
 136:lib/TinyUSB/src/common/tusb_common.h **** // This is a backport of memcpy_s from c11
 137:lib/TinyUSB/src/common/tusb_common.h **** TU_ATTR_ALWAYS_INLINE static inline int tu_memcpy_s(void *dest, size_t destsz, const void *src, siz
 138:lib/TinyUSB/src/common/tusb_common.h ****   if (dest == NULL) {
 139:lib/TinyUSB/src/common/tusb_common.h ****     return -1;
 140:lib/TinyUSB/src/common/tusb_common.h ****   }
 141:lib/TinyUSB/src/common/tusb_common.h **** 
 142:lib/TinyUSB/src/common/tusb_common.h ****   if (count == 0u) {
 143:lib/TinyUSB/src/common/tusb_common.h ****     return 0;
 144:lib/TinyUSB/src/common/tusb_common.h ****   }
 145:lib/TinyUSB/src/common/tusb_common.h **** 
 146:lib/TinyUSB/src/common/tusb_common.h ****   if (src == NULL) {
 147:lib/TinyUSB/src/common/tusb_common.h ****     return -1;
 148:lib/TinyUSB/src/common/tusb_common.h ****   }
 149:lib/TinyUSB/src/common/tusb_common.h **** 
 150:lib/TinyUSB/src/common/tusb_common.h ****   if (count > destsz) {
 151:lib/TinyUSB/src/common/tusb_common.h ****     return -1;
 152:lib/TinyUSB/src/common/tusb_common.h ****   }
 153:lib/TinyUSB/src/common/tusb_common.h **** 
 154:lib/TinyUSB/src/common/tusb_common.h ****   (void) memcpy(dest, src, count);
 155:lib/TinyUSB/src/common/tusb_common.h ****   return 0;
 156:lib/TinyUSB/src/common/tusb_common.h **** }
 157:lib/TinyUSB/src/common/tusb_common.h **** 
 158:lib/TinyUSB/src/common/tusb_common.h **** TU_ATTR_ALWAYS_INLINE static inline bool tu_mem_is_zero(const void *buffer, size_t size) {
 159:lib/TinyUSB/src/common/tusb_common.h ****   const uint8_t* buf8 = (const uint8_t*) buffer;
 160:lib/TinyUSB/src/common/tusb_common.h ****   for (size_t i = 0; i < size; i++) {
 161:lib/TinyUSB/src/common/tusb_common.h ****     if (buf8[i] != 0) { return false; }
 162:lib/TinyUSB/src/common/tusb_common.h ****   }
 163:lib/TinyUSB/src/common/tusb_common.h ****   return true;
 164:lib/TinyUSB/src/common/tusb_common.h **** }
 165:lib/TinyUSB/src/common/tusb_common.h **** 
 166:lib/TinyUSB/src/common/tusb_common.h **** TU_ATTR_ALWAYS_INLINE static inline bool tu_mem_is_ff(const void *buffer, size_t size) {
 167:lib/TinyUSB/src/common/tusb_common.h ****   const uint8_t* buf8 = (const uint8_t*) buffer;
 168:lib/TinyUSB/src/common/tusb_common.h ****   for (size_t i = 0; i < size; i++) {
 169:lib/TinyUSB/src/common/tusb_common.h ****     if (buf8[i] != 0xff) { return false; }
 170:lib/TinyUSB/src/common/tusb_common.h ****   }
 171:lib/TinyUSB/src/common/tusb_common.h ****   return true;
 172:lib/TinyUSB/src/common/tusb_common.h **** }
 173:lib/TinyUSB/src/common/tusb_common.h **** 
 174:lib/TinyUSB/src/common/tusb_common.h **** 
ARM GAS  C:\Users\krisa\AppData\Local\Temp\ccoeKVOr.s 			page 19


 175:lib/TinyUSB/src/common/tusb_common.h **** //------------- Bytes -------------//
 176:lib/TinyUSB/src/common/tusb_common.h **** TU_ATTR_ALWAYS_INLINE static inline uint32_t tu_u32(uint8_t b3, uint8_t b2, uint8_t b1, uint8_t b0)
 177:lib/TinyUSB/src/common/tusb_common.h ****   return (((uint32_t)b3) << 24) | (((uint32_t)b2) << 16) | (((uint32_t)b1) << 8) | b0;
 178:lib/TinyUSB/src/common/tusb_common.h **** }
 179:lib/TinyUSB/src/common/tusb_common.h **** 
 180:lib/TinyUSB/src/common/tusb_common.h **** TU_ATTR_ALWAYS_INLINE static inline uint32_t tu_u32_from_u16(uint16_t high, uint16_t low) {
 181:lib/TinyUSB/src/common/tusb_common.h ****   return (((uint32_t)high) << 16) | low;
 182:lib/TinyUSB/src/common/tusb_common.h **** }
 183:lib/TinyUSB/src/common/tusb_common.h **** 
 184:lib/TinyUSB/src/common/tusb_common.h **** TU_ATTR_ALWAYS_INLINE static inline uint16_t tu_u16(uint8_t high, uint8_t low) {
 185:lib/TinyUSB/src/common/tusb_common.h ****   return (uint16_t)((((uint16_t)high) << 8) | low);
 186:lib/TinyUSB/src/common/tusb_common.h **** }
 187:lib/TinyUSB/src/common/tusb_common.h **** 
 188:lib/TinyUSB/src/common/tusb_common.h **** TU_ATTR_ALWAYS_INLINE static inline uint8_t tu_u32_byte3(uint32_t ui32) { return TU_U32_BYTE3(ui32)
 189:lib/TinyUSB/src/common/tusb_common.h **** TU_ATTR_ALWAYS_INLINE static inline uint8_t tu_u32_byte2(uint32_t ui32) { return TU_U32_BYTE2(ui32)
 190:lib/TinyUSB/src/common/tusb_common.h **** TU_ATTR_ALWAYS_INLINE static inline uint8_t tu_u32_byte1(uint32_t ui32) { return TU_U32_BYTE1(ui32)
 191:lib/TinyUSB/src/common/tusb_common.h **** TU_ATTR_ALWAYS_INLINE static inline uint8_t tu_u32_byte0(uint32_t ui32) { return TU_U32_BYTE0(ui32)
 192:lib/TinyUSB/src/common/tusb_common.h **** 
 193:lib/TinyUSB/src/common/tusb_common.h **** TU_ATTR_ALWAYS_INLINE static inline uint16_t tu_u32_high16(uint32_t ui32) { return (uint16_t) (ui32
 194:lib/TinyUSB/src/common/tusb_common.h **** TU_ATTR_ALWAYS_INLINE static inline uint16_t tu_u32_low16 (uint32_t ui32) { return (uint16_t) (ui32
 195:lib/TinyUSB/src/common/tusb_common.h **** 
 196:lib/TinyUSB/src/common/tusb_common.h **** TU_ATTR_ALWAYS_INLINE static inline uint8_t tu_u16_high(uint16_t ui16) { return TU_U16_HIGH(ui16); 
 197:lib/TinyUSB/src/common/tusb_common.h **** TU_ATTR_ALWAYS_INLINE static inline uint8_t tu_u16_low (uint16_t ui16) { return TU_U16_LOW(ui16); }
 198:lib/TinyUSB/src/common/tusb_common.h **** 
 199:lib/TinyUSB/src/common/tusb_common.h **** //------------- Bits -------------//
 200:lib/TinyUSB/src/common/tusb_common.h **** TU_ATTR_ALWAYS_INLINE static inline uint32_t tu_bit_set  (uint32_t value, uint8_t pos) { return val
 201:lib/TinyUSB/src/common/tusb_common.h **** TU_ATTR_ALWAYS_INLINE static inline uint32_t tu_bit_clear(uint32_t value, uint8_t pos) { return val
 202:lib/TinyUSB/src/common/tusb_common.h **** TU_ATTR_ALWAYS_INLINE static inline bool     tu_bit_test (uint32_t value, uint8_t pos) { return (va
 429              		.loc 4 202 46 is_stmt 1 discriminator 2 view .LVU97
 430              	.LBB141:
 431              		.loc 4 202 90 discriminator 2 view .LVU98
 432              		.loc 4 202 126 is_stmt 0 discriminator 2 view .LVU99
 433 002c 00F00100 		and	r0, r0, #1
 434              	.LVL33:
 435              	.L30:
 436              		.loc 4 202 126 discriminator 2 view .LVU100
 437              	.LBE141:
 438              	.LBE140:
 439              		.loc 1 156 1 view .LVU101
 440 0030 38BD     		pop	{r3, r4, r5, pc}
 441              	.LVL34:
 442              	.L34:
 443              	.LBB142:
 444              	.LBB139:
 445              		.loc 2 120 21 view .LVU102
 446 0032 0123     		movs	r3, #1
 447 0034 F3E7     		b	.L31
 448              	.L41:
 449 0036 00BF     		.align	2
 450              	.L40:
 451 0038 00000000 		.word	.LANCHOR1
 452              	.LBE139:
 453              	.LBE142:
 454              		.cfi_endproc
 455              	.LFE120:
 457              		.section	.text.tud_cdc_n_get_line_state,"ax",%progbits
 458              		.align	1
ARM GAS  C:\Users\krisa\AppData\Local\Temp\ccoeKVOr.s 			page 20


 459              		.global	tud_cdc_n_get_line_state
 460              		.syntax unified
 461              		.thumb
 462              		.thumb_func
 464              	tud_cdc_n_get_line_state:
 465              	.LVL35:
 466              	.LFB121:
 157:lib/TinyUSB/src/class/cdc/cdc_device.c **** 
 158:lib/TinyUSB/src/class/cdc/cdc_device.c **** uint8_t tud_cdc_n_get_line_state(uint8_t itf) {
 467              		.loc 1 158 47 is_stmt 1 view -0
 468              		.cfi_startproc
 469              		@ args = 0, pretend = 0, frame = 0
 470              		@ frame_needed = 0, uses_anonymous_args = 0
 471              		@ link register save eliminated.
 159:lib/TinyUSB/src/class/cdc/cdc_device.c ****   TU_VERIFY(itf < CFG_TUD_CDC, 0);
 472              		.loc 1 159 3 view .LVU104
 473              		.loc 1 159 3 view .LVU105
 474 0000 28B9     		cbnz	r0, .L44
 475              		.loc 1 159 3 discriminator 2 view .LVU106
 160:lib/TinyUSB/src/class/cdc/cdc_device.c ****   return _cdcd_itf[itf].line_state;
 476              		.loc 1 160 3 discriminator 2 view .LVU107
 477              		.loc 1 160 24 is_stmt 0 discriminator 2 view .LVU108
 478 0002 044B     		ldr	r3, .L45
 479 0004 BC21     		movs	r1, #188
 480 0006 01FB0033 		mla	r3, r1, r0, r3
 481 000a D878     		ldrb	r0, [r3, #3]	@ zero_extendqisi2
 482              	.LVL36:
 483              		.loc 1 160 24 discriminator 2 view .LVU109
 484 000c 7047     		bx	lr
 485              	.LVL37:
 486              	.L44:
 159:lib/TinyUSB/src/class/cdc/cdc_device.c ****   TU_VERIFY(itf < CFG_TUD_CDC, 0);
 487              		.loc 1 159 3 view .LVU110
 488 000e 0020     		movs	r0, #0
 489              	.LVL38:
 161:lib/TinyUSB/src/class/cdc/cdc_device.c **** }
 490              		.loc 1 161 1 view .LVU111
 491 0010 7047     		bx	lr
 492              	.L46:
 493 0012 00BF     		.align	2
 494              	.L45:
 495 0014 00000000 		.word	.LANCHOR1
 496              		.cfi_endproc
 497              	.LFE121:
 499              		.section	.text.tud_cdc_n_get_line_coding,"ax",%progbits
 500              		.align	1
 501              		.global	tud_cdc_n_get_line_coding
 502              		.syntax unified
 503              		.thumb
 504              		.thumb_func
 506              	tud_cdc_n_get_line_coding:
 507              	.LVL39:
 508              	.LFB122:
 162:lib/TinyUSB/src/class/cdc/cdc_device.c **** 
 163:lib/TinyUSB/src/class/cdc/cdc_device.c **** void tud_cdc_n_get_line_coding(uint8_t itf, cdc_line_coding_t *coding) {
 509              		.loc 1 163 72 is_stmt 1 view -0
 510              		.cfi_startproc
ARM GAS  C:\Users\krisa\AppData\Local\Temp\ccoeKVOr.s 			page 21


 511              		@ args = 0, pretend = 0, frame = 0
 512              		@ frame_needed = 0, uses_anonymous_args = 0
 513              		@ link register save eliminated.
 164:lib/TinyUSB/src/class/cdc/cdc_device.c ****   TU_VERIFY(itf < CFG_TUD_CDC, );
 514              		.loc 1 164 3 view .LVU113
 515              		.loc 1 164 3 view .LVU114
 516 0000 0246     		mov	r2, r0
 517 0002 48B9     		cbnz	r0, .L47
 518              		.loc 1 164 3 discriminator 2 view .LVU115
 165:lib/TinyUSB/src/class/cdc/cdc_device.c ****   (*coding) = _cdcd_itf[itf].line_coding;
 519              		.loc 1 165 3 discriminator 2 view .LVU116
 520              		.loc 1 165 13 is_stmt 0 discriminator 2 view .LVU117
 521 0004 054B     		ldr	r3, .L49
 522 0006 BC20     		movs	r0, #188
 523              	.LVL40:
 524              		.loc 1 165 13 discriminator 2 view .LVU118
 525 0008 00FB0233 		mla	r3, r0, r2, r3
 526 000c 5868     		ldr	r0, [r3, #4]
 527 000e 0860     		str	r0, [r1]	@ unaligned
 528 0010 1A89     		ldrh	r2, [r3, #8]	@ unaligned
 529 0012 9B7A     		ldrb	r3, [r3, #10]	@ zero_extendqisi2
 530 0014 8A80     		strh	r2, [r1, #4]	@ unaligned
 531 0016 8B71     		strb	r3, [r1, #6]
 532              	.L47:
 166:lib/TinyUSB/src/class/cdc/cdc_device.c **** }
 533              		.loc 1 166 1 view .LVU119
 534 0018 7047     		bx	lr
 535              	.L50:
 536 001a 00BF     		.align	2
 537              	.L49:
 538 001c 00000000 		.word	.LANCHOR1
 539              		.cfi_endproc
 540              	.LFE122:
 542              		.section	.text.tud_cdc_n_set_wanted_char,"ax",%progbits
 543              		.align	1
 544              		.global	tud_cdc_n_set_wanted_char
 545              		.syntax unified
 546              		.thumb
 547              		.thumb_func
 549              	tud_cdc_n_set_wanted_char:
 550              	.LVL41:
 551              	.LFB123:
 167:lib/TinyUSB/src/class/cdc/cdc_device.c **** 
 168:lib/TinyUSB/src/class/cdc/cdc_device.c **** #if CFG_TUD_CDC_NOTIFY
 169:lib/TinyUSB/src/class/cdc/cdc_device.c **** bool tud_cdc_n_notify_msg(uint8_t itf, cdc_notify_msg_t *msg) {
 170:lib/TinyUSB/src/class/cdc/cdc_device.c ****   TU_VERIFY(itf < CFG_TUD_CDC);
 171:lib/TinyUSB/src/class/cdc/cdc_device.c ****   const cdcd_interface_t *p_cdc = &_cdcd_itf[itf];
 172:lib/TinyUSB/src/class/cdc/cdc_device.c ****   TU_VERIFY(tud_ready() && p_cdc->ep_notify != 0);
 173:lib/TinyUSB/src/class/cdc/cdc_device.c ****   TU_VERIFY(usbd_edpt_claim(p_cdc->rhport, p_cdc->ep_notify));
 174:lib/TinyUSB/src/class/cdc/cdc_device.c **** 
 175:lib/TinyUSB/src/class/cdc/cdc_device.c ****     #if CFG_TUD_EDPT_DEDICATED_HWFIFO
 176:lib/TinyUSB/src/class/cdc/cdc_device.c ****   cdc_notify_msg_t *msg_epbuf = msg;
 177:lib/TinyUSB/src/class/cdc/cdc_device.c ****     #else
 178:lib/TinyUSB/src/class/cdc/cdc_device.c ****   cdc_notify_msg_t *msg_epbuf = &_cdcd_epbuf[itf].epnotify;
 179:lib/TinyUSB/src/class/cdc/cdc_device.c ****   *msg_epbuf                  = *msg;
 180:lib/TinyUSB/src/class/cdc/cdc_device.c ****     #endif
 181:lib/TinyUSB/src/class/cdc/cdc_device.c **** 
ARM GAS  C:\Users\krisa\AppData\Local\Temp\ccoeKVOr.s 			page 22


 182:lib/TinyUSB/src/class/cdc/cdc_device.c ****   msg_epbuf->request.wIndex = p_cdc->itf_num;
 183:lib/TinyUSB/src/class/cdc/cdc_device.c **** 
 184:lib/TinyUSB/src/class/cdc/cdc_device.c ****   return usbd_edpt_xfer(p_cdc->rhport, p_cdc->ep_notify, (uint8_t *)msg_epbuf, 8 + msg_epbuf->reque
 185:lib/TinyUSB/src/class/cdc/cdc_device.c **** }
 186:lib/TinyUSB/src/class/cdc/cdc_device.c **** #endif
 187:lib/TinyUSB/src/class/cdc/cdc_device.c **** 
 188:lib/TinyUSB/src/class/cdc/cdc_device.c **** void tud_cdc_n_set_wanted_char(uint8_t itf, char wanted) {
 552              		.loc 1 188 58 is_stmt 1 view -0
 553              		.cfi_startproc
 554              		@ args = 0, pretend = 0, frame = 0
 555              		@ frame_needed = 0, uses_anonymous_args = 0
 556              		@ link register save eliminated.
 189:lib/TinyUSB/src/class/cdc/cdc_device.c ****   TU_VERIFY(itf < CFG_TUD_CDC, );
 557              		.loc 1 189 3 view .LVU121
 558              		.loc 1 189 3 view .LVU122
 559 0000 0246     		mov	r2, r0
 560 0002 20B9     		cbnz	r0, .L51
 561              		.loc 1 189 3 discriminator 2 view .LVU123
 190:lib/TinyUSB/src/class/cdc/cdc_device.c ****   _cdcd_itf[itf].wanted_char = wanted;
 562              		.loc 1 190 3 discriminator 2 view .LVU124
 563              		.loc 1 190 30 is_stmt 0 discriminator 2 view .LVU125
 564 0004 024B     		ldr	r3, .L53
 565 0006 BC20     		movs	r0, #188
 566              	.LVL42:
 567              		.loc 1 190 30 discriminator 2 view .LVU126
 568 0008 00FB0233 		mla	r3, r0, r2, r3
 569 000c D972     		strb	r1, [r3, #11]
 570              	.L51:
 191:lib/TinyUSB/src/class/cdc/cdc_device.c **** }
 571              		.loc 1 191 1 view .LVU127
 572 000e 7047     		bx	lr
 573              	.L54:
 574              		.align	2
 575              	.L53:
 576 0010 00000000 		.word	.LANCHOR1
 577              		.cfi_endproc
 578              	.LFE123:
 580              		.section	.text.tud_cdc_n_available,"ax",%progbits
 581              		.align	1
 582              		.global	tud_cdc_n_available
 583              		.syntax unified
 584              		.thumb
 585              		.thumb_func
 587              	tud_cdc_n_available:
 588              	.LVL43:
 589              	.LFB124:
 192:lib/TinyUSB/src/class/cdc/cdc_device.c **** 
 193:lib/TinyUSB/src/class/cdc/cdc_device.c **** //--------------------------------------------------------------------+
 194:lib/TinyUSB/src/class/cdc/cdc_device.c **** // READ API
 195:lib/TinyUSB/src/class/cdc/cdc_device.c **** //--------------------------------------------------------------------+
 196:lib/TinyUSB/src/class/cdc/cdc_device.c **** uint32_t tud_cdc_n_available(uint8_t itf) {
 590              		.loc 1 196 43 is_stmt 1 view -0
 591              		.cfi_startproc
 592              		@ args = 0, pretend = 0, frame = 0
 593              		@ frame_needed = 0, uses_anonymous_args = 0
 594              		@ link register save eliminated.
 197:lib/TinyUSB/src/class/cdc/cdc_device.c ****   TU_VERIFY(itf < CFG_TUD_CDC, 0);
ARM GAS  C:\Users\krisa\AppData\Local\Temp\ccoeKVOr.s 			page 23


 595              		.loc 1 197 3 view .LVU129
 596              		.loc 1 197 3 view .LVU130
 597 0000 0346     		mov	r3, r0
 598 0002 C0B9     		cbnz	r0, .L59
 599              		.loc 1 197 3 discriminator 2 view .LVU131
 198:lib/TinyUSB/src/class/cdc/cdc_device.c ****   return tu_edpt_stream_read_available(&_cdcd_itf[itf].rx_stream);
 600              		.loc 1 198 3 discriminator 2 view .LVU132
 601              		.loc 1 198 40 is_stmt 0 discriminator 2 view .LVU133
 602 0004 BC22     		movs	r2, #188
 603 0006 02FB03F3 		mul	r3, r2, r3
 604 000a 2033     		adds	r3, r3, #32
 605 000c 0B4A     		ldr	r2, .L60
 606 000e 1344     		add	r3, r3, r2
 607 0010 191D     		adds	r1, r3, #4
 608              	.LVL44:
 609              	.LBB143:
 610              	.LBI143:
 137:lib/TinyUSB/src/common/tusb_private.h **** }
 138:lib/TinyUSB/src/common/tusb_private.h **** 
 139:lib/TinyUSB/src/common/tusb_private.h **** TU_ATTR_ALWAYS_INLINE static inline void tu_edpt_stream_close(tu_edpt_stream_t* s) {
 140:lib/TinyUSB/src/common/tusb_private.h ****   s->ep_addr = 0;
 141:lib/TinyUSB/src/common/tusb_private.h **** }
 142:lib/TinyUSB/src/common/tusb_private.h **** 
 143:lib/TinyUSB/src/common/tusb_private.h **** TU_ATTR_ALWAYS_INLINE static inline void tu_edpt_stream_clear(tu_edpt_stream_t *s) {
 144:lib/TinyUSB/src/common/tusb_private.h ****   tu_fifo_clear(&s->ff);
 145:lib/TinyUSB/src/common/tusb_private.h **** }
 146:lib/TinyUSB/src/common/tusb_private.h **** 
 147:lib/TinyUSB/src/common/tusb_private.h **** TU_ATTR_ALWAYS_INLINE static inline bool tu_edpt_stream_empty(tu_edpt_stream_t *s) {
 148:lib/TinyUSB/src/common/tusb_private.h ****   return tu_fifo_empty(&s->ff);
 149:lib/TinyUSB/src/common/tusb_private.h **** }
 150:lib/TinyUSB/src/common/tusb_private.h **** 
 151:lib/TinyUSB/src/common/tusb_private.h **** //--------------------------------------------------------------------+
 152:lib/TinyUSB/src/common/tusb_private.h **** // Stream Write
 153:lib/TinyUSB/src/common/tusb_private.h **** //--------------------------------------------------------------------+
 154:lib/TinyUSB/src/common/tusb_private.h **** 
 155:lib/TinyUSB/src/common/tusb_private.h **** // Write to stream
 156:lib/TinyUSB/src/common/tusb_private.h **** uint32_t tu_edpt_stream_write(tu_edpt_stream_t *s, const void *buffer, uint32_t bufsize);
 157:lib/TinyUSB/src/common/tusb_private.h **** 
 158:lib/TinyUSB/src/common/tusb_private.h **** // Start an usb transfer if endpoint is not busy. Return number of queued bytes
 159:lib/TinyUSB/src/common/tusb_private.h **** uint32_t tu_edpt_stream_write_xfer(tu_edpt_stream_t *s);
 160:lib/TinyUSB/src/common/tusb_private.h **** 
 161:lib/TinyUSB/src/common/tusb_private.h **** // Start an zero-length packet if needed
 162:lib/TinyUSB/src/common/tusb_private.h **** bool tu_edpt_stream_write_zlp_if_needed(tu_edpt_stream_t *s, uint32_t last_xferred_bytes);
 163:lib/TinyUSB/src/common/tusb_private.h **** 
 164:lib/TinyUSB/src/common/tusb_private.h **** // Get the number of bytes available for writing to FIFO
 165:lib/TinyUSB/src/common/tusb_private.h **** // Note: if no fifo, return endpoint size if not busy, 0 otherwise
 166:lib/TinyUSB/src/common/tusb_private.h **** uint32_t tu_edpt_stream_write_available(tu_edpt_stream_t *s);
 167:lib/TinyUSB/src/common/tusb_private.h **** 
 168:lib/TinyUSB/src/common/tusb_private.h **** //--------------------------------------------------------------------+
 169:lib/TinyUSB/src/common/tusb_private.h **** // Stream Read
 170:lib/TinyUSB/src/common/tusb_private.h **** //--------------------------------------------------------------------+
 171:lib/TinyUSB/src/common/tusb_private.h **** 
 172:lib/TinyUSB/src/common/tusb_private.h **** // Read from stream
 173:lib/TinyUSB/src/common/tusb_private.h **** uint32_t tu_edpt_stream_read(tu_edpt_stream_t *s, void *buffer, uint32_t bufsize);
 174:lib/TinyUSB/src/common/tusb_private.h **** 
 175:lib/TinyUSB/src/common/tusb_private.h **** // Start an usb transfer if endpoint is not busy
 176:lib/TinyUSB/src/common/tusb_private.h **** uint32_t tu_edpt_stream_read_xfer(tu_edpt_stream_t *s);
ARM GAS  C:\Users\krisa\AppData\Local\Temp\ccoeKVOr.s 			page 24


 177:lib/TinyUSB/src/common/tusb_private.h **** 
 178:lib/TinyUSB/src/common/tusb_private.h **** // Complete read transfer by writing EP -> FIFO. Must be called in the transfer complete callback
 179:lib/TinyUSB/src/common/tusb_private.h **** TU_ATTR_ALWAYS_INLINE static inline
 180:lib/TinyUSB/src/common/tusb_private.h **** void tu_edpt_stream_read_xfer_complete(tu_edpt_stream_t* s, uint32_t xferred_bytes) {
 181:lib/TinyUSB/src/common/tusb_private.h ****   if (s->ep_buf != NULL) {
 182:lib/TinyUSB/src/common/tusb_private.h ****     tu_fifo_write_n(&s->ff, s->ep_buf, (uint16_t)xferred_bytes);
 183:lib/TinyUSB/src/common/tusb_private.h ****   }
 184:lib/TinyUSB/src/common/tusb_private.h **** }
 185:lib/TinyUSB/src/common/tusb_private.h **** 
 186:lib/TinyUSB/src/common/tusb_private.h **** // Complete read transfer with provided buffer
 187:lib/TinyUSB/src/common/tusb_private.h **** TU_ATTR_ALWAYS_INLINE static inline
 188:lib/TinyUSB/src/common/tusb_private.h **** void tu_edpt_stream_read_xfer_complete_with_buf(tu_edpt_stream_t *s, const void *buf, uint32_t xfer
 189:lib/TinyUSB/src/common/tusb_private.h ****   tu_fifo_write_n(&s->ff, buf, (uint16_t)xferred_bytes);
 190:lib/TinyUSB/src/common/tusb_private.h **** }
 191:lib/TinyUSB/src/common/tusb_private.h **** 
 192:lib/TinyUSB/src/common/tusb_private.h **** // Get the number of bytes available for reading
 193:lib/TinyUSB/src/common/tusb_private.h **** TU_ATTR_ALWAYS_INLINE static inline uint32_t tu_edpt_stream_read_available(const tu_edpt_stream_t *
 611              		.loc 3 193 46 is_stmt 1 discriminator 2 view .LVU134
 612              	.LBB144:
 194:lib/TinyUSB/src/common/tusb_private.h ****   return (uint32_t) tu_fifo_count(&s->ff);
 613              		.loc 3 194 3 discriminator 2 view .LVU135
 614              	.LBB145:
 615              	.LBI145:
 616              		.file 5 "lib/TinyUSB/src/common/tusb_fifo.h"
   1:lib/TinyUSB/src/common/tusb_fifo.h **** /*
   2:lib/TinyUSB/src/common/tusb_fifo.h ****  * The MIT License (MIT)
   3:lib/TinyUSB/src/common/tusb_fifo.h ****  *
   4:lib/TinyUSB/src/common/tusb_fifo.h ****  * Copyright (c) 2019 Ha Thach (tinyusb.org)
   5:lib/TinyUSB/src/common/tusb_fifo.h ****  * Copyright (c) 2020 Reinhard Panhuber - rework to unmasked pointers
   6:lib/TinyUSB/src/common/tusb_fifo.h ****  *
   7:lib/TinyUSB/src/common/tusb_fifo.h ****  * Permission is hereby granted, free of charge, to any person obtaining a copy
   8:lib/TinyUSB/src/common/tusb_fifo.h ****  * of this software and associated documentation files (the "Software"), to deal
   9:lib/TinyUSB/src/common/tusb_fifo.h ****  * in the Software without restriction, including without limitation the rights
  10:lib/TinyUSB/src/common/tusb_fifo.h ****  * to use, copy, modify, merge, publish, distribute, sublicense, and/or sell
  11:lib/TinyUSB/src/common/tusb_fifo.h ****  * copies of the Software, and to permit persons to whom the Software is
  12:lib/TinyUSB/src/common/tusb_fifo.h ****  * furnished to do so, subject to the following conditions:
  13:lib/TinyUSB/src/common/tusb_fifo.h ****  *
  14:lib/TinyUSB/src/common/tusb_fifo.h ****  * The above copyright notice and this permission notice shall be included in
  15:lib/TinyUSB/src/common/tusb_fifo.h ****  * all copies or substantial portions of the Software.
  16:lib/TinyUSB/src/common/tusb_fifo.h ****  *
  17:lib/TinyUSB/src/common/tusb_fifo.h ****  * THE SOFTWARE IS PROVIDED "AS IS", WITHOUT WARRANTY OF ANY KIND, EXPRESS OR
  18:lib/TinyUSB/src/common/tusb_fifo.h ****  * IMPLIED, INCLUDING BUT NOT LIMITED TO THE WARRANTIES OF MERCHANTABILITY,
  19:lib/TinyUSB/src/common/tusb_fifo.h ****  * FITNESS FOR A PARTICULAR PURPOSE AND NONINFRINGEMENT. IN NO EVENT SHALL THE
  20:lib/TinyUSB/src/common/tusb_fifo.h ****  * AUTHORS OR COPYRIGHT HOLDERS BE LIABLE FOR ANY CLAIM, DAMAGES OR OTHER
  21:lib/TinyUSB/src/common/tusb_fifo.h ****  * LIABILITY, WHETHER IN AN ACTION OF CONTRACT, TORT OR OTHERWISE, ARISING FROM,
  22:lib/TinyUSB/src/common/tusb_fifo.h ****  * OUT OF OR IN CONNECTION WITH THE SOFTWARE OR THE USE OR OTHER DEALINGS IN
  23:lib/TinyUSB/src/common/tusb_fifo.h ****  * THE SOFTWARE.
  24:lib/TinyUSB/src/common/tusb_fifo.h ****  *
  25:lib/TinyUSB/src/common/tusb_fifo.h ****  * This file is part of the TinyUSB stack.
  26:lib/TinyUSB/src/common/tusb_fifo.h ****  */
  27:lib/TinyUSB/src/common/tusb_fifo.h **** 
  28:lib/TinyUSB/src/common/tusb_fifo.h **** #ifndef TUSB_FIFO_H_
  29:lib/TinyUSB/src/common/tusb_fifo.h **** #define TUSB_FIFO_H_
  30:lib/TinyUSB/src/common/tusb_fifo.h **** 
  31:lib/TinyUSB/src/common/tusb_fifo.h **** #ifdef __cplusplus
  32:lib/TinyUSB/src/common/tusb_fifo.h **** extern "C" {
  33:lib/TinyUSB/src/common/tusb_fifo.h **** #endif
ARM GAS  C:\Users\krisa\AppData\Local\Temp\ccoeKVOr.s 			page 25


  34:lib/TinyUSB/src/common/tusb_fifo.h **** 
  35:lib/TinyUSB/src/common/tusb_fifo.h **** // Due to the use of unmasked pointers, this FIFO does not suffer from losing
  36:lib/TinyUSB/src/common/tusb_fifo.h **** // one item slice. Furthermore, write and read operations are completely
  37:lib/TinyUSB/src/common/tusb_fifo.h **** // decoupled as write and read functions do not modify a common state. Henceforth,
  38:lib/TinyUSB/src/common/tusb_fifo.h **** // writing or reading from the FIFO within an ISR is safe as long as no other
  39:lib/TinyUSB/src/common/tusb_fifo.h **** // process (thread or ISR) interferes.
  40:lib/TinyUSB/src/common/tusb_fifo.h **** // Also, this FIFO is ready to be used in combination with a DMA as the write and
  41:lib/TinyUSB/src/common/tusb_fifo.h **** // read pointers can be updated from within a DMA ISR. Overflows are detectable
  42:lib/TinyUSB/src/common/tusb_fifo.h **** // within a certain number (see tu_fifo_overflow()).
  43:lib/TinyUSB/src/common/tusb_fifo.h **** 
  44:lib/TinyUSB/src/common/tusb_fifo.h **** #include "common/tusb_common.h"
  45:lib/TinyUSB/src/common/tusb_fifo.h **** #include "osal/osal.h"
  46:lib/TinyUSB/src/common/tusb_fifo.h **** 
  47:lib/TinyUSB/src/common/tusb_fifo.h **** // mutex is only needed for RTOS
  48:lib/TinyUSB/src/common/tusb_fifo.h **** // for OS None, we don't get preempted
  49:lib/TinyUSB/src/common/tusb_fifo.h **** #define CFG_FIFO_MUTEX      OSAL_MUTEX_REQUIRED
  50:lib/TinyUSB/src/common/tusb_fifo.h **** 
  51:lib/TinyUSB/src/common/tusb_fifo.h **** #if CFG_TUD_EDPT_DEDICATED_HWFIFO || CFG_TUH_EDPT_DEDICATED_HWFIFO
  52:lib/TinyUSB/src/common/tusb_fifo.h ****   #define CFG_TUSB_FIFO_ACCESS_FIXED_ADDR_RW32
  53:lib/TinyUSB/src/common/tusb_fifo.h **** #endif
  54:lib/TinyUSB/src/common/tusb_fifo.h **** 
  55:lib/TinyUSB/src/common/tusb_fifo.h **** /* Write/Read "pointer" is in the range of: 0 .. depth - 1, and is used to get the fifo data.
  56:lib/TinyUSB/src/common/tusb_fifo.h ****  * Write/Read "index" is always in the range of: 0 .. 2*depth-1
  57:lib/TinyUSB/src/common/tusb_fifo.h ****  *
  58:lib/TinyUSB/src/common/tusb_fifo.h ****  * The extra window allow us to determine the fifo state of empty or full with only 2 indices
  59:lib/TinyUSB/src/common/tusb_fifo.h ****  * Following are examples with depth = 3
  60:lib/TinyUSB/src/common/tusb_fifo.h ****  *
  61:lib/TinyUSB/src/common/tusb_fifo.h ****  * - empty: W = R
  62:lib/TinyUSB/src/common/tusb_fifo.h ****  *                |
  63:lib/TinyUSB/src/common/tusb_fifo.h ****  *    -------------------------
  64:lib/TinyUSB/src/common/tusb_fifo.h ****  *    | 0 | RW| 2 | 3 | 4 | 5 |
  65:lib/TinyUSB/src/common/tusb_fifo.h ****  *
  66:lib/TinyUSB/src/common/tusb_fifo.h ****  * - full 1: W > R
  67:lib/TinyUSB/src/common/tusb_fifo.h ****  *                |
  68:lib/TinyUSB/src/common/tusb_fifo.h ****  *    -------------------------
  69:lib/TinyUSB/src/common/tusb_fifo.h ****  *    | 0 | R | 2 | 3 | W | 5 |
  70:lib/TinyUSB/src/common/tusb_fifo.h ****  *
  71:lib/TinyUSB/src/common/tusb_fifo.h ****  * - full 2: W < R
  72:lib/TinyUSB/src/common/tusb_fifo.h ****  *                |
  73:lib/TinyUSB/src/common/tusb_fifo.h ****  *    -------------------------
  74:lib/TinyUSB/src/common/tusb_fifo.h ****  *    | 0 | 1 | W | 3 | 4 | R |
  75:lib/TinyUSB/src/common/tusb_fifo.h ****  *
  76:lib/TinyUSB/src/common/tusb_fifo.h ****  * - Number of items in the fifo can be determined in either cases:
  77:lib/TinyUSB/src/common/tusb_fifo.h ****  *    - case W >= R: Count = W - R
  78:lib/TinyUSB/src/common/tusb_fifo.h ****  *    - case W <  R: Count = 2*depth - (R - W)
  79:lib/TinyUSB/src/common/tusb_fifo.h ****  *
  80:lib/TinyUSB/src/common/tusb_fifo.h ****  * In non-overwritable mode, computed Count (in above 2 cases) is at most equal to depth.
  81:lib/TinyUSB/src/common/tusb_fifo.h ****  * However, in over-writable mode, write index can be repeatedly increased and count can be
  82:lib/TinyUSB/src/common/tusb_fifo.h ****  * temporarily larger than depth (overflowed condition) e.g
  83:lib/TinyUSB/src/common/tusb_fifo.h ****  *
  84:lib/TinyUSB/src/common/tusb_fifo.h ****  *  - Overflowed 1: write(3), write(1)
  85:lib/TinyUSB/src/common/tusb_fifo.h ****  *    In this case we will adjust Read index when read()/peek() is called so that count = depth.
  86:lib/TinyUSB/src/common/tusb_fifo.h ****  *                  |
  87:lib/TinyUSB/src/common/tusb_fifo.h ****  *      -------------------------
  88:lib/TinyUSB/src/common/tusb_fifo.h ****  *      | R | 1 | 2 | 3 | W | 5 |
  89:lib/TinyUSB/src/common/tusb_fifo.h ****  *
  90:lib/TinyUSB/src/common/tusb_fifo.h ****  *  - Double Overflowed i.e index is out of allowed range [0,2*depth)
ARM GAS  C:\Users\krisa\AppData\Local\Temp\ccoeKVOr.s 			page 26


  91:lib/TinyUSB/src/common/tusb_fifo.h ****  *    This occurs when we continue to write after 1st overflowed to 2nd overflowed. e.g:
  92:lib/TinyUSB/src/common/tusb_fifo.h ****  *      write(3), write(1), write(2)
  93:lib/TinyUSB/src/common/tusb_fifo.h ****  *    This must be prevented since it will cause unrecoverable state, in above example
  94:lib/TinyUSB/src/common/tusb_fifo.h ****  *    if not handled the fifo will be empty instead of continue-to-be full. Since we must not modif
  95:lib/TinyUSB/src/common/tusb_fifo.h ****  *    read index in write() function, which cause race condition. We will re-position write index s
  96:lib/TinyUSB/src/common/tusb_fifo.h ****  *    after data is written it is a full fifo i.e W = depth - R
  97:lib/TinyUSB/src/common/tusb_fifo.h ****  *
  98:lib/TinyUSB/src/common/tusb_fifo.h ****  *      re-position W = 1 before write(2)
  99:lib/TinyUSB/src/common/tusb_fifo.h ****  *      Note: we should also move data from mem[3] to read index as well, but deliberately skipped 
 100:lib/TinyUSB/src/common/tusb_fifo.h ****  *      since it is an expensive operation !!!
 101:lib/TinyUSB/src/common/tusb_fifo.h ****  *                  |
 102:lib/TinyUSB/src/common/tusb_fifo.h ****  *      -------------------------
 103:lib/TinyUSB/src/common/tusb_fifo.h ****  *      | R | W | 2 | 3 | 4 | 5 |
 104:lib/TinyUSB/src/common/tusb_fifo.h ****  *
 105:lib/TinyUSB/src/common/tusb_fifo.h ****  *      perform write(2), result is still a full fifo.
 106:lib/TinyUSB/src/common/tusb_fifo.h ****  *
 107:lib/TinyUSB/src/common/tusb_fifo.h ****  *                  |
 108:lib/TinyUSB/src/common/tusb_fifo.h ****  *      -------------------------
 109:lib/TinyUSB/src/common/tusb_fifo.h ****  *      | R | 1 | 2 | W | 4 | 5 |
 110:lib/TinyUSB/src/common/tusb_fifo.h ****  */
 111:lib/TinyUSB/src/common/tusb_fifo.h **** typedef struct {
 112:lib/TinyUSB/src/common/tusb_fifo.h ****   uint8_t *buffer;              // buffer pointer
 113:lib/TinyUSB/src/common/tusb_fifo.h ****   uint16_t depth;               // max items
 114:lib/TinyUSB/src/common/tusb_fifo.h **** 
 115:lib/TinyUSB/src/common/tusb_fifo.h ****   struct TU_ATTR_PACKED {
 116:lib/TinyUSB/src/common/tusb_fifo.h ****     uint16_t item_size    : 15; // size of each item
 117:lib/TinyUSB/src/common/tusb_fifo.h ****     bool     overwritable : 1;  // ovwerwritable when full
 118:lib/TinyUSB/src/common/tusb_fifo.h ****   };
 119:lib/TinyUSB/src/common/tusb_fifo.h **** 
 120:lib/TinyUSB/src/common/tusb_fifo.h ****   volatile uint16_t wr_idx;     // write index
 121:lib/TinyUSB/src/common/tusb_fifo.h ****   volatile uint16_t rd_idx;     // read index
 122:lib/TinyUSB/src/common/tusb_fifo.h **** 
 123:lib/TinyUSB/src/common/tusb_fifo.h **** #if OSAL_MUTEX_REQUIRED
 124:lib/TinyUSB/src/common/tusb_fifo.h ****   osal_mutex_t mutex_wr;
 125:lib/TinyUSB/src/common/tusb_fifo.h ****   osal_mutex_t mutex_rd;
 126:lib/TinyUSB/src/common/tusb_fifo.h **** #endif
 127:lib/TinyUSB/src/common/tusb_fifo.h **** 
 128:lib/TinyUSB/src/common/tusb_fifo.h **** } tu_fifo_t;
 129:lib/TinyUSB/src/common/tusb_fifo.h **** 
 130:lib/TinyUSB/src/common/tusb_fifo.h **** typedef struct {
 131:lib/TinyUSB/src/common/tusb_fifo.h ****   struct {
 132:lib/TinyUSB/src/common/tusb_fifo.h ****     uint16_t len; // length
 133:lib/TinyUSB/src/common/tusb_fifo.h ****     uint8_t *ptr; // buffer pointer
 134:lib/TinyUSB/src/common/tusb_fifo.h ****   } linear, wrapped;
 135:lib/TinyUSB/src/common/tusb_fifo.h **** } tu_fifo_buffer_info_t;
 136:lib/TinyUSB/src/common/tusb_fifo.h **** 
 137:lib/TinyUSB/src/common/tusb_fifo.h **** #define TU_FIFO_INIT(_buffer, _depth, _type, _overwritable) \
 138:lib/TinyUSB/src/common/tusb_fifo.h ****   {                                                         \
 139:lib/TinyUSB/src/common/tusb_fifo.h ****     .buffer       = _buffer,                                \
 140:lib/TinyUSB/src/common/tusb_fifo.h ****     .depth        = _depth,                                 \
 141:lib/TinyUSB/src/common/tusb_fifo.h ****     .item_size    = sizeof(_type),                          \
 142:lib/TinyUSB/src/common/tusb_fifo.h ****     .overwritable = _overwritable,                          \
 143:lib/TinyUSB/src/common/tusb_fifo.h ****   }
 144:lib/TinyUSB/src/common/tusb_fifo.h **** 
 145:lib/TinyUSB/src/common/tusb_fifo.h **** #define TU_FIFO_DEF(_name, _depth, _type, _overwritable)                      \
 146:lib/TinyUSB/src/common/tusb_fifo.h ****     uint8_t _name##_buf[_depth*sizeof(_type)];                                \
 147:lib/TinyUSB/src/common/tusb_fifo.h ****     tu_fifo_t _name = TU_FIFO_INIT(_name##_buf, _depth, _type, _overwritable)
ARM GAS  C:\Users\krisa\AppData\Local\Temp\ccoeKVOr.s 			page 27


 148:lib/TinyUSB/src/common/tusb_fifo.h **** 
 149:lib/TinyUSB/src/common/tusb_fifo.h **** // Write modes intended to allow special read and write functions to be able to
 150:lib/TinyUSB/src/common/tusb_fifo.h **** // copy data to and from USB hardware FIFOs as needed for e.g. STM32s and others
 151:lib/TinyUSB/src/common/tusb_fifo.h **** typedef enum {
 152:lib/TinyUSB/src/common/tusb_fifo.h ****   TU_FIFO_INC_ADDR_RW8,    // increased address read/write by bytes - normal (default) mode
 153:lib/TinyUSB/src/common/tusb_fifo.h ****   TU_FIFO_FIXED_ADDR_RW32, // fixed address read/write by 4 bytes (word). Used for STM32 access int
 154:lib/TinyUSB/src/common/tusb_fifo.h **** } tu_fifo_access_mode_t;
 155:lib/TinyUSB/src/common/tusb_fifo.h **** 
 156:lib/TinyUSB/src/common/tusb_fifo.h **** //--------------------------------------------------------------------+
 157:lib/TinyUSB/src/common/tusb_fifo.h **** // Setup API
 158:lib/TinyUSB/src/common/tusb_fifo.h **** //--------------------------------------------------------------------+
 159:lib/TinyUSB/src/common/tusb_fifo.h **** bool tu_fifo_config(tu_fifo_t *f, void *buffer, uint16_t depth, uint16_t item_size, bool overwritab
 160:lib/TinyUSB/src/common/tusb_fifo.h **** void tu_fifo_set_overwritable(tu_fifo_t *f, bool overwritable);
 161:lib/TinyUSB/src/common/tusb_fifo.h **** void tu_fifo_clear(tu_fifo_t *f);
 162:lib/TinyUSB/src/common/tusb_fifo.h **** 
 163:lib/TinyUSB/src/common/tusb_fifo.h **** #if OSAL_MUTEX_REQUIRED
 164:lib/TinyUSB/src/common/tusb_fifo.h **** TU_ATTR_ALWAYS_INLINE static inline
 165:lib/TinyUSB/src/common/tusb_fifo.h **** void tu_fifo_config_mutex(tu_fifo_t *f, osal_mutex_t wr_mutex, osal_mutex_t rd_mutex) {
 166:lib/TinyUSB/src/common/tusb_fifo.h ****   f->mutex_wr = wr_mutex;
 167:lib/TinyUSB/src/common/tusb_fifo.h ****   f->mutex_rd = rd_mutex;
 168:lib/TinyUSB/src/common/tusb_fifo.h **** }
 169:lib/TinyUSB/src/common/tusb_fifo.h **** #else
 170:lib/TinyUSB/src/common/tusb_fifo.h **** #define tu_fifo_config_mutex(_f, _wr_mutex, _rd_mutex)
 171:lib/TinyUSB/src/common/tusb_fifo.h **** #endif
 172:lib/TinyUSB/src/common/tusb_fifo.h **** 
 173:lib/TinyUSB/src/common/tusb_fifo.h **** //--------------------------------------------------------------------+
 174:lib/TinyUSB/src/common/tusb_fifo.h **** // Index API
 175:lib/TinyUSB/src/common/tusb_fifo.h **** //--------------------------------------------------------------------+
 176:lib/TinyUSB/src/common/tusb_fifo.h **** void tu_fifo_correct_read_pointer(tu_fifo_t *f);
 177:lib/TinyUSB/src/common/tusb_fifo.h **** 
 178:lib/TinyUSB/src/common/tusb_fifo.h **** // Pointer modifications intended to be used in combinations with DMAs.
 179:lib/TinyUSB/src/common/tusb_fifo.h **** // USE WITH CARE - NO SAFETY CHECKS CONDUCTED HERE! NOT MUTEX PROTECTED!
 180:lib/TinyUSB/src/common/tusb_fifo.h **** void tu_fifo_advance_write_pointer(tu_fifo_t *f, uint16_t n);
 181:lib/TinyUSB/src/common/tusb_fifo.h **** void tu_fifo_advance_read_pointer(tu_fifo_t *f, uint16_t n);
 182:lib/TinyUSB/src/common/tusb_fifo.h **** 
 183:lib/TinyUSB/src/common/tusb_fifo.h **** // If you want to read/write from/to the FIFO by use of a DMA, you may need to conduct two copies
 184:lib/TinyUSB/src/common/tusb_fifo.h **** // to handle a possible wrapping part. These functions deliver a pointer to start
 185:lib/TinyUSB/src/common/tusb_fifo.h **** // reading/writing from/to and a valid linear length along which no wrap occurs.
 186:lib/TinyUSB/src/common/tusb_fifo.h **** void tu_fifo_get_read_info(tu_fifo_t *f, tu_fifo_buffer_info_t *info);
 187:lib/TinyUSB/src/common/tusb_fifo.h **** void tu_fifo_get_write_info(tu_fifo_t *f, tu_fifo_buffer_info_t *info);
 188:lib/TinyUSB/src/common/tusb_fifo.h **** 
 189:lib/TinyUSB/src/common/tusb_fifo.h **** //--------------------------------------------------------------------+
 190:lib/TinyUSB/src/common/tusb_fifo.h **** // Peek API
 191:lib/TinyUSB/src/common/tusb_fifo.h **** // peek() will correct/re-index read pointer in case of an overflowed fifo to form a full fifo
 192:lib/TinyUSB/src/common/tusb_fifo.h **** //--------------------------------------------------------------------+
 193:lib/TinyUSB/src/common/tusb_fifo.h **** uint16_t tu_fifo_peek_n_access_mode(tu_fifo_t *f, void *p_buffer, uint16_t n, uint16_t wr_idx, uint
 194:lib/TinyUSB/src/common/tusb_fifo.h ****                                     tu_fifo_access_mode_t access_mode);
 195:lib/TinyUSB/src/common/tusb_fifo.h **** bool     tu_fifo_peek(tu_fifo_t *f, void *p_buffer);
 196:lib/TinyUSB/src/common/tusb_fifo.h **** uint16_t tu_fifo_peek_n(tu_fifo_t *f, void *p_buffer, uint16_t n);
 197:lib/TinyUSB/src/common/tusb_fifo.h **** 
 198:lib/TinyUSB/src/common/tusb_fifo.h **** //--------------------------------------------------------------------+
 199:lib/TinyUSB/src/common/tusb_fifo.h **** // Read API
 200:lib/TinyUSB/src/common/tusb_fifo.h **** // peek() + advance read index
 201:lib/TinyUSB/src/common/tusb_fifo.h **** //--------------------------------------------------------------------+
 202:lib/TinyUSB/src/common/tusb_fifo.h **** uint16_t tu_fifo_read_n_access_mode(tu_fifo_t *f, void *buffer, uint16_t n, tu_fifo_access_mode_t a
 203:lib/TinyUSB/src/common/tusb_fifo.h **** bool     tu_fifo_read(tu_fifo_t *f, void *buffer);
 204:lib/TinyUSB/src/common/tusb_fifo.h **** TU_ATTR_ALWAYS_INLINE static inline uint16_t tu_fifo_read_n(tu_fifo_t *f, void *buffer, uint16_t n)
ARM GAS  C:\Users\krisa\AppData\Local\Temp\ccoeKVOr.s 			page 28


 205:lib/TinyUSB/src/common/tusb_fifo.h ****   return tu_fifo_read_n_access_mode(f, buffer, n, TU_FIFO_INC_ADDR_RW8);
 206:lib/TinyUSB/src/common/tusb_fifo.h **** }
 207:lib/TinyUSB/src/common/tusb_fifo.h **** 
 208:lib/TinyUSB/src/common/tusb_fifo.h **** // discard first n items from fifo i.e advance read pointer by n with mutex
 209:lib/TinyUSB/src/common/tusb_fifo.h **** // return number of discarded items
 210:lib/TinyUSB/src/common/tusb_fifo.h **** uint16_t tu_fifo_discard_n(tu_fifo_t *f, uint16_t n);
 211:lib/TinyUSB/src/common/tusb_fifo.h **** 
 212:lib/TinyUSB/src/common/tusb_fifo.h **** //--------------------------------------------------------------------+
 213:lib/TinyUSB/src/common/tusb_fifo.h **** // Write API
 214:lib/TinyUSB/src/common/tusb_fifo.h **** //--------------------------------------------------------------------+
 215:lib/TinyUSB/src/common/tusb_fifo.h **** uint16_t tu_fifo_write_n_access_mode(tu_fifo_t *f, const void *data, uint16_t n, tu_fifo_access_mod
 216:lib/TinyUSB/src/common/tusb_fifo.h **** bool     tu_fifo_write(tu_fifo_t *f, const void *data);
 217:lib/TinyUSB/src/common/tusb_fifo.h **** TU_ATTR_ALWAYS_INLINE static inline uint16_t tu_fifo_write_n(tu_fifo_t *f, const void *data, uint16
 218:lib/TinyUSB/src/common/tusb_fifo.h ****   return tu_fifo_write_n_access_mode(f, data, n, TU_FIFO_INC_ADDR_RW8);
 219:lib/TinyUSB/src/common/tusb_fifo.h **** }
 220:lib/TinyUSB/src/common/tusb_fifo.h **** 
 221:lib/TinyUSB/src/common/tusb_fifo.h **** //--------------------------------------------------------------------+
 222:lib/TinyUSB/src/common/tusb_fifo.h **** // Internal Helper Local
 223:lib/TinyUSB/src/common/tusb_fifo.h **** // work on local copies of read/write indices in order to only access them once for re-entrancy
 224:lib/TinyUSB/src/common/tusb_fifo.h **** //--------------------------------------------------------------------+
 225:lib/TinyUSB/src/common/tusb_fifo.h **** // return overflowable count (index difference), which can be used to determine both fifo count and
 226:lib/TinyUSB/src/common/tusb_fifo.h **** TU_ATTR_ALWAYS_INLINE static inline uint16_t tu_ff_overflow_count(uint16_t depth, uint16_t wr_idx, 
 227:lib/TinyUSB/src/common/tusb_fifo.h ****   const int32_t diff = (int32_t)wr_idx - (int32_t)rd_idx;
 228:lib/TinyUSB/src/common/tusb_fifo.h ****   if (diff >= 0) {
 229:lib/TinyUSB/src/common/tusb_fifo.h ****     return (uint16_t)diff;
 230:lib/TinyUSB/src/common/tusb_fifo.h ****   } else {
 231:lib/TinyUSB/src/common/tusb_fifo.h ****     return (uint16_t)(2 * depth + diff);
 232:lib/TinyUSB/src/common/tusb_fifo.h ****   }
 233:lib/TinyUSB/src/common/tusb_fifo.h **** }
 234:lib/TinyUSB/src/common/tusb_fifo.h **** 
 235:lib/TinyUSB/src/common/tusb_fifo.h **** // return remaining slot in fifo
 236:lib/TinyUSB/src/common/tusb_fifo.h **** TU_ATTR_ALWAYS_INLINE static inline uint16_t tu_ff_remaining_local(uint16_t depth, uint16_t wr_idx,
 237:lib/TinyUSB/src/common/tusb_fifo.h ****   const uint16_t ovf_count = tu_ff_overflow_count(depth, wr_idx, rd_idx);
 238:lib/TinyUSB/src/common/tusb_fifo.h ****   return (depth > ovf_count) ? (depth - ovf_count) : 0;
 239:lib/TinyUSB/src/common/tusb_fifo.h **** }
 240:lib/TinyUSB/src/common/tusb_fifo.h **** 
 241:lib/TinyUSB/src/common/tusb_fifo.h **** //--------------------------------------------------------------------+
 242:lib/TinyUSB/src/common/tusb_fifo.h **** // State API
 243:lib/TinyUSB/src/common/tusb_fifo.h **** // Following functions are reentrant since they only access read/write indices once, therefore can 
 244:lib/TinyUSB/src/common/tusb_fifo.h **** // ISRs context without the need of mutexes
 245:lib/TinyUSB/src/common/tusb_fifo.h **** //--------------------------------------------------------------------+
 246:lib/TinyUSB/src/common/tusb_fifo.h **** TU_ATTR_ALWAYS_INLINE static inline uint16_t tu_fifo_depth(const tu_fifo_t *f) {
 247:lib/TinyUSB/src/common/tusb_fifo.h ****   return f->depth;
 248:lib/TinyUSB/src/common/tusb_fifo.h **** }
 249:lib/TinyUSB/src/common/tusb_fifo.h **** 
 250:lib/TinyUSB/src/common/tusb_fifo.h **** TU_ATTR_ALWAYS_INLINE static inline bool tu_fifo_empty(const tu_fifo_t *f) {
 251:lib/TinyUSB/src/common/tusb_fifo.h ****   const uint16_t wr_idx = f->wr_idx;
 252:lib/TinyUSB/src/common/tusb_fifo.h ****   const uint16_t rd_idx = f->rd_idx;
 253:lib/TinyUSB/src/common/tusb_fifo.h ****   return wr_idx == rd_idx;
 254:lib/TinyUSB/src/common/tusb_fifo.h **** }
 255:lib/TinyUSB/src/common/tusb_fifo.h **** 
 256:lib/TinyUSB/src/common/tusb_fifo.h **** // return number of items in fifo, capped to fifo's depth
 257:lib/TinyUSB/src/common/tusb_fifo.h **** TU_ATTR_ALWAYS_INLINE static inline uint16_t tu_fifo_count(const tu_fifo_t *f) {
 617              		.loc 5 257 46 discriminator 2 view .LVU136
 618              	.LBB146:
 258:lib/TinyUSB/src/common/tusb_fifo.h ****   return tu_min16(tu_ff_overflow_count(f->depth, f->wr_idx, f->rd_idx), f->depth);
 619              		.loc 5 258 3 discriminator 2 view .LVU137
ARM GAS  C:\Users\krisa\AppData\Local\Temp\ccoeKVOr.s 			page 29


 620              		.loc 5 258 10 is_stmt 0 discriminator 2 view .LVU138
 621 0012 9A8A     		ldrh	r2, [r3, #20]
 622 0014 1B8B     		ldrh	r3, [r3, #24]
 623 0016 9BB2     		uxth	r3, r3
 624 0018 C88A     		ldrh	r0, [r1, #22]
 625              	.LVL45:
 626              		.loc 5 258 10 discriminator 2 view .LVU139
 627 001a 80B2     		uxth	r0, r0
 628              	.LVL46:
 629              	.LBB147:
 630              	.LBI147:
 226:lib/TinyUSB/src/common/tusb_fifo.h ****   const int32_t diff = (int32_t)wr_idx - (int32_t)rd_idx;
 631              		.loc 5 226 46 is_stmt 1 discriminator 2 view .LVU140
 632              	.LBB148:
 227:lib/TinyUSB/src/common/tusb_fifo.h ****   if (diff >= 0) {
 633              		.loc 5 227 3 discriminator 2 view .LVU141
 227:lib/TinyUSB/src/common/tusb_fifo.h ****   if (diff >= 0) {
 634              		.loc 5 227 17 is_stmt 0 discriminator 2 view .LVU142
 635 001c 191A     		subs	r1, r3, r0
 636              	.LVL47:
 228:lib/TinyUSB/src/common/tusb_fifo.h ****     return (uint16_t)diff;
 637              		.loc 5 228 3 is_stmt 1 discriminator 2 view .LVU143
 228:lib/TinyUSB/src/common/tusb_fifo.h ****     return (uint16_t)diff;
 638              		.loc 5 228 6 is_stmt 0 discriminator 2 view .LVU144
 639 001e 0029     		cmp	r1, #0
 640 0020 04DB     		blt	.L57
 229:lib/TinyUSB/src/common/tusb_fifo.h ****   } else {
 641              		.loc 5 229 5 is_stmt 1 view .LVU145
 229:lib/TinyUSB/src/common/tusb_fifo.h ****   } else {
 642              		.loc 5 229 12 is_stmt 0 view .LVU146
 643 0022 88B2     		uxth	r0, r1
 644              	.LVL48:
 645              	.L58:
 229:lib/TinyUSB/src/common/tusb_fifo.h ****   } else {
 646              		.loc 5 229 12 view .LVU147
 647              	.LBE148:
 648              	.LBE147:
 649              	.LBB150:
 650              	.LBI150:
 203:lib/TinyUSB/src/common/tusb_common.h **** 
 204:lib/TinyUSB/src/common/tusb_common.h **** //------------- Min -------------//
 205:lib/TinyUSB/src/common/tusb_common.h **** TU_ATTR_ALWAYS_INLINE static inline uint8_t  tu_min8  (uint8_t  x, uint8_t y ) { return (x < y) ? x
 206:lib/TinyUSB/src/common/tusb_common.h **** TU_ATTR_ALWAYS_INLINE static inline uint16_t tu_min16 (uint16_t x, uint16_t y) { return (x < y) ? x
 651              		.loc 4 206 46 is_stmt 1 view .LVU148
 652              	.LBB151:
 653              		.loc 4 206 82 view .LVU149
 654              		.loc 4 206 101 is_stmt 0 view .LVU150
 655 0024 9042     		cmp	r0, r2
 656 0026 28BF     		it	cs
 657 0028 1046     		movcs	r0, r2
 658              	.LVL49:
 659              		.loc 4 206 101 view .LVU151
 660              	.LBE151:
 661              	.LBE150:
 662              	.LBE146:
 663              	.LBE145:
 664              	.LBE144:
ARM GAS  C:\Users\krisa\AppData\Local\Temp\ccoeKVOr.s 			page 30


 665              	.LBE143:
 666              		.loc 1 198 10 view .LVU152
 667 002a 7047     		bx	lr
 668              	.LVL50:
 669              	.L57:
 670              	.LBB156:
 671              	.LBB155:
 672              	.LBB154:
 673              	.LBB153:
 674              	.LBB152:
 675              	.LBB149:
 231:lib/TinyUSB/src/common/tusb_fifo.h ****   }
 676              		.loc 5 231 5 is_stmt 1 view .LVU153
 231:lib/TinyUSB/src/common/tusb_fifo.h ****   }
 677              		.loc 5 231 12 is_stmt 0 view .LVU154
 678 002c 1B1A     		subs	r3, r3, r0
 679              	.LVL51:
 231:lib/TinyUSB/src/common/tusb_fifo.h ****   }
 680              		.loc 5 231 12 view .LVU155
 681 002e 03EB4203 		add	r3, r3, r2, lsl #1
 682 0032 98B2     		uxth	r0, r3
 683              	.LVL52:
 231:lib/TinyUSB/src/common/tusb_fifo.h ****   }
 684              		.loc 5 231 12 view .LVU156
 685 0034 F6E7     		b	.L58
 686              	.LVL53:
 687              	.L59:
 231:lib/TinyUSB/src/common/tusb_fifo.h ****   }
 688              		.loc 5 231 12 view .LVU157
 689              	.LBE149:
 690              	.LBE152:
 691              	.LBE153:
 692              	.LBE154:
 693              	.LBE155:
 694              	.LBE156:
 197:lib/TinyUSB/src/class/cdc/cdc_device.c ****   return tu_edpt_stream_read_available(&_cdcd_itf[itf].rx_stream);
 695              		.loc 1 197 3 view .LVU158
 696 0036 0020     		movs	r0, #0
 697              	.LVL54:
 199:lib/TinyUSB/src/class/cdc/cdc_device.c **** }
 698              		.loc 1 199 1 view .LVU159
 699 0038 7047     		bx	lr
 700              	.L61:
 701 003a 00BF     		.align	2
 702              	.L60:
 703 003c 00000000 		.word	.LANCHOR1
 704              		.cfi_endproc
 705              	.LFE124:
 707              		.section	.text.tud_cdc_n_read,"ax",%progbits
 708              		.align	1
 709              		.global	tud_cdc_n_read
 710              		.syntax unified
 711              		.thumb
 712              		.thumb_func
 714              	tud_cdc_n_read:
 715              	.LVL55:
 716              	.LFB125:
ARM GAS  C:\Users\krisa\AppData\Local\Temp\ccoeKVOr.s 			page 31


 200:lib/TinyUSB/src/class/cdc/cdc_device.c **** 
 201:lib/TinyUSB/src/class/cdc/cdc_device.c **** uint32_t tud_cdc_n_read(uint8_t itf, void* buffer, uint32_t bufsize) {
 717              		.loc 1 201 70 is_stmt 1 view -0
 718              		.cfi_startproc
 719              		@ args = 0, pretend = 0, frame = 0
 720              		@ frame_needed = 0, uses_anonymous_args = 0
 202:lib/TinyUSB/src/class/cdc/cdc_device.c ****   TU_VERIFY(itf < CFG_TUD_CDC, 0);
 721              		.loc 1 202 3 view .LVU161
 722              		.loc 1 202 3 view .LVU162
 723 0000 08B1     		cbz	r0, .L69
 724 0002 0020     		movs	r0, #0
 725              	.LVL56:
 203:lib/TinyUSB/src/class/cdc/cdc_device.c ****   cdcd_interface_t *p_cdc = &_cdcd_itf[itf];
 204:lib/TinyUSB/src/class/cdc/cdc_device.c ****   return tu_edpt_stream_read(&p_cdc->rx_stream, buffer, bufsize);
 205:lib/TinyUSB/src/class/cdc/cdc_device.c **** }
 726              		.loc 1 205 1 is_stmt 0 view .LVU163
 727 0004 7047     		bx	lr
 728              	.LVL57:
 729              	.L69:
 201:lib/TinyUSB/src/class/cdc/cdc_device.c ****   TU_VERIFY(itf < CFG_TUD_CDC, 0);
 730              		.loc 1 201 70 discriminator 2 view .LVU164
 731 0006 08B5     		push	{r3, lr}
 732              	.LCFI2:
 733              		.cfi_def_cfa_offset 8
 734              		.cfi_offset 3, -8
 735              		.cfi_offset 14, -4
 736 0008 0346     		mov	r3, r0
 202:lib/TinyUSB/src/class/cdc/cdc_device.c ****   TU_VERIFY(itf < CFG_TUD_CDC, 0);
 737              		.loc 1 202 3 is_stmt 1 discriminator 2 view .LVU165
 203:lib/TinyUSB/src/class/cdc/cdc_device.c ****   cdcd_interface_t *p_cdc = &_cdcd_itf[itf];
 738              		.loc 1 203 3 discriminator 2 view .LVU166
 739              	.LVL58:
 204:lib/TinyUSB/src/class/cdc/cdc_device.c **** }
 740              		.loc 1 204 3 discriminator 2 view .LVU167
 204:lib/TinyUSB/src/class/cdc/cdc_device.c **** }
 741              		.loc 1 204 10 is_stmt 0 discriminator 2 view .LVU168
 742 000a BC20     		movs	r0, #188
 743              	.LVL59:
 204:lib/TinyUSB/src/class/cdc/cdc_device.c **** }
 744              		.loc 1 204 10 discriminator 2 view .LVU169
 745 000c 00FB03F3 		mul	r3, r0, r3
 746              	.LVL60:
 204:lib/TinyUSB/src/class/cdc/cdc_device.c **** }
 747              		.loc 1 204 10 discriminator 2 view .LVU170
 748 0010 2033     		adds	r3, r3, #32
 749 0012 0348     		ldr	r0, .L70
 750 0014 1844     		add	r0, r0, r3
 751 0016 0430     		adds	r0, r0, #4
 752 0018 FFF7FEFF 		bl	tu_edpt_stream_read
 753              	.LVL61:
 754              		.loc 1 205 1 discriminator 2 view .LVU171
 755 001c 08BD     		pop	{r3, pc}
 756              	.L71:
 757 001e 00BF     		.align	2
 758              	.L70:
 759 0020 00000000 		.word	.LANCHOR1
 760              		.cfi_endproc
ARM GAS  C:\Users\krisa\AppData\Local\Temp\ccoeKVOr.s 			page 32


 761              	.LFE125:
 763              		.section	.text.tud_cdc_n_peek,"ax",%progbits
 764              		.align	1
 765              		.global	tud_cdc_n_peek
 766              		.syntax unified
 767              		.thumb
 768              		.thumb_func
 770              	tud_cdc_n_peek:
 771              	.LVL62:
 772              	.LFB126:
 206:lib/TinyUSB/src/class/cdc/cdc_device.c **** 
 207:lib/TinyUSB/src/class/cdc/cdc_device.c **** bool tud_cdc_n_peek(uint8_t itf, uint8_t *chr) {
 773              		.loc 1 207 48 is_stmt 1 view -0
 774              		.cfi_startproc
 775              		@ args = 0, pretend = 0, frame = 0
 776              		@ frame_needed = 0, uses_anonymous_args = 0
 208:lib/TinyUSB/src/class/cdc/cdc_device.c ****   TU_VERIFY(itf < CFG_TUD_CDC);
 777              		.loc 1 208 3 view .LVU173
 778              		.loc 1 208 3 view .LVU174
 779 0000 08B1     		cbz	r0, .L79
 780 0002 0020     		movs	r0, #0
 781              	.LVL63:
 209:lib/TinyUSB/src/class/cdc/cdc_device.c ****   return tu_edpt_stream_peek(&_cdcd_itf[itf].rx_stream, chr);
 210:lib/TinyUSB/src/class/cdc/cdc_device.c **** }
 782              		.loc 1 210 1 is_stmt 0 view .LVU175
 783 0004 7047     		bx	lr
 784              	.LVL64:
 785              	.L79:
 207:lib/TinyUSB/src/class/cdc/cdc_device.c ****   TU_VERIFY(itf < CFG_TUD_CDC);
 786              		.loc 1 207 48 discriminator 2 view .LVU176
 787 0006 08B5     		push	{r3, lr}
 788              	.LCFI3:
 789              		.cfi_def_cfa_offset 8
 790              		.cfi_offset 3, -8
 791              		.cfi_offset 14, -4
 792 0008 0346     		mov	r3, r0
 208:lib/TinyUSB/src/class/cdc/cdc_device.c ****   TU_VERIFY(itf < CFG_TUD_CDC);
 793              		.loc 1 208 3 is_stmt 1 discriminator 2 view .LVU177
 209:lib/TinyUSB/src/class/cdc/cdc_device.c ****   return tu_edpt_stream_peek(&_cdcd_itf[itf].rx_stream, chr);
 794              		.loc 1 209 3 discriminator 2 view .LVU178
 795              	.LVL65:
 796              	.LBB157:
 797              	.LBI157:
 195:lib/TinyUSB/src/common/tusb_private.h **** }
 196:lib/TinyUSB/src/common/tusb_private.h **** 
 197:lib/TinyUSB/src/common/tusb_private.h **** TU_ATTR_ALWAYS_INLINE static inline bool tu_edpt_stream_peek(tu_edpt_stream_t *s, uint8_t *ch) {
 798              		.loc 3 197 42 discriminator 2 view .LVU179
 799              	.LBB158:
 198:lib/TinyUSB/src/common/tusb_private.h ****   return tu_fifo_peek(&s->ff, ch);
 800              		.loc 3 198 3 discriminator 2 view .LVU180
 801              		.loc 3 198 10 is_stmt 0 discriminator 2 view .LVU181
 802 000a BC20     		movs	r0, #188
 803              	.LVL66:
 804              		.loc 3 198 10 discriminator 2 view .LVU182
 805 000c 00FB03F3 		mul	r3, r0, r3
 806              	.LVL67:
 807              		.loc 3 198 10 discriminator 2 view .LVU183
ARM GAS  C:\Users\krisa\AppData\Local\Temp\ccoeKVOr.s 			page 33


 808 0010 2833     		adds	r3, r3, #40
 809 0012 0348     		ldr	r0, .L80
 810 0014 1844     		add	r0, r0, r3
 811 0016 0830     		adds	r0, r0, #8
 812 0018 FFF7FEFF 		bl	tu_fifo_peek
 813              	.LVL68:
 814              		.loc 3 198 10 discriminator 2 view .LVU184
 815              	.LBE158:
 816              	.LBE157:
 817              		.loc 1 210 1 discriminator 2 view .LVU185
 818 001c 08BD     		pop	{r3, pc}
 819              	.L81:
 820 001e 00BF     		.align	2
 821              	.L80:
 822 0020 00000000 		.word	.LANCHOR1
 823              		.cfi_endproc
 824              	.LFE126:
 826              		.section	.text.tud_cdc_n_read_flush,"ax",%progbits
 827              		.align	1
 828              		.global	tud_cdc_n_read_flush
 829              		.syntax unified
 830              		.thumb
 831              		.thumb_func
 833              	tud_cdc_n_read_flush:
 834              	.LVL69:
 835              	.LFB127:
 211:lib/TinyUSB/src/class/cdc/cdc_device.c **** 
 212:lib/TinyUSB/src/class/cdc/cdc_device.c **** void tud_cdc_n_read_flush(uint8_t itf) {
 836              		.loc 1 212 40 is_stmt 1 view -0
 837              		.cfi_startproc
 838              		@ args = 0, pretend = 0, frame = 0
 839              		@ frame_needed = 0, uses_anonymous_args = 0
 213:lib/TinyUSB/src/class/cdc/cdc_device.c ****   TU_VERIFY(itf < CFG_TUD_CDC, );
 840              		.loc 1 213 3 view .LVU187
 841              		.loc 1 213 3 view .LVU188
 842 0000 00B1     		cbz	r0, .L88
 843 0002 7047     		bx	lr
 844              	.L88:
 212:lib/TinyUSB/src/class/cdc/cdc_device.c ****   TU_VERIFY(itf < CFG_TUD_CDC, );
 845              		.loc 1 212 40 is_stmt 0 discriminator 2 view .LVU189
 846 0004 38B5     		push	{r3, r4, r5, lr}
 847              	.LCFI4:
 848              		.cfi_def_cfa_offset 16
 849              		.cfi_offset 3, -16
 850              		.cfi_offset 4, -12
 851              		.cfi_offset 5, -8
 852              		.cfi_offset 14, -4
 853              		.loc 1 213 3 is_stmt 1 discriminator 2 view .LVU190
 214:lib/TinyUSB/src/class/cdc/cdc_device.c ****   cdcd_interface_t *p_cdc = &_cdcd_itf[itf];
 854              		.loc 1 214 3 discriminator 2 view .LVU191
 855              	.LVL70:
 215:lib/TinyUSB/src/class/cdc/cdc_device.c ****   tu_edpt_stream_clear(&p_cdc->rx_stream);
 856              		.loc 1 215 3 discriminator 2 view .LVU192
 857              	.LBB159:
 858              	.LBI159:
 143:lib/TinyUSB/src/common/tusb_private.h ****   tu_fifo_clear(&s->ff);
 859              		.loc 3 143 42 discriminator 2 view .LVU193
ARM GAS  C:\Users\krisa\AppData\Local\Temp\ccoeKVOr.s 			page 34


 860              	.LBB160:
 144:lib/TinyUSB/src/common/tusb_private.h **** }
 861              		.loc 3 144 3 discriminator 2 view .LVU194
 862 0006 084D     		ldr	r5, .L89
 863 0008 BC24     		movs	r4, #188
 864 000a 00FB04F4 		mul	r4, r0, r4
 865 000e 04F12800 		add	r0, r4, #40
 866              	.LVL71:
 144:lib/TinyUSB/src/common/tusb_private.h **** }
 867              		.loc 3 144 3 is_stmt 0 discriminator 2 view .LVU195
 868 0012 2844     		add	r0, r0, r5
 869 0014 0830     		adds	r0, r0, #8
 870 0016 FFF7FEFF 		bl	tu_fifo_clear
 871              	.LVL72:
 144:lib/TinyUSB/src/common/tusb_private.h **** }
 872              		.loc 3 144 3 discriminator 2 view .LVU196
 873              	.LBE160:
 874              	.LBE159:
 216:lib/TinyUSB/src/class/cdc/cdc_device.c ****   tu_edpt_stream_read_xfer(&p_cdc->rx_stream);
 875              		.loc 1 216 3 is_stmt 1 discriminator 2 view .LVU197
 876 001a 04F12003 		add	r3, r4, #32
 877 001e 2B44     		add	r3, r3, r5
 878 0020 181D     		adds	r0, r3, #4
 879 0022 FFF7FEFF 		bl	tu_edpt_stream_read_xfer
 880              	.LVL73:
 217:lib/TinyUSB/src/class/cdc/cdc_device.c **** }
 881              		.loc 1 217 1 is_stmt 0 discriminator 2 view .LVU198
 882 0026 38BD     		pop	{r3, r4, r5, pc}
 883              	.L90:
 884              		.align	2
 885              	.L89:
 886 0028 00000000 		.word	.LANCHOR1
 887              		.cfi_endproc
 888              	.LFE127:
 890              		.section	.text.tud_cdc_n_write,"ax",%progbits
 891              		.align	1
 892              		.global	tud_cdc_n_write
 893              		.syntax unified
 894              		.thumb
 895              		.thumb_func
 897              	tud_cdc_n_write:
 898              	.LVL74:
 899              	.LFB128:
 218:lib/TinyUSB/src/class/cdc/cdc_device.c **** 
 219:lib/TinyUSB/src/class/cdc/cdc_device.c **** //--------------------------------------------------------------------+
 220:lib/TinyUSB/src/class/cdc/cdc_device.c **** // WRITE API
 221:lib/TinyUSB/src/class/cdc/cdc_device.c **** //--------------------------------------------------------------------+
 222:lib/TinyUSB/src/class/cdc/cdc_device.c **** uint32_t tud_cdc_n_write(uint8_t itf, const void* buffer, uint32_t bufsize) {
 900              		.loc 1 222 77 is_stmt 1 view -0
 901              		.cfi_startproc
 902              		@ args = 0, pretend = 0, frame = 0
 903              		@ frame_needed = 0, uses_anonymous_args = 0
 223:lib/TinyUSB/src/class/cdc/cdc_device.c ****   TU_VERIFY(itf < CFG_TUD_CDC, 0);
 904              		.loc 1 223 3 view .LVU200
 905              		.loc 1 223 3 view .LVU201
 906 0000 08B1     		cbz	r0, .L98
 907 0002 0020     		movs	r0, #0
ARM GAS  C:\Users\krisa\AppData\Local\Temp\ccoeKVOr.s 			page 35


 908              	.LVL75:
 224:lib/TinyUSB/src/class/cdc/cdc_device.c ****   cdcd_interface_t *p_cdc = &_cdcd_itf[itf];
 225:lib/TinyUSB/src/class/cdc/cdc_device.c ****   return tu_edpt_stream_write(&p_cdc->tx_stream, buffer, bufsize);
 226:lib/TinyUSB/src/class/cdc/cdc_device.c **** }
 909              		.loc 1 226 1 is_stmt 0 view .LVU202
 910 0004 7047     		bx	lr
 911              	.LVL76:
 912              	.L98:
 222:lib/TinyUSB/src/class/cdc/cdc_device.c ****   TU_VERIFY(itf < CFG_TUD_CDC, 0);
 913              		.loc 1 222 77 discriminator 2 view .LVU203
 914 0006 08B5     		push	{r3, lr}
 915              	.LCFI5:
 916              		.cfi_def_cfa_offset 8
 917              		.cfi_offset 3, -8
 918              		.cfi_offset 14, -4
 919 0008 0346     		mov	r3, r0
 223:lib/TinyUSB/src/class/cdc/cdc_device.c ****   TU_VERIFY(itf < CFG_TUD_CDC, 0);
 920              		.loc 1 223 3 is_stmt 1 discriminator 2 view .LVU204
 224:lib/TinyUSB/src/class/cdc/cdc_device.c ****   cdcd_interface_t *p_cdc = &_cdcd_itf[itf];
 921              		.loc 1 224 3 discriminator 2 view .LVU205
 922              	.LVL77:
 225:lib/TinyUSB/src/class/cdc/cdc_device.c **** }
 923              		.loc 1 225 3 discriminator 2 view .LVU206
 225:lib/TinyUSB/src/class/cdc/cdc_device.c **** }
 924              		.loc 1 225 10 is_stmt 0 discriminator 2 view .LVU207
 925 000a BC20     		movs	r0, #188
 926              	.LVL78:
 225:lib/TinyUSB/src/class/cdc/cdc_device.c **** }
 927              		.loc 1 225 10 discriminator 2 view .LVU208
 928 000c 00FB03F3 		mul	r3, r0, r3
 929              	.LVL79:
 225:lib/TinyUSB/src/class/cdc/cdc_device.c **** }
 930              		.loc 1 225 10 discriminator 2 view .LVU209
 931 0010 0833     		adds	r3, r3, #8
 932 0012 0348     		ldr	r0, .L99
 933 0014 1844     		add	r0, r0, r3
 934 0016 0430     		adds	r0, r0, #4
 935 0018 FFF7FEFF 		bl	tu_edpt_stream_write
 936              	.LVL80:
 937              		.loc 1 226 1 discriminator 2 view .LVU210
 938 001c 08BD     		pop	{r3, pc}
 939              	.L100:
 940 001e 00BF     		.align	2
 941              	.L99:
 942 0020 00000000 		.word	.LANCHOR1
 943              		.cfi_endproc
 944              	.LFE128:
 946              		.section	.text.tud_cdc_n_write_flush,"ax",%progbits
 947              		.align	1
 948              		.global	tud_cdc_n_write_flush
 949              		.syntax unified
 950              		.thumb
 951              		.thumb_func
 953              	tud_cdc_n_write_flush:
 954              	.LVL81:
 955              	.LFB129:
 227:lib/TinyUSB/src/class/cdc/cdc_device.c **** 
ARM GAS  C:\Users\krisa\AppData\Local\Temp\ccoeKVOr.s 			page 36


 228:lib/TinyUSB/src/class/cdc/cdc_device.c **** uint32_t tud_cdc_n_write_flush(uint8_t itf) {
 956              		.loc 1 228 45 is_stmt 1 view -0
 957              		.cfi_startproc
 958              		@ args = 0, pretend = 0, frame = 0
 959              		@ frame_needed = 0, uses_anonymous_args = 0
 229:lib/TinyUSB/src/class/cdc/cdc_device.c ****   TU_VERIFY(itf < CFG_TUD_CDC, 0);
 960              		.loc 1 229 3 view .LVU212
 961              		.loc 1 229 3 view .LVU213
 962 0000 08B1     		cbz	r0, .L108
 963 0002 0020     		movs	r0, #0
 964              	.LVL82:
 230:lib/TinyUSB/src/class/cdc/cdc_device.c ****   cdcd_interface_t *p_cdc = &_cdcd_itf[itf];
 231:lib/TinyUSB/src/class/cdc/cdc_device.c ****   return tu_edpt_stream_write_xfer(&p_cdc->tx_stream);
 232:lib/TinyUSB/src/class/cdc/cdc_device.c **** }
 965              		.loc 1 232 1 is_stmt 0 view .LVU214
 966 0004 7047     		bx	lr
 967              	.LVL83:
 968              	.L108:
 228:lib/TinyUSB/src/class/cdc/cdc_device.c ****   TU_VERIFY(itf < CFG_TUD_CDC, 0);
 969              		.loc 1 228 45 discriminator 2 view .LVU215
 970 0006 08B5     		push	{r3, lr}
 971              	.LCFI6:
 972              		.cfi_def_cfa_offset 8
 973              		.cfi_offset 3, -8
 974              		.cfi_offset 14, -4
 975 0008 0346     		mov	r3, r0
 229:lib/TinyUSB/src/class/cdc/cdc_device.c ****   TU_VERIFY(itf < CFG_TUD_CDC, 0);
 976              		.loc 1 229 3 is_stmt 1 discriminator 2 view .LVU216
 230:lib/TinyUSB/src/class/cdc/cdc_device.c ****   cdcd_interface_t *p_cdc = &_cdcd_itf[itf];
 977              		.loc 1 230 3 discriminator 2 view .LVU217
 978              	.LVL84:
 231:lib/TinyUSB/src/class/cdc/cdc_device.c **** }
 979              		.loc 1 231 3 discriminator 2 view .LVU218
 231:lib/TinyUSB/src/class/cdc/cdc_device.c **** }
 980              		.loc 1 231 10 is_stmt 0 discriminator 2 view .LVU219
 981 000a BC20     		movs	r0, #188
 982              	.LVL85:
 231:lib/TinyUSB/src/class/cdc/cdc_device.c **** }
 983              		.loc 1 231 10 discriminator 2 view .LVU220
 984 000c 00FB03F3 		mul	r3, r0, r3
 985              	.LVL86:
 231:lib/TinyUSB/src/class/cdc/cdc_device.c **** }
 986              		.loc 1 231 10 discriminator 2 view .LVU221
 987 0010 0833     		adds	r3, r3, #8
 988 0012 0348     		ldr	r0, .L109
 989 0014 1844     		add	r0, r0, r3
 990 0016 0430     		adds	r0, r0, #4
 991 0018 FFF7FEFF 		bl	tu_edpt_stream_write_xfer
 992              	.LVL87:
 993              		.loc 1 232 1 discriminator 2 view .LVU222
 994 001c 08BD     		pop	{r3, pc}
 995              	.L110:
 996 001e 00BF     		.align	2
 997              	.L109:
 998 0020 00000000 		.word	.LANCHOR1
 999              		.cfi_endproc
 1000              	.LFE129:
ARM GAS  C:\Users\krisa\AppData\Local\Temp\ccoeKVOr.s 			page 37


 1002              		.section	.text.tud_cdc_n_write_available,"ax",%progbits
 1003              		.align	1
 1004              		.global	tud_cdc_n_write_available
 1005              		.syntax unified
 1006              		.thumb
 1007              		.thumb_func
 1009              	tud_cdc_n_write_available:
 1010              	.LVL88:
 1011              	.LFB130:
 233:lib/TinyUSB/src/class/cdc/cdc_device.c **** 
 234:lib/TinyUSB/src/class/cdc/cdc_device.c **** uint32_t tud_cdc_n_write_available(uint8_t itf) {
 1012              		.loc 1 234 49 is_stmt 1 view -0
 1013              		.cfi_startproc
 1014              		@ args = 0, pretend = 0, frame = 0
 1015              		@ frame_needed = 0, uses_anonymous_args = 0
 235:lib/TinyUSB/src/class/cdc/cdc_device.c ****   TU_VERIFY(itf < CFG_TUD_CDC, 0);
 1016              		.loc 1 235 3 view .LVU224
 1017              		.loc 1 235 3 view .LVU225
 1018 0000 08B1     		cbz	r0, .L118
 1019 0002 0020     		movs	r0, #0
 1020              	.LVL89:
 236:lib/TinyUSB/src/class/cdc/cdc_device.c ****   cdcd_interface_t *p_cdc = &_cdcd_itf[itf];
 237:lib/TinyUSB/src/class/cdc/cdc_device.c ****   return tu_edpt_stream_write_available(&p_cdc->tx_stream);
 238:lib/TinyUSB/src/class/cdc/cdc_device.c **** }
 1021              		.loc 1 238 1 is_stmt 0 view .LVU226
 1022 0004 7047     		bx	lr
 1023              	.LVL90:
 1024              	.L118:
 234:lib/TinyUSB/src/class/cdc/cdc_device.c ****   TU_VERIFY(itf < CFG_TUD_CDC, 0);
 1025              		.loc 1 234 49 discriminator 2 view .LVU227
 1026 0006 08B5     		push	{r3, lr}
 1027              	.LCFI7:
 1028              		.cfi_def_cfa_offset 8
 1029              		.cfi_offset 3, -8
 1030              		.cfi_offset 14, -4
 1031 0008 0346     		mov	r3, r0
 235:lib/TinyUSB/src/class/cdc/cdc_device.c ****   TU_VERIFY(itf < CFG_TUD_CDC, 0);
 1032              		.loc 1 235 3 is_stmt 1 discriminator 2 view .LVU228
 236:lib/TinyUSB/src/class/cdc/cdc_device.c ****   cdcd_interface_t *p_cdc = &_cdcd_itf[itf];
 1033              		.loc 1 236 3 discriminator 2 view .LVU229
 1034              	.LVL91:
 237:lib/TinyUSB/src/class/cdc/cdc_device.c **** }
 1035              		.loc 1 237 3 discriminator 2 view .LVU230
 237:lib/TinyUSB/src/class/cdc/cdc_device.c **** }
 1036              		.loc 1 237 10 is_stmt 0 discriminator 2 view .LVU231
 1037 000a BC20     		movs	r0, #188
 1038              	.LVL92:
 237:lib/TinyUSB/src/class/cdc/cdc_device.c **** }
 1039              		.loc 1 237 10 discriminator 2 view .LVU232
 1040 000c 00FB03F3 		mul	r3, r0, r3
 1041              	.LVL93:
 237:lib/TinyUSB/src/class/cdc/cdc_device.c **** }
 1042              		.loc 1 237 10 discriminator 2 view .LVU233
 1043 0010 0833     		adds	r3, r3, #8
 1044 0012 0348     		ldr	r0, .L119
 1045 0014 1844     		add	r0, r0, r3
 1046 0016 0430     		adds	r0, r0, #4
ARM GAS  C:\Users\krisa\AppData\Local\Temp\ccoeKVOr.s 			page 38


 1047 0018 FFF7FEFF 		bl	tu_edpt_stream_write_available
 1048              	.LVL94:
 1049              		.loc 1 238 1 discriminator 2 view .LVU234
 1050 001c 08BD     		pop	{r3, pc}
 1051              	.L120:
 1052 001e 00BF     		.align	2
 1053              	.L119:
 1054 0020 00000000 		.word	.LANCHOR1
 1055              		.cfi_endproc
 1056              	.LFE130:
 1058              		.section	.text.tud_cdc_n_write_clear,"ax",%progbits
 1059              		.align	1
 1060              		.global	tud_cdc_n_write_clear
 1061              		.syntax unified
 1062              		.thumb
 1063              		.thumb_func
 1065              	tud_cdc_n_write_clear:
 1066              	.LVL95:
 1067              	.LFB131:
 239:lib/TinyUSB/src/class/cdc/cdc_device.c **** 
 240:lib/TinyUSB/src/class/cdc/cdc_device.c **** bool tud_cdc_n_write_clear(uint8_t itf) {
 1068              		.loc 1 240 41 is_stmt 1 view -0
 1069              		.cfi_startproc
 1070              		@ args = 0, pretend = 0, frame = 0
 1071              		@ frame_needed = 0, uses_anonymous_args = 0
 241:lib/TinyUSB/src/class/cdc/cdc_device.c ****   TU_VERIFY(itf < CFG_TUD_CDC);
 1072              		.loc 1 241 3 view .LVU236
 1073              		.loc 1 241 3 view .LVU237
 1074 0000 08B1     		cbz	r0, .L128
 1075 0002 0020     		movs	r0, #0
 1076              	.LVL96:
 242:lib/TinyUSB/src/class/cdc/cdc_device.c ****   cdcd_interface_t *p_cdc = &_cdcd_itf[itf];
 243:lib/TinyUSB/src/class/cdc/cdc_device.c ****   tu_edpt_stream_clear(&p_cdc->tx_stream);
 244:lib/TinyUSB/src/class/cdc/cdc_device.c ****   return true;
 245:lib/TinyUSB/src/class/cdc/cdc_device.c **** }
 1077              		.loc 1 245 1 is_stmt 0 view .LVU238
 1078 0004 7047     		bx	lr
 1079              	.LVL97:
 1080              	.L128:
 240:lib/TinyUSB/src/class/cdc/cdc_device.c ****   TU_VERIFY(itf < CFG_TUD_CDC);
 1081              		.loc 1 240 41 discriminator 2 view .LVU239
 1082 0006 08B5     		push	{r3, lr}
 1083              	.LCFI8:
 1084              		.cfi_def_cfa_offset 8
 1085              		.cfi_offset 3, -8
 1086              		.cfi_offset 14, -4
 1087 0008 0346     		mov	r3, r0
 241:lib/TinyUSB/src/class/cdc/cdc_device.c ****   TU_VERIFY(itf < CFG_TUD_CDC);
 1088              		.loc 1 241 3 is_stmt 1 discriminator 2 view .LVU240
 242:lib/TinyUSB/src/class/cdc/cdc_device.c ****   cdcd_interface_t *p_cdc = &_cdcd_itf[itf];
 1089              		.loc 1 242 3 discriminator 2 view .LVU241
 1090              	.LVL98:
 243:lib/TinyUSB/src/class/cdc/cdc_device.c ****   return true;
 1091              		.loc 1 243 3 discriminator 2 view .LVU242
 1092              	.LBB161:
 1093              	.LBI161:
 143:lib/TinyUSB/src/common/tusb_private.h ****   tu_fifo_clear(&s->ff);
ARM GAS  C:\Users\krisa\AppData\Local\Temp\ccoeKVOr.s 			page 39


 1094              		.loc 3 143 42 discriminator 2 view .LVU243
 1095              	.LBB162:
 144:lib/TinyUSB/src/common/tusb_private.h **** }
 1096              		.loc 3 144 3 discriminator 2 view .LVU244
 1097 000a BC20     		movs	r0, #188
 1098              	.LVL99:
 144:lib/TinyUSB/src/common/tusb_private.h **** }
 1099              		.loc 3 144 3 is_stmt 0 discriminator 2 view .LVU245
 1100 000c 00FB03F3 		mul	r3, r0, r3
 1101              	.LVL100:
 144:lib/TinyUSB/src/common/tusb_private.h **** }
 1102              		.loc 3 144 3 discriminator 2 view .LVU246
 1103 0010 1033     		adds	r3, r3, #16
 1104 0012 0348     		ldr	r0, .L129
 1105 0014 1844     		add	r0, r0, r3
 1106 0016 0830     		adds	r0, r0, #8
 1107 0018 FFF7FEFF 		bl	tu_fifo_clear
 1108              	.LVL101:
 144:lib/TinyUSB/src/common/tusb_private.h **** }
 1109              		.loc 3 144 3 discriminator 2 view .LVU247
 1110              	.LBE162:
 1111              	.LBE161:
 244:lib/TinyUSB/src/class/cdc/cdc_device.c **** }
 1112              		.loc 1 244 3 is_stmt 1 discriminator 2 view .LVU248
 244:lib/TinyUSB/src/class/cdc/cdc_device.c **** }
 1113              		.loc 1 244 10 is_stmt 0 discriminator 2 view .LVU249
 1114 001c 0120     		movs	r0, #1
 1115              		.loc 1 245 1 discriminator 2 view .LVU250
 1116 001e 08BD     		pop	{r3, pc}
 1117              	.L130:
 1118              		.align	2
 1119              	.L129:
 1120 0020 00000000 		.word	.LANCHOR1
 1121              		.cfi_endproc
 1122              	.LFE131:
 1124              		.section	.text.cdcd_init,"ax",%progbits
 1125              		.align	1
 1126              		.global	cdcd_init
 1127              		.syntax unified
 1128              		.thumb
 1129              		.thumb_func
 1131              	cdcd_init:
 1132              	.LFB132:
 246:lib/TinyUSB/src/class/cdc/cdc_device.c **** 
 247:lib/TinyUSB/src/class/cdc/cdc_device.c **** //--------------------------------------------------------------------+
 248:lib/TinyUSB/src/class/cdc/cdc_device.c **** // USBD Driver API
 249:lib/TinyUSB/src/class/cdc/cdc_device.c **** //--------------------------------------------------------------------+
 250:lib/TinyUSB/src/class/cdc/cdc_device.c **** void cdcd_init(void) {
 1133              		.loc 1 250 22 is_stmt 1 view -0
 1134              		.cfi_startproc
 1135              		@ args = 0, pretend = 0, frame = 0
 1136              		@ frame_needed = 0, uses_anonymous_args = 0
 1137 0000 2DE9F041 		push	{r4, r5, r6, r7, r8, lr}
 1138              	.LCFI9:
 1139              		.cfi_def_cfa_offset 24
 1140              		.cfi_offset 4, -24
 1141              		.cfi_offset 5, -20
ARM GAS  C:\Users\krisa\AppData\Local\Temp\ccoeKVOr.s 			page 40


 1142              		.cfi_offset 6, -16
 1143              		.cfi_offset 7, -12
 1144              		.cfi_offset 8, -8
 1145              		.cfi_offset 14, -4
 1146 0004 84B0     		sub	sp, sp, #16
 1147              	.LCFI10:
 1148              		.cfi_def_cfa_offset 40
 251:lib/TinyUSB/src/class/cdc/cdc_device.c ****   tu_memclr(_cdcd_itf, sizeof(_cdcd_itf));
 1149              		.loc 1 251 3 view .LVU252
 1150 0006 BC22     		movs	r2, #188
 1151 0008 0021     		movs	r1, #0
 1152 000a 2248     		ldr	r0, .L135
 1153 000c FFF7FEFF 		bl	memset
 1154              	.LVL102:
 252:lib/TinyUSB/src/class/cdc/cdc_device.c ****   for (uint8_t i = 0; i < CFG_TUD_CDC; i++) {
 1155              		.loc 1 252 3 view .LVU253
 1156              	.LBB163:
 1157              		.loc 1 252 8 view .LVU254
 1158              		.loc 1 252 16 is_stmt 0 view .LVU255
 1159 0010 0026     		movs	r6, #0
 1160              	.LVL103:
 1161              	.L132:
 1162              		.loc 1 252 23 is_stmt 1 discriminator 1 view .LVU256
 1163              		.loc 1 252 3 is_stmt 0 discriminator 1 view .LVU257
 1164 0012 16B1     		cbz	r6, .L133
 1165              	.LBE163:
 253:lib/TinyUSB/src/class/cdc/cdc_device.c ****     cdcd_interface_t *p_cdc   = &_cdcd_itf[i];
 254:lib/TinyUSB/src/class/cdc/cdc_device.c ****     p_cdc->wanted_char = (char) -1;
 255:lib/TinyUSB/src/class/cdc/cdc_device.c **** 
 256:lib/TinyUSB/src/class/cdc/cdc_device.c ****     // default line coding is : stop bit = 1, parity = none, data bits = 8
 257:lib/TinyUSB/src/class/cdc/cdc_device.c ****     p_cdc->line_coding.bit_rate = 115200;
 258:lib/TinyUSB/src/class/cdc/cdc_device.c ****     p_cdc->line_coding.stop_bits = 0;
 259:lib/TinyUSB/src/class/cdc/cdc_device.c ****     p_cdc->line_coding.parity = 0;
 260:lib/TinyUSB/src/class/cdc/cdc_device.c ****     p_cdc->line_coding.data_bits = 8;
 261:lib/TinyUSB/src/class/cdc/cdc_device.c **** 
 262:lib/TinyUSB/src/class/cdc/cdc_device.c ****   #if CFG_TUD_EDPT_DEDICATED_HWFIFO
 263:lib/TinyUSB/src/class/cdc/cdc_device.c ****     uint8_t *epout_buf = NULL;
 264:lib/TinyUSB/src/class/cdc/cdc_device.c ****     uint8_t *epin_buf  = NULL;
 265:lib/TinyUSB/src/class/cdc/cdc_device.c ****   #else
 266:lib/TinyUSB/src/class/cdc/cdc_device.c ****     uint8_t *epout_buf = _cdcd_epbuf[i].epout;
 267:lib/TinyUSB/src/class/cdc/cdc_device.c ****     uint8_t *epin_buf  = _cdcd_epbuf[i].epin;
 268:lib/TinyUSB/src/class/cdc/cdc_device.c ****   #endif
 269:lib/TinyUSB/src/class/cdc/cdc_device.c **** 
 270:lib/TinyUSB/src/class/cdc/cdc_device.c ****     tu_edpt_stream_init(&p_cdc->rx_stream, false, false, false, p_cdc->rx_ff_buf, CFG_TUD_CDC_RX_BU
 271:lib/TinyUSB/src/class/cdc/cdc_device.c ****                         CFG_TUD_CDC_EP_BUFSIZE);
 272:lib/TinyUSB/src/class/cdc/cdc_device.c **** 
 273:lib/TinyUSB/src/class/cdc/cdc_device.c ****     // TX fifo can be configured to change to overwritable if not connected (DTR bit not set). With
 274:lib/TinyUSB/src/class/cdc/cdc_device.c ****     // know if data is actually polled by terminal. This way the most current data is prioritized.
 275:lib/TinyUSB/src/class/cdc/cdc_device.c ****     // Default: is overwritable
 276:lib/TinyUSB/src/class/cdc/cdc_device.c ****     tu_edpt_stream_init(&p_cdc->tx_stream, false, true, _cdcd_cfg.tx_overwritabe_if_not_connected, 
 277:lib/TinyUSB/src/class/cdc/cdc_device.c ****                         CFG_TUD_CDC_TX_BUFSIZE, epin_buf, CFG_TUD_CDC_EP_BUFSIZE);
 278:lib/TinyUSB/src/class/cdc/cdc_device.c ****   }
 279:lib/TinyUSB/src/class/cdc/cdc_device.c **** }
 1166              		.loc 1 279 1 view .LVU258
 1167 0014 04B0     		add	sp, sp, #16
 1168              	.LCFI11:
 1169              		.cfi_remember_state
ARM GAS  C:\Users\krisa\AppData\Local\Temp\ccoeKVOr.s 			page 41


 1170              		.cfi_def_cfa_offset 24
 1171              		@ sp needed
 1172 0016 BDE8F081 		pop	{r4, r5, r6, r7, r8, pc}
 1173              	.LVL104:
 1174              	.L133:
 1175              	.LCFI12:
 1176              		.cfi_restore_state
 1177              	.LBB165:
 1178              	.LBB164:
 253:lib/TinyUSB/src/class/cdc/cdc_device.c ****     cdcd_interface_t *p_cdc   = &_cdcd_itf[i];
 1179              		.loc 1 253 5 is_stmt 1 discriminator 3 view .LVU259
 254:lib/TinyUSB/src/class/cdc/cdc_device.c **** 
 1180              		.loc 1 254 5 discriminator 3 view .LVU260
 254:lib/TinyUSB/src/class/cdc/cdc_device.c **** 
 1181              		.loc 1 254 24 is_stmt 0 discriminator 3 view .LVU261
 1182 001a 1E4F     		ldr	r7, .L135
 1183 001c BC24     		movs	r4, #188
 1184 001e 06FB04F4 		mul	r4, r6, r4
 1185 0022 3B19     		adds	r3, r7, r4
 1186 0024 FF22     		movs	r2, #255
 1187 0026 DA72     		strb	r2, [r3, #11]
 257:lib/TinyUSB/src/class/cdc/cdc_device.c ****     p_cdc->line_coding.stop_bits = 0;
 1188              		.loc 1 257 5 is_stmt 1 discriminator 3 view .LVU262
 257:lib/TinyUSB/src/class/cdc/cdc_device.c ****     p_cdc->line_coding.stop_bits = 0;
 1189              		.loc 1 257 33 is_stmt 0 discriminator 3 view .LVU263
 1190 0028 4FF4E132 		mov	r2, #115200
 1191 002c 5A60     		str	r2, [r3, #4]
 258:lib/TinyUSB/src/class/cdc/cdc_device.c ****     p_cdc->line_coding.parity = 0;
 1192              		.loc 1 258 5 is_stmt 1 discriminator 3 view .LVU264
 258:lib/TinyUSB/src/class/cdc/cdc_device.c ****     p_cdc->line_coding.parity = 0;
 1193              		.loc 1 258 34 is_stmt 0 discriminator 3 view .LVU265
 1194 002e 0025     		movs	r5, #0
 1195 0030 1D72     		strb	r5, [r3, #8]
 259:lib/TinyUSB/src/class/cdc/cdc_device.c ****     p_cdc->line_coding.data_bits = 8;
 1196              		.loc 1 259 5 is_stmt 1 discriminator 3 view .LVU266
 259:lib/TinyUSB/src/class/cdc/cdc_device.c ****     p_cdc->line_coding.data_bits = 8;
 1197              		.loc 1 259 31 is_stmt 0 discriminator 3 view .LVU267
 1198 0032 5D72     		strb	r5, [r3, #9]
 260:lib/TinyUSB/src/class/cdc/cdc_device.c **** 
 1199              		.loc 1 260 5 is_stmt 1 discriminator 3 view .LVU268
 260:lib/TinyUSB/src/class/cdc/cdc_device.c **** 
 1200              		.loc 1 260 34 is_stmt 0 discriminator 3 view .LVU269
 1201 0034 0822     		movs	r2, #8
 1202 0036 9A72     		strb	r2, [r3, #10]
 263:lib/TinyUSB/src/class/cdc/cdc_device.c ****     uint8_t *epin_buf  = NULL;
 1203              		.loc 1 263 5 is_stmt 1 discriminator 3 view .LVU270
 1204              	.LVL105:
 264:lib/TinyUSB/src/class/cdc/cdc_device.c ****   #else
 1205              		.loc 1 264 5 discriminator 3 view .LVU271
 270:lib/TinyUSB/src/class/cdc/cdc_device.c ****                         CFG_TUD_CDC_EP_BUFSIZE);
 1206              		.loc 1 270 5 discriminator 3 view .LVU272
 270:lib/TinyUSB/src/class/cdc/cdc_device.c ****                         CFG_TUD_CDC_EP_BUFSIZE);
 1207              		.loc 1 270 70 is_stmt 0 discriminator 3 view .LVU273
 1208 0038 04F17803 		add	r3, r4, #120
 1209 003c 3B44     		add	r3, r3, r7
 1210 003e 0433     		adds	r3, r3, #4
 270:lib/TinyUSB/src/class/cdc/cdc_device.c ****                         CFG_TUD_CDC_EP_BUFSIZE);
ARM GAS  C:\Users\krisa\AppData\Local\Temp\ccoeKVOr.s 			page 42


 1211              		.loc 1 270 5 discriminator 3 view .LVU274
 1212 0040 04F12000 		add	r0, r4, #32
 1213 0044 3844     		add	r0, r0, r7
 1214 0046 4FF04008 		mov	r8, #64
 1215 004a CDF80C80 		str	r8, [sp, #12]
 1216 004e 0295     		str	r5, [sp, #8]
 1217 0050 CDF80480 		str	r8, [sp, #4]
 1218 0054 0093     		str	r3, [sp]
 1219 0056 2B46     		mov	r3, r5
 1220 0058 2A46     		mov	r2, r5
 1221 005a 2946     		mov	r1, r5
 1222 005c 0430     		adds	r0, r0, #4
 1223 005e FFF7FEFF 		bl	tu_edpt_stream_init
 1224              	.LVL106:
 276:lib/TinyUSB/src/class/cdc/cdc_device.c ****                         CFG_TUD_CDC_TX_BUFSIZE, epin_buf, CFG_TUD_CDC_EP_BUFSIZE);
 1225              		.loc 1 276 5 is_stmt 1 discriminator 3 view .LVU275
 276:lib/TinyUSB/src/class/cdc/cdc_device.c ****                         CFG_TUD_CDC_TX_BUFSIZE, epin_buf, CFG_TUD_CDC_EP_BUFSIZE);
 1226              		.loc 1 276 105 is_stmt 0 discriminator 3 view .LVU276
 1227 0062 04F13802 		add	r2, r4, #56
 1228 0066 3A44     		add	r2, r2, r7
 1229 0068 0432     		adds	r2, r2, #4
 276:lib/TinyUSB/src/class/cdc/cdc_device.c ****                         CFG_TUD_CDC_TX_BUFSIZE, epin_buf, CFG_TUD_CDC_EP_BUFSIZE);
 1230              		.loc 1 276 5 discriminator 3 view .LVU277
 1231 006a 0B4B     		ldr	r3, .L135+4
 1232 006c 1B78     		ldrb	r3, [r3]	@ zero_extendqisi2
 1233 006e 04F10800 		add	r0, r4, #8
 1234 0072 3844     		add	r0, r0, r7
 1235 0074 CDF80C80 		str	r8, [sp, #12]
 1236 0078 0295     		str	r5, [sp, #8]
 1237 007a CDF80480 		str	r8, [sp, #4]
 1238 007e 0092     		str	r2, [sp]
 1239 0080 C3F38003 		ubfx	r3, r3, #2, #1
 1240 0084 0122     		movs	r2, #1
 1241 0086 2946     		mov	r1, r5
 1242 0088 0430     		adds	r0, r0, #4
 1243 008a FFF7FEFF 		bl	tu_edpt_stream_init
 1244              	.LVL107:
 1245              	.LBE164:
 252:lib/TinyUSB/src/class/cdc/cdc_device.c ****     cdcd_interface_t *p_cdc   = &_cdcd_itf[i];
 1246              		.loc 1 252 40 is_stmt 1 discriminator 3 view .LVU278
 252:lib/TinyUSB/src/class/cdc/cdc_device.c ****     cdcd_interface_t *p_cdc   = &_cdcd_itf[i];
 1247              		.loc 1 252 41 is_stmt 0 discriminator 3 view .LVU279
 1248 008e 0136     		adds	r6, r6, #1
 1249              	.LVL108:
 252:lib/TinyUSB/src/class/cdc/cdc_device.c ****     cdcd_interface_t *p_cdc   = &_cdcd_itf[i];
 1250              		.loc 1 252 41 discriminator 3 view .LVU280
 1251 0090 F6B2     		uxtb	r6, r6
 1252              	.LVL109:
 252:lib/TinyUSB/src/class/cdc/cdc_device.c ****     cdcd_interface_t *p_cdc   = &_cdcd_itf[i];
 1253              		.loc 1 252 41 discriminator 3 view .LVU281
 1254 0092 BEE7     		b	.L132
 1255              	.L136:
 1256              		.align	2
 1257              	.L135:
 1258 0094 00000000 		.word	.LANCHOR1
 1259 0098 00000000 		.word	.LANCHOR0
 1260              	.LBE165:
ARM GAS  C:\Users\krisa\AppData\Local\Temp\ccoeKVOr.s 			page 43


 1261              		.cfi_endproc
 1262              	.LFE132:
 1264              		.section	.text.cdcd_deinit,"ax",%progbits
 1265              		.align	1
 1266              		.global	cdcd_deinit
 1267              		.syntax unified
 1268              		.thumb
 1269              		.thumb_func
 1271              	cdcd_deinit:
 1272              	.LFB133:
 280:lib/TinyUSB/src/class/cdc/cdc_device.c **** 
 281:lib/TinyUSB/src/class/cdc/cdc_device.c **** bool cdcd_deinit(void) {
 1273              		.loc 1 281 24 is_stmt 1 view -0
 1274              		.cfi_startproc
 1275              		@ args = 0, pretend = 0, frame = 0
 1276              		@ frame_needed = 0, uses_anonymous_args = 0
 1277              		@ link register save eliminated.
 282:lib/TinyUSB/src/class/cdc/cdc_device.c ****   for (uint8_t i = 0; i < CFG_TUD_CDC; i++) {
 1278              		.loc 1 282 3 view .LVU283
 1279              	.LBB166:
 1280              		.loc 1 282 8 view .LVU284
 1281              	.LVL110:
 1282              		.loc 1 282 16 is_stmt 0 view .LVU285
 1283 0000 0023     		movs	r3, #0
 1284              	.LVL111:
 1285              	.L138:
 1286              		.loc 1 282 23 is_stmt 1 discriminator 1 view .LVU286
 1287              		.loc 1 282 3 is_stmt 0 discriminator 1 view .LVU287
 1288 0002 0BB1     		cbz	r3, .L139
 1289              	.LBE166:
 283:lib/TinyUSB/src/class/cdc/cdc_device.c ****     cdcd_interface_t* p_cdc = &_cdcd_itf[i];
 284:lib/TinyUSB/src/class/cdc/cdc_device.c ****     tu_edpt_stream_deinit(&p_cdc->rx_stream);
 285:lib/TinyUSB/src/class/cdc/cdc_device.c ****     tu_edpt_stream_deinit(&p_cdc->tx_stream);
 286:lib/TinyUSB/src/class/cdc/cdc_device.c ****   }
 287:lib/TinyUSB/src/class/cdc/cdc_device.c ****   return true;
 1290              		.loc 1 287 3 is_stmt 1 view .LVU288
 288:lib/TinyUSB/src/class/cdc/cdc_device.c **** }
 1291              		.loc 1 288 1 is_stmt 0 view .LVU289
 1292 0004 0120     		movs	r0, #1
 1293 0006 7047     		bx	lr
 1294              	.L139:
 283:lib/TinyUSB/src/class/cdc/cdc_device.c ****     cdcd_interface_t* p_cdc = &_cdcd_itf[i];
 1295              		.loc 1 283 5 is_stmt 1 discriminator 3 view .LVU290
 1296              	.LVL112:
 284:lib/TinyUSB/src/class/cdc/cdc_device.c ****     tu_edpt_stream_deinit(&p_cdc->tx_stream);
 1297              		.loc 1 284 5 discriminator 3 view .LVU291
 116:lib/TinyUSB/src/common/tusb_private.h **** #if OSAL_MUTEX_REQUIRED
 1298              		.loc 3 116 3 discriminator 3 view .LVU292
 285:lib/TinyUSB/src/class/cdc/cdc_device.c ****   }
 1299              		.loc 1 285 5 discriminator 3 view .LVU293
 116:lib/TinyUSB/src/common/tusb_private.h **** #if OSAL_MUTEX_REQUIRED
 1300              		.loc 3 116 3 discriminator 3 view .LVU294
 1301              	.LBB167:
 282:lib/TinyUSB/src/class/cdc/cdc_device.c ****     cdcd_interface_t* p_cdc = &_cdcd_itf[i];
 1302              		.loc 1 282 40 discriminator 3 view .LVU295
 282:lib/TinyUSB/src/class/cdc/cdc_device.c ****     cdcd_interface_t* p_cdc = &_cdcd_itf[i];
 1303              		.loc 1 282 41 is_stmt 0 discriminator 3 view .LVU296
ARM GAS  C:\Users\krisa\AppData\Local\Temp\ccoeKVOr.s 			page 44


 1304 0008 0133     		adds	r3, r3, #1
 1305              	.LVL113:
 282:lib/TinyUSB/src/class/cdc/cdc_device.c ****     cdcd_interface_t* p_cdc = &_cdcd_itf[i];
 1306              		.loc 1 282 41 discriminator 3 view .LVU297
 1307 000a DBB2     		uxtb	r3, r3
 1308              	.LVL114:
 282:lib/TinyUSB/src/class/cdc/cdc_device.c ****     cdcd_interface_t* p_cdc = &_cdcd_itf[i];
 1309              		.loc 1 282 41 discriminator 3 view .LVU298
 1310 000c F9E7     		b	.L138
 1311              	.LBE167:
 1312              		.cfi_endproc
 1313              	.LFE133:
 1315              		.section	.text.cdcd_reset,"ax",%progbits
 1316              		.align	1
 1317              		.global	cdcd_reset
 1318              		.syntax unified
 1319              		.thumb
 1320              		.thumb_func
 1322              	cdcd_reset:
 1323              	.LVL115:
 1324              	.LFB134:
 289:lib/TinyUSB/src/class/cdc/cdc_device.c **** 
 290:lib/TinyUSB/src/class/cdc/cdc_device.c **** void cdcd_reset(uint8_t rhport) {
 1325              		.loc 1 290 33 is_stmt 1 view -0
 1326              		.cfi_startproc
 1327              		@ args = 0, pretend = 0, frame = 0
 1328              		@ frame_needed = 0, uses_anonymous_args = 0
 1329              		.loc 1 290 33 is_stmt 0 view .LVU300
 1330 0000 70B5     		push	{r4, r5, r6, lr}
 1331              	.LCFI13:
 1332              		.cfi_def_cfa_offset 16
 1333              		.cfi_offset 4, -16
 1334              		.cfi_offset 5, -12
 1335              		.cfi_offset 6, -8
 1336              		.cfi_offset 14, -4
 291:lib/TinyUSB/src/class/cdc/cdc_device.c ****   (void) rhport;
 1337              		.loc 1 291 3 is_stmt 1 view .LVU301
 292:lib/TinyUSB/src/class/cdc/cdc_device.c **** 
 293:lib/TinyUSB/src/class/cdc/cdc_device.c ****   for (uint8_t i = 0; i < CFG_TUD_CDC; i++) {
 1338              		.loc 1 293 3 view .LVU302
 1339              	.LBB168:
 1340              		.loc 1 293 8 view .LVU303
 1341              	.LVL116:
 1342              		.loc 1 293 16 is_stmt 0 view .LVU304
 1343 0002 0024     		movs	r4, #0
 1344              	.LVL117:
 1345              	.L141:
 1346              		.loc 1 293 23 is_stmt 1 discriminator 1 view .LVU305
 1347              		.loc 1 293 3 is_stmt 0 discriminator 1 view .LVU306
 1348 0004 04B1     		cbz	r4, .L142
 1349              	.LBE168:
 294:lib/TinyUSB/src/class/cdc/cdc_device.c ****     cdcd_interface_t* p_cdc = &_cdcd_itf[i];
 295:lib/TinyUSB/src/class/cdc/cdc_device.c ****     tu_memclr(p_cdc, ITF_MEM_RESET_SIZE);
 296:lib/TinyUSB/src/class/cdc/cdc_device.c **** 
 297:lib/TinyUSB/src/class/cdc/cdc_device.c ****     tu_fifo_set_overwritable(&p_cdc->tx_stream.ff, _cdcd_cfg.tx_overwritabe_if_not_connected); // b
 298:lib/TinyUSB/src/class/cdc/cdc_device.c ****     tu_edpt_stream_close(&p_cdc->rx_stream);
 299:lib/TinyUSB/src/class/cdc/cdc_device.c ****     tu_edpt_stream_close(&p_cdc->tx_stream);
ARM GAS  C:\Users\krisa\AppData\Local\Temp\ccoeKVOr.s 			page 45


 300:lib/TinyUSB/src/class/cdc/cdc_device.c ****   }
 301:lib/TinyUSB/src/class/cdc/cdc_device.c **** }
 1350              		.loc 1 301 1 view .LVU307
 1351 0006 70BD     		pop	{r4, r5, r6, pc}
 1352              	.LVL118:
 1353              	.L142:
 1354              	.LBB174:
 1355              	.LBB169:
 294:lib/TinyUSB/src/class/cdc/cdc_device.c ****     cdcd_interface_t* p_cdc = &_cdcd_itf[i];
 1356              		.loc 1 294 5 is_stmt 1 discriminator 3 view .LVU308
 294:lib/TinyUSB/src/class/cdc/cdc_device.c ****     cdcd_interface_t* p_cdc = &_cdcd_itf[i];
 1357              		.loc 1 294 23 is_stmt 0 discriminator 3 view .LVU309
 1358 0008 0A4B     		ldr	r3, .L144
 1359 000a BC20     		movs	r0, #188
 1360 000c 04FB00F0 		mul	r0, r4, r0
 1361 0010 1E18     		adds	r6, r3, r0
 1362              	.LVL119:
 295:lib/TinyUSB/src/class/cdc/cdc_device.c **** 
 1363              		.loc 1 295 5 is_stmt 1 discriminator 3 view .LVU310
 1364 0012 0025     		movs	r5, #0
 1365 0014 1D50     		str	r5, [r3, r0]	@ unaligned
 297:lib/TinyUSB/src/class/cdc/cdc_device.c ****     tu_edpt_stream_close(&p_cdc->rx_stream);
 1366              		.loc 1 297 5 discriminator 3 view .LVU311
 1367 0016 084A     		ldr	r2, .L144+4
 1368 0018 1178     		ldrb	r1, [r2]	@ zero_extendqisi2
 1369 001a 1030     		adds	r0, r0, #16
 1370 001c 1844     		add	r0, r0, r3
 1371 001e C1F38001 		ubfx	r1, r1, #2, #1
 1372 0022 0830     		adds	r0, r0, #8
 1373 0024 FFF7FEFF 		bl	tu_fifo_set_overwritable
 1374              	.LVL120:
 298:lib/TinyUSB/src/class/cdc/cdc_device.c ****     tu_edpt_stream_close(&p_cdc->tx_stream);
 1375              		.loc 1 298 5 discriminator 3 view .LVU312
 1376              	.LBB170:
 1377              	.LBI170:
 139:lib/TinyUSB/src/common/tusb_private.h ****   s->ep_addr = 0;
 1378              		.loc 3 139 42 discriminator 3 view .LVU313
 1379              	.LBB171:
 140:lib/TinyUSB/src/common/tusb_private.h **** }
 1380              		.loc 3 140 3 discriminator 3 view .LVU314
 140:lib/TinyUSB/src/common/tusb_private.h **** }
 1381              		.loc 3 140 14 is_stmt 0 discriminator 3 view .LVU315
 1382 0028 86F82650 		strb	r5, [r6, #38]
 1383              	.LVL121:
 140:lib/TinyUSB/src/common/tusb_private.h **** }
 1384              		.loc 3 140 14 discriminator 3 view .LVU316
 1385              	.LBE171:
 1386              	.LBE170:
 299:lib/TinyUSB/src/class/cdc/cdc_device.c ****   }
 1387              		.loc 1 299 5 is_stmt 1 discriminator 3 view .LVU317
 1388              	.LBB172:
 1389              	.LBI172:
 139:lib/TinyUSB/src/common/tusb_private.h ****   s->ep_addr = 0;
 1390              		.loc 3 139 42 discriminator 3 view .LVU318
 1391              	.LBB173:
 140:lib/TinyUSB/src/common/tusb_private.h **** }
 1392              		.loc 3 140 3 discriminator 3 view .LVU319
ARM GAS  C:\Users\krisa\AppData\Local\Temp\ccoeKVOr.s 			page 46


 140:lib/TinyUSB/src/common/tusb_private.h **** }
 1393              		.loc 3 140 14 is_stmt 0 discriminator 3 view .LVU320
 1394 002c B573     		strb	r5, [r6, #14]
 1395              	.LVL122:
 140:lib/TinyUSB/src/common/tusb_private.h **** }
 1396              		.loc 3 140 14 discriminator 3 view .LVU321
 1397              	.LBE173:
 1398              	.LBE172:
 1399              	.LBE169:
 293:lib/TinyUSB/src/class/cdc/cdc_device.c ****     cdcd_interface_t* p_cdc = &_cdcd_itf[i];
 1400              		.loc 1 293 40 is_stmt 1 discriminator 3 view .LVU322
 293:lib/TinyUSB/src/class/cdc/cdc_device.c ****     cdcd_interface_t* p_cdc = &_cdcd_itf[i];
 1401              		.loc 1 293 41 is_stmt 0 discriminator 3 view .LVU323
 1402 002e 0134     		adds	r4, r4, #1
 1403              	.LVL123:
 293:lib/TinyUSB/src/class/cdc/cdc_device.c ****     cdcd_interface_t* p_cdc = &_cdcd_itf[i];
 1404              		.loc 1 293 41 discriminator 3 view .LVU324
 1405 0030 E4B2     		uxtb	r4, r4
 1406              	.LVL124:
 293:lib/TinyUSB/src/class/cdc/cdc_device.c ****     cdcd_interface_t* p_cdc = &_cdcd_itf[i];
 1407              		.loc 1 293 41 discriminator 3 view .LVU325
 1408 0032 E7E7     		b	.L141
 1409              	.L145:
 1410              		.align	2
 1411              	.L144:
 1412 0034 00000000 		.word	.LANCHOR1
 1413 0038 00000000 		.word	.LANCHOR0
 1414              	.LBE174:
 1415              		.cfi_endproc
 1416              	.LFE134:
 1418              		.section	.text.cdcd_open,"ax",%progbits
 1419              		.align	1
 1420              		.global	cdcd_open
 1421              		.syntax unified
 1422              		.thumb
 1423              		.thumb_func
 1425              	cdcd_open:
 1426              	.LVL125:
 1427              	.LFB135:
 302:lib/TinyUSB/src/class/cdc/cdc_device.c **** 
 303:lib/TinyUSB/src/class/cdc/cdc_device.c **** uint16_t cdcd_open(uint8_t rhport, const tusb_desc_interface_t* itf_desc, uint16_t max_len) {
 1428              		.loc 1 303 93 is_stmt 1 view -0
 1429              		.cfi_startproc
 1430              		@ args = 0, pretend = 0, frame = 0
 1431              		@ frame_needed = 0, uses_anonymous_args = 0
 1432              		.loc 1 303 93 is_stmt 0 view .LVU327
 1433 0000 2DE9F84F 		push	{r3, r4, r5, r6, r7, r8, r9, r10, fp, lr}
 1434              	.LCFI14:
 1435              		.cfi_def_cfa_offset 40
 1436              		.cfi_offset 3, -40
 1437              		.cfi_offset 4, -36
 1438              		.cfi_offset 5, -32
 1439              		.cfi_offset 6, -28
 1440              		.cfi_offset 7, -24
 1441              		.cfi_offset 8, -20
 1442              		.cfi_offset 9, -16
 1443              		.cfi_offset 10, -12
ARM GAS  C:\Users\krisa\AppData\Local\Temp\ccoeKVOr.s 			page 47


 1444              		.cfi_offset 11, -8
 1445              		.cfi_offset 14, -4
 304:lib/TinyUSB/src/class/cdc/cdc_device.c ****   // Only support ACM subclass
 305:lib/TinyUSB/src/class/cdc/cdc_device.c ****   TU_VERIFY(TUSB_CLASS_CDC == itf_desc->bInterfaceClass &&
 1446              		.loc 1 305 3 is_stmt 1 view .LVU328
 1447              		.loc 1 305 3 view .LVU329
 1448 0004 4B79     		ldrb	r3, [r1, #5]	@ zero_extendqisi2
 1449 0006 022B     		cmp	r3, #2
 1450 0008 40F00581 		bne	.L175
 1451 000c 8046     		mov	r8, r0
 1452 000e 0E46     		mov	r6, r1
 1453              		.loc 1 305 3 is_stmt 0 discriminator 2 view .LVU330
 1454 0010 8B79     		ldrb	r3, [r1, #6]	@ zero_extendqisi2
 1455 0012 022B     		cmp	r3, #2
 1456 0014 40F00281 		bne	.L176
 1457              	.LBB175:
 1458              	.LBB176:
 1459              	.LBB177:
 122:lib/TinyUSB/src/class/cdc/cdc_device.c ****     const cdcd_interface_t *p_cdc = &_cdcd_itf[idx];
 1460              		.loc 1 122 16 view .LVU331
 1461 0018 0027     		movs	r7, #0
 1462              	.LVL126:
 1463              	.L148:
 122:lib/TinyUSB/src/class/cdc/cdc_device.c ****     const cdcd_interface_t *p_cdc = &_cdcd_itf[idx];
 1464              		.loc 1 122 25 is_stmt 1 view .LVU332
 122:lib/TinyUSB/src/class/cdc/cdc_device.c ****     const cdcd_interface_t *p_cdc = &_cdcd_itf[idx];
 1465              		.loc 1 122 3 is_stmt 0 view .LVU333
 1466 001a 7FB1     		cbz	r7, .L150
 1467              	.LBE177:
 129:lib/TinyUSB/src/class/cdc/cdc_device.c **** }
 1468              		.loc 1 129 10 view .LVU334
 1469 001c FF27     		movs	r7, #255
 1470              	.LVL127:
 1471              	.L149:
 129:lib/TinyUSB/src/class/cdc/cdc_device.c **** }
 1472              		.loc 1 129 10 view .LVU335
 1473              	.LBE176:
 1474              	.LBE175:
 306:lib/TinyUSB/src/class/cdc/cdc_device.c ****               CDC_COMM_SUBCLASS_ABSTRACT_CONTROL_MODEL == itf_desc->bInterfaceSubClass,
 307:lib/TinyUSB/src/class/cdc/cdc_device.c ****             0);
 308:lib/TinyUSB/src/class/cdc/cdc_device.c **** 
 309:lib/TinyUSB/src/class/cdc/cdc_device.c ****   const uint8_t cdc_id = find_cdc_itf(0); // Find available interface
 310:lib/TinyUSB/src/class/cdc/cdc_device.c ****   TU_ASSERT(cdc_id < CFG_TUD_CDC, 0);
 1475              		.loc 1 310 3 is_stmt 1 view .LVU336
 1476              		.loc 1 310 3 view .LVU337
 1477 001e F7B9     		cbnz	r7, .L183
 1478              		.loc 1 310 3 discriminator 2 view .LVU338
 311:lib/TinyUSB/src/class/cdc/cdc_device.c ****   cdcd_interface_t *p_cdc = &_cdcd_itf[cdc_id];
 1479              		.loc 1 311 3 discriminator 2 view .LVU339
 1480              		.loc 1 311 39 is_stmt 0 discriminator 2 view .LVU340
 1481 0020 B946     		mov	r9, r7
 1482              	.LVL128:
 312:lib/TinyUSB/src/class/cdc/cdc_device.c **** 
 313:lib/TinyUSB/src/class/cdc/cdc_device.c ****   //------------- Control Interface -------------//
 314:lib/TinyUSB/src/class/cdc/cdc_device.c ****   p_cdc->rhport = rhport;
 1483              		.loc 1 314 3 is_stmt 1 discriminator 2 view .LVU341
 1484              		.loc 1 314 17 is_stmt 0 discriminator 2 view .LVU342
ARM GAS  C:\Users\krisa\AppData\Local\Temp\ccoeKVOr.s 			page 48


 1485 0022 7F49     		ldr	r1, .L191
 1486 0024 BC23     		movs	r3, #188
 1487 0026 07FB03F3 		mul	r3, r7, r3
 1488 002a C818     		adds	r0, r1, r3
 1489              	.LVL129:
 1490              		.loc 1 314 17 discriminator 2 view .LVU343
 1491 002c 01F80380 		strb	r8, [r1, r3]
 315:lib/TinyUSB/src/class/cdc/cdc_device.c ****   p_cdc->itf_num = itf_desc->bInterfaceNumber;
 1492              		.loc 1 315 3 is_stmt 1 discriminator 2 view .LVU344
 1493              		.loc 1 315 28 is_stmt 0 discriminator 2 view .LVU345
 1494 0030 B378     		ldrb	r3, [r6, #2]	@ zero_extendqisi2
 1495              		.loc 1 315 18 discriminator 2 view .LVU346
 1496 0032 4370     		strb	r3, [r0, #1]
 316:lib/TinyUSB/src/class/cdc/cdc_device.c **** 
 317:lib/TinyUSB/src/class/cdc/cdc_device.c ****   const uint8_t *p_desc   = (const uint8_t *)itf_desc;
 1497              		.loc 1 317 3 is_stmt 1 discriminator 2 view .LVU347
 1498              	.LVL130:
 318:lib/TinyUSB/src/class/cdc/cdc_device.c ****   const uint8_t *desc_end = p_desc + max_len;
 1499              		.loc 1 318 3 discriminator 2 view .LVU348
 1500              		.loc 1 318 18 is_stmt 0 discriminator 2 view .LVU349
 1501 0034 B518     		adds	r5, r6, r2
 1502              	.LVL131:
 319:lib/TinyUSB/src/class/cdc/cdc_device.c **** 
 320:lib/TinyUSB/src/class/cdc/cdc_device.c ****   // Skip all class-specific descriptor
 321:lib/TinyUSB/src/class/cdc/cdc_device.c ****   p_desc = tu_desc_next(itf_desc);
 1503              		.loc 1 321 3 is_stmt 1 discriminator 2 view .LVU350
 1504              	.LBB181:
 1505              	.LBI181:
 207:lib/TinyUSB/src/common/tusb_common.h **** TU_ATTR_ALWAYS_INLINE static inline uint32_t tu_min32 (uint32_t x, uint32_t y) { return (x < y) ? x
 208:lib/TinyUSB/src/common/tusb_common.h **** 
 209:lib/TinyUSB/src/common/tusb_common.h **** //------------- Max -------------//
 210:lib/TinyUSB/src/common/tusb_common.h **** TU_ATTR_ALWAYS_INLINE static inline uint8_t  tu_max8  (uint8_t  x, uint8_t y ) { return (x > y) ? x
 211:lib/TinyUSB/src/common/tusb_common.h **** TU_ATTR_ALWAYS_INLINE static inline uint16_t tu_max16 (uint16_t x, uint16_t y) { return (x > y) ? x
 212:lib/TinyUSB/src/common/tusb_common.h **** TU_ATTR_ALWAYS_INLINE static inline uint32_t tu_max32 (uint32_t x, uint32_t y) { return (x > y) ? x
 213:lib/TinyUSB/src/common/tusb_common.h **** 
 214:lib/TinyUSB/src/common/tusb_common.h **** //------------- Align -------------//
 215:lib/TinyUSB/src/common/tusb_common.h **** TU_ATTR_ALWAYS_INLINE static inline uint32_t tu_align(uint32_t value, uint32_t alignment) {
 216:lib/TinyUSB/src/common/tusb_common.h ****   return value & ((uint32_t) ~(alignment-1));
 217:lib/TinyUSB/src/common/tusb_common.h **** }
 218:lib/TinyUSB/src/common/tusb_common.h **** 
 219:lib/TinyUSB/src/common/tusb_common.h **** TU_ATTR_ALWAYS_INLINE static inline uint32_t tu_align4  (uint32_t value) { return (value & 0xFFFFFF
 220:lib/TinyUSB/src/common/tusb_common.h **** TU_ATTR_ALWAYS_INLINE static inline uint32_t tu_align8  (uint32_t value) { return (value & 0xFFFFFF
 221:lib/TinyUSB/src/common/tusb_common.h **** TU_ATTR_ALWAYS_INLINE static inline uint32_t tu_align16 (uint32_t value) { return (value & 0xFFFFFF
 222:lib/TinyUSB/src/common/tusb_common.h **** TU_ATTR_ALWAYS_INLINE static inline uint32_t tu_align32 (uint32_t value) { return (value & 0xFFFFFF
 223:lib/TinyUSB/src/common/tusb_common.h **** TU_ATTR_ALWAYS_INLINE static inline uint32_t tu_align4k (uint32_t value) { return (value & 0xFFFFF0
 224:lib/TinyUSB/src/common/tusb_common.h **** TU_ATTR_ALWAYS_INLINE static inline uint32_t tu_offset4k(uint32_t value) { return (value & 0xFFFUL)
 225:lib/TinyUSB/src/common/tusb_common.h **** 
 226:lib/TinyUSB/src/common/tusb_common.h **** TU_ATTR_ALWAYS_INLINE static inline bool tu_is_aligned32(uint32_t value) { return (value & 0x1FUL) 
 227:lib/TinyUSB/src/common/tusb_common.h **** TU_ATTR_ALWAYS_INLINE static inline bool tu_is_aligned64(uint64_t value) { return (value & 0x3FUL) 
 228:lib/TinyUSB/src/common/tusb_common.h **** 
 229:lib/TinyUSB/src/common/tusb_common.h **** //------------- Mathematics -------------//
 230:lib/TinyUSB/src/common/tusb_common.h **** TU_ATTR_ALWAYS_INLINE static inline uint32_t tu_div_ceil(uint32_t v, uint32_t d) { return TU_DIV_CE
 231:lib/TinyUSB/src/common/tusb_common.h **** TU_ATTR_ALWAYS_INLINE static inline uint32_t tu_div_round_nearest(uint32_t v, uint32_t d) { return 
 232:lib/TinyUSB/src/common/tusb_common.h **** 
 233:lib/TinyUSB/src/common/tusb_common.h **** TU_ATTR_ALWAYS_INLINE static inline uint32_t tu_round_up(uint32_t v, uint32_t f) { return tu_div_ce
 234:lib/TinyUSB/src/common/tusb_common.h **** 
 235:lib/TinyUSB/src/common/tusb_common.h **** // log2 of a value is its MSB's position
ARM GAS  C:\Users\krisa\AppData\Local\Temp\ccoeKVOr.s 			page 49


 236:lib/TinyUSB/src/common/tusb_common.h **** // TODO use clz TODO remove
 237:lib/TinyUSB/src/common/tusb_common.h **** TU_ATTR_ALWAYS_INLINE static inline uint8_t tu_log2(uint32_t value) {
 238:lib/TinyUSB/src/common/tusb_common.h ****   uint8_t result = 0;
 239:lib/TinyUSB/src/common/tusb_common.h ****   while ((value >>= 1u) != 0u) {
 240:lib/TinyUSB/src/common/tusb_common.h ****     result++;
 241:lib/TinyUSB/src/common/tusb_common.h ****   }
 242:lib/TinyUSB/src/common/tusb_common.h ****   return result;
 243:lib/TinyUSB/src/common/tusb_common.h **** }
 244:lib/TinyUSB/src/common/tusb_common.h **** 
 245:lib/TinyUSB/src/common/tusb_common.h **** //static inline uint8_t tu_log2(uint32_t value)
 246:lib/TinyUSB/src/common/tusb_common.h **** //{
 247:lib/TinyUSB/src/common/tusb_common.h **** //   return sizeof(uint32_t) * CHAR_BIT - __builtin_clz(x) - 1;
 248:lib/TinyUSB/src/common/tusb_common.h **** //}
 249:lib/TinyUSB/src/common/tusb_common.h **** 
 250:lib/TinyUSB/src/common/tusb_common.h **** TU_ATTR_ALWAYS_INLINE static inline bool tu_is_power_of_two(uint32_t value) {
 251:lib/TinyUSB/src/common/tusb_common.h ****    return (value != 0) && ((value & (value - 1)) == 0);
 252:lib/TinyUSB/src/common/tusb_common.h **** }
 253:lib/TinyUSB/src/common/tusb_common.h **** 
 254:lib/TinyUSB/src/common/tusb_common.h **** //------------- Unaligned Access -------------//
 255:lib/TinyUSB/src/common/tusb_common.h **** #if TUP_ARCH_STRICT_ALIGN
 256:lib/TinyUSB/src/common/tusb_common.h **** 
 257:lib/TinyUSB/src/common/tusb_common.h **** // Rely on compiler to generate correct code for unaligned access
 258:lib/TinyUSB/src/common/tusb_common.h **** typedef struct { uint16_t val; } TU_ATTR_PACKED tu_unaligned_uint16_t;
 259:lib/TinyUSB/src/common/tusb_common.h **** typedef struct { uint32_t val; } TU_ATTR_PACKED tu_unaligned_uint32_t;
 260:lib/TinyUSB/src/common/tusb_common.h **** 
 261:lib/TinyUSB/src/common/tusb_common.h **** TU_ATTR_ALWAYS_INLINE static inline uint32_t tu_unaligned_read32(const void *mem) {
 262:lib/TinyUSB/src/common/tusb_common.h ****   tu_unaligned_uint32_t const *ua32 = (tu_unaligned_uint32_t const *) mem;
 263:lib/TinyUSB/src/common/tusb_common.h ****   return ua32->val;
 264:lib/TinyUSB/src/common/tusb_common.h **** }
 265:lib/TinyUSB/src/common/tusb_common.h **** 
 266:lib/TinyUSB/src/common/tusb_common.h **** TU_ATTR_ALWAYS_INLINE static inline void tu_unaligned_write32(void *mem, uint32_t value) {
 267:lib/TinyUSB/src/common/tusb_common.h ****   tu_unaligned_uint32_t *ua32 = (tu_unaligned_uint32_t *) mem;
 268:lib/TinyUSB/src/common/tusb_common.h ****   ua32->val = value;
 269:lib/TinyUSB/src/common/tusb_common.h **** }
 270:lib/TinyUSB/src/common/tusb_common.h **** 
 271:lib/TinyUSB/src/common/tusb_common.h **** TU_ATTR_ALWAYS_INLINE static inline uint16_t tu_unaligned_read16(const void *mem) {
 272:lib/TinyUSB/src/common/tusb_common.h ****   tu_unaligned_uint16_t const *ua16 = (tu_unaligned_uint16_t const *) mem;
 273:lib/TinyUSB/src/common/tusb_common.h ****   return ua16->val;
 274:lib/TinyUSB/src/common/tusb_common.h **** }
 275:lib/TinyUSB/src/common/tusb_common.h **** 
 276:lib/TinyUSB/src/common/tusb_common.h **** TU_ATTR_ALWAYS_INLINE static inline void tu_unaligned_write16(void *mem, uint16_t value) {
 277:lib/TinyUSB/src/common/tusb_common.h ****   tu_unaligned_uint16_t *ua16 = (tu_unaligned_uint16_t *) mem;
 278:lib/TinyUSB/src/common/tusb_common.h ****   ua16->val = value;
 279:lib/TinyUSB/src/common/tusb_common.h **** }
 280:lib/TinyUSB/src/common/tusb_common.h **** 
 281:lib/TinyUSB/src/common/tusb_common.h **** #elif TUP_MCU_STRICT_ALIGN
 282:lib/TinyUSB/src/common/tusb_common.h **** 
 283:lib/TinyUSB/src/common/tusb_common.h **** // MCU such as LPC_IP3511 Highspeed cannot access unaligned memory on USB_RAM although it is ARM M4
 284:lib/TinyUSB/src/common/tusb_common.h **** // We have to manually pick up bytes since tu_unaligned_uint32_t will still generate unaligned code
 285:lib/TinyUSB/src/common/tusb_common.h **** // NOTE: volatile cast to memory to prevent compiler to optimize and generate unaligned code
 286:lib/TinyUSB/src/common/tusb_common.h **** // TODO Big Endian may need minor changes
 287:lib/TinyUSB/src/common/tusb_common.h **** TU_ATTR_ALWAYS_INLINE static inline uint32_t tu_unaligned_read32(const void* mem) {
 288:lib/TinyUSB/src/common/tusb_common.h ****   volatile uint8_t const* buf8 = (uint8_t const*) mem;
 289:lib/TinyUSB/src/common/tusb_common.h ****   return tu_u32(buf8[3], buf8[2], buf8[1], buf8[0]);
 290:lib/TinyUSB/src/common/tusb_common.h **** }
 291:lib/TinyUSB/src/common/tusb_common.h **** 
 292:lib/TinyUSB/src/common/tusb_common.h **** TU_ATTR_ALWAYS_INLINE static inline void tu_unaligned_write32(void* mem, uint32_t value) {
ARM GAS  C:\Users\krisa\AppData\Local\Temp\ccoeKVOr.s 			page 50


 293:lib/TinyUSB/src/common/tusb_common.h ****   volatile uint8_t* buf8 = (uint8_t*) mem;
 294:lib/TinyUSB/src/common/tusb_common.h ****   buf8[0] = tu_u32_byte0(value);
 295:lib/TinyUSB/src/common/tusb_common.h ****   buf8[1] = tu_u32_byte1(value);
 296:lib/TinyUSB/src/common/tusb_common.h ****   buf8[2] = tu_u32_byte2(value);
 297:lib/TinyUSB/src/common/tusb_common.h ****   buf8[3] = tu_u32_byte3(value);
 298:lib/TinyUSB/src/common/tusb_common.h **** }
 299:lib/TinyUSB/src/common/tusb_common.h **** 
 300:lib/TinyUSB/src/common/tusb_common.h **** TU_ATTR_ALWAYS_INLINE static inline uint16_t tu_unaligned_read16(const void* mem) {
 301:lib/TinyUSB/src/common/tusb_common.h ****   volatile uint8_t const* buf8 = (uint8_t const*) mem;
 302:lib/TinyUSB/src/common/tusb_common.h ****   return tu_u16(buf8[1], buf8[0]);
 303:lib/TinyUSB/src/common/tusb_common.h **** }
 304:lib/TinyUSB/src/common/tusb_common.h **** 
 305:lib/TinyUSB/src/common/tusb_common.h **** TU_ATTR_ALWAYS_INLINE static inline void tu_unaligned_write16(void* mem, uint16_t value) {
 306:lib/TinyUSB/src/common/tusb_common.h ****   volatile uint8_t* buf8 = (uint8_t*) mem;
 307:lib/TinyUSB/src/common/tusb_common.h ****   buf8[0] = tu_u16_low(value);
 308:lib/TinyUSB/src/common/tusb_common.h ****   buf8[1] = tu_u16_high(value);
 309:lib/TinyUSB/src/common/tusb_common.h **** }
 310:lib/TinyUSB/src/common/tusb_common.h **** 
 311:lib/TinyUSB/src/common/tusb_common.h **** #else
 312:lib/TinyUSB/src/common/tusb_common.h **** 
 313:lib/TinyUSB/src/common/tusb_common.h **** // MCU that could access unaligned memory natively
 314:lib/TinyUSB/src/common/tusb_common.h **** TU_ATTR_ALWAYS_INLINE static inline uint32_t tu_unaligned_read32(const void *mem) {
 315:lib/TinyUSB/src/common/tusb_common.h ****   return *((uint32_t const *) mem);
 316:lib/TinyUSB/src/common/tusb_common.h **** }
 317:lib/TinyUSB/src/common/tusb_common.h **** 
 318:lib/TinyUSB/src/common/tusb_common.h **** TU_ATTR_ALWAYS_INLINE static inline uint16_t tu_unaligned_read16(const void *mem) {
 319:lib/TinyUSB/src/common/tusb_common.h ****   return *((uint16_t const *) mem);
 320:lib/TinyUSB/src/common/tusb_common.h **** }
 321:lib/TinyUSB/src/common/tusb_common.h **** 
 322:lib/TinyUSB/src/common/tusb_common.h **** TU_ATTR_ALWAYS_INLINE static inline void tu_unaligned_write32(void *mem, uint32_t value) {
 323:lib/TinyUSB/src/common/tusb_common.h ****   *((uint32_t *) mem) = value;
 324:lib/TinyUSB/src/common/tusb_common.h **** }
 325:lib/TinyUSB/src/common/tusb_common.h **** 
 326:lib/TinyUSB/src/common/tusb_common.h **** TU_ATTR_ALWAYS_INLINE static inline void tu_unaligned_write16(void *mem, uint16_t value) {
 327:lib/TinyUSB/src/common/tusb_common.h ****   *((uint16_t *) mem) = value;
 328:lib/TinyUSB/src/common/tusb_common.h **** }
 329:lib/TinyUSB/src/common/tusb_common.h **** 
 330:lib/TinyUSB/src/common/tusb_common.h **** #endif
 331:lib/TinyUSB/src/common/tusb_common.h **** 
 332:lib/TinyUSB/src/common/tusb_common.h **** // scatter read 4 bytes from two buffers. Parameter are not checked
 333:lib/TinyUSB/src/common/tusb_common.h **** TU_ATTR_ALWAYS_INLINE static inline uint32_t tu_scatter_read32(const uint8_t *buf1, uint8_t len1, c
 334:lib/TinyUSB/src/common/tusb_common.h ****                                                                uint8_t len2) {
 335:lib/TinyUSB/src/common/tusb_common.h ****   uint32_t result = 0;
 336:lib/TinyUSB/src/common/tusb_common.h ****   uint8_t  shift  = 0;
 337:lib/TinyUSB/src/common/tusb_common.h **** 
 338:lib/TinyUSB/src/common/tusb_common.h ****   for (uint8_t i = 0; i < len1; ++i) {
 339:lib/TinyUSB/src/common/tusb_common.h ****     result |= ((uint32_t)buf1[i]) << shift;
 340:lib/TinyUSB/src/common/tusb_common.h ****     shift += 8;
 341:lib/TinyUSB/src/common/tusb_common.h ****   }
 342:lib/TinyUSB/src/common/tusb_common.h **** 
 343:lib/TinyUSB/src/common/tusb_common.h ****   for (uint8_t i = 0; i < len2; ++i) {
 344:lib/TinyUSB/src/common/tusb_common.h ****     result |= ((uint32_t)buf2[i]) << shift;
 345:lib/TinyUSB/src/common/tusb_common.h ****     shift += 8;
 346:lib/TinyUSB/src/common/tusb_common.h ****   }
 347:lib/TinyUSB/src/common/tusb_common.h **** 
 348:lib/TinyUSB/src/common/tusb_common.h ****   return result;
 349:lib/TinyUSB/src/common/tusb_common.h **** }
ARM GAS  C:\Users\krisa\AppData\Local\Temp\ccoeKVOr.s 			page 51


 350:lib/TinyUSB/src/common/tusb_common.h **** 
 351:lib/TinyUSB/src/common/tusb_common.h **** // scatter write 4 bytes to two buffers. Parameter are not checked
 352:lib/TinyUSB/src/common/tusb_common.h **** TU_ATTR_ALWAYS_INLINE static inline void tu_scatter_write32(uint32_t value, uint8_t *buf1, uint8_t 
 353:lib/TinyUSB/src/common/tusb_common.h ****                                                             uint8_t *buf2, uint8_t len2) {
 354:lib/TinyUSB/src/common/tusb_common.h ****   for (uint8_t i = 0; i < len1; ++i) {
 355:lib/TinyUSB/src/common/tusb_common.h ****     buf1[i] = (uint8_t)(value & 0xFF);
 356:lib/TinyUSB/src/common/tusb_common.h ****     value >>= 8;
 357:lib/TinyUSB/src/common/tusb_common.h ****   }
 358:lib/TinyUSB/src/common/tusb_common.h **** 
 359:lib/TinyUSB/src/common/tusb_common.h ****   for (uint8_t i = 0; i < len2; ++i) {
 360:lib/TinyUSB/src/common/tusb_common.h ****     buf2[i] = (uint8_t)(value & 0xFF);
 361:lib/TinyUSB/src/common/tusb_common.h ****     value >>= 8;
 362:lib/TinyUSB/src/common/tusb_common.h ****   }
 363:lib/TinyUSB/src/common/tusb_common.h **** }
 364:lib/TinyUSB/src/common/tusb_common.h **** 
 365:lib/TinyUSB/src/common/tusb_common.h **** //--------------------------------------------------------------------+
 366:lib/TinyUSB/src/common/tusb_common.h **** // Descriptor helper
 367:lib/TinyUSB/src/common/tusb_common.h **** //--------------------------------------------------------------------+
 368:lib/TinyUSB/src/common/tusb_common.h **** 
 369:lib/TinyUSB/src/common/tusb_common.h **** // return next descriptor
 370:lib/TinyUSB/src/common/tusb_common.h **** TU_ATTR_ALWAYS_INLINE static inline uint8_t const * tu_desc_next(void const* desc) {
 1506              		.loc 4 370 53 discriminator 2 view .LVU351
 1507              	.LBB182:
 371:lib/TinyUSB/src/common/tusb_common.h ****   uint8_t const* desc8 = (uint8_t const*) desc;
 1508              		.loc 4 371 3 discriminator 2 view .LVU352
 372:lib/TinyUSB/src/common/tusb_common.h ****   return desc8 + desc8[DESC_OFFSET_LEN];
 1509              		.loc 4 372 3 discriminator 2 view .LVU353
 1510              		.loc 4 372 23 is_stmt 0 discriminator 2 view .LVU354
 1511 0036 3478     		ldrb	r4, [r6]	@ zero_extendqisi2
 1512              		.loc 4 372 16 discriminator 2 view .LVU355
 1513 0038 3444     		add	r4, r4, r6
 1514              	.LVL132:
 1515              		.loc 4 372 16 discriminator 2 view .LVU356
 1516              	.LBE182:
 1517              	.LBE181:
 322:lib/TinyUSB/src/class/cdc/cdc_device.c ****   while (tu_desc_in_bounds(p_desc, desc_end) && TUSB_DESC_CS_INTERFACE == tu_desc_type(p_desc)) {
 1518              		.loc 1 322 3 is_stmt 1 discriminator 2 view .LVU357
 1519              		.loc 1 322 9 is_stmt 0 discriminator 2 view .LVU358
 1520 003a 21E0     		b	.L153
 1521              	.LVL133:
 1522              	.L150:
 1523              	.LBB183:
 1524              	.LBB180:
 1525              	.LBB179:
 1526              	.LBB178:
 123:lib/TinyUSB/src/class/cdc/cdc_device.c ****     if (ep_addr == p_cdc->rx_stream.ep_addr || ep_addr == p_cdc->tx_stream.ep_addr ||
 1527              		.loc 1 123 5 is_stmt 1 view .LVU359
 124:lib/TinyUSB/src/class/cdc/cdc_device.c ****         (ep_addr == p_cdc->ep_notify && ep_addr != 0)) {
 1528              		.loc 1 124 5 view .LVU360
 124:lib/TinyUSB/src/class/cdc/cdc_device.c ****         (ep_addr == p_cdc->ep_notify && ep_addr != 0)) {
 1529              		.loc 1 124 36 is_stmt 0 view .LVU361
 1530 003c 784B     		ldr	r3, .L191
 1531 003e BC21     		movs	r1, #188
 1532 0040 01FB0733 		mla	r3, r1, r7, r3
 1533 0044 93F82630 		ldrb	r3, [r3, #38]	@ zero_extendqisi2
 124:lib/TinyUSB/src/class/cdc/cdc_device.c ****         (ep_addr == p_cdc->ep_notify && ep_addr != 0)) {
 1534              		.loc 1 124 8 view .LVU362
ARM GAS  C:\Users\krisa\AppData\Local\Temp\ccoeKVOr.s 			page 52


 1535 0048 002B     		cmp	r3, #0
 1536 004a E8D0     		beq	.L149
 124:lib/TinyUSB/src/class/cdc/cdc_device.c ****         (ep_addr == p_cdc->ep_notify && ep_addr != 0)) {
 1537              		.loc 1 124 75 view .LVU363
 1538 004c 744B     		ldr	r3, .L191
 1539 004e 01FB0733 		mla	r3, r1, r7, r3
 1540 0052 9B7B     		ldrb	r3, [r3, #14]	@ zero_extendqisi2
 124:lib/TinyUSB/src/class/cdc/cdc_device.c ****         (ep_addr == p_cdc->ep_notify && ep_addr != 0)) {
 1541              		.loc 1 124 45 view .LVU364
 1542 0054 002B     		cmp	r3, #0
 1543 0056 E2D0     		beq	.L149
 1544              	.LBE178:
 122:lib/TinyUSB/src/class/cdc/cdc_device.c ****     const cdcd_interface_t *p_cdc = &_cdcd_itf[idx];
 1545              		.loc 1 122 44 is_stmt 1 view .LVU365
 122:lib/TinyUSB/src/class/cdc/cdc_device.c ****     const cdcd_interface_t *p_cdc = &_cdcd_itf[idx];
 1546              		.loc 1 122 47 is_stmt 0 view .LVU366
 1547 0058 0137     		adds	r7, r7, #1
 1548              	.LVL134:
 122:lib/TinyUSB/src/class/cdc/cdc_device.c ****     const cdcd_interface_t *p_cdc = &_cdcd_itf[idx];
 1549              		.loc 1 122 47 view .LVU367
 1550 005a FFB2     		uxtb	r7, r7
 1551              	.LVL135:
 122:lib/TinyUSB/src/class/cdc/cdc_device.c ****     const cdcd_interface_t *p_cdc = &_cdcd_itf[idx];
 1552              		.loc 1 122 47 view .LVU368
 1553 005c DDE7     		b	.L148
 1554              	.LVL136:
 1555              	.L183:
 122:lib/TinyUSB/src/class/cdc/cdc_device.c ****     const cdcd_interface_t *p_cdc = &_cdcd_itf[idx];
 1556              		.loc 1 122 47 view .LVU369
 1557              	.LBE179:
 1558              	.LBE180:
 1559              	.LBE183:
 310:lib/TinyUSB/src/class/cdc/cdc_device.c ****   cdcd_interface_t *p_cdc = &_cdcd_itf[cdc_id];
 1560              		.loc 1 310 3 is_stmt 1 discriminator 1 view .LVU370
 310:lib/TinyUSB/src/class/cdc/cdc_device.c ****   cdcd_interface_t *p_cdc = &_cdcd_itf[cdc_id];
 1561              		.loc 1 310 3 discriminator 1 view .LVU371
 310:lib/TinyUSB/src/class/cdc/cdc_device.c ****   cdcd_interface_t *p_cdc = &_cdcd_itf[cdc_id];
 1562              		.loc 1 310 3 discriminator 1 view .LVU372
 310:lib/TinyUSB/src/class/cdc/cdc_device.c ****   cdcd_interface_t *p_cdc = &_cdcd_itf[cdc_id];
 1563              		.loc 1 310 3 discriminator 1 view .LVU373
 1564              	.LBB184:
 310:lib/TinyUSB/src/class/cdc/cdc_device.c ****   cdcd_interface_t *p_cdc = &_cdcd_itf[cdc_id];
 1565              		.loc 1 310 3 discriminator 1 view .LVU374
 310:lib/TinyUSB/src/class/cdc/cdc_device.c ****   cdcd_interface_t *p_cdc = &_cdcd_itf[cdc_id];
 1566              		.loc 1 310 3 discriminator 1 view .LVU375
 1567 005e 4FF0E023 		mov	r3, #-536813568
 1568 0062 D3F8F03D 		ldr	r3, [r3, #3568]
 1569 0066 13F0010F 		tst	r3, #1
 1570 006a 00D0     		beq	.L152
 310:lib/TinyUSB/src/class/cdc/cdc_device.c ****   cdcd_interface_t *p_cdc = &_cdcd_itf[cdc_id];
 1571              		.loc 1 310 3 discriminator 3 view .LVU376
 1572              		.syntax unified
 1573              	@ 310 "lib/TinyUSB/src/class/cdc/cdc_device.c" 1
 1574 006c 00BE     		BKPT #0
 1575              	
 1576              	@ 0 "" 2
 1577              		.thumb
ARM GAS  C:\Users\krisa\AppData\Local\Temp\ccoeKVOr.s 			page 53


 1578              		.syntax unified
 1579              	.L152:
 1580              	.LBE184:
 310:lib/TinyUSB/src/class/cdc/cdc_device.c ****   cdcd_interface_t *p_cdc = &_cdcd_itf[cdc_id];
 1581              		.loc 1 310 3 discriminator 5 view .LVU377
 310:lib/TinyUSB/src/class/cdc/cdc_device.c ****   cdcd_interface_t *p_cdc = &_cdcd_itf[cdc_id];
 1582              		.loc 1 310 3 discriminator 5 view .LVU378
 1583 006e 0020     		movs	r0, #0
 1584              	.LVL137:
 310:lib/TinyUSB/src/class/cdc/cdc_device.c ****   cdcd_interface_t *p_cdc = &_cdcd_itf[cdc_id];
 1585              		.loc 1 310 3 is_stmt 0 discriminator 5 view .LVU379
 1586 0070 D2E0     		b	.L147
 1587              	.LVL138:
 1588              	.L177:
 1589              	.LBB185:
 1590              	.LBB186:
 373:lib/TinyUSB/src/common/tusb_common.h **** }
 374:lib/TinyUSB/src/common/tusb_common.h **** 
 375:lib/TinyUSB/src/common/tusb_common.h **** // get descriptor length
 376:lib/TinyUSB/src/common/tusb_common.h **** TU_ATTR_ALWAYS_INLINE static inline uint8_t tu_desc_len(void const* desc) {
 377:lib/TinyUSB/src/common/tusb_common.h ****   return ((uint8_t const*) desc)[DESC_OFFSET_LEN];
 378:lib/TinyUSB/src/common/tusb_common.h **** }
 379:lib/TinyUSB/src/common/tusb_common.h **** 
 380:lib/TinyUSB/src/common/tusb_common.h **** // get descriptor type
 381:lib/TinyUSB/src/common/tusb_common.h **** TU_ATTR_ALWAYS_INLINE static inline uint8_t tu_desc_type(void const* desc) {
 382:lib/TinyUSB/src/common/tusb_common.h ****   return ((uint8_t const*) desc)[DESC_OFFSET_TYPE];
 383:lib/TinyUSB/src/common/tusb_common.h **** }
 384:lib/TinyUSB/src/common/tusb_common.h **** 
 385:lib/TinyUSB/src/common/tusb_common.h **** // get descriptor subtype
 386:lib/TinyUSB/src/common/tusb_common.h **** TU_ATTR_ALWAYS_INLINE static inline uint8_t tu_desc_subtype(void const* desc) {
 387:lib/TinyUSB/src/common/tusb_common.h ****   return ((uint8_t const*) desc)[DESC_OFFSET_SUBTYPE];
 388:lib/TinyUSB/src/common/tusb_common.h **** }
 389:lib/TinyUSB/src/common/tusb_common.h **** 
 390:lib/TinyUSB/src/common/tusb_common.h **** TU_ATTR_ALWAYS_INLINE static inline bool tu_desc_in_bounds(const uint8_t *p_desc, const uint8_t *de
 391:lib/TinyUSB/src/common/tusb_common.h ****   return p_desc < desc_end && tu_desc_next(p_desc) <= desc_end;
 1591              		.loc 4 391 28 view .LVU380
 1592 0072 0023     		movs	r3, #0
 1593              	.L154:
 1594              	.LVL139:
 1595              		.loc 4 391 28 view .LVU381
 1596              	.LBE186:
 1597              	.LBE185:
 1598              		.loc 1 322 9 view .LVU382
 1599 0074 73B1     		cbz	r3, .L155
 1600              	.LVL140:
 1601              	.LBB190:
 1602              	.LBI190:
 381:lib/TinyUSB/src/common/tusb_common.h ****   return ((uint8_t const*) desc)[DESC_OFFSET_TYPE];
 1603              		.loc 4 381 45 is_stmt 1 view .LVU383
 1604              	.LBB191:
 382:lib/TinyUSB/src/common/tusb_common.h **** }
 1605              		.loc 4 382 3 view .LVU384
 382:lib/TinyUSB/src/common/tusb_common.h **** }
 1606              		.loc 4 382 33 is_stmt 0 view .LVU385
 1607 0076 6378     		ldrb	r3, [r4, #1]	@ zero_extendqisi2
 1608              	.LVL141:
 382:lib/TinyUSB/src/common/tusb_common.h **** }
ARM GAS  C:\Users\krisa\AppData\Local\Temp\ccoeKVOr.s 			page 54


 1609              		.loc 4 382 33 view .LVU386
 1610              	.LBE191:
 1611              	.LBE190:
 1612              		.loc 1 322 46 view .LVU387
 1613 0078 242B     		cmp	r3, #36
 1614 007a 0BD1     		bne	.L155
 323:lib/TinyUSB/src/class/cdc/cdc_device.c ****     p_desc = tu_desc_next(p_desc);
 1615              		.loc 1 323 5 is_stmt 1 view .LVU388
 1616              	.LVL142:
 1617              	.LBB192:
 1618              	.LBI192:
 370:lib/TinyUSB/src/common/tusb_common.h ****   uint8_t const* desc8 = (uint8_t const*) desc;
 1619              		.loc 4 370 53 view .LVU389
 1620              	.LBB193:
 371:lib/TinyUSB/src/common/tusb_common.h ****   return desc8 + desc8[DESC_OFFSET_LEN];
 1621              		.loc 4 371 3 view .LVU390
 372:lib/TinyUSB/src/common/tusb_common.h **** }
 1622              		.loc 4 372 3 view .LVU391
 372:lib/TinyUSB/src/common/tusb_common.h **** }
 1623              		.loc 4 372 23 is_stmt 0 view .LVU392
 1624 007c 2378     		ldrb	r3, [r4]	@ zero_extendqisi2
 372:lib/TinyUSB/src/common/tusb_common.h **** }
 1625              		.loc 4 372 16 view .LVU393
 1626 007e 1C44     		add	r4, r4, r3
 1627              	.LVL143:
 1628              	.L153:
 372:lib/TinyUSB/src/common/tusb_common.h **** }
 1629              		.loc 4 372 16 view .LVU394
 1630              	.LBE193:
 1631              	.LBE192:
 322:lib/TinyUSB/src/class/cdc/cdc_device.c ****     p_desc = tu_desc_next(p_desc);
 1632              		.loc 1 322 9 is_stmt 1 view .LVU395
 1633              	.LBB194:
 1634              	.LBI185:
 390:lib/TinyUSB/src/common/tusb_common.h ****   return p_desc < desc_end && tu_desc_next(p_desc) <= desc_end;
 1635              		.loc 4 390 42 view .LVU396
 1636              	.LBB189:
 1637              		.loc 4 391 3 view .LVU397
 1638              		.loc 4 391 28 is_stmt 0 view .LVU398
 1639 0080 AC42     		cmp	r4, r5
 1640 0082 F6D2     		bcs	.L177
 1641              	.LVL144:
 1642              	.LBB187:
 1643              	.LBI187:
 370:lib/TinyUSB/src/common/tusb_common.h ****   uint8_t const* desc8 = (uint8_t const*) desc;
 1644              		.loc 4 370 53 is_stmt 1 view .LVU399
 1645              	.LBB188:
 371:lib/TinyUSB/src/common/tusb_common.h ****   return desc8 + desc8[DESC_OFFSET_LEN];
 1646              		.loc 4 371 3 view .LVU400
 372:lib/TinyUSB/src/common/tusb_common.h **** }
 1647              		.loc 4 372 3 view .LVU401
 372:lib/TinyUSB/src/common/tusb_common.h **** }
 1648              		.loc 4 372 23 is_stmt 0 view .LVU402
 1649 0084 2378     		ldrb	r3, [r4]	@ zero_extendqisi2
 372:lib/TinyUSB/src/common/tusb_common.h **** }
 1650              		.loc 4 372 16 view .LVU403
 1651 0086 2344     		add	r3, r3, r4
ARM GAS  C:\Users\krisa\AppData\Local\Temp\ccoeKVOr.s 			page 55


 1652              	.LVL145:
 372:lib/TinyUSB/src/common/tusb_common.h **** }
 1653              		.loc 4 372 16 view .LVU404
 1654              	.LBE188:
 1655              	.LBE187:
 1656              		.loc 4 391 28 view .LVU405
 1657 0088 9D42     		cmp	r5, r3
 1658 008a 01D3     		bcc	.L178
 1659 008c 0123     		movs	r3, #1
 1660 008e F1E7     		b	.L154
 1661              	.L178:
 1662 0090 0023     		movs	r3, #0
 1663 0092 EFE7     		b	.L154
 1664              	.LVL146:
 1665              	.L155:
 1666              		.loc 4 391 28 view .LVU406
 1667              	.LBE189:
 1668              	.LBE194:
 324:lib/TinyUSB/src/class/cdc/cdc_device.c ****   }
 325:lib/TinyUSB/src/class/cdc/cdc_device.c **** 
 326:lib/TinyUSB/src/class/cdc/cdc_device.c ****   // notification endpoint (optional)
 327:lib/TinyUSB/src/class/cdc/cdc_device.c ****   if (TUSB_DESC_ENDPOINT == tu_desc_type(p_desc)) {
 1669              		.loc 1 327 3 is_stmt 1 view .LVU407
 1670              	.LBB195:
 1671              	.LBI195:
 381:lib/TinyUSB/src/common/tusb_common.h ****   return ((uint8_t const*) desc)[DESC_OFFSET_TYPE];
 1672              		.loc 4 381 45 view .LVU408
 1673              	.LBB196:
 382:lib/TinyUSB/src/common/tusb_common.h **** }
 1674              		.loc 4 382 3 view .LVU409
 382:lib/TinyUSB/src/common/tusb_common.h **** }
 1675              		.loc 4 382 33 is_stmt 0 view .LVU410
 1676 0094 6378     		ldrb	r3, [r4, #1]	@ zero_extendqisi2
 1677              	.LVL147:
 382:lib/TinyUSB/src/common/tusb_common.h **** }
 1678              		.loc 4 382 33 view .LVU411
 1679              	.LBE196:
 1680              	.LBE195:
 1681              		.loc 1 327 6 view .LVU412
 1682 0096 052B     		cmp	r3, #5
 1683 0098 05D0     		beq	.L184
 1684              	.LVL148:
 1685              	.L157:
 328:lib/TinyUSB/src/class/cdc/cdc_device.c ****     const tusb_desc_endpoint_t* desc_ep = (const tusb_desc_endpoint_t*) p_desc;
 329:lib/TinyUSB/src/class/cdc/cdc_device.c ****     TU_ASSERT(usbd_edpt_open(rhport, desc_ep), 0);
 330:lib/TinyUSB/src/class/cdc/cdc_device.c ****     p_cdc->ep_notify = desc_ep->bEndpointAddress;
 331:lib/TinyUSB/src/class/cdc/cdc_device.c **** 
 332:lib/TinyUSB/src/class/cdc/cdc_device.c ****     p_desc = tu_desc_next(p_desc);
 333:lib/TinyUSB/src/class/cdc/cdc_device.c ****   }
 334:lib/TinyUSB/src/class/cdc/cdc_device.c **** 
 335:lib/TinyUSB/src/class/cdc/cdc_device.c ****   //------------- Data Interface (optional) -------------//
 336:lib/TinyUSB/src/class/cdc/cdc_device.c ****   if (TUSB_DESC_INTERFACE == tu_desc_type(p_desc)) {
 1686              		.loc 1 336 3 is_stmt 1 view .LVU413
 1687              	.LBB197:
 1688              	.LBI197:
 381:lib/TinyUSB/src/common/tusb_common.h ****   return ((uint8_t const*) desc)[DESC_OFFSET_TYPE];
 1689              		.loc 4 381 45 view .LVU414
ARM GAS  C:\Users\krisa\AppData\Local\Temp\ccoeKVOr.s 			page 56


 1690              	.LBB198:
 382:lib/TinyUSB/src/common/tusb_common.h **** }
 1691              		.loc 4 382 3 view .LVU415
 382:lib/TinyUSB/src/common/tusb_common.h **** }
 1692              		.loc 4 382 33 is_stmt 0 view .LVU416
 1693 009a 6378     		ldrb	r3, [r4, #1]	@ zero_extendqisi2
 1694              	.LVL149:
 382:lib/TinyUSB/src/common/tusb_common.h **** }
 1695              		.loc 4 382 33 view .LVU417
 1696              	.LBE198:
 1697              	.LBE197:
 1698              		.loc 1 336 6 view .LVU418
 1699 009c 042B     		cmp	r3, #4
 1700 009e 1AD0     		beq	.L185
 1701              	.LVL150:
 1702              	.L160:
 337:lib/TinyUSB/src/class/cdc/cdc_device.c ****     const tusb_desc_interface_t *data_itf_desc = (const tusb_desc_interface_t *)p_desc;
 338:lib/TinyUSB/src/class/cdc/cdc_device.c ****     if (TUSB_CLASS_CDC_DATA == data_itf_desc->bInterfaceClass) {
 339:lib/TinyUSB/src/class/cdc/cdc_device.c ****       for (uint8_t e = 0; e < data_itf_desc->bNumEndpoints; e++) {
 340:lib/TinyUSB/src/class/cdc/cdc_device.c ****         if (!tu_desc_in_bounds(p_desc, desc_end)) {
 341:lib/TinyUSB/src/class/cdc/cdc_device.c ****           break;
 342:lib/TinyUSB/src/class/cdc/cdc_device.c ****         }
 343:lib/TinyUSB/src/class/cdc/cdc_device.c ****         p_desc = tu_desc_next(p_desc);
 344:lib/TinyUSB/src/class/cdc/cdc_device.c **** 
 345:lib/TinyUSB/src/class/cdc/cdc_device.c ****         const tusb_desc_endpoint_t *desc_ep = (const tusb_desc_endpoint_t *)p_desc;
 346:lib/TinyUSB/src/class/cdc/cdc_device.c ****         TU_ASSERT(TUSB_DESC_ENDPOINT == desc_ep->bDescriptorType && TUSB_XFER_BULK == desc_ep->bmAt
 347:lib/TinyUSB/src/class/cdc/cdc_device.c **** 
 348:lib/TinyUSB/src/class/cdc/cdc_device.c ****         TU_ASSERT(usbd_edpt_open(rhport, desc_ep), 0);
 349:lib/TinyUSB/src/class/cdc/cdc_device.c ****         if (tu_edpt_dir(desc_ep->bEndpointAddress) == TUSB_DIR_IN) {
 350:lib/TinyUSB/src/class/cdc/cdc_device.c ****           tu_edpt_stream_t *stream_tx = &p_cdc->tx_stream;
 351:lib/TinyUSB/src/class/cdc/cdc_device.c **** 
 352:lib/TinyUSB/src/class/cdc/cdc_device.c ****           tu_edpt_stream_open(stream_tx, rhport, desc_ep);
 353:lib/TinyUSB/src/class/cdc/cdc_device.c ****           if (_cdcd_cfg.tx_persistent) {
 354:lib/TinyUSB/src/class/cdc/cdc_device.c ****             tu_edpt_stream_write_xfer(stream_tx); // flush pending data
 355:lib/TinyUSB/src/class/cdc/cdc_device.c ****           } else {
 356:lib/TinyUSB/src/class/cdc/cdc_device.c ****             tu_edpt_stream_clear(stream_tx);
 357:lib/TinyUSB/src/class/cdc/cdc_device.c ****           }
 358:lib/TinyUSB/src/class/cdc/cdc_device.c ****         } else {
 359:lib/TinyUSB/src/class/cdc/cdc_device.c ****           tu_edpt_stream_t *stream_rx = &p_cdc->rx_stream;
 360:lib/TinyUSB/src/class/cdc/cdc_device.c **** 
 361:lib/TinyUSB/src/class/cdc/cdc_device.c ****           tu_edpt_stream_open(stream_rx, rhport, desc_ep);
 362:lib/TinyUSB/src/class/cdc/cdc_device.c ****           if (!_cdcd_cfg.rx_persistent) {
 363:lib/TinyUSB/src/class/cdc/cdc_device.c ****             tu_edpt_stream_clear(stream_rx);
 364:lib/TinyUSB/src/class/cdc/cdc_device.c ****           }
 365:lib/TinyUSB/src/class/cdc/cdc_device.c ****           TU_ASSERT(tu_edpt_stream_read_xfer(stream_rx) > 0, 0); // prepare for incoming data
 366:lib/TinyUSB/src/class/cdc/cdc_device.c ****         }
 367:lib/TinyUSB/src/class/cdc/cdc_device.c ****       }
 368:lib/TinyUSB/src/class/cdc/cdc_device.c **** 
 369:lib/TinyUSB/src/class/cdc/cdc_device.c ****       p_desc = tu_desc_next(p_desc);
 370:lib/TinyUSB/src/class/cdc/cdc_device.c ****     }
 371:lib/TinyUSB/src/class/cdc/cdc_device.c ****   }
 372:lib/TinyUSB/src/class/cdc/cdc_device.c **** 
 373:lib/TinyUSB/src/class/cdc/cdc_device.c ****   return (uint16_t)(p_desc - (const uint8_t *)itf_desc);
 1703              		.loc 1 373 3 is_stmt 1 view .LVU419
 1704              		.loc 1 373 28 is_stmt 0 view .LVU420
 1705 00a0 A01B     		subs	r0, r4, r6
 1706              		.loc 1 373 10 view .LVU421
ARM GAS  C:\Users\krisa\AppData\Local\Temp\ccoeKVOr.s 			page 57


 1707 00a2 80B2     		uxth	r0, r0
 1708 00a4 B8E0     		b	.L147
 1709              	.LVL151:
 1710              	.L184:
 1711              	.LBB199:
 328:lib/TinyUSB/src/class/cdc/cdc_device.c ****     TU_ASSERT(usbd_edpt_open(rhport, desc_ep), 0);
 1712              		.loc 1 328 5 is_stmt 1 view .LVU422
 329:lib/TinyUSB/src/class/cdc/cdc_device.c ****     p_cdc->ep_notify = desc_ep->bEndpointAddress;
 1713              		.loc 1 329 5 view .LVU423
 329:lib/TinyUSB/src/class/cdc/cdc_device.c ****     p_cdc->ep_notify = desc_ep->bEndpointAddress;
 1714              		.loc 1 329 5 view .LVU424
 1715 00a6 2146     		mov	r1, r4
 1716 00a8 4046     		mov	r0, r8
 1717 00aa FFF7FEFF 		bl	usbd_edpt_open
 1718              	.LVL152:
 329:lib/TinyUSB/src/class/cdc/cdc_device.c ****     p_cdc->ep_notify = desc_ep->bEndpointAddress;
 1719              		.loc 1 329 5 is_stmt 0 view .LVU425
 1720 00ae 40B1     		cbz	r0, .L186
 329:lib/TinyUSB/src/class/cdc/cdc_device.c ****     p_cdc->ep_notify = desc_ep->bEndpointAddress;
 1721              		.loc 1 329 5 is_stmt 1 discriminator 2 view .LVU426
 330:lib/TinyUSB/src/class/cdc/cdc_device.c **** 
 1722              		.loc 1 330 5 discriminator 2 view .LVU427
 330:lib/TinyUSB/src/class/cdc/cdc_device.c **** 
 1723              		.loc 1 330 31 is_stmt 0 discriminator 2 view .LVU428
 1724 00b0 A278     		ldrb	r2, [r4, #2]	@ zero_extendqisi2
 330:lib/TinyUSB/src/class/cdc/cdc_device.c **** 
 1725              		.loc 1 330 22 discriminator 2 view .LVU429
 1726 00b2 5B4B     		ldr	r3, .L191
 1727 00b4 BC21     		movs	r1, #188
 1728 00b6 01FB0933 		mla	r3, r1, r9, r3
 1729 00ba 9A70     		strb	r2, [r3, #2]
 332:lib/TinyUSB/src/class/cdc/cdc_device.c ****   }
 1730              		.loc 1 332 5 is_stmt 1 discriminator 2 view .LVU430
 1731              	.LVL153:
 1732              	.LBB200:
 1733              	.LBI200:
 370:lib/TinyUSB/src/common/tusb_common.h ****   uint8_t const* desc8 = (uint8_t const*) desc;
 1734              		.loc 4 370 53 discriminator 2 view .LVU431
 1735              	.LBB201:
 371:lib/TinyUSB/src/common/tusb_common.h ****   return desc8 + desc8[DESC_OFFSET_LEN];
 1736              		.loc 4 371 3 discriminator 2 view .LVU432
 372:lib/TinyUSB/src/common/tusb_common.h **** }
 1737              		.loc 4 372 3 discriminator 2 view .LVU433
 372:lib/TinyUSB/src/common/tusb_common.h **** }
 1738              		.loc 4 372 23 is_stmt 0 discriminator 2 view .LVU434
 1739 00bc 2378     		ldrb	r3, [r4]	@ zero_extendqisi2
 372:lib/TinyUSB/src/common/tusb_common.h **** }
 1740              		.loc 4 372 16 discriminator 2 view .LVU435
 1741 00be 1C44     		add	r4, r4, r3
 1742              	.LVL154:
 372:lib/TinyUSB/src/common/tusb_common.h **** }
 1743              		.loc 4 372 16 discriminator 2 view .LVU436
 1744 00c0 EBE7     		b	.L157
 1745              	.LVL155:
 1746              	.L186:
 372:lib/TinyUSB/src/common/tusb_common.h **** }
 1747              		.loc 4 372 16 discriminator 2 view .LVU437
ARM GAS  C:\Users\krisa\AppData\Local\Temp\ccoeKVOr.s 			page 58


 1748              	.LBE201:
 1749              	.LBE200:
 329:lib/TinyUSB/src/class/cdc/cdc_device.c ****     p_cdc->ep_notify = desc_ep->bEndpointAddress;
 1750              		.loc 1 329 5 is_stmt 1 discriminator 1 view .LVU438
 329:lib/TinyUSB/src/class/cdc/cdc_device.c ****     p_cdc->ep_notify = desc_ep->bEndpointAddress;
 1751              		.loc 1 329 5 discriminator 1 view .LVU439
 329:lib/TinyUSB/src/class/cdc/cdc_device.c ****     p_cdc->ep_notify = desc_ep->bEndpointAddress;
 1752              		.loc 1 329 5 discriminator 1 view .LVU440
 329:lib/TinyUSB/src/class/cdc/cdc_device.c ****     p_cdc->ep_notify = desc_ep->bEndpointAddress;
 1753              		.loc 1 329 5 discriminator 1 view .LVU441
 1754              	.LBB202:
 329:lib/TinyUSB/src/class/cdc/cdc_device.c ****     p_cdc->ep_notify = desc_ep->bEndpointAddress;
 1755              		.loc 1 329 5 discriminator 1 view .LVU442
 329:lib/TinyUSB/src/class/cdc/cdc_device.c ****     p_cdc->ep_notify = desc_ep->bEndpointAddress;
 1756              		.loc 1 329 5 discriminator 1 view .LVU443
 1757 00c2 4FF0E023 		mov	r3, #-536813568
 1758 00c6 D3F8F03D 		ldr	r3, [r3, #3568]
 1759 00ca 13F0010F 		tst	r3, #1
 1760 00ce 00D0     		beq	.L159
 329:lib/TinyUSB/src/class/cdc/cdc_device.c ****     p_cdc->ep_notify = desc_ep->bEndpointAddress;
 1761              		.loc 1 329 5 discriminator 3 view .LVU444
 1762              		.syntax unified
 1763              	@ 329 "lib/TinyUSB/src/class/cdc/cdc_device.c" 1
 1764 00d0 00BE     		BKPT #0
 1765              	
 1766              	@ 0 "" 2
 1767              		.thumb
 1768              		.syntax unified
 1769              	.L159:
 329:lib/TinyUSB/src/class/cdc/cdc_device.c ****     p_cdc->ep_notify = desc_ep->bEndpointAddress;
 1770              		.loc 1 329 5 is_stmt 0 discriminator 3 view .LVU445
 1771              	.LBE202:
 329:lib/TinyUSB/src/class/cdc/cdc_device.c ****     p_cdc->ep_notify = desc_ep->bEndpointAddress;
 1772              		.loc 1 329 5 is_stmt 1 discriminator 5 view .LVU446
 329:lib/TinyUSB/src/class/cdc/cdc_device.c ****     p_cdc->ep_notify = desc_ep->bEndpointAddress;
 1773              		.loc 1 329 5 discriminator 5 view .LVU447
 1774 00d2 0020     		movs	r0, #0
 1775 00d4 A0E0     		b	.L147
 1776              	.LVL156:
 1777              	.L185:
 329:lib/TinyUSB/src/class/cdc/cdc_device.c ****     p_cdc->ep_notify = desc_ep->bEndpointAddress;
 1778              		.loc 1 329 5 is_stmt 0 discriminator 5 view .LVU448
 1779              	.LBE199:
 1780              	.LBB203:
 337:lib/TinyUSB/src/class/cdc/cdc_device.c ****     if (TUSB_CLASS_CDC_DATA == data_itf_desc->bInterfaceClass) {
 1781              		.loc 1 337 5 is_stmt 1 view .LVU449
 338:lib/TinyUSB/src/class/cdc/cdc_device.c ****       for (uint8_t e = 0; e < data_itf_desc->bNumEndpoints; e++) {
 1782              		.loc 1 338 5 view .LVU450
 338:lib/TinyUSB/src/class/cdc/cdc_device.c ****       for (uint8_t e = 0; e < data_itf_desc->bNumEndpoints; e++) {
 1783              		.loc 1 338 45 is_stmt 0 view .LVU451
 1784 00d6 6379     		ldrb	r3, [r4, #5]	@ zero_extendqisi2
 338:lib/TinyUSB/src/class/cdc/cdc_device.c ****       for (uint8_t e = 0; e < data_itf_desc->bNumEndpoints; e++) {
 1785              		.loc 1 338 8 view .LVU452
 1786 00d8 0A2B     		cmp	r3, #10
 1787 00da E1D1     		bne	.L160
 1788 00dc A246     		mov	r10, r4
 1789 00de 3BE0     		b	.L161
ARM GAS  C:\Users\krisa\AppData\Local\Temp\ccoeKVOr.s 			page 59


 1790              	.LVL157:
 1791              	.L180:
 1792              	.LBB204:
 1793              	.LBB205:
 1794              	.LBB206:
 1795              	.LBB207:
 1796              		.loc 4 391 28 view .LVU453
 1797 00e0 0023     		movs	r3, #0
 1798              	.L162:
 1799              	.LVL158:
 1800              		.loc 4 391 28 view .LVU454
 1801              	.LBE207:
 1802              	.LBE206:
 340:lib/TinyUSB/src/class/cdc/cdc_device.c ****           break;
 1803              		.loc 1 340 12 view .LVU455
 1804 00e2 002B     		cmp	r3, #0
 1805 00e4 00F09380 		beq	.L163
 343:lib/TinyUSB/src/class/cdc/cdc_device.c **** 
 1806              		.loc 1 343 9 is_stmt 1 view .LVU456
 1807              	.LVL159:
 1808              	.LBB211:
 1809              	.LBI211:
 370:lib/TinyUSB/src/common/tusb_common.h ****   uint8_t const* desc8 = (uint8_t const*) desc;
 1810              		.loc 4 370 53 view .LVU457
 1811              	.LBB212:
 371:lib/TinyUSB/src/common/tusb_common.h ****   return desc8 + desc8[DESC_OFFSET_LEN];
 1812              		.loc 4 371 3 view .LVU458
 372:lib/TinyUSB/src/common/tusb_common.h **** }
 1813              		.loc 4 372 3 view .LVU459
 372:lib/TinyUSB/src/common/tusb_common.h **** }
 1814              		.loc 4 372 23 is_stmt 0 view .LVU460
 1815 00e8 9AF80030 		ldrb	r3, [r10]	@ zero_extendqisi2
 372:lib/TinyUSB/src/common/tusb_common.h **** }
 1816              		.loc 4 372 16 view .LVU461
 1817 00ec 9A44     		add	r10, r10, r3
 1818              	.LVL160:
 372:lib/TinyUSB/src/common/tusb_common.h **** }
 1819              		.loc 4 372 16 view .LVU462
 1820              	.LBE212:
 1821              	.LBE211:
 345:lib/TinyUSB/src/class/cdc/cdc_device.c ****         TU_ASSERT(TUSB_DESC_ENDPOINT == desc_ep->bDescriptorType && TUSB_XFER_BULK == desc_ep->bmAt
 1822              		.loc 1 345 9 is_stmt 1 view .LVU463
 346:lib/TinyUSB/src/class/cdc/cdc_device.c **** 
 1823              		.loc 1 346 9 view .LVU464
 346:lib/TinyUSB/src/class/cdc/cdc_device.c **** 
 1824              		.loc 1 346 9 view .LVU465
 1825 00ee 9AF80130 		ldrb	r3, [r10, #1]	@ zero_extendqisi2
 1826 00f2 052B     		cmp	r3, #5
 1827 00f4 3ED1     		bne	.L164
 346:lib/TinyUSB/src/class/cdc/cdc_device.c **** 
 1828              		.loc 1 346 9 is_stmt 0 discriminator 2 view .LVU466
 1829 00f6 9AF80330 		ldrb	r3, [r10, #3]	@ zero_extendqisi2
 1830 00fa 03F00303 		and	r3, r3, #3
 1831 00fe 022B     		cmp	r3, #2
 1832 0100 38D1     		bne	.L164
 346:lib/TinyUSB/src/class/cdc/cdc_device.c **** 
 1833              		.loc 1 346 9 is_stmt 1 discriminator 4 view .LVU467
ARM GAS  C:\Users\krisa\AppData\Local\Temp\ccoeKVOr.s 			page 60


 348:lib/TinyUSB/src/class/cdc/cdc_device.c ****         if (tu_edpt_dir(desc_ep->bEndpointAddress) == TUSB_DIR_IN) {
 1834              		.loc 1 348 9 discriminator 4 view .LVU468
 348:lib/TinyUSB/src/class/cdc/cdc_device.c ****         if (tu_edpt_dir(desc_ep->bEndpointAddress) == TUSB_DIR_IN) {
 1835              		.loc 1 348 9 discriminator 4 view .LVU469
 1836 0102 5146     		mov	r1, r10
 1837 0104 4046     		mov	r0, r8
 1838 0106 FFF7FEFF 		bl	usbd_edpt_open
 1839              	.LVL161:
 1840 010a 0028     		cmp	r0, #0
 1841 010c 3CD0     		beq	.L187
 348:lib/TinyUSB/src/class/cdc/cdc_device.c ****         if (tu_edpt_dir(desc_ep->bEndpointAddress) == TUSB_DIR_IN) {
 1842              		.loc 1 348 9 discriminator 2 view .LVU470
 349:lib/TinyUSB/src/class/cdc/cdc_device.c ****           tu_edpt_stream_t *stream_tx = &p_cdc->tx_stream;
 1843              		.loc 1 349 9 discriminator 2 view .LVU471
 349:lib/TinyUSB/src/class/cdc/cdc_device.c ****           tu_edpt_stream_t *stream_tx = &p_cdc->tx_stream;
 1844              		.loc 1 349 13 is_stmt 0 discriminator 2 view .LVU472
 1845 010e 9AF80230 		ldrb	r3, [r10, #2]	@ zero_extendqisi2
 1846              	.LVL162:
 1847              	.LBB213:
 1848              	.LBI213:
 1849              		.file 6 "lib/TinyUSB/src/common/tusb_types.h"
   1:lib/TinyUSB/src/common/tusb_types.h **** /*
   2:lib/TinyUSB/src/common/tusb_types.h ****  * The MIT License (MIT)
   3:lib/TinyUSB/src/common/tusb_types.h ****  *
   4:lib/TinyUSB/src/common/tusb_types.h ****  * Copyright (c) 2019 Ha Thach (tinyusb.org)
   5:lib/TinyUSB/src/common/tusb_types.h ****  *
   6:lib/TinyUSB/src/common/tusb_types.h ****  * Permission is hereby granted, free of charge, to any person obtaining a copy
   7:lib/TinyUSB/src/common/tusb_types.h ****  * of this software and associated documentation files (the "Software"), to deal
   8:lib/TinyUSB/src/common/tusb_types.h ****  * in the Software without restriction, including without limitation the rights
   9:lib/TinyUSB/src/common/tusb_types.h ****  * to use, copy, modify, merge, publish, distribute, sublicense, and/or sell
  10:lib/TinyUSB/src/common/tusb_types.h ****  * copies of the Software, and to permit persons to whom the Software is
  11:lib/TinyUSB/src/common/tusb_types.h ****  * furnished to do so, subject to the following conditions:
  12:lib/TinyUSB/src/common/tusb_types.h ****  *
  13:lib/TinyUSB/src/common/tusb_types.h ****  * The above copyright notice and this permission notice shall be included in
  14:lib/TinyUSB/src/common/tusb_types.h ****  * all copies or substantial portions of the Software.
  15:lib/TinyUSB/src/common/tusb_types.h ****  *
  16:lib/TinyUSB/src/common/tusb_types.h ****  * THE SOFTWARE IS PROVIDED "AS IS", WITHOUT WARRANTY OF ANY KIND, EXPRESS OR
  17:lib/TinyUSB/src/common/tusb_types.h ****  * IMPLIED, INCLUDING BUT NOT LIMITED TO THE WARRANTIES OF MERCHANTABILITY,
  18:lib/TinyUSB/src/common/tusb_types.h ****  * FITNESS FOR A PARTICULAR PURPOSE AND NONINFRINGEMENT. IN NO EVENT SHALL THE
  19:lib/TinyUSB/src/common/tusb_types.h ****  * AUTHORS OR COPYRIGHT HOLDERS BE LIABLE FOR ANY CLAIM, DAMAGES OR OTHER
  20:lib/TinyUSB/src/common/tusb_types.h ****  * LIABILITY, WHETHER IN AN ACTION OF CONTRACT, TORT OR OTHERWISE, ARISING FROM,
  21:lib/TinyUSB/src/common/tusb_types.h ****  * OUT OF OR IN CONNECTION WITH THE SOFTWARE OR THE USE OR OTHER DEALINGS IN
  22:lib/TinyUSB/src/common/tusb_types.h ****  * THE SOFTWARE.
  23:lib/TinyUSB/src/common/tusb_types.h ****  *
  24:lib/TinyUSB/src/common/tusb_types.h ****  * This file is part of the TinyUSB stack.
  25:lib/TinyUSB/src/common/tusb_types.h ****  */
  26:lib/TinyUSB/src/common/tusb_types.h **** 
  27:lib/TinyUSB/src/common/tusb_types.h **** #ifndef TUSB_TYPES_H_
  28:lib/TinyUSB/src/common/tusb_types.h **** #define TUSB_TYPES_H_
  29:lib/TinyUSB/src/common/tusb_types.h **** 
  30:lib/TinyUSB/src/common/tusb_types.h **** #include <stdbool.h>
  31:lib/TinyUSB/src/common/tusb_types.h **** #include <stdint.h>
  32:lib/TinyUSB/src/common/tusb_types.h **** #include "tusb_compiler.h"
  33:lib/TinyUSB/src/common/tusb_types.h **** 
  34:lib/TinyUSB/src/common/tusb_types.h **** #ifdef __cplusplus
  35:lib/TinyUSB/src/common/tusb_types.h ****  extern "C" {
  36:lib/TinyUSB/src/common/tusb_types.h **** #endif
ARM GAS  C:\Users\krisa\AppData\Local\Temp\ccoeKVOr.s 			page 61


  37:lib/TinyUSB/src/common/tusb_types.h **** 
  38:lib/TinyUSB/src/common/tusb_types.h **** //------------- Device DCache declaration -------------//
  39:lib/TinyUSB/src/common/tusb_types.h **** #define TUD_EPBUF_DCACHE_SIZE(_size) (CFG_TUD_MEM_DCACHE_ENABLE ? \
  40:lib/TinyUSB/src/common/tusb_types.h ****   (TU_DIV_CEIL(_size, CFG_TUD_MEM_DCACHE_LINE_SIZE) * CFG_TUD_MEM_DCACHE_LINE_SIZE) : (_size))
  41:lib/TinyUSB/src/common/tusb_types.h **** 
  42:lib/TinyUSB/src/common/tusb_types.h **** // Declare an endpoint buffer with uint8_t[size]
  43:lib/TinyUSB/src/common/tusb_types.h **** #define TUD_EPBUF_DEF(_name, _size) \
  44:lib/TinyUSB/src/common/tusb_types.h ****   union { \
  45:lib/TinyUSB/src/common/tusb_types.h ****     CFG_TUD_MEM_ALIGN uint8_t _name[_size]; \
  46:lib/TinyUSB/src/common/tusb_types.h ****     TU_ATTR_ALIGNED(CFG_TUD_MEM_DCACHE_ENABLE ? CFG_TUD_MEM_DCACHE_LINE_SIZE : 1) uint8_t _name##_d
  47:lib/TinyUSB/src/common/tusb_types.h ****   }
  48:lib/TinyUSB/src/common/tusb_types.h **** 
  49:lib/TinyUSB/src/common/tusb_types.h **** // Declare an endpoint buffer with a type
  50:lib/TinyUSB/src/common/tusb_types.h **** #define TUD_EPBUF_TYPE_DEF(_type, _name) \
  51:lib/TinyUSB/src/common/tusb_types.h ****   union { \
  52:lib/TinyUSB/src/common/tusb_types.h ****     CFG_TUD_MEM_ALIGN _type _name; \
  53:lib/TinyUSB/src/common/tusb_types.h ****     TU_ATTR_ALIGNED(CFG_TUD_MEM_DCACHE_ENABLE ? CFG_TUD_MEM_DCACHE_LINE_SIZE : 1) uint8_t _name##_d
  54:lib/TinyUSB/src/common/tusb_types.h ****   }
  55:lib/TinyUSB/src/common/tusb_types.h **** 
  56:lib/TinyUSB/src/common/tusb_types.h **** //------------- Host DCache declaration -------------//
  57:lib/TinyUSB/src/common/tusb_types.h **** #define TUH_EPBUF_DCACHE_SIZE(_size) (CFG_TUH_MEM_DCACHE_ENABLE ? \
  58:lib/TinyUSB/src/common/tusb_types.h ****   (TU_DIV_CEIL(_size, CFG_TUH_MEM_DCACHE_LINE_SIZE) * CFG_TUH_MEM_DCACHE_LINE_SIZE) : (_size))
  59:lib/TinyUSB/src/common/tusb_types.h **** 
  60:lib/TinyUSB/src/common/tusb_types.h **** // Declare an endpoint buffer with uint8_t[size]
  61:lib/TinyUSB/src/common/tusb_types.h **** #define TUH_EPBUF_DEF(_name, _size) \
  62:lib/TinyUSB/src/common/tusb_types.h ****   union { \
  63:lib/TinyUSB/src/common/tusb_types.h ****     CFG_TUH_MEM_ALIGN uint8_t _name[_size]; \
  64:lib/TinyUSB/src/common/tusb_types.h ****     TU_ATTR_ALIGNED(CFG_TUH_MEM_DCACHE_ENABLE ? CFG_TUH_MEM_DCACHE_LINE_SIZE : 1) uint8_t _name##_d
  65:lib/TinyUSB/src/common/tusb_types.h ****   }
  66:lib/TinyUSB/src/common/tusb_types.h **** 
  67:lib/TinyUSB/src/common/tusb_types.h **** // Declare an endpoint buffer with a type
  68:lib/TinyUSB/src/common/tusb_types.h **** #define TUH_EPBUF_TYPE_DEF(_type, _name) \
  69:lib/TinyUSB/src/common/tusb_types.h ****   union { \
  70:lib/TinyUSB/src/common/tusb_types.h ****     CFG_TUH_MEM_ALIGN _type _name; \
  71:lib/TinyUSB/src/common/tusb_types.h ****     TU_ATTR_ALIGNED(CFG_TUH_MEM_DCACHE_ENABLE ? CFG_TUH_MEM_DCACHE_LINE_SIZE : 1) uint8_t _name##_d
  72:lib/TinyUSB/src/common/tusb_types.h ****   }
  73:lib/TinyUSB/src/common/tusb_types.h **** 
  74:lib/TinyUSB/src/common/tusb_types.h **** 
  75:lib/TinyUSB/src/common/tusb_types.h **** /*------------------------------------------------------------------*/
  76:lib/TinyUSB/src/common/tusb_types.h **** /* CONSTANTS
  77:lib/TinyUSB/src/common/tusb_types.h ****  *------------------------------------------------------------------*/
  78:lib/TinyUSB/src/common/tusb_types.h **** 
  79:lib/TinyUSB/src/common/tusb_types.h **** typedef enum {
  80:lib/TinyUSB/src/common/tusb_types.h ****   TUSB_ROLE_INVALID = 0u,
  81:lib/TinyUSB/src/common/tusb_types.h ****   TUSB_ROLE_DEVICE  = 0x1,
  82:lib/TinyUSB/src/common/tusb_types.h ****   TUSB_ROLE_HOST    = 0x2,
  83:lib/TinyUSB/src/common/tusb_types.h **** } tusb_role_t;
  84:lib/TinyUSB/src/common/tusb_types.h **** 
  85:lib/TinyUSB/src/common/tusb_types.h **** /// defined base on EHCI specs value for Endpoint Speed
  86:lib/TinyUSB/src/common/tusb_types.h **** typedef enum {
  87:lib/TinyUSB/src/common/tusb_types.h ****   TUSB_SPEED_FULL = 0,
  88:lib/TinyUSB/src/common/tusb_types.h ****   TUSB_SPEED_LOW  = 1,
  89:lib/TinyUSB/src/common/tusb_types.h ****   TUSB_SPEED_HIGH = 2,
  90:lib/TinyUSB/src/common/tusb_types.h ****   TUSB_SPEED_AUTO = 0xaa,
  91:lib/TinyUSB/src/common/tusb_types.h ****   TUSB_SPEED_INVALID = 0xff,
  92:lib/TinyUSB/src/common/tusb_types.h **** } tusb_speed_t;
  93:lib/TinyUSB/src/common/tusb_types.h **** 
ARM GAS  C:\Users\krisa\AppData\Local\Temp\ccoeKVOr.s 			page 62


  94:lib/TinyUSB/src/common/tusb_types.h **** /// defined base on USB Specs Endpoint's bmAttributes
  95:lib/TinyUSB/src/common/tusb_types.h **** typedef enum {
  96:lib/TinyUSB/src/common/tusb_types.h ****   TUSB_XFER_CONTROL     = 0,
  97:lib/TinyUSB/src/common/tusb_types.h ****   TUSB_XFER_ISOCHRONOUS = 1,
  98:lib/TinyUSB/src/common/tusb_types.h ****   TUSB_XFER_BULK        = 2,
  99:lib/TinyUSB/src/common/tusb_types.h ****   TUSB_XFER_INTERRUPT   = 3
 100:lib/TinyUSB/src/common/tusb_types.h **** } tusb_xfer_type_t;
 101:lib/TinyUSB/src/common/tusb_types.h **** 
 102:lib/TinyUSB/src/common/tusb_types.h **** typedef enum {
 103:lib/TinyUSB/src/common/tusb_types.h ****   TUSB_DIR_OUT = 0,
 104:lib/TinyUSB/src/common/tusb_types.h ****   TUSB_DIR_IN  = 1,
 105:lib/TinyUSB/src/common/tusb_types.h **** 
 106:lib/TinyUSB/src/common/tusb_types.h ****   TUSB_EPNUM_MASK = 0x0F,
 107:lib/TinyUSB/src/common/tusb_types.h ****   TUSB_DIR_IN_MASK = 0x80
 108:lib/TinyUSB/src/common/tusb_types.h **** } tusb_dir_t;
 109:lib/TinyUSB/src/common/tusb_types.h **** 
 110:lib/TinyUSB/src/common/tusb_types.h **** enum {
 111:lib/TinyUSB/src/common/tusb_types.h ****   TUSB_EPSIZE_BULK_FS = 64,
 112:lib/TinyUSB/src/common/tusb_types.h ****   TUSB_EPSIZE_BULK_HS = 512,
 113:lib/TinyUSB/src/common/tusb_types.h **** 
 114:lib/TinyUSB/src/common/tusb_types.h ****   TUSB_EPSIZE_ISO_FS_MAX = 1023,
 115:lib/TinyUSB/src/common/tusb_types.h ****   TUSB_EPSIZE_ISO_HS_MAX = 1024,
 116:lib/TinyUSB/src/common/tusb_types.h **** };
 117:lib/TinyUSB/src/common/tusb_types.h **** 
 118:lib/TinyUSB/src/common/tusb_types.h **** /// Isochronous Endpoint Attributes
 119:lib/TinyUSB/src/common/tusb_types.h **** typedef enum {
 120:lib/TinyUSB/src/common/tusb_types.h ****   TUSB_ISO_EP_ATT_NO_SYNC         = 0x00,
 121:lib/TinyUSB/src/common/tusb_types.h ****   TUSB_ISO_EP_ATT_ASYNCHRONOUS    = 0x04,
 122:lib/TinyUSB/src/common/tusb_types.h ****   TUSB_ISO_EP_ATT_ADAPTIVE        = 0x08,
 123:lib/TinyUSB/src/common/tusb_types.h ****   TUSB_ISO_EP_ATT_SYNCHRONOUS     = 0x0C,
 124:lib/TinyUSB/src/common/tusb_types.h ****   TUSB_ISO_EP_ATT_DATA            = 0x00, ///< Data End Point
 125:lib/TinyUSB/src/common/tusb_types.h ****   TUSB_ISO_EP_ATT_EXPLICIT_FB     = 0x10, ///< Feedback End Point
 126:lib/TinyUSB/src/common/tusb_types.h ****   TUSB_ISO_EP_ATT_IMPLICIT_FB     = 0x20, ///< Data endpoint that also serves as an implicit feedba
 127:lib/TinyUSB/src/common/tusb_types.h **** } tusb_iso_ep_attribute_t;
 128:lib/TinyUSB/src/common/tusb_types.h **** 
 129:lib/TinyUSB/src/common/tusb_types.h **** /// USB Descriptor Types
 130:lib/TinyUSB/src/common/tusb_types.h **** typedef enum {
 131:lib/TinyUSB/src/common/tusb_types.h ****   TUSB_DESC_DEVICE                = 0x01,
 132:lib/TinyUSB/src/common/tusb_types.h ****   TUSB_DESC_CONFIGURATION         = 0x02,
 133:lib/TinyUSB/src/common/tusb_types.h ****   TUSB_DESC_STRING                = 0x03,
 134:lib/TinyUSB/src/common/tusb_types.h ****   TUSB_DESC_INTERFACE             = 0x04,
 135:lib/TinyUSB/src/common/tusb_types.h ****   TUSB_DESC_ENDPOINT              = 0x05,
 136:lib/TinyUSB/src/common/tusb_types.h ****   TUSB_DESC_DEVICE_QUALIFIER      = 0x06,
 137:lib/TinyUSB/src/common/tusb_types.h ****   TUSB_DESC_OTHER_SPEED_CONFIG    = 0x07,
 138:lib/TinyUSB/src/common/tusb_types.h ****   TUSB_DESC_INTERFACE_POWER       = 0x08,
 139:lib/TinyUSB/src/common/tusb_types.h ****   TUSB_DESC_OTG                   = 0x09,
 140:lib/TinyUSB/src/common/tusb_types.h ****   TUSB_DESC_DEBUG                 = 0x0A,
 141:lib/TinyUSB/src/common/tusb_types.h ****   TUSB_DESC_INTERFACE_ASSOCIATION = 0x0B,
 142:lib/TinyUSB/src/common/tusb_types.h **** 
 143:lib/TinyUSB/src/common/tusb_types.h ****   TUSB_DESC_BOS                   = 0x0F,
 144:lib/TinyUSB/src/common/tusb_types.h ****   TUSB_DESC_DEVICE_CAPABILITY     = 0x10,
 145:lib/TinyUSB/src/common/tusb_types.h **** 
 146:lib/TinyUSB/src/common/tusb_types.h ****   TUSB_DESC_FUNCTIONAL            = 0x21,
 147:lib/TinyUSB/src/common/tusb_types.h **** 
 148:lib/TinyUSB/src/common/tusb_types.h ****   // Class Specific Descriptor
 149:lib/TinyUSB/src/common/tusb_types.h ****   TUSB_DESC_CS_DEVICE             = 0x21,
 150:lib/TinyUSB/src/common/tusb_types.h ****   TUSB_DESC_CS_CONFIGURATION      = 0x22,
ARM GAS  C:\Users\krisa\AppData\Local\Temp\ccoeKVOr.s 			page 63


 151:lib/TinyUSB/src/common/tusb_types.h ****   TUSB_DESC_CS_STRING             = 0x23,
 152:lib/TinyUSB/src/common/tusb_types.h ****   TUSB_DESC_CS_INTERFACE          = 0x24,
 153:lib/TinyUSB/src/common/tusb_types.h ****   TUSB_DESC_CS_ENDPOINT           = 0x25,
 154:lib/TinyUSB/src/common/tusb_types.h **** 
 155:lib/TinyUSB/src/common/tusb_types.h ****   TUSB_DESC_SUPERSPEED_ENDPOINT_COMPANION     = 0x30,
 156:lib/TinyUSB/src/common/tusb_types.h ****   TUSB_DESC_SUPERSPEED_ISO_ENDPOINT_COMPANION = 0x31
 157:lib/TinyUSB/src/common/tusb_types.h **** } tusb_desc_type_t;
 158:lib/TinyUSB/src/common/tusb_types.h **** 
 159:lib/TinyUSB/src/common/tusb_types.h **** typedef enum {
 160:lib/TinyUSB/src/common/tusb_types.h ****   TUSB_REQ_GET_STATUS        = 0  ,
 161:lib/TinyUSB/src/common/tusb_types.h ****   TUSB_REQ_CLEAR_FEATURE     = 1  ,
 162:lib/TinyUSB/src/common/tusb_types.h ****   TUSB_REQ_RESERVED          = 2  ,
 163:lib/TinyUSB/src/common/tusb_types.h ****   TUSB_REQ_SET_FEATURE       = 3  ,
 164:lib/TinyUSB/src/common/tusb_types.h ****   TUSB_REQ_RESERVED2         = 4  ,
 165:lib/TinyUSB/src/common/tusb_types.h ****   TUSB_REQ_SET_ADDRESS       = 5  ,
 166:lib/TinyUSB/src/common/tusb_types.h ****   TUSB_REQ_GET_DESCRIPTOR    = 6  ,
 167:lib/TinyUSB/src/common/tusb_types.h ****   TUSB_REQ_SET_DESCRIPTOR    = 7  ,
 168:lib/TinyUSB/src/common/tusb_types.h ****   TUSB_REQ_GET_CONFIGURATION = 8  ,
 169:lib/TinyUSB/src/common/tusb_types.h ****   TUSB_REQ_SET_CONFIGURATION = 9  ,
 170:lib/TinyUSB/src/common/tusb_types.h ****   TUSB_REQ_GET_INTERFACE     = 10 ,
 171:lib/TinyUSB/src/common/tusb_types.h ****   TUSB_REQ_SET_INTERFACE     = 11 ,
 172:lib/TinyUSB/src/common/tusb_types.h ****   TUSB_REQ_SYNCH_FRAME       = 12
 173:lib/TinyUSB/src/common/tusb_types.h **** } tusb_request_code_t;
 174:lib/TinyUSB/src/common/tusb_types.h **** 
 175:lib/TinyUSB/src/common/tusb_types.h **** typedef enum {
 176:lib/TinyUSB/src/common/tusb_types.h ****   TUSB_REQ_FEATURE_EDPT_HALT     = 0,
 177:lib/TinyUSB/src/common/tusb_types.h ****   TUSB_REQ_FEATURE_REMOTE_WAKEUP = 1,
 178:lib/TinyUSB/src/common/tusb_types.h ****   TUSB_REQ_FEATURE_TEST_MODE     = 2
 179:lib/TinyUSB/src/common/tusb_types.h **** } tusb_request_feature_selector_t;
 180:lib/TinyUSB/src/common/tusb_types.h **** 
 181:lib/TinyUSB/src/common/tusb_types.h **** typedef enum {
 182:lib/TinyUSB/src/common/tusb_types.h ****   TUSB_REQ_TYPE_STANDARD = 0u,
 183:lib/TinyUSB/src/common/tusb_types.h ****   TUSB_REQ_TYPE_CLASS,
 184:lib/TinyUSB/src/common/tusb_types.h ****   TUSB_REQ_TYPE_VENDOR,
 185:lib/TinyUSB/src/common/tusb_types.h ****   TUSB_REQ_TYPE_INVALID
 186:lib/TinyUSB/src/common/tusb_types.h **** } tusb_request_type_t;
 187:lib/TinyUSB/src/common/tusb_types.h **** 
 188:lib/TinyUSB/src/common/tusb_types.h **** typedef enum {
 189:lib/TinyUSB/src/common/tusb_types.h ****   TUSB_REQ_RCPT_DEVICE =0,
 190:lib/TinyUSB/src/common/tusb_types.h ****   TUSB_REQ_RCPT_INTERFACE,
 191:lib/TinyUSB/src/common/tusb_types.h ****   TUSB_REQ_RCPT_ENDPOINT,
 192:lib/TinyUSB/src/common/tusb_types.h ****   TUSB_REQ_RCPT_OTHER
 193:lib/TinyUSB/src/common/tusb_types.h **** } tusb_request_recipient_t;
 194:lib/TinyUSB/src/common/tusb_types.h **** 
 195:lib/TinyUSB/src/common/tusb_types.h **** // https://www.usb.org/defined-class-codes
 196:lib/TinyUSB/src/common/tusb_types.h **** typedef enum {
 197:lib/TinyUSB/src/common/tusb_types.h ****   TUSB_CLASS_UNSPECIFIED          = 0    ,
 198:lib/TinyUSB/src/common/tusb_types.h ****   TUSB_CLASS_AUDIO                = 1    ,
 199:lib/TinyUSB/src/common/tusb_types.h ****   TUSB_CLASS_CDC                  = 2    ,
 200:lib/TinyUSB/src/common/tusb_types.h ****   TUSB_CLASS_HID                  = 3    ,
 201:lib/TinyUSB/src/common/tusb_types.h ****   TUSB_CLASS_RESERVED_4           = 4    ,
 202:lib/TinyUSB/src/common/tusb_types.h ****   TUSB_CLASS_PHYSICAL             = 5    ,
 203:lib/TinyUSB/src/common/tusb_types.h ****   TUSB_CLASS_IMAGE                = 6    ,
 204:lib/TinyUSB/src/common/tusb_types.h ****   TUSB_CLASS_PRINTER              = 7    ,
 205:lib/TinyUSB/src/common/tusb_types.h ****   TUSB_CLASS_MSC                  = 8    ,
 206:lib/TinyUSB/src/common/tusb_types.h ****   TUSB_CLASS_HUB                  = 9    ,
 207:lib/TinyUSB/src/common/tusb_types.h ****   TUSB_CLASS_CDC_DATA             = 10   ,
ARM GAS  C:\Users\krisa\AppData\Local\Temp\ccoeKVOr.s 			page 64


 208:lib/TinyUSB/src/common/tusb_types.h ****   TUSB_CLASS_SMART_CARD           = 11   ,
 209:lib/TinyUSB/src/common/tusb_types.h ****   TUSB_CLASS_RESERVED_12          = 12   ,
 210:lib/TinyUSB/src/common/tusb_types.h ****   TUSB_CLASS_CONTENT_SECURITY     = 13   ,
 211:lib/TinyUSB/src/common/tusb_types.h ****   TUSB_CLASS_VIDEO                = 14   ,
 212:lib/TinyUSB/src/common/tusb_types.h ****   TUSB_CLASS_PERSONAL_HEALTHCARE  = 15   ,
 213:lib/TinyUSB/src/common/tusb_types.h ****   TUSB_CLASS_AUDIO_VIDEO          = 16   ,
 214:lib/TinyUSB/src/common/tusb_types.h **** 
 215:lib/TinyUSB/src/common/tusb_types.h ****   TUSB_CLASS_DIAGNOSTIC           = 0xDC ,
 216:lib/TinyUSB/src/common/tusb_types.h ****   TUSB_CLASS_WIRELESS_CONTROLLER  = 0xE0 ,
 217:lib/TinyUSB/src/common/tusb_types.h ****   TUSB_CLASS_MISC                 = 0xEF ,
 218:lib/TinyUSB/src/common/tusb_types.h ****   TUSB_CLASS_APPLICATION_SPECIFIC = 0xFE ,
 219:lib/TinyUSB/src/common/tusb_types.h ****   TUSB_CLASS_VENDOR_SPECIFIC      = 0xFF
 220:lib/TinyUSB/src/common/tusb_types.h **** } tusb_class_code_t;
 221:lib/TinyUSB/src/common/tusb_types.h **** 
 222:lib/TinyUSB/src/common/tusb_types.h **** typedef enum
 223:lib/TinyUSB/src/common/tusb_types.h **** {
 224:lib/TinyUSB/src/common/tusb_types.h ****   MISC_SUBCLASS_COMMON = 2
 225:lib/TinyUSB/src/common/tusb_types.h **** }misc_subclass_type_t;
 226:lib/TinyUSB/src/common/tusb_types.h **** 
 227:lib/TinyUSB/src/common/tusb_types.h **** typedef enum {
 228:lib/TinyUSB/src/common/tusb_types.h ****   MISC_PROTOCOL_IAD = 1
 229:lib/TinyUSB/src/common/tusb_types.h **** } misc_protocol_type_t;
 230:lib/TinyUSB/src/common/tusb_types.h **** 
 231:lib/TinyUSB/src/common/tusb_types.h **** typedef enum {
 232:lib/TinyUSB/src/common/tusb_types.h ****   APP_SUBCLASS_USBTMC = 0x03,
 233:lib/TinyUSB/src/common/tusb_types.h ****   APP_SUBCLASS_DFU_RUNTIME = 0x01
 234:lib/TinyUSB/src/common/tusb_types.h **** } app_subclass_type_t;
 235:lib/TinyUSB/src/common/tusb_types.h **** 
 236:lib/TinyUSB/src/common/tusb_types.h **** typedef enum {
 237:lib/TinyUSB/src/common/tusb_types.h ****   DEVICE_CAPABILITY_WIRELESS_USB               = 0x01,
 238:lib/TinyUSB/src/common/tusb_types.h ****   DEVICE_CAPABILITY_USB20_EXTENSION            = 0x02,
 239:lib/TinyUSB/src/common/tusb_types.h ****   DEVICE_CAPABILITY_SUPERSPEED_USB             = 0x03,
 240:lib/TinyUSB/src/common/tusb_types.h ****   DEVICE_CAPABILITY_CONTAINER_id               = 0x04,
 241:lib/TinyUSB/src/common/tusb_types.h ****   DEVICE_CAPABILITY_PLATFORM                   = 0x05,
 242:lib/TinyUSB/src/common/tusb_types.h ****   DEVICE_CAPABILITY_POWER_DELIVERY             = 0x06,
 243:lib/TinyUSB/src/common/tusb_types.h ****   DEVICE_CAPABILITY_BATTERY_INFO               = 0x07,
 244:lib/TinyUSB/src/common/tusb_types.h ****   DEVICE_CAPABILITY_PD_CONSUMER_PORT           = 0x08,
 245:lib/TinyUSB/src/common/tusb_types.h ****   DEVICE_CAPABILITY_PD_PROVIDER_PORT           = 0x09,
 246:lib/TinyUSB/src/common/tusb_types.h ****   DEVICE_CAPABILITY_SUPERSPEED_PLUS            = 0x0A,
 247:lib/TinyUSB/src/common/tusb_types.h ****   DEVICE_CAPABILITY_PRECESION_TIME_MEASUREMENT = 0x0B,
 248:lib/TinyUSB/src/common/tusb_types.h ****   DEVICE_CAPABILITY_WIRELESS_USB_EXT           = 0x0C,
 249:lib/TinyUSB/src/common/tusb_types.h ****   DEVICE_CAPABILITY_BILLBOARD                  = 0x0D,
 250:lib/TinyUSB/src/common/tusb_types.h ****   DEVICE_CAPABILITY_AUTHENTICATION             = 0x0E,
 251:lib/TinyUSB/src/common/tusb_types.h ****   DEVICE_CAPABILITY_BILLBOARD_EX               = 0x0F,
 252:lib/TinyUSB/src/common/tusb_types.h ****   DEVICE_CAPABILITY_CONFIGURATION_SUMMARY      = 0x10
 253:lib/TinyUSB/src/common/tusb_types.h **** } device_capability_type_t;
 254:lib/TinyUSB/src/common/tusb_types.h **** 
 255:lib/TinyUSB/src/common/tusb_types.h **** enum {
 256:lib/TinyUSB/src/common/tusb_types.h ****   TUSB_DESC_CONFIG_ATT_REMOTE_WAKEUP = 1 << 5,
 257:lib/TinyUSB/src/common/tusb_types.h ****   TUSB_DESC_CONFIG_ATT_SELF_POWERED  = 1 << 6,
 258:lib/TinyUSB/src/common/tusb_types.h **** };
 259:lib/TinyUSB/src/common/tusb_types.h **** 
 260:lib/TinyUSB/src/common/tusb_types.h **** #define TUSB_DESC_CONFIG_POWER_MA(x)  ((x)/2)
 261:lib/TinyUSB/src/common/tusb_types.h **** 
 262:lib/TinyUSB/src/common/tusb_types.h **** // USB 2.0 Spec Table 9-7: Test Mode Selectors
 263:lib/TinyUSB/src/common/tusb_types.h **** typedef enum {
 264:lib/TinyUSB/src/common/tusb_types.h ****   TUSB_FEATURE_TEST_J = 1,
ARM GAS  C:\Users\krisa\AppData\Local\Temp\ccoeKVOr.s 			page 65


 265:lib/TinyUSB/src/common/tusb_types.h ****   TUSB_FEATURE_TEST_K = 2,
 266:lib/TinyUSB/src/common/tusb_types.h ****   TUSB_FEATURE_TEST_SE0_NAK = 3,
 267:lib/TinyUSB/src/common/tusb_types.h ****   TUSB_FEATURE_TEST_PACKET = 4,
 268:lib/TinyUSB/src/common/tusb_types.h ****   TUSB_FEATURE_TEST_FORCE_ENABLE = 5,
 269:lib/TinyUSB/src/common/tusb_types.h **** } tusb_feature_test_mode_t;
 270:lib/TinyUSB/src/common/tusb_types.h **** 
 271:lib/TinyUSB/src/common/tusb_types.h **** //--------------------------------------------------------------------+
 272:lib/TinyUSB/src/common/tusb_types.h **** //
 273:lib/TinyUSB/src/common/tusb_types.h **** //--------------------------------------------------------------------+
 274:lib/TinyUSB/src/common/tusb_types.h **** typedef enum {
 275:lib/TinyUSB/src/common/tusb_types.h ****   XFER_RESULT_SUCCESS = 0,
 276:lib/TinyUSB/src/common/tusb_types.h ****   XFER_RESULT_FAILED,
 277:lib/TinyUSB/src/common/tusb_types.h ****   XFER_RESULT_STALLED,
 278:lib/TinyUSB/src/common/tusb_types.h ****   XFER_RESULT_TIMEOUT,
 279:lib/TinyUSB/src/common/tusb_types.h ****   XFER_RESULT_INVALID
 280:lib/TinyUSB/src/common/tusb_types.h **** } xfer_result_t;
 281:lib/TinyUSB/src/common/tusb_types.h **** 
 282:lib/TinyUSB/src/common/tusb_types.h **** #define tusb_xfer_result_t xfer_result_t
 283:lib/TinyUSB/src/common/tusb_types.h **** 
 284:lib/TinyUSB/src/common/tusb_types.h **** // TODO remove
 285:lib/TinyUSB/src/common/tusb_types.h **** enum {
 286:lib/TinyUSB/src/common/tusb_types.h ****   DESC_OFFSET_LEN  = 0,
 287:lib/TinyUSB/src/common/tusb_types.h ****   DESC_OFFSET_TYPE = 1,
 288:lib/TinyUSB/src/common/tusb_types.h ****   DESC_OFFSET_SUBTYPE = 2
 289:lib/TinyUSB/src/common/tusb_types.h **** };
 290:lib/TinyUSB/src/common/tusb_types.h **** 
 291:lib/TinyUSB/src/common/tusb_types.h **** enum {
 292:lib/TinyUSB/src/common/tusb_types.h ****   INTERFACE_INVALID_NUMBER = 0xff
 293:lib/TinyUSB/src/common/tusb_types.h **** };
 294:lib/TinyUSB/src/common/tusb_types.h **** 
 295:lib/TinyUSB/src/common/tusb_types.h **** typedef enum {
 296:lib/TinyUSB/src/common/tusb_types.h ****   MS_OS_20_SET_HEADER_DESCRIPTOR       = 0x00,
 297:lib/TinyUSB/src/common/tusb_types.h ****   MS_OS_20_SUBSET_HEADER_CONFIGURATION = 0x01,
 298:lib/TinyUSB/src/common/tusb_types.h ****   MS_OS_20_SUBSET_HEADER_FUNCTION      = 0x02,
 299:lib/TinyUSB/src/common/tusb_types.h ****   MS_OS_20_FEATURE_COMPATBLE_ID        = 0x03,
 300:lib/TinyUSB/src/common/tusb_types.h ****   MS_OS_20_FEATURE_REG_PROPERTY        = 0x04,
 301:lib/TinyUSB/src/common/tusb_types.h ****   MS_OS_20_FEATURE_MIN_RESUME_TIME     = 0x05,
 302:lib/TinyUSB/src/common/tusb_types.h ****   MS_OS_20_FEATURE_MODEL_ID            = 0x06,
 303:lib/TinyUSB/src/common/tusb_types.h ****   MS_OS_20_FEATURE_CCGP_DEVICE         = 0x07,
 304:lib/TinyUSB/src/common/tusb_types.h ****   MS_OS_20_FEATURE_VENDOR_REVISION     = 0x08
 305:lib/TinyUSB/src/common/tusb_types.h **** } microsoft_os_20_type_t;
 306:lib/TinyUSB/src/common/tusb_types.h **** 
 307:lib/TinyUSB/src/common/tusb_types.h **** enum {
 308:lib/TinyUSB/src/common/tusb_types.h ****   CONTROL_STAGE_IDLE = 0,
 309:lib/TinyUSB/src/common/tusb_types.h ****   CONTROL_STAGE_SETUP, // 1
 310:lib/TinyUSB/src/common/tusb_types.h ****   CONTROL_STAGE_DATA,  // 2
 311:lib/TinyUSB/src/common/tusb_types.h ****   CONTROL_STAGE_ACK    // 3
 312:lib/TinyUSB/src/common/tusb_types.h **** };
 313:lib/TinyUSB/src/common/tusb_types.h **** 
 314:lib/TinyUSB/src/common/tusb_types.h **** enum {
 315:lib/TinyUSB/src/common/tusb_types.h ****   TUSB_INDEX_INVALID_8 = 0xFF
 316:lib/TinyUSB/src/common/tusb_types.h **** };
 317:lib/TinyUSB/src/common/tusb_types.h **** 
 318:lib/TinyUSB/src/common/tusb_types.h **** //--------------------------------------------------------------------+
 319:lib/TinyUSB/src/common/tusb_types.h **** //
 320:lib/TinyUSB/src/common/tusb_types.h **** //--------------------------------------------------------------------+
 321:lib/TinyUSB/src/common/tusb_types.h **** typedef struct {
ARM GAS  C:\Users\krisa\AppData\Local\Temp\ccoeKVOr.s 			page 66


 322:lib/TinyUSB/src/common/tusb_types.h ****   tusb_role_t role;
 323:lib/TinyUSB/src/common/tusb_types.h ****   tusb_speed_t speed;
 324:lib/TinyUSB/src/common/tusb_types.h **** } tusb_rhport_init_t;
 325:lib/TinyUSB/src/common/tusb_types.h **** 
 326:lib/TinyUSB/src/common/tusb_types.h **** typedef struct {
 327:lib/TinyUSB/src/common/tusb_types.h ****   uint16_t len;
 328:lib/TinyUSB/src/common/tusb_types.h ****   uint8_t *buffer;
 329:lib/TinyUSB/src/common/tusb_types.h **** } tusb_buffer_t;
 330:lib/TinyUSB/src/common/tusb_types.h **** 
 331:lib/TinyUSB/src/common/tusb_types.h **** //--------------------------------------------------------------------+
 332:lib/TinyUSB/src/common/tusb_types.h **** // USB Descriptors
 333:lib/TinyUSB/src/common/tusb_types.h **** //--------------------------------------------------------------------+
 334:lib/TinyUSB/src/common/tusb_types.h **** 
 335:lib/TinyUSB/src/common/tusb_types.h **** // Start of all packed definitions for compiler without per-type packed
 336:lib/TinyUSB/src/common/tusb_types.h **** TU_ATTR_PACKED_BEGIN
 337:lib/TinyUSB/src/common/tusb_types.h **** TU_ATTR_BIT_FIELD_ORDER_BEGIN
 338:lib/TinyUSB/src/common/tusb_types.h **** 
 339:lib/TinyUSB/src/common/tusb_types.h **** /// USB Device Descriptor
 340:lib/TinyUSB/src/common/tusb_types.h **** typedef struct TU_ATTR_PACKED {
 341:lib/TinyUSB/src/common/tusb_types.h ****   uint8_t  bLength            ; ///< Size of this descriptor in bytes.
 342:lib/TinyUSB/src/common/tusb_types.h ****   uint8_t  bDescriptorType    ; ///< DEVICE Descriptor Type.
 343:lib/TinyUSB/src/common/tusb_types.h ****   uint16_t bcdUSB             ; ///< BUSB Specification Release Number in Binary-Coded Decimal (i.e
 344:lib/TinyUSB/src/common/tusb_types.h **** 
 345:lib/TinyUSB/src/common/tusb_types.h ****   uint8_t  bDeviceClass       ; ///< Class code (assigned by the USB-IF).
 346:lib/TinyUSB/src/common/tusb_types.h ****   uint8_t  bDeviceSubClass    ; ///< Subclass code (assigned by the USB-IF).
 347:lib/TinyUSB/src/common/tusb_types.h ****   uint8_t  bDeviceProtocol    ; ///< Protocol code (assigned by the USB-IF).
 348:lib/TinyUSB/src/common/tusb_types.h ****   uint8_t  bMaxPacketSize0    ; ///< Maximum packet size for endpoint zero (only 8, 16, 32, or 64 a
 349:lib/TinyUSB/src/common/tusb_types.h **** 
 350:lib/TinyUSB/src/common/tusb_types.h ****   uint16_t idVendor           ; ///< Vendor ID (assigned by the USB-IF).
 351:lib/TinyUSB/src/common/tusb_types.h ****   uint16_t idProduct          ; ///< Product ID (assigned by the manufacturer).
 352:lib/TinyUSB/src/common/tusb_types.h ****   uint16_t bcdDevice          ; ///< Device release number in binary-coded decimal.
 353:lib/TinyUSB/src/common/tusb_types.h ****   uint8_t  iManufacturer      ; ///< Index of string descriptor describing manufacturer.
 354:lib/TinyUSB/src/common/tusb_types.h ****   uint8_t  iProduct           ; ///< Index of string descriptor describing product.
 355:lib/TinyUSB/src/common/tusb_types.h ****   uint8_t  iSerialNumber      ; ///< Index of string descriptor describing the device's serial numb
 356:lib/TinyUSB/src/common/tusb_types.h ****   uint8_t  bNumConfigurations ; ///< Number of possible configurations.
 357:lib/TinyUSB/src/common/tusb_types.h **** } tusb_desc_device_t;
 358:lib/TinyUSB/src/common/tusb_types.h **** 
 359:lib/TinyUSB/src/common/tusb_types.h **** TU_VERIFY_STATIC( sizeof(tusb_desc_device_t) == 18u, "size is not correct");
 360:lib/TinyUSB/src/common/tusb_types.h **** 
 361:lib/TinyUSB/src/common/tusb_types.h **** // USB Binary Device Object Store (BOS) Descriptor
 362:lib/TinyUSB/src/common/tusb_types.h **** typedef struct TU_ATTR_PACKED {
 363:lib/TinyUSB/src/common/tusb_types.h ****   uint8_t  bLength         ; ///< Size of this descriptor in bytes
 364:lib/TinyUSB/src/common/tusb_types.h ****   uint8_t  bDescriptorType ; ///< CONFIGURATION Descriptor Type
 365:lib/TinyUSB/src/common/tusb_types.h ****   uint16_t wTotalLength    ; ///< Total length of data returned for this descriptor
 366:lib/TinyUSB/src/common/tusb_types.h ****   uint8_t  bNumDeviceCaps  ; ///< Number of device capability descriptors in the BOS
 367:lib/TinyUSB/src/common/tusb_types.h **** } tusb_desc_bos_t;
 368:lib/TinyUSB/src/common/tusb_types.h **** 
 369:lib/TinyUSB/src/common/tusb_types.h **** TU_VERIFY_STATIC( sizeof(tusb_desc_bos_t) == 5u, "size is not correct");
 370:lib/TinyUSB/src/common/tusb_types.h **** 
 371:lib/TinyUSB/src/common/tusb_types.h **** /// USB Configuration Descriptor
 372:lib/TinyUSB/src/common/tusb_types.h **** typedef struct TU_ATTR_PACKED {
 373:lib/TinyUSB/src/common/tusb_types.h ****   uint8_t  bLength             ; ///< Size of this descriptor in bytes
 374:lib/TinyUSB/src/common/tusb_types.h ****   uint8_t  bDescriptorType     ; ///< CONFIGURATION Descriptor Type
 375:lib/TinyUSB/src/common/tusb_types.h ****   uint16_t wTotalLength        ; ///< Total length of data returned for this configuration. Include
 376:lib/TinyUSB/src/common/tusb_types.h **** 
 377:lib/TinyUSB/src/common/tusb_types.h ****   uint8_t  bNumInterfaces      ; ///< Number of interfaces supported by this configuration
 378:lib/TinyUSB/src/common/tusb_types.h ****   uint8_t  bConfigurationValue ; ///< Value to use as an argument to the SetConfiguration() request
ARM GAS  C:\Users\krisa\AppData\Local\Temp\ccoeKVOr.s 			page 67


 379:lib/TinyUSB/src/common/tusb_types.h ****   uint8_t  iConfiguration      ; ///< Index of string descriptor describing this configuration
 380:lib/TinyUSB/src/common/tusb_types.h ****   uint8_t  bmAttributes        ; ///< Configuration characteristics \n D7: Reserved (set to one)\n 
 381:lib/TinyUSB/src/common/tusb_types.h ****   uint8_t  bMaxPower           ; ///< Maximum power consumption of the USB device from the bus in t
 382:lib/TinyUSB/src/common/tusb_types.h **** } tusb_desc_configuration_t;
 383:lib/TinyUSB/src/common/tusb_types.h **** 
 384:lib/TinyUSB/src/common/tusb_types.h **** TU_VERIFY_STATIC( sizeof(tusb_desc_configuration_t) == 9u, "size is not correct");
 385:lib/TinyUSB/src/common/tusb_types.h **** 
 386:lib/TinyUSB/src/common/tusb_types.h **** /// USB Interface Descriptor
 387:lib/TinyUSB/src/common/tusb_types.h **** typedef struct TU_ATTR_PACKED {
 388:lib/TinyUSB/src/common/tusb_types.h ****   uint8_t  bLength            ; ///< Size of this descriptor in bytes
 389:lib/TinyUSB/src/common/tusb_types.h ****   uint8_t  bDescriptorType    ; ///< INTERFACE Descriptor Type
 390:lib/TinyUSB/src/common/tusb_types.h **** 
 391:lib/TinyUSB/src/common/tusb_types.h ****   uint8_t  bInterfaceNumber   ; ///< Number of this interface. Zero-based value identifying the ind
 392:lib/TinyUSB/src/common/tusb_types.h ****   uint8_t  bAlternateSetting  ; ///< Value used to select this alternate setting for the interface 
 393:lib/TinyUSB/src/common/tusb_types.h ****   uint8_t  bNumEndpoints      ; ///< Number of endpoints used by this interface (excluding endpoint
 394:lib/TinyUSB/src/common/tusb_types.h ****   uint8_t  bInterfaceClass    ; ///< Class code (assigned by the USB-IF). \li A value of zero is re
 395:lib/TinyUSB/src/common/tusb_types.h ****   uint8_t  bInterfaceSubClass ; ///< Subclass code (assigned by the USB-IF). \n These codes are qua
 396:lib/TinyUSB/src/common/tusb_types.h ****   uint8_t  bInterfaceProtocol ; ///< Protocol code (assigned by the USB). \n These codes are qualif
 397:lib/TinyUSB/src/common/tusb_types.h ****   uint8_t  iInterface         ; ///< Index of string descriptor describing this interface
 398:lib/TinyUSB/src/common/tusb_types.h **** } tusb_desc_interface_t;
 399:lib/TinyUSB/src/common/tusb_types.h **** 
 400:lib/TinyUSB/src/common/tusb_types.h **** TU_VERIFY_STATIC( sizeof(tusb_desc_interface_t) == 9u, "size is not correct");
 401:lib/TinyUSB/src/common/tusb_types.h **** 
 402:lib/TinyUSB/src/common/tusb_types.h **** /// USB Endpoint Descriptor
 403:lib/TinyUSB/src/common/tusb_types.h **** typedef struct TU_ATTR_PACKED {
 404:lib/TinyUSB/src/common/tusb_types.h ****   uint8_t  bLength          ; // Size of this descriptor in bytes
 405:lib/TinyUSB/src/common/tusb_types.h ****   uint8_t  bDescriptorType  ; // ENDPOINT Descriptor Type
 406:lib/TinyUSB/src/common/tusb_types.h **** 
 407:lib/TinyUSB/src/common/tusb_types.h ****   uint8_t  bEndpointAddress ; // The address of the endpoint
 408:lib/TinyUSB/src/common/tusb_types.h **** 
 409:lib/TinyUSB/src/common/tusb_types.h ****   struct TU_ATTR_PACKED {
 410:lib/TinyUSB/src/common/tusb_types.h ****     uint8_t xfer  : 2;        // Control, ISO, Bulk, Interrupt
 411:lib/TinyUSB/src/common/tusb_types.h ****     uint8_t sync  : 2;        // None, Asynchronous, Adaptive, Synchronous
 412:lib/TinyUSB/src/common/tusb_types.h ****     uint8_t usage : 2;        // Data, Feedback, Implicit feedback
 413:lib/TinyUSB/src/common/tusb_types.h ****     uint8_t       : 2;
 414:lib/TinyUSB/src/common/tusb_types.h ****   } bmAttributes;
 415:lib/TinyUSB/src/common/tusb_types.h **** 
 416:lib/TinyUSB/src/common/tusb_types.h ****   uint16_t wMaxPacketSize   ; // Bit 10..0 : max packet size, bit 12..11 additional transaction per
 417:lib/TinyUSB/src/common/tusb_types.h ****   uint8_t  bInterval        ; // Polling interval, in frames or microframes depending on the operat
 418:lib/TinyUSB/src/common/tusb_types.h **** } tusb_desc_endpoint_t;
 419:lib/TinyUSB/src/common/tusb_types.h **** 
 420:lib/TinyUSB/src/common/tusb_types.h **** TU_VERIFY_STATIC( sizeof(tusb_desc_endpoint_t) == 7u, "size is not correct");
 421:lib/TinyUSB/src/common/tusb_types.h **** 
 422:lib/TinyUSB/src/common/tusb_types.h **** /// USB Other Speed Configuration Descriptor
 423:lib/TinyUSB/src/common/tusb_types.h **** typedef struct TU_ATTR_PACKED {
 424:lib/TinyUSB/src/common/tusb_types.h ****   uint8_t  bLength             ; ///< Size of descriptor
 425:lib/TinyUSB/src/common/tusb_types.h ****   uint8_t  bDescriptorType     ; ///< Other_speed_Configuration Type
 426:lib/TinyUSB/src/common/tusb_types.h ****   uint16_t wTotalLength        ; ///< Total length of data returned
 427:lib/TinyUSB/src/common/tusb_types.h **** 
 428:lib/TinyUSB/src/common/tusb_types.h ****   uint8_t  bNumInterfaces      ; ///< Number of interfaces supported by this speed configuration
 429:lib/TinyUSB/src/common/tusb_types.h ****   uint8_t  bConfigurationValue ; ///< Value to use to select configuration
 430:lib/TinyUSB/src/common/tusb_types.h ****   uint8_t  iConfiguration      ; ///< Index of string descriptor
 431:lib/TinyUSB/src/common/tusb_types.h ****   uint8_t  bmAttributes        ; ///< Same as Configuration descriptor
 432:lib/TinyUSB/src/common/tusb_types.h ****   uint8_t  bMaxPower           ; ///< Same as Configuration descriptor
 433:lib/TinyUSB/src/common/tusb_types.h **** } tusb_desc_other_speed_t;
 434:lib/TinyUSB/src/common/tusb_types.h **** 
 435:lib/TinyUSB/src/common/tusb_types.h **** /// USB Device Qualifier Descriptor
ARM GAS  C:\Users\krisa\AppData\Local\Temp\ccoeKVOr.s 			page 68


 436:lib/TinyUSB/src/common/tusb_types.h **** typedef struct TU_ATTR_PACKED {
 437:lib/TinyUSB/src/common/tusb_types.h ****   uint8_t  bLength            ; ///< Size of descriptor
 438:lib/TinyUSB/src/common/tusb_types.h ****   uint8_t  bDescriptorType    ; ///< Device Qualifier Type
 439:lib/TinyUSB/src/common/tusb_types.h ****   uint16_t bcdUSB             ; ///< USB specification version number (e.g., 0200H for V2.00)
 440:lib/TinyUSB/src/common/tusb_types.h **** 
 441:lib/TinyUSB/src/common/tusb_types.h ****   uint8_t  bDeviceClass       ; ///< Class Code
 442:lib/TinyUSB/src/common/tusb_types.h ****   uint8_t  bDeviceSubClass    ; ///< SubClass Code
 443:lib/TinyUSB/src/common/tusb_types.h ****   uint8_t  bDeviceProtocol    ; ///< Protocol Code
 444:lib/TinyUSB/src/common/tusb_types.h **** 
 445:lib/TinyUSB/src/common/tusb_types.h ****   uint8_t  bMaxPacketSize0    ; ///< Maximum packet size for other speed
 446:lib/TinyUSB/src/common/tusb_types.h ****   uint8_t  bNumConfigurations ; ///< Number of Other-speed Configurations
 447:lib/TinyUSB/src/common/tusb_types.h ****   uint8_t  bReserved          ; ///< Reserved for future use, must be zero
 448:lib/TinyUSB/src/common/tusb_types.h **** } tusb_desc_device_qualifier_t;
 449:lib/TinyUSB/src/common/tusb_types.h **** 
 450:lib/TinyUSB/src/common/tusb_types.h **** TU_VERIFY_STATIC( sizeof(tusb_desc_device_qualifier_t) == 10u, "size is not correct");
 451:lib/TinyUSB/src/common/tusb_types.h **** 
 452:lib/TinyUSB/src/common/tusb_types.h **** /// USB Interface Association Descriptor (IAD ECN)
 453:lib/TinyUSB/src/common/tusb_types.h **** typedef struct TU_ATTR_PACKED {
 454:lib/TinyUSB/src/common/tusb_types.h ****   uint8_t bLength           ; ///< Size of descriptor
 455:lib/TinyUSB/src/common/tusb_types.h ****   uint8_t bDescriptorType   ; ///< Other_speed_Configuration Type
 456:lib/TinyUSB/src/common/tusb_types.h **** 
 457:lib/TinyUSB/src/common/tusb_types.h ****   uint8_t bFirstInterface   ; ///< Index of the first associated interface.
 458:lib/TinyUSB/src/common/tusb_types.h ****   uint8_t bInterfaceCount   ; ///< Total number of associated interfaces.
 459:lib/TinyUSB/src/common/tusb_types.h **** 
 460:lib/TinyUSB/src/common/tusb_types.h ****   uint8_t bFunctionClass    ; ///< Interface class ID.
 461:lib/TinyUSB/src/common/tusb_types.h ****   uint8_t bFunctionSubClass ; ///< Interface subclass ID.
 462:lib/TinyUSB/src/common/tusb_types.h ****   uint8_t bFunctionProtocol ; ///< Interface protocol ID.
 463:lib/TinyUSB/src/common/tusb_types.h **** 
 464:lib/TinyUSB/src/common/tusb_types.h ****   uint8_t iFunction         ; ///< Index of the string descriptor describing the interface associat
 465:lib/TinyUSB/src/common/tusb_types.h **** } tusb_desc_interface_assoc_t;
 466:lib/TinyUSB/src/common/tusb_types.h **** 
 467:lib/TinyUSB/src/common/tusb_types.h **** TU_VERIFY_STATIC( sizeof(tusb_desc_interface_assoc_t) == 8u, "size is not correct");
 468:lib/TinyUSB/src/common/tusb_types.h **** 
 469:lib/TinyUSB/src/common/tusb_types.h **** // USB String Descriptor
 470:lib/TinyUSB/src/common/tusb_types.h **** typedef struct TU_ATTR_PACKED {
 471:lib/TinyUSB/src/common/tusb_types.h ****   uint8_t  bLength         ; ///< Size of this descriptor in bytes
 472:lib/TinyUSB/src/common/tusb_types.h ****   uint8_t  bDescriptorType ; ///< Descriptor Type
 473:lib/TinyUSB/src/common/tusb_types.h ****   uint16_t utf16le[];
 474:lib/TinyUSB/src/common/tusb_types.h **** } tusb_desc_string_t;
 475:lib/TinyUSB/src/common/tusb_types.h **** 
 476:lib/TinyUSB/src/common/tusb_types.h **** // USB Binary Device Object Store (BOS)
 477:lib/TinyUSB/src/common/tusb_types.h **** typedef struct TU_ATTR_PACKED {
 478:lib/TinyUSB/src/common/tusb_types.h ****   uint8_t bLength;
 479:lib/TinyUSB/src/common/tusb_types.h ****   uint8_t bDescriptorType ;
 480:lib/TinyUSB/src/common/tusb_types.h ****   uint8_t bDevCapabilityType;
 481:lib/TinyUSB/src/common/tusb_types.h ****   uint8_t bReserved;
 482:lib/TinyUSB/src/common/tusb_types.h ****   uint8_t PlatformCapabilityUUID[16];
 483:lib/TinyUSB/src/common/tusb_types.h ****   uint8_t CapabilityData[];
 484:lib/TinyUSB/src/common/tusb_types.h **** } tusb_desc_bos_platform_t;
 485:lib/TinyUSB/src/common/tusb_types.h **** 
 486:lib/TinyUSB/src/common/tusb_types.h **** // USB WebUSB URL Descriptor
 487:lib/TinyUSB/src/common/tusb_types.h **** typedef struct TU_ATTR_PACKED {
 488:lib/TinyUSB/src/common/tusb_types.h ****   uint8_t bLength;
 489:lib/TinyUSB/src/common/tusb_types.h ****   uint8_t bDescriptorType;
 490:lib/TinyUSB/src/common/tusb_types.h ****   uint8_t bScheme;
 491:lib/TinyUSB/src/common/tusb_types.h ****   char    url[];
 492:lib/TinyUSB/src/common/tusb_types.h **** } tusb_desc_webusb_url_t;
ARM GAS  C:\Users\krisa\AppData\Local\Temp\ccoeKVOr.s 			page 69


 493:lib/TinyUSB/src/common/tusb_types.h **** 
 494:lib/TinyUSB/src/common/tusb_types.h **** // DFU Functional Descriptor
 495:lib/TinyUSB/src/common/tusb_types.h **** typedef struct TU_ATTR_PACKED {
 496:lib/TinyUSB/src/common/tusb_types.h ****   uint8_t  bLength;
 497:lib/TinyUSB/src/common/tusb_types.h ****   uint8_t  bDescriptorType;
 498:lib/TinyUSB/src/common/tusb_types.h **** 
 499:lib/TinyUSB/src/common/tusb_types.h ****   union {
 500:lib/TinyUSB/src/common/tusb_types.h ****     struct TU_ATTR_PACKED {
 501:lib/TinyUSB/src/common/tusb_types.h ****       uint8_t bitCanDnload             : 1;
 502:lib/TinyUSB/src/common/tusb_types.h ****       uint8_t bitCanUpload             : 1;
 503:lib/TinyUSB/src/common/tusb_types.h ****       uint8_t bitManifestationTolerant : 1;
 504:lib/TinyUSB/src/common/tusb_types.h ****       uint8_t bitWillDetach            : 1;
 505:lib/TinyUSB/src/common/tusb_types.h ****       uint8_t reserved                 : 4;
 506:lib/TinyUSB/src/common/tusb_types.h ****     } bmAttributes;
 507:lib/TinyUSB/src/common/tusb_types.h **** 
 508:lib/TinyUSB/src/common/tusb_types.h ****     uint8_t bAttributes;
 509:lib/TinyUSB/src/common/tusb_types.h ****   };
 510:lib/TinyUSB/src/common/tusb_types.h **** 
 511:lib/TinyUSB/src/common/tusb_types.h ****   uint16_t wDetachTimeOut;
 512:lib/TinyUSB/src/common/tusb_types.h ****   uint16_t wTransferSize;
 513:lib/TinyUSB/src/common/tusb_types.h ****   uint16_t bcdDFUVersion;
 514:lib/TinyUSB/src/common/tusb_types.h **** } tusb_desc_dfu_functional_t;
 515:lib/TinyUSB/src/common/tusb_types.h **** 
 516:lib/TinyUSB/src/common/tusb_types.h **** //--------------------------------------------------------------------+
 517:lib/TinyUSB/src/common/tusb_types.h **** //
 518:lib/TinyUSB/src/common/tusb_types.h **** //--------------------------------------------------------------------+
 519:lib/TinyUSB/src/common/tusb_types.h **** 
 520:lib/TinyUSB/src/common/tusb_types.h **** typedef struct TU_ATTR_PACKED {
 521:lib/TinyUSB/src/common/tusb_types.h ****   union {
 522:lib/TinyUSB/src/common/tusb_types.h ****     struct TU_ATTR_PACKED {
 523:lib/TinyUSB/src/common/tusb_types.h ****       uint8_t recipient :  5; ///< Recipient type tusb_request_recipient_t.
 524:lib/TinyUSB/src/common/tusb_types.h ****       uint8_t type      :  2; ///< Request type tusb_request_type_t.
 525:lib/TinyUSB/src/common/tusb_types.h ****       uint8_t direction :  1; ///< Direction type. tusb_dir_t
 526:lib/TinyUSB/src/common/tusb_types.h ****     } bmRequestType_bit;
 527:lib/TinyUSB/src/common/tusb_types.h **** 
 528:lib/TinyUSB/src/common/tusb_types.h ****     uint8_t bmRequestType;
 529:lib/TinyUSB/src/common/tusb_types.h ****   };
 530:lib/TinyUSB/src/common/tusb_types.h **** 
 531:lib/TinyUSB/src/common/tusb_types.h ****   uint8_t  bRequest;
 532:lib/TinyUSB/src/common/tusb_types.h ****   uint16_t wValue;
 533:lib/TinyUSB/src/common/tusb_types.h ****   uint16_t wIndex;
 534:lib/TinyUSB/src/common/tusb_types.h ****   uint16_t wLength;
 535:lib/TinyUSB/src/common/tusb_types.h **** } tusb_control_request_t;
 536:lib/TinyUSB/src/common/tusb_types.h **** 
 537:lib/TinyUSB/src/common/tusb_types.h **** TU_VERIFY_STATIC( sizeof(tusb_control_request_t) == 8u, "size is not correct");
 538:lib/TinyUSB/src/common/tusb_types.h **** 
 539:lib/TinyUSB/src/common/tusb_types.h **** TU_ATTR_PACKED_END  // End of all packed definitions
 540:lib/TinyUSB/src/common/tusb_types.h **** TU_ATTR_BIT_FIELD_ORDER_END
 541:lib/TinyUSB/src/common/tusb_types.h **** 
 542:lib/TinyUSB/src/common/tusb_types.h **** //--------------------------------------------------------------------+
 543:lib/TinyUSB/src/common/tusb_types.h **** // Endpoint helper
 544:lib/TinyUSB/src/common/tusb_types.h **** //--------------------------------------------------------------------+
 545:lib/TinyUSB/src/common/tusb_types.h **** 
 546:lib/TinyUSB/src/common/tusb_types.h **** // Get direction from Endpoint address
 547:lib/TinyUSB/src/common/tusb_types.h **** TU_ATTR_ALWAYS_INLINE static inline tusb_dir_t tu_edpt_dir(uint8_t addr) {
 1850              		.loc 6 547 48 is_stmt 1 discriminator 2 view .LVU473
 1851              	.LBB214:
ARM GAS  C:\Users\krisa\AppData\Local\Temp\ccoeKVOr.s 			page 70


 548:lib/TinyUSB/src/common/tusb_types.h ****   return (addr & TUSB_DIR_IN_MASK) ? TUSB_DIR_IN : TUSB_DIR_OUT;
 1852              		.loc 6 548 3 discriminator 2 view .LVU474
 1853              		.loc 6 548 3 is_stmt 0 discriminator 2 view .LVU475
 1854              	.LBE214:
 1855              	.LBE213:
 349:lib/TinyUSB/src/class/cdc/cdc_device.c ****           tu_edpt_stream_t *stream_tx = &p_cdc->tx_stream;
 1856              		.loc 1 349 12 discriminator 2 view .LVU476
 1857 0112 DB09     		lsrs	r3, r3, #7
 1858 0114 42D1     		bne	.L188
 1859              	.LBB215:
 359:lib/TinyUSB/src/class/cdc/cdc_device.c **** 
 1860              		.loc 1 359 11 is_stmt 1 view .LVU477
 359:lib/TinyUSB/src/class/cdc/cdc_device.c **** 
 1861              		.loc 1 359 29 is_stmt 0 view .LVU478
 1862 0116 424B     		ldr	r3, .L191
 1863 0118 BC22     		movs	r2, #188
 1864 011a 02FB09F2 		mul	r2, r2, r9
 1865 011e 02F1200B 		add	fp, r2, #32
 1866 0122 9B44     		add	fp, fp, r3
 1867 0124 0BF1040B 		add	fp, fp, #4
 1868              	.LVL163:
 361:lib/TinyUSB/src/class/cdc/cdc_device.c ****           if (!_cdcd_cfg.rx_persistent) {
 1869              		.loc 1 361 11 is_stmt 1 view .LVU479
 1870              	.LBB216:
 1871              	.LBI216:
 128:lib/TinyUSB/src/common/tusb_private.h ****                                                              const tusb_desc_endpoint_t *desc_ep) {
 1872              		.loc 3 128 42 view .LVU480
 1873              	.LBB217:
 130:lib/TinyUSB/src/common/tusb_private.h ****   s->ep_addr = desc_ep->bEndpointAddress;
 1874              		.loc 3 130 3 view .LVU481
 130:lib/TinyUSB/src/common/tusb_private.h ****   s->ep_addr = desc_ep->bEndpointAddress;
 1875              		.loc 3 130 14 is_stmt 0 view .LVU482
 1876 0128 1344     		add	r3, r3, r2
 1877 012a 83F82480 		strb	r8, [r3, #36]
 131:lib/TinyUSB/src/common/tusb_private.h ****   s->mps = tu_edpt_packet_size(desc_ep);
 1878              		.loc 3 131 3 is_stmt 1 view .LVU483
 131:lib/TinyUSB/src/common/tusb_private.h ****   s->mps = tu_edpt_packet_size(desc_ep);
 1879              		.loc 3 131 23 is_stmt 0 view .LVU484
 1880 012e 9AF80220 		ldrb	r2, [r10, #2]	@ zero_extendqisi2
 131:lib/TinyUSB/src/common/tusb_private.h ****   s->mps = tu_edpt_packet_size(desc_ep);
 1881              		.loc 3 131 14 view .LVU485
 1882 0132 83F82620 		strb	r2, [r3, #38]
 132:lib/TinyUSB/src/common/tusb_private.h **** }
 1883              		.loc 3 132 3 is_stmt 1 view .LVU486
 1884              	.LVL164:
 1885              	.LBB218:
 1886              	.LBI218:
 549:lib/TinyUSB/src/common/tusb_types.h **** }
 550:lib/TinyUSB/src/common/tusb_types.h **** 
 551:lib/TinyUSB/src/common/tusb_types.h **** // Get Endpoint number from address
 552:lib/TinyUSB/src/common/tusb_types.h **** TU_ATTR_ALWAYS_INLINE static inline uint8_t tu_edpt_number(uint8_t addr) {
 553:lib/TinyUSB/src/common/tusb_types.h ****   return (uint8_t) (addr & TUSB_EPNUM_MASK);
 554:lib/TinyUSB/src/common/tusb_types.h **** }
 555:lib/TinyUSB/src/common/tusb_types.h **** 
 556:lib/TinyUSB/src/common/tusb_types.h **** TU_ATTR_ALWAYS_INLINE static inline uint8_t tu_edpt_addr(uint8_t num, uint8_t dir) {
 557:lib/TinyUSB/src/common/tusb_types.h ****   return (uint8_t) (num | (dir == TUSB_DIR_IN ? TUSB_DIR_IN_MASK : 0u));
 558:lib/TinyUSB/src/common/tusb_types.h **** }
ARM GAS  C:\Users\krisa\AppData\Local\Temp\ccoeKVOr.s 			page 71


 559:lib/TinyUSB/src/common/tusb_types.h **** 
 560:lib/TinyUSB/src/common/tusb_types.h **** TU_ATTR_ALWAYS_INLINE static inline uint16_t tu_edpt_packet_size(tusb_desc_endpoint_t const* desc_e
 1887              		.loc 6 560 46 view .LVU487
 1888              	.LBB219:
 561:lib/TinyUSB/src/common/tusb_types.h ****   return tu_le16toh(desc_ep->wMaxPacketSize) & 0x7FF;
 1889              		.loc 6 561 3 view .LVU488
 1890              		.loc 6 561 10 is_stmt 0 view .LVU489
 1891 0136 BAF80420 		ldrh	r2, [r10, #4]	@ unaligned
 1892              		.loc 6 561 46 view .LVU490
 1893 013a C2F30A02 		ubfx	r2, r2, #0, #11
 1894              	.LVL165:
 1895              		.loc 6 561 46 view .LVU491
 1896              	.LBE219:
 1897              	.LBE218:
 132:lib/TinyUSB/src/common/tusb_private.h **** }
 1898              		.loc 3 132 10 view .LVU492
 1899 013e 1A85     		strh	r2, [r3, #40]	@ movhi
 1900              	.LVL166:
 132:lib/TinyUSB/src/common/tusb_private.h **** }
 1901              		.loc 3 132 10 view .LVU493
 1902              	.LBE217:
 1903              	.LBE216:
 362:lib/TinyUSB/src/class/cdc/cdc_device.c ****             tu_edpt_stream_clear(stream_rx);
 1904              		.loc 1 362 11 is_stmt 1 view .LVU494
 362:lib/TinyUSB/src/class/cdc/cdc_device.c ****             tu_edpt_stream_clear(stream_rx);
 1905              		.loc 1 362 25 is_stmt 0 view .LVU495
 1906 0140 384B     		ldr	r3, .L191+4
 1907 0142 1B78     		ldrb	r3, [r3]	@ zero_extendqisi2
 362:lib/TinyUSB/src/class/cdc/cdc_device.c ****             tu_edpt_stream_clear(stream_rx);
 1908              		.loc 1 362 14 view .LVU496
 1909 0144 13F0010F 		tst	r3, #1
 1910 0148 4DD0     		beq	.L189
 1911              	.L172:
 365:lib/TinyUSB/src/class/cdc/cdc_device.c ****         }
 1912              		.loc 1 365 11 is_stmt 1 view .LVU497
 365:lib/TinyUSB/src/class/cdc/cdc_device.c ****         }
 1913              		.loc 1 365 11 view .LVU498
 1914 014a 5846     		mov	r0, fp
 1915 014c FFF7FEFF 		bl	tu_edpt_stream_read_xfer
 1916              	.LVL167:
 1917 0150 0028     		cmp	r0, #0
 1918 0152 52D0     		beq	.L190
 1919              	.LVL168:
 1920              	.L171:
 365:lib/TinyUSB/src/class/cdc/cdc_device.c ****         }
 1921              		.loc 1 365 11 discriminator 2 view .LVU499
 1922              	.LBE215:
 1923              	.LBE205:
 339:lib/TinyUSB/src/class/cdc/cdc_device.c ****         if (!tu_desc_in_bounds(p_desc, desc_end)) {
 1924              		.loc 1 339 61 discriminator 2 view .LVU500
 339:lib/TinyUSB/src/class/cdc/cdc_device.c ****         if (!tu_desc_in_bounds(p_desc, desc_end)) {
 1925              		.loc 1 339 62 is_stmt 0 discriminator 2 view .LVU501
 1926 0154 0137     		adds	r7, r7, #1
 1927              	.LVL169:
 339:lib/TinyUSB/src/class/cdc/cdc_device.c ****         if (!tu_desc_in_bounds(p_desc, desc_end)) {
 1928              		.loc 1 339 62 discriminator 2 view .LVU502
 1929 0156 FFB2     		uxtb	r7, r7
ARM GAS  C:\Users\krisa\AppData\Local\Temp\ccoeKVOr.s 			page 72


 1930              	.LVL170:
 1931              	.L161:
 339:lib/TinyUSB/src/class/cdc/cdc_device.c ****         if (!tu_desc_in_bounds(p_desc, desc_end)) {
 1932              		.loc 1 339 27 is_stmt 1 discriminator 2 view .LVU503
 339:lib/TinyUSB/src/class/cdc/cdc_device.c ****         if (!tu_desc_in_bounds(p_desc, desc_end)) {
 1933              		.loc 1 339 44 is_stmt 0 discriminator 2 view .LVU504
 1934 0158 2379     		ldrb	r3, [r4, #4]	@ zero_extendqisi2
 339:lib/TinyUSB/src/class/cdc/cdc_device.c ****         if (!tu_desc_in_bounds(p_desc, desc_end)) {
 1935              		.loc 1 339 7 discriminator 2 view .LVU505
 1936 015a BB42     		cmp	r3, r7
 1937 015c 57D9     		bls	.L163
 1938              	.LBB234:
 340:lib/TinyUSB/src/class/cdc/cdc_device.c ****           break;
 1939              		.loc 1 340 9 is_stmt 1 view .LVU506
 1940              	.LVL171:
 1941              	.LBB223:
 1942              	.LBI206:
 390:lib/TinyUSB/src/common/tusb_common.h ****   return p_desc < desc_end && tu_desc_next(p_desc) <= desc_end;
 1943              		.loc 4 390 42 view .LVU507
 1944              	.LBB210:
 1945              		.loc 4 391 3 view .LVU508
 1946              		.loc 4 391 28 is_stmt 0 view .LVU509
 1947 015e AA45     		cmp	r10, r5
 1948 0160 BED2     		bcs	.L180
 1949              	.LVL172:
 1950              	.LBB208:
 1951              	.LBI208:
 370:lib/TinyUSB/src/common/tusb_common.h ****   uint8_t const* desc8 = (uint8_t const*) desc;
 1952              		.loc 4 370 53 is_stmt 1 view .LVU510
 1953              	.LBB209:
 371:lib/TinyUSB/src/common/tusb_common.h ****   return desc8 + desc8[DESC_OFFSET_LEN];
 1954              		.loc 4 371 3 view .LVU511
 372:lib/TinyUSB/src/common/tusb_common.h **** }
 1955              		.loc 4 372 3 view .LVU512
 372:lib/TinyUSB/src/common/tusb_common.h **** }
 1956              		.loc 4 372 23 is_stmt 0 view .LVU513
 1957 0162 9AF80030 		ldrb	r3, [r10]	@ zero_extendqisi2
 372:lib/TinyUSB/src/common/tusb_common.h **** }
 1958              		.loc 4 372 16 view .LVU514
 1959 0166 5344     		add	r3, r3, r10
 1960              	.LVL173:
 372:lib/TinyUSB/src/common/tusb_common.h **** }
 1961              		.loc 4 372 16 view .LVU515
 1962              	.LBE209:
 1963              	.LBE208:
 1964              		.loc 4 391 28 view .LVU516
 1965 0168 9D42     		cmp	r5, r3
 1966 016a 01D3     		bcc	.L181
 1967 016c 0123     		movs	r3, #1
 1968 016e B8E7     		b	.L162
 1969              	.L181:
 1970 0170 0023     		movs	r3, #0
 1971 0172 B6E7     		b	.L162
 1972              	.LVL174:
 1973              	.L164:
 1974              		.loc 4 391 28 view .LVU517
 1975              	.LBE210:
ARM GAS  C:\Users\krisa\AppData\Local\Temp\ccoeKVOr.s 			page 73


 1976              	.LBE223:
 346:lib/TinyUSB/src/class/cdc/cdc_device.c **** 
 1977              		.loc 1 346 9 is_stmt 1 discriminator 3 view .LVU518
 346:lib/TinyUSB/src/class/cdc/cdc_device.c **** 
 1978              		.loc 1 346 9 discriminator 3 view .LVU519
 346:lib/TinyUSB/src/class/cdc/cdc_device.c **** 
 1979              		.loc 1 346 9 discriminator 3 view .LVU520
 346:lib/TinyUSB/src/class/cdc/cdc_device.c **** 
 1980              		.loc 1 346 9 discriminator 3 view .LVU521
 1981              	.LBB224:
 346:lib/TinyUSB/src/class/cdc/cdc_device.c **** 
 1982              		.loc 1 346 9 discriminator 3 view .LVU522
 346:lib/TinyUSB/src/class/cdc/cdc_device.c **** 
 1983              		.loc 1 346 9 discriminator 3 view .LVU523
 1984 0174 4FF0E023 		mov	r3, #-536813568
 1985 0178 D3F8F03D 		ldr	r3, [r3, #3568]
 1986 017c 13F0010F 		tst	r3, #1
 1987 0180 00D0     		beq	.L166
 346:lib/TinyUSB/src/class/cdc/cdc_device.c **** 
 1988              		.loc 1 346 9 discriminator 5 view .LVU524
 1989              		.syntax unified
 1990              	@ 346 "lib/TinyUSB/src/class/cdc/cdc_device.c" 1
 1991 0182 00BE     		BKPT #0
 1992              	
 1993              	@ 0 "" 2
 1994              		.thumb
 1995              		.syntax unified
 1996              	.L166:
 1997              	.LBE224:
 346:lib/TinyUSB/src/class/cdc/cdc_device.c **** 
 1998              		.loc 1 346 9 discriminator 7 view .LVU525
 346:lib/TinyUSB/src/class/cdc/cdc_device.c **** 
 1999              		.loc 1 346 9 discriminator 7 view .LVU526
 2000 0184 0020     		movs	r0, #0
 2001 0186 47E0     		b	.L147
 2002              	.LVL175:
 2003              	.L187:
 348:lib/TinyUSB/src/class/cdc/cdc_device.c ****         if (tu_edpt_dir(desc_ep->bEndpointAddress) == TUSB_DIR_IN) {
 2004              		.loc 1 348 9 discriminator 1 view .LVU527
 348:lib/TinyUSB/src/class/cdc/cdc_device.c ****         if (tu_edpt_dir(desc_ep->bEndpointAddress) == TUSB_DIR_IN) {
 2005              		.loc 1 348 9 discriminator 1 view .LVU528
 348:lib/TinyUSB/src/class/cdc/cdc_device.c ****         if (tu_edpt_dir(desc_ep->bEndpointAddress) == TUSB_DIR_IN) {
 2006              		.loc 1 348 9 discriminator 1 view .LVU529
 348:lib/TinyUSB/src/class/cdc/cdc_device.c ****         if (tu_edpt_dir(desc_ep->bEndpointAddress) == TUSB_DIR_IN) {
 2007              		.loc 1 348 9 discriminator 1 view .LVU530
 2008              	.LBB225:
 348:lib/TinyUSB/src/class/cdc/cdc_device.c ****         if (tu_edpt_dir(desc_ep->bEndpointAddress) == TUSB_DIR_IN) {
 2009              		.loc 1 348 9 discriminator 1 view .LVU531
 348:lib/TinyUSB/src/class/cdc/cdc_device.c ****         if (tu_edpt_dir(desc_ep->bEndpointAddress) == TUSB_DIR_IN) {
 2010              		.loc 1 348 9 discriminator 1 view .LVU532
 2011 0188 4FF0E023 		mov	r3, #-536813568
 2012 018c D3F8F03D 		ldr	r3, [r3, #3568]
 2013 0190 13F0010F 		tst	r3, #1
 2014 0194 00D0     		beq	.L168
 348:lib/TinyUSB/src/class/cdc/cdc_device.c ****         if (tu_edpt_dir(desc_ep->bEndpointAddress) == TUSB_DIR_IN) {
 2015              		.loc 1 348 9 discriminator 3 view .LVU533
 2016              		.syntax unified
ARM GAS  C:\Users\krisa\AppData\Local\Temp\ccoeKVOr.s 			page 74


 2017              	@ 348 "lib/TinyUSB/src/class/cdc/cdc_device.c" 1
 2018 0196 00BE     		BKPT #0
 2019              	
 2020              	@ 0 "" 2
 2021              		.thumb
 2022              		.syntax unified
 2023              	.L168:
 2024              	.LBE225:
 348:lib/TinyUSB/src/class/cdc/cdc_device.c ****         if (tu_edpt_dir(desc_ep->bEndpointAddress) == TUSB_DIR_IN) {
 2025              		.loc 1 348 9 discriminator 5 view .LVU534
 348:lib/TinyUSB/src/class/cdc/cdc_device.c ****         if (tu_edpt_dir(desc_ep->bEndpointAddress) == TUSB_DIR_IN) {
 2026              		.loc 1 348 9 discriminator 5 view .LVU535
 2027 0198 0020     		movs	r0, #0
 2028 019a 3DE0     		b	.L147
 2029              	.LVL176:
 2030              	.L188:
 2031              	.LBB226:
 350:lib/TinyUSB/src/class/cdc/cdc_device.c **** 
 2032              		.loc 1 350 11 view .LVU536
 350:lib/TinyUSB/src/class/cdc/cdc_device.c **** 
 2033              		.loc 1 350 29 is_stmt 0 view .LVU537
 2034 019c 204B     		ldr	r3, .L191
 2035 019e BC22     		movs	r2, #188
 2036 01a0 02FB09F2 		mul	r2, r2, r9
 2037 01a4 02F10800 		add	r0, r2, #8
 2038 01a8 1844     		add	r0, r0, r3
 2039 01aa 0430     		adds	r0, r0, #4
 2040              	.LVL177:
 352:lib/TinyUSB/src/class/cdc/cdc_device.c ****           if (_cdcd_cfg.tx_persistent) {
 2041              		.loc 1 352 11 is_stmt 1 view .LVU538
 2042              	.LBB227:
 2043              	.LBI227:
 128:lib/TinyUSB/src/common/tusb_private.h ****                                                              const tusb_desc_endpoint_t *desc_ep) {
 2044              		.loc 3 128 42 view .LVU539
 2045              	.LBB228:
 130:lib/TinyUSB/src/common/tusb_private.h ****   s->ep_addr = desc_ep->bEndpointAddress;
 2046              		.loc 3 130 3 view .LVU540
 130:lib/TinyUSB/src/common/tusb_private.h ****   s->ep_addr = desc_ep->bEndpointAddress;
 2047              		.loc 3 130 14 is_stmt 0 view .LVU541
 2048 01ac 1344     		add	r3, r3, r2
 2049 01ae 83F80C80 		strb	r8, [r3, #12]
 131:lib/TinyUSB/src/common/tusb_private.h ****   s->mps = tu_edpt_packet_size(desc_ep);
 2050              		.loc 3 131 3 is_stmt 1 view .LVU542
 131:lib/TinyUSB/src/common/tusb_private.h ****   s->mps = tu_edpt_packet_size(desc_ep);
 2051              		.loc 3 131 23 is_stmt 0 view .LVU543
 2052 01b2 9AF80220 		ldrb	r2, [r10, #2]	@ zero_extendqisi2
 131:lib/TinyUSB/src/common/tusb_private.h ****   s->mps = tu_edpt_packet_size(desc_ep);
 2053              		.loc 3 131 14 view .LVU544
 2054 01b6 9A73     		strb	r2, [r3, #14]
 132:lib/TinyUSB/src/common/tusb_private.h **** }
 2055              		.loc 3 132 3 is_stmt 1 view .LVU545
 2056              	.LVL178:
 2057              	.LBB229:
 2058              	.LBI229:
 560:lib/TinyUSB/src/common/tusb_types.h ****   return tu_le16toh(desc_ep->wMaxPacketSize) & 0x7FF;
 2059              		.loc 6 560 46 view .LVU546
 2060              	.LBB230:
ARM GAS  C:\Users\krisa\AppData\Local\Temp\ccoeKVOr.s 			page 75


 2061              		.loc 6 561 3 view .LVU547
 2062              		.loc 6 561 10 is_stmt 0 view .LVU548
 2063 01b8 BAF80420 		ldrh	r2, [r10, #4]	@ unaligned
 2064              		.loc 6 561 46 view .LVU549
 2065 01bc C2F30A02 		ubfx	r2, r2, #0, #11
 2066              	.LVL179:
 2067              		.loc 6 561 46 view .LVU550
 2068              	.LBE230:
 2069              	.LBE229:
 132:lib/TinyUSB/src/common/tusb_private.h **** }
 2070              		.loc 3 132 10 view .LVU551
 2071 01c0 1A82     		strh	r2, [r3, #16]	@ movhi
 2072              	.LVL180:
 132:lib/TinyUSB/src/common/tusb_private.h **** }
 2073              		.loc 3 132 10 view .LVU552
 2074              	.LBE228:
 2075              	.LBE227:
 353:lib/TinyUSB/src/class/cdc/cdc_device.c ****             tu_edpt_stream_write_xfer(stream_tx); // flush pending data
 2076              		.loc 1 353 11 is_stmt 1 view .LVU553
 353:lib/TinyUSB/src/class/cdc/cdc_device.c ****             tu_edpt_stream_write_xfer(stream_tx); // flush pending data
 2077              		.loc 1 353 15 is_stmt 0 view .LVU554
 2078 01c2 184B     		ldr	r3, .L191+4
 2079 01c4 1B78     		ldrb	r3, [r3]	@ zero_extendqisi2
 353:lib/TinyUSB/src/class/cdc/cdc_device.c ****             tu_edpt_stream_write_xfer(stream_tx); // flush pending data
 2080              		.loc 1 353 14 view .LVU555
 2081 01c6 13F0020F 		tst	r3, #2
 2082 01ca 02D0     		beq	.L170
 354:lib/TinyUSB/src/class/cdc/cdc_device.c ****           } else {
 2083              		.loc 1 354 13 is_stmt 1 view .LVU556
 2084 01cc FFF7FEFF 		bl	tu_edpt_stream_write_xfer
 2085              	.LVL181:
 354:lib/TinyUSB/src/class/cdc/cdc_device.c ****           } else {
 2086              		.loc 1 354 13 is_stmt 0 view .LVU557
 2087 01d0 C0E7     		b	.L171
 2088              	.LVL182:
 2089              	.L170:
 356:lib/TinyUSB/src/class/cdc/cdc_device.c ****           }
 2090              		.loc 1 356 13 is_stmt 1 view .LVU558
 2091              	.LBB231:
 2092              	.LBI231:
 143:lib/TinyUSB/src/common/tusb_private.h ****   tu_fifo_clear(&s->ff);
 2093              		.loc 3 143 42 view .LVU559
 2094              	.LBB232:
 144:lib/TinyUSB/src/common/tusb_private.h **** }
 2095              		.loc 3 144 3 view .LVU560
 2096 01d2 BC20     		movs	r0, #188
 2097              	.LVL183:
 144:lib/TinyUSB/src/common/tusb_private.h **** }
 2098              		.loc 3 144 3 is_stmt 0 view .LVU561
 2099 01d4 00FB09F0 		mul	r0, r0, r9
 2100              	.LVL184:
 144:lib/TinyUSB/src/common/tusb_private.h **** }
 2101              		.loc 3 144 3 view .LVU562
 2102 01d8 1030     		adds	r0, r0, #16
 2103 01da 114B     		ldr	r3, .L191
 2104              	.LVL185:
 144:lib/TinyUSB/src/common/tusb_private.h **** }
ARM GAS  C:\Users\krisa\AppData\Local\Temp\ccoeKVOr.s 			page 76


 2105              		.loc 3 144 3 view .LVU563
 2106 01dc 1844     		add	r0, r0, r3
 2107 01de 0830     		adds	r0, r0, #8
 2108 01e0 FFF7FEFF 		bl	tu_fifo_clear
 2109              	.LVL186:
 145:lib/TinyUSB/src/common/tusb_private.h **** 
 2110              		.loc 3 145 1 view .LVU564
 2111 01e4 B6E7     		b	.L171
 2112              	.LVL187:
 2113              	.L189:
 145:lib/TinyUSB/src/common/tusb_private.h **** 
 2114              		.loc 3 145 1 view .LVU565
 2115              	.LBE232:
 2116              	.LBE231:
 2117              	.LBE226:
 2118              	.LBB233:
 363:lib/TinyUSB/src/class/cdc/cdc_device.c ****           }
 2119              		.loc 1 363 13 is_stmt 1 view .LVU566
 2120              	.LBB220:
 2121              	.LBI220:
 143:lib/TinyUSB/src/common/tusb_private.h ****   tu_fifo_clear(&s->ff);
 2122              		.loc 3 143 42 view .LVU567
 2123              	.LBB221:
 144:lib/TinyUSB/src/common/tusb_private.h **** }
 2124              		.loc 3 144 3 view .LVU568
 2125 01e6 BC20     		movs	r0, #188
 2126 01e8 00FB09F0 		mul	r0, r0, r9
 2127 01ec 2830     		adds	r0, r0, #40
 2128 01ee 0C4B     		ldr	r3, .L191
 2129 01f0 1844     		add	r0, r0, r3
 2130 01f2 0830     		adds	r0, r0, #8
 2131 01f4 FFF7FEFF 		bl	tu_fifo_clear
 2132              	.LVL188:
 145:lib/TinyUSB/src/common/tusb_private.h **** 
 2133              		.loc 3 145 1 is_stmt 0 view .LVU569
 2134 01f8 A7E7     		b	.L172
 2135              	.LVL189:
 2136              	.L190:
 145:lib/TinyUSB/src/common/tusb_private.h **** 
 2137              		.loc 3 145 1 view .LVU570
 2138              	.LBE221:
 2139              	.LBE220:
 365:lib/TinyUSB/src/class/cdc/cdc_device.c ****         }
 2140              		.loc 1 365 11 is_stmt 1 discriminator 1 view .LVU571
 365:lib/TinyUSB/src/class/cdc/cdc_device.c ****         }
 2141              		.loc 1 365 11 discriminator 1 view .LVU572
 365:lib/TinyUSB/src/class/cdc/cdc_device.c ****         }
 2142              		.loc 1 365 11 discriminator 1 view .LVU573
 365:lib/TinyUSB/src/class/cdc/cdc_device.c ****         }
 2143              		.loc 1 365 11 discriminator 1 view .LVU574
 2144              	.LBB222:
 365:lib/TinyUSB/src/class/cdc/cdc_device.c ****         }
 2145              		.loc 1 365 11 discriminator 1 view .LVU575
 365:lib/TinyUSB/src/class/cdc/cdc_device.c ****         }
 2146              		.loc 1 365 11 discriminator 1 view .LVU576
 2147 01fa 4FF0E023 		mov	r3, #-536813568
 2148 01fe D3F8F03D 		ldr	r3, [r3, #3568]
ARM GAS  C:\Users\krisa\AppData\Local\Temp\ccoeKVOr.s 			page 77


 2149 0202 13F0010F 		tst	r3, #1
 2150 0206 00D0     		beq	.L173
 365:lib/TinyUSB/src/class/cdc/cdc_device.c ****         }
 2151              		.loc 1 365 11 discriminator 3 view .LVU577
 2152              		.syntax unified
 2153              	@ 365 "lib/TinyUSB/src/class/cdc/cdc_device.c" 1
 2154 0208 00BE     		BKPT #0
 2155              	
 2156              	@ 0 "" 2
 2157              		.thumb
 2158              		.syntax unified
 2159              	.L173:
 2160              	.LBE222:
 365:lib/TinyUSB/src/class/cdc/cdc_device.c ****         }
 2161              		.loc 1 365 11 discriminator 5 view .LVU578
 365:lib/TinyUSB/src/class/cdc/cdc_device.c ****         }
 2162              		.loc 1 365 11 discriminator 5 view .LVU579
 2163 020a 0020     		movs	r0, #0
 2164 020c 04E0     		b	.L147
 2165              	.LVL190:
 2166              	.L163:
 365:lib/TinyUSB/src/class/cdc/cdc_device.c ****         }
 2167              		.loc 1 365 11 is_stmt 0 discriminator 5 view .LVU580
 2168              	.LBE233:
 2169              	.LBE234:
 2170              	.LBE204:
 369:lib/TinyUSB/src/class/cdc/cdc_device.c ****     }
 2171              		.loc 1 369 7 is_stmt 1 view .LVU581
 2172              	.LBB235:
 2173              	.LBI235:
 370:lib/TinyUSB/src/common/tusb_common.h ****   uint8_t const* desc8 = (uint8_t const*) desc;
 2174              		.loc 4 370 53 view .LVU582
 2175              	.LBB236:
 371:lib/TinyUSB/src/common/tusb_common.h ****   return desc8 + desc8[DESC_OFFSET_LEN];
 2176              		.loc 4 371 3 view .LVU583
 372:lib/TinyUSB/src/common/tusb_common.h **** }
 2177              		.loc 4 372 3 view .LVU584
 372:lib/TinyUSB/src/common/tusb_common.h **** }
 2178              		.loc 4 372 23 is_stmt 0 view .LVU585
 2179 020e 9AF80040 		ldrb	r4, [r10]	@ zero_extendqisi2
 2180              	.LVL191:
 372:lib/TinyUSB/src/common/tusb_common.h **** }
 2181              		.loc 4 372 16 view .LVU586
 2182 0212 5444     		add	r4, r4, r10
 2183              	.LVL192:
 372:lib/TinyUSB/src/common/tusb_common.h **** }
 2184              		.loc 4 372 16 view .LVU587
 2185 0214 44E7     		b	.L160
 2186              	.LVL193:
 2187              	.L175:
 372:lib/TinyUSB/src/common/tusb_common.h **** }
 2188              		.loc 4 372 16 view .LVU588
 2189              	.LBE236:
 2190              	.LBE235:
 2191              	.LBE203:
 305:lib/TinyUSB/src/class/cdc/cdc_device.c ****               CDC_COMM_SUBCLASS_ABSTRACT_CONTROL_MODEL == itf_desc->bInterfaceSubClass,
 2192              		.loc 1 305 3 view .LVU589
ARM GAS  C:\Users\krisa\AppData\Local\Temp\ccoeKVOr.s 			page 78


 2193 0216 0020     		movs	r0, #0
 2194              	.LVL194:
 2195              	.L147:
 374:lib/TinyUSB/src/class/cdc/cdc_device.c **** }
 2196              		.loc 1 374 1 view .LVU590
 2197 0218 BDE8F88F 		pop	{r3, r4, r5, r6, r7, r8, r9, r10, fp, pc}
 2198              	.LVL195:
 2199              	.L176:
 305:lib/TinyUSB/src/class/cdc/cdc_device.c ****               CDC_COMM_SUBCLASS_ABSTRACT_CONTROL_MODEL == itf_desc->bInterfaceSubClass,
 2200              		.loc 1 305 3 view .LVU591
 2201 021c 0020     		movs	r0, #0
 2202              	.LVL196:
 305:lib/TinyUSB/src/class/cdc/cdc_device.c ****               CDC_COMM_SUBCLASS_ABSTRACT_CONTROL_MODEL == itf_desc->bInterfaceSubClass,
 2203              		.loc 1 305 3 view .LVU592
 2204 021e FBE7     		b	.L147
 2205              	.L192:
 2206              		.align	2
 2207              	.L191:
 2208 0220 00000000 		.word	.LANCHOR1
 2209 0224 00000000 		.word	.LANCHOR0
 2210              		.cfi_endproc
 2211              	.LFE135:
 2213              		.section	.text.cdcd_control_xfer_cb,"ax",%progbits
 2214              		.align	1
 2215              		.global	cdcd_control_xfer_cb
 2216              		.syntax unified
 2217              		.thumb
 2218              		.thumb_func
 2220              	cdcd_control_xfer_cb:
 2221              	.LVL197:
 2222              	.LFB136:
 375:lib/TinyUSB/src/class/cdc/cdc_device.c **** 
 376:lib/TinyUSB/src/class/cdc/cdc_device.c **** // Invoked when a control transfer occurred on an interface of this class
 377:lib/TinyUSB/src/class/cdc/cdc_device.c **** // Driver response accordingly to the request and the transfer stage (setup/data/ack)
 378:lib/TinyUSB/src/class/cdc/cdc_device.c **** // return false to stall control endpoint (e.g unsupported request)
 379:lib/TinyUSB/src/class/cdc/cdc_device.c **** bool cdcd_control_xfer_cb(uint8_t rhport, uint8_t stage, const tusb_control_request_t* request) {
 2223              		.loc 1 379 97 is_stmt 1 view -0
 2224              		.cfi_startproc
 2225              		@ args = 0, pretend = 0, frame = 0
 2226              		@ frame_needed = 0, uses_anonymous_args = 0
 380:lib/TinyUSB/src/class/cdc/cdc_device.c ****   // Handle class request only
 381:lib/TinyUSB/src/class/cdc/cdc_device.c ****   TU_VERIFY(request->bmRequestType_bit.type == TUSB_REQ_TYPE_CLASS);
 2227              		.loc 1 381 3 view .LVU594
 2228              		.loc 1 381 3 view .LVU595
 2229 0000 1378     		ldrb	r3, [r2]	@ zero_extendqisi2
 2230 0002 03F06003 		and	r3, r3, #96
 2231 0006 202B     		cmp	r3, #32
 2232 0008 7BD1     		bne	.L208
 379:lib/TinyUSB/src/class/cdc/cdc_device.c ****   // Handle class request only
 2233              		.loc 1 379 97 is_stmt 0 view .LVU596
 2234 000a 70B5     		push	{r4, r5, r6, lr}
 2235              	.LCFI15:
 2236              		.cfi_def_cfa_offset 16
 2237              		.cfi_offset 4, -16
 2238              		.cfi_offset 5, -12
 2239              		.cfi_offset 6, -8
 2240              		.cfi_offset 14, -4
ARM GAS  C:\Users\krisa\AppData\Local\Temp\ccoeKVOr.s 			page 79


 2241 000c 9446     		mov	ip, r2
 382:lib/TinyUSB/src/class/cdc/cdc_device.c **** 
 383:lib/TinyUSB/src/class/cdc/cdc_device.c ****   uint8_t itf;
 384:lib/TinyUSB/src/class/cdc/cdc_device.c ****   cdcd_interface_t* p_cdc;
 385:lib/TinyUSB/src/class/cdc/cdc_device.c **** 
 386:lib/TinyUSB/src/class/cdc/cdc_device.c ****   // Identify which interface to use
 387:lib/TinyUSB/src/class/cdc/cdc_device.c ****   for (itf = 0; itf < CFG_TUD_CDC; itf++) {
 2242              		.loc 1 387 12 view .LVU597
 2243 000e 0024     		movs	r4, #0
 2244              	.LVL198:
 2245              	.L195:
 2246              		.loc 1 387 17 is_stmt 1 discriminator 1 view .LVU598
 2247              		.loc 1 387 3 is_stmt 0 discriminator 1 view .LVU599
 2248 0010 54B1     		cbz	r4, .L197
 2249              	.L196:
 388:lib/TinyUSB/src/class/cdc/cdc_device.c ****     p_cdc = &_cdcd_itf[itf];
 389:lib/TinyUSB/src/class/cdc/cdc_device.c ****     if (p_cdc->itf_num == request->wIndex) {
 390:lib/TinyUSB/src/class/cdc/cdc_device.c ****       break;
 391:lib/TinyUSB/src/class/cdc/cdc_device.c ****     }
 392:lib/TinyUSB/src/class/cdc/cdc_device.c ****   }
 393:lib/TinyUSB/src/class/cdc/cdc_device.c ****   TU_VERIFY(itf < CFG_TUD_CDC);
 2250              		.loc 1 393 3 is_stmt 1 view .LVU600
 2251              		.loc 1 393 3 view .LVU601
 2252 0012 002C     		cmp	r4, #0
 2253 0014 77D1     		bne	.L209
 2254              		.loc 1 393 3 discriminator 2 view .LVU602
 394:lib/TinyUSB/src/class/cdc/cdc_device.c **** 
 395:lib/TinyUSB/src/class/cdc/cdc_device.c ****   switch (request->bRequest) {
 2255              		.loc 1 395 3 discriminator 2 view .LVU603
 2256              		.loc 1 395 18 is_stmt 0 discriminator 2 view .LVU604
 2257 0016 9CF80130 		ldrb	r3, [ip, #1]	@ zero_extendqisi2
 2258              		.loc 1 395 3 discriminator 2 view .LVU605
 2259 001a 203B     		subs	r3, r3, #32
 2260 001c 032B     		cmp	r3, #3
 2261 001e 74D8     		bhi	.L210
 2262 0020 DFE803F0 		tbb	[pc, r3]
 2263              	.L199:
 2264 0024 10       		.byte	(.L202-.L199)/2
 2265 0025 25       		.byte	(.L201-.L199)/2
 2266 0026 31       		.byte	(.L200-.L199)/2
 2267 0027 5D       		.byte	(.L198-.L199)/2
 2268              		.p2align 1
 2269              	.L197:
 388:lib/TinyUSB/src/class/cdc/cdc_device.c ****     p_cdc = &_cdcd_itf[itf];
 2270              		.loc 1 388 5 is_stmt 1 view .LVU606
 388:lib/TinyUSB/src/class/cdc/cdc_device.c ****     p_cdc = &_cdcd_itf[itf];
 2271              		.loc 1 388 11 is_stmt 0 view .LVU607
 2272 0028 394B     		ldr	r3, .L226
 2273 002a 4FF0BC0E 		mov	lr, #188
 2274              	.LVL199:
 388:lib/TinyUSB/src/class/cdc/cdc_device.c ****     p_cdc = &_cdcd_itf[itf];
 2275              		.loc 1 388 11 view .LVU608
 2276 002e 0EFB043E 		mla	lr, lr, r4, r3
 2277              	.LVL200:
 389:lib/TinyUSB/src/class/cdc/cdc_device.c ****       break;
 2278              		.loc 1 389 5 is_stmt 1 view .LVU609
 389:lib/TinyUSB/src/class/cdc/cdc_device.c ****       break;
ARM GAS  C:\Users\krisa\AppData\Local\Temp\ccoeKVOr.s 			page 80


 2279              		.loc 1 389 14 is_stmt 0 view .LVU610
 2280 0032 9EF80120 		ldrb	r2, [lr, #1]	@ zero_extendqisi2
 389:lib/TinyUSB/src/class/cdc/cdc_device.c ****       break;
 2281              		.loc 1 389 34 view .LVU611
 2282 0036 BCF80430 		ldrh	r3, [ip, #4]	@ unaligned
 389:lib/TinyUSB/src/class/cdc/cdc_device.c ****       break;
 2283              		.loc 1 389 8 view .LVU612
 2284 003a 9A42     		cmp	r2, r3
 2285 003c E9D0     		beq	.L196
 387:lib/TinyUSB/src/class/cdc/cdc_device.c ****     p_cdc = &_cdcd_itf[itf];
 2286              		.loc 1 387 36 is_stmt 1 discriminator 2 view .LVU613
 387:lib/TinyUSB/src/class/cdc/cdc_device.c ****     p_cdc = &_cdcd_itf[itf];
 2287              		.loc 1 387 39 is_stmt 0 discriminator 2 view .LVU614
 2288 003e 0134     		adds	r4, r4, #1
 2289              	.LVL201:
 387:lib/TinyUSB/src/class/cdc/cdc_device.c ****     p_cdc = &_cdcd_itf[itf];
 2290              		.loc 1 387 39 discriminator 2 view .LVU615
 2291 0040 E4B2     		uxtb	r4, r4
 2292              	.LVL202:
 387:lib/TinyUSB/src/class/cdc/cdc_device.c ****     p_cdc = &_cdcd_itf[itf];
 2293              		.loc 1 387 39 discriminator 2 view .LVU616
 2294 0042 E5E7     		b	.L195
 2295              	.L202:
 396:lib/TinyUSB/src/class/cdc/cdc_device.c ****     case CDC_REQUEST_SET_LINE_CODING:
 397:lib/TinyUSB/src/class/cdc/cdc_device.c ****       if (stage == CONTROL_STAGE_SETUP) {
 2296              		.loc 1 397 7 is_stmt 1 view .LVU617
 2297              		.loc 1 397 10 is_stmt 0 view .LVU618
 2298 0044 0129     		cmp	r1, #1
 2299 0046 03D0     		beq	.L219
 398:lib/TinyUSB/src/class/cdc/cdc_device.c ****         TU_LOG_DRV("  Set Line Coding\r\n");
 399:lib/TinyUSB/src/class/cdc/cdc_device.c ****         tud_control_xfer(rhport, request, &p_cdc->line_coding, sizeof(cdc_line_coding_t));
 400:lib/TinyUSB/src/class/cdc/cdc_device.c ****       } else if (stage == CONTROL_STAGE_ACK) {
 2300              		.loc 1 400 14 is_stmt 1 view .LVU619
 2301              		.loc 1 400 17 is_stmt 0 view .LVU620
 2302 0048 0329     		cmp	r1, #3
 2303 004a 09D0     		beq	.L220
 401:lib/TinyUSB/src/class/cdc/cdc_device.c ****         tud_cdc_line_coding_cb(itf, &p_cdc->line_coding);
 402:lib/TinyUSB/src/class/cdc/cdc_device.c ****       } else {
 403:lib/TinyUSB/src/class/cdc/cdc_device.c ****         // nothing to do
 404:lib/TinyUSB/src/class/cdc/cdc_device.c ****       }
 405:lib/TinyUSB/src/class/cdc/cdc_device.c ****       break;
 406:lib/TinyUSB/src/class/cdc/cdc_device.c **** 
 407:lib/TinyUSB/src/class/cdc/cdc_device.c ****     case CDC_REQUEST_GET_LINE_CODING:
 408:lib/TinyUSB/src/class/cdc/cdc_device.c ****       if (stage == CONTROL_STAGE_SETUP) {
 409:lib/TinyUSB/src/class/cdc/cdc_device.c ****         TU_LOG_DRV("  Get Line Coding\r\n");
 410:lib/TinyUSB/src/class/cdc/cdc_device.c ****         tud_control_xfer(rhport, request, &p_cdc->line_coding, sizeof(cdc_line_coding_t));
 411:lib/TinyUSB/src/class/cdc/cdc_device.c ****       }
 412:lib/TinyUSB/src/class/cdc/cdc_device.c ****       break;
 413:lib/TinyUSB/src/class/cdc/cdc_device.c **** 
 414:lib/TinyUSB/src/class/cdc/cdc_device.c ****     case CDC_REQUEST_SET_CONTROL_LINE_STATE:
 415:lib/TinyUSB/src/class/cdc/cdc_device.c ****       if (stage == CONTROL_STAGE_SETUP) {
 416:lib/TinyUSB/src/class/cdc/cdc_device.c ****         tud_control_status(rhport, request);
 417:lib/TinyUSB/src/class/cdc/cdc_device.c ****       } else if (stage == CONTROL_STAGE_ACK) {
 418:lib/TinyUSB/src/class/cdc/cdc_device.c ****         // CDC PSTN v1.2 section 6.3.12
 419:lib/TinyUSB/src/class/cdc/cdc_device.c ****         // Bit 0: Indicates if DTE is present or not.
 420:lib/TinyUSB/src/class/cdc/cdc_device.c ****         //        This signal corresponds to V.24 signal 108/2 and RS-232 signal DTR (Data Terminal
 421:lib/TinyUSB/src/class/cdc/cdc_device.c ****         // Bit 1: Carrier control for half-duplex modems.
ARM GAS  C:\Users\krisa\AppData\Local\Temp\ccoeKVOr.s 			page 81


 422:lib/TinyUSB/src/class/cdc/cdc_device.c ****         //        This signal corresponds to V.24 signal 105 and RS-232 signal RTS (Request to Send
 423:lib/TinyUSB/src/class/cdc/cdc_device.c ****         bool const dtr = tu_bit_test(request->wValue, 0);
 424:lib/TinyUSB/src/class/cdc/cdc_device.c ****         bool const rts = tu_bit_test(request->wValue, 1);
 425:lib/TinyUSB/src/class/cdc/cdc_device.c **** 
 426:lib/TinyUSB/src/class/cdc/cdc_device.c ****         p_cdc->line_state = (uint8_t) request->wValue;
 427:lib/TinyUSB/src/class/cdc/cdc_device.c **** 
 428:lib/TinyUSB/src/class/cdc/cdc_device.c ****         // If enabled: fifo overwriting is disabled if DTR bit is set and vice versa
 429:lib/TinyUSB/src/class/cdc/cdc_device.c ****         if (_cdcd_cfg.tx_overwritabe_if_not_connected) {
 430:lib/TinyUSB/src/class/cdc/cdc_device.c ****           tu_fifo_set_overwritable(&p_cdc->tx_stream.ff, !dtr);
 431:lib/TinyUSB/src/class/cdc/cdc_device.c ****         } else {
 432:lib/TinyUSB/src/class/cdc/cdc_device.c ****           tu_fifo_set_overwritable(&p_cdc->tx_stream.ff, false);
 433:lib/TinyUSB/src/class/cdc/cdc_device.c ****         }
 434:lib/TinyUSB/src/class/cdc/cdc_device.c **** 
 435:lib/TinyUSB/src/class/cdc/cdc_device.c ****         TU_LOG_DRV("  Set Control Line State: DTR = %d, RTS = %d\r\n", dtr, rts);
 436:lib/TinyUSB/src/class/cdc/cdc_device.c ****         tud_cdc_line_state_cb(itf, dtr, rts); // invoke callback
 437:lib/TinyUSB/src/class/cdc/cdc_device.c ****       } else {
 438:lib/TinyUSB/src/class/cdc/cdc_device.c ****         // nothing to do
 439:lib/TinyUSB/src/class/cdc/cdc_device.c ****       }
 440:lib/TinyUSB/src/class/cdc/cdc_device.c ****       break;
 441:lib/TinyUSB/src/class/cdc/cdc_device.c **** 
 442:lib/TinyUSB/src/class/cdc/cdc_device.c ****     case CDC_REQUEST_SEND_BREAK:
 443:lib/TinyUSB/src/class/cdc/cdc_device.c ****       if (stage == CONTROL_STAGE_SETUP) {
 444:lib/TinyUSB/src/class/cdc/cdc_device.c ****         tud_control_status(rhport, request);
 445:lib/TinyUSB/src/class/cdc/cdc_device.c ****       } else if (stage == CONTROL_STAGE_ACK) {
 446:lib/TinyUSB/src/class/cdc/cdc_device.c ****         TU_LOG_DRV("  Send Break\r\n");
 447:lib/TinyUSB/src/class/cdc/cdc_device.c ****         tud_cdc_send_break_cb(itf, request->wValue);
 448:lib/TinyUSB/src/class/cdc/cdc_device.c ****       } else {
 449:lib/TinyUSB/src/class/cdc/cdc_device.c ****         // nothing to do
 450:lib/TinyUSB/src/class/cdc/cdc_device.c ****       }
 451:lib/TinyUSB/src/class/cdc/cdc_device.c ****       break;
 452:lib/TinyUSB/src/class/cdc/cdc_device.c **** 
 453:lib/TinyUSB/src/class/cdc/cdc_device.c ****     default:
 454:lib/TinyUSB/src/class/cdc/cdc_device.c ****       return false; // stall unsupported request
 455:lib/TinyUSB/src/class/cdc/cdc_device.c ****   }
 456:lib/TinyUSB/src/class/cdc/cdc_device.c **** 
 457:lib/TinyUSB/src/class/cdc/cdc_device.c ****   return true;
 2304              		.loc 1 457 10 view .LVU621
 2305 004c 0120     		movs	r0, #1
 2306              	.LVL203:
 2307              		.loc 1 457 10 view .LVU622
 2308 004e 5BE0     		b	.L194
 2309              	.LVL204:
 2310              	.L219:
 398:lib/TinyUSB/src/class/cdc/cdc_device.c ****         TU_LOG_DRV("  Set Line Coding\r\n");
 2311              		.loc 1 398 44 is_stmt 1 view .LVU623
 399:lib/TinyUSB/src/class/cdc/cdc_device.c ****       } else if (stage == CONTROL_STAGE_ACK) {
 2312              		.loc 1 399 9 view .LVU624
 2313 0050 0723     		movs	r3, #7
 2314 0052 0EF10402 		add	r2, lr, #4
 2315 0056 6146     		mov	r1, ip
 2316              	.LVL205:
 399:lib/TinyUSB/src/class/cdc/cdc_device.c ****       } else if (stage == CONTROL_STAGE_ACK) {
 2317              		.loc 1 399 9 is_stmt 0 view .LVU625
 2318 0058 FFF7FEFF 		bl	tud_control_xfer
 2319              	.LVL206:
 2320              		.loc 1 457 10 view .LVU626
 2321 005c 0120     		movs	r0, #1
ARM GAS  C:\Users\krisa\AppData\Local\Temp\ccoeKVOr.s 			page 82


 2322 005e 53E0     		b	.L194
 2323              	.LVL207:
 2324              	.L220:
 401:lib/TinyUSB/src/class/cdc/cdc_device.c ****         tud_cdc_line_coding_cb(itf, &p_cdc->line_coding);
 2325              		.loc 1 401 9 is_stmt 1 view .LVU627
 2326 0060 0EF10401 		add	r1, lr, #4
 2327              	.LVL208:
 401:lib/TinyUSB/src/class/cdc/cdc_device.c ****         tud_cdc_line_coding_cb(itf, &p_cdc->line_coding);
 2328              		.loc 1 401 9 is_stmt 0 view .LVU628
 2329 0064 2046     		mov	r0, r4
 2330              	.LVL209:
 401:lib/TinyUSB/src/class/cdc/cdc_device.c ****         tud_cdc_line_coding_cb(itf, &p_cdc->line_coding);
 2331              		.loc 1 401 9 view .LVU629
 2332 0066 FFF7FEFF 		bl	tud_cdc_line_coding_cb
 2333              	.LVL210:
 2334              		.loc 1 457 10 view .LVU630
 2335 006a 0120     		movs	r0, #1
 2336 006c 4CE0     		b	.L194
 2337              	.LVL211:
 2338              	.L201:
 408:lib/TinyUSB/src/class/cdc/cdc_device.c ****         TU_LOG_DRV("  Get Line Coding\r\n");
 2339              		.loc 1 408 7 is_stmt 1 view .LVU631
 408:lib/TinyUSB/src/class/cdc/cdc_device.c ****         TU_LOG_DRV("  Get Line Coding\r\n");
 2340              		.loc 1 408 10 is_stmt 0 view .LVU632
 2341 006e 0129     		cmp	r1, #1
 2342 0070 01D0     		beq	.L221
 2343              		.loc 1 457 10 view .LVU633
 2344 0072 0120     		movs	r0, #1
 2345              	.LVL212:
 2346              		.loc 1 457 10 view .LVU634
 2347 0074 48E0     		b	.L194
 2348              	.LVL213:
 2349              	.L221:
 409:lib/TinyUSB/src/class/cdc/cdc_device.c ****         tud_control_xfer(rhport, request, &p_cdc->line_coding, sizeof(cdc_line_coding_t));
 2350              		.loc 1 409 44 is_stmt 1 view .LVU635
 410:lib/TinyUSB/src/class/cdc/cdc_device.c ****       }
 2351              		.loc 1 410 9 view .LVU636
 2352 0076 0723     		movs	r3, #7
 2353 0078 0EF10402 		add	r2, lr, #4
 2354 007c 6146     		mov	r1, ip
 2355              	.LVL214:
 410:lib/TinyUSB/src/class/cdc/cdc_device.c ****       }
 2356              		.loc 1 410 9 is_stmt 0 view .LVU637
 2357 007e FFF7FEFF 		bl	tud_control_xfer
 2358              	.LVL215:
 2359              		.loc 1 457 10 view .LVU638
 2360 0082 0120     		movs	r0, #1
 2361 0084 40E0     		b	.L194
 2362              	.LVL216:
 2363              	.L200:
 415:lib/TinyUSB/src/class/cdc/cdc_device.c ****         tud_control_status(rhport, request);
 2364              		.loc 1 415 7 is_stmt 1 view .LVU639
 415:lib/TinyUSB/src/class/cdc/cdc_device.c ****         tud_control_status(rhport, request);
 2365              		.loc 1 415 10 is_stmt 0 view .LVU640
 2366 0086 0129     		cmp	r1, #1
 2367 0088 03D0     		beq	.L222
 417:lib/TinyUSB/src/class/cdc/cdc_device.c ****         // CDC PSTN v1.2 section 6.3.12
ARM GAS  C:\Users\krisa\AppData\Local\Temp\ccoeKVOr.s 			page 83


 2368              		.loc 1 417 14 is_stmt 1 view .LVU641
 417:lib/TinyUSB/src/class/cdc/cdc_device.c ****         // CDC PSTN v1.2 section 6.3.12
 2369              		.loc 1 417 17 is_stmt 0 view .LVU642
 2370 008a 0329     		cmp	r1, #3
 2371 008c 06D0     		beq	.L223
 2372              		.loc 1 457 10 view .LVU643
 2373 008e 0120     		movs	r0, #1
 2374              	.LVL217:
 2375              		.loc 1 457 10 view .LVU644
 2376 0090 3AE0     		b	.L194
 2377              	.LVL218:
 2378              	.L222:
 416:lib/TinyUSB/src/class/cdc/cdc_device.c ****       } else if (stage == CONTROL_STAGE_ACK) {
 2379              		.loc 1 416 9 is_stmt 1 view .LVU645
 2380 0092 6146     		mov	r1, ip
 2381              	.LVL219:
 416:lib/TinyUSB/src/class/cdc/cdc_device.c ****       } else if (stage == CONTROL_STAGE_ACK) {
 2382              		.loc 1 416 9 is_stmt 0 view .LVU646
 2383 0094 FFF7FEFF 		bl	tud_control_status
 2384              	.LVL220:
 2385              		.loc 1 457 10 view .LVU647
 2386 0098 0120     		movs	r0, #1
 2387 009a 35E0     		b	.L194
 2388              	.LVL221:
 2389              	.L223:
 2390              	.LBB237:
 423:lib/TinyUSB/src/class/cdc/cdc_device.c ****         bool const rts = tu_bit_test(request->wValue, 1);
 2391              		.loc 1 423 9 is_stmt 1 view .LVU648
 423:lib/TinyUSB/src/class/cdc/cdc_device.c ****         bool const rts = tu_bit_test(request->wValue, 1);
 2392              		.loc 1 423 45 is_stmt 0 view .LVU649
 2393 009c BCF80230 		ldrh	r3, [ip, #2]	@ unaligned
 2394              	.LVL222:
 2395              	.LBB238:
 2396              	.LBI238:
 202:lib/TinyUSB/src/common/tusb_common.h **** 
 2397              		.loc 4 202 46 is_stmt 1 view .LVU650
 2398              	.LBB239:
 202:lib/TinyUSB/src/common/tusb_common.h **** 
 2399              		.loc 4 202 90 view .LVU651
 202:lib/TinyUSB/src/common/tusb_common.h **** 
 2400              		.loc 4 202 126 is_stmt 0 view .LVU652
 2401 00a0 03F00101 		and	r1, r3, #1
 2402              	.LVL223:
 202:lib/TinyUSB/src/common/tusb_common.h **** 
 2403              		.loc 4 202 126 view .LVU653
 2404 00a4 0D46     		mov	r5, r1
 2405              	.LVL224:
 202:lib/TinyUSB/src/common/tusb_common.h **** 
 2406              		.loc 4 202 126 view .LVU654
 2407              	.LBE239:
 2408              	.LBE238:
 424:lib/TinyUSB/src/class/cdc/cdc_device.c **** 
 2409              		.loc 1 424 9 is_stmt 1 view .LVU655
 2410              	.LBB240:
 2411              	.LBI240:
 202:lib/TinyUSB/src/common/tusb_common.h **** 
 2412              		.loc 4 202 46 view .LVU656
ARM GAS  C:\Users\krisa\AppData\Local\Temp\ccoeKVOr.s 			page 84


 2413              	.LBB241:
 202:lib/TinyUSB/src/common/tusb_common.h **** 
 2414              		.loc 4 202 90 view .LVU657
 202:lib/TinyUSB/src/common/tusb_common.h **** 
 2415              		.loc 4 202 126 is_stmt 0 view .LVU658
 2416 00a6 C3F34006 		ubfx	r6, r3, #1, #1
 2417              	.LVL225:
 202:lib/TinyUSB/src/common/tusb_common.h **** 
 2418              		.loc 4 202 126 view .LVU659
 2419              	.LBE241:
 2420              	.LBE240:
 426:lib/TinyUSB/src/class/cdc/cdc_device.c **** 
 2421              		.loc 1 426 9 is_stmt 1 view .LVU660
 426:lib/TinyUSB/src/class/cdc/cdc_device.c **** 
 2422              		.loc 1 426 27 is_stmt 0 view .LVU661
 2423 00aa 8EF80330 		strb	r3, [lr, #3]
 429:lib/TinyUSB/src/class/cdc/cdc_device.c ****           tu_fifo_set_overwritable(&p_cdc->tx_stream.ff, !dtr);
 2424              		.loc 1 429 9 is_stmt 1 view .LVU662
 429:lib/TinyUSB/src/class/cdc/cdc_device.c ****           tu_fifo_set_overwritable(&p_cdc->tx_stream.ff, !dtr);
 2425              		.loc 1 429 13 is_stmt 0 view .LVU663
 2426 00ae 194B     		ldr	r3, .L226+4
 2427 00b0 1B78     		ldrb	r3, [r3]	@ zero_extendqisi2
 429:lib/TinyUSB/src/class/cdc/cdc_device.c ****           tu_fifo_set_overwritable(&p_cdc->tx_stream.ff, !dtr);
 2428              		.loc 1 429 12 view .LVU664
 2429 00b2 13F0040F 		tst	r3, #4
 2430 00b6 0CD0     		beq	.L205
 430:lib/TinyUSB/src/class/cdc/cdc_device.c ****         } else {
 2431              		.loc 1 430 11 is_stmt 1 view .LVU665
 2432 00b8 81F00101 		eor	r1, r1, #1
 2433              	.LVL226:
 430:lib/TinyUSB/src/class/cdc/cdc_device.c ****         } else {
 2434              		.loc 1 430 11 is_stmt 0 view .LVU666
 2435 00bc 0EF11800 		add	r0, lr, #24
 2436              	.LVL227:
 430:lib/TinyUSB/src/class/cdc/cdc_device.c ****         } else {
 2437              		.loc 1 430 11 view .LVU667
 2438 00c0 FFF7FEFF 		bl	tu_fifo_set_overwritable
 2439              	.LVL228:
 2440              	.L206:
 435:lib/TinyUSB/src/class/cdc/cdc_device.c ****         tud_cdc_line_state_cb(itf, dtr, rts); // invoke callback
 2441              		.loc 1 435 81 is_stmt 1 view .LVU668
 436:lib/TinyUSB/src/class/cdc/cdc_device.c ****       } else {
 2442              		.loc 1 436 9 view .LVU669
 2443 00c4 3246     		mov	r2, r6
 2444 00c6 2946     		mov	r1, r5
 2445 00c8 2046     		mov	r0, r4
 2446 00ca FFF7FEFF 		bl	tud_cdc_line_state_cb
 2447              	.LVL229:
 2448              	.LBE237:
 2449              		.loc 1 457 10 is_stmt 0 view .LVU670
 2450 00ce 0120     		movs	r0, #1
 2451 00d0 1AE0     		b	.L194
 2452              	.LVL230:
 2453              	.L205:
 2454              	.LBB242:
 432:lib/TinyUSB/src/class/cdc/cdc_device.c ****         }
 2455              		.loc 1 432 11 is_stmt 1 view .LVU671
ARM GAS  C:\Users\krisa\AppData\Local\Temp\ccoeKVOr.s 			page 85


 2456 00d2 0021     		movs	r1, #0
 2457              	.LVL231:
 432:lib/TinyUSB/src/class/cdc/cdc_device.c ****         }
 2458              		.loc 1 432 11 is_stmt 0 view .LVU672
 2459 00d4 0EF11800 		add	r0, lr, #24
 2460              	.LVL232:
 432:lib/TinyUSB/src/class/cdc/cdc_device.c ****         }
 2461              		.loc 1 432 11 view .LVU673
 2462 00d8 FFF7FEFF 		bl	tu_fifo_set_overwritable
 2463              	.LVL233:
 432:lib/TinyUSB/src/class/cdc/cdc_device.c ****         }
 2464              		.loc 1 432 11 view .LVU674
 2465 00dc F2E7     		b	.L206
 2466              	.LVL234:
 2467              	.L198:
 432:lib/TinyUSB/src/class/cdc/cdc_device.c ****         }
 2468              		.loc 1 432 11 view .LVU675
 2469              	.LBE242:
 443:lib/TinyUSB/src/class/cdc/cdc_device.c ****         tud_control_status(rhport, request);
 2470              		.loc 1 443 7 is_stmt 1 view .LVU676
 443:lib/TinyUSB/src/class/cdc/cdc_device.c ****         tud_control_status(rhport, request);
 2471              		.loc 1 443 10 is_stmt 0 view .LVU677
 2472 00de 0129     		cmp	r1, #1
 2473 00e0 03D0     		beq	.L224
 445:lib/TinyUSB/src/class/cdc/cdc_device.c ****         TU_LOG_DRV("  Send Break\r\n");
 2474              		.loc 1 445 14 is_stmt 1 view .LVU678
 445:lib/TinyUSB/src/class/cdc/cdc_device.c ****         TU_LOG_DRV("  Send Break\r\n");
 2475              		.loc 1 445 17 is_stmt 0 view .LVU679
 2476 00e2 0329     		cmp	r1, #3
 2477 00e4 06D0     		beq	.L225
 2478              		.loc 1 457 10 view .LVU680
 2479 00e6 0120     		movs	r0, #1
 2480              	.LVL235:
 2481              		.loc 1 457 10 view .LVU681
 2482 00e8 0EE0     		b	.L194
 2483              	.LVL236:
 2484              	.L224:
 444:lib/TinyUSB/src/class/cdc/cdc_device.c ****       } else if (stage == CONTROL_STAGE_ACK) {
 2485              		.loc 1 444 9 is_stmt 1 view .LVU682
 2486 00ea 6146     		mov	r1, ip
 2487              	.LVL237:
 444:lib/TinyUSB/src/class/cdc/cdc_device.c ****       } else if (stage == CONTROL_STAGE_ACK) {
 2488              		.loc 1 444 9 is_stmt 0 view .LVU683
 2489 00ec FFF7FEFF 		bl	tud_control_status
 2490              	.LVL238:
 2491              		.loc 1 457 10 view .LVU684
 2492 00f0 0120     		movs	r0, #1
 2493 00f2 09E0     		b	.L194
 2494              	.LVL239:
 2495              	.L225:
 446:lib/TinyUSB/src/class/cdc/cdc_device.c ****         tud_cdc_send_break_cb(itf, request->wValue);
 2496              		.loc 1 446 39 is_stmt 1 view .LVU685
 447:lib/TinyUSB/src/class/cdc/cdc_device.c ****       } else {
 2497              		.loc 1 447 9 view .LVU686
 2498 00f4 BCF80210 		ldrh	r1, [ip, #2]	@ unaligned
 2499              	.LVL240:
 447:lib/TinyUSB/src/class/cdc/cdc_device.c ****       } else {
ARM GAS  C:\Users\krisa\AppData\Local\Temp\ccoeKVOr.s 			page 86


 2500              		.loc 1 447 9 is_stmt 0 view .LVU687
 2501 00f8 2046     		mov	r0, r4
 2502              	.LVL241:
 447:lib/TinyUSB/src/class/cdc/cdc_device.c ****       } else {
 2503              		.loc 1 447 9 view .LVU688
 2504 00fa FFF7FEFF 		bl	tud_cdc_send_break_cb
 2505              	.LVL242:
 2506              		.loc 1 457 10 view .LVU689
 2507 00fe 0120     		movs	r0, #1
 2508 0100 02E0     		b	.L194
 2509              	.LVL243:
 2510              	.L208:
 2511              	.LCFI16:
 2512              		.cfi_def_cfa_offset 0
 2513              		.cfi_restore 4
 2514              		.cfi_restore 5
 2515              		.cfi_restore 6
 2516              		.cfi_restore 14
 381:lib/TinyUSB/src/class/cdc/cdc_device.c **** 
 2517              		.loc 1 381 3 view .LVU690
 2518 0102 0020     		movs	r0, #0
 2519              	.LVL244:
 458:lib/TinyUSB/src/class/cdc/cdc_device.c **** }
 2520              		.loc 1 458 1 view .LVU691
 2521 0104 7047     		bx	lr
 2522              	.LVL245:
 2523              	.L209:
 2524              	.LCFI17:
 2525              		.cfi_def_cfa_offset 16
 2526              		.cfi_offset 4, -16
 2527              		.cfi_offset 5, -12
 2528              		.cfi_offset 6, -8
 2529              		.cfi_offset 14, -4
 393:lib/TinyUSB/src/class/cdc/cdc_device.c **** 
 2530              		.loc 1 393 3 view .LVU692
 2531 0106 0020     		movs	r0, #0
 2532              	.LVL246:
 2533              	.L194:
 2534              		.loc 1 458 1 view .LVU693
 2535 0108 70BD     		pop	{r4, r5, r6, pc}
 2536              	.LVL247:
 2537              	.L210:
 395:lib/TinyUSB/src/class/cdc/cdc_device.c ****     case CDC_REQUEST_SET_LINE_CODING:
 2538              		.loc 1 395 3 view .LVU694
 2539 010a 0020     		movs	r0, #0
 2540              	.LVL248:
 395:lib/TinyUSB/src/class/cdc/cdc_device.c ****     case CDC_REQUEST_SET_LINE_CODING:
 2541              		.loc 1 395 3 view .LVU695
 2542 010c FCE7     		b	.L194
 2543              	.L227:
 2544 010e 00BF     		.align	2
 2545              	.L226:
 2546 0110 00000000 		.word	.LANCHOR1
 2547 0114 00000000 		.word	.LANCHOR0
 2548              		.cfi_endproc
 2549              	.LFE136:
 2551              		.section	.text.cdcd_xfer_cb,"ax",%progbits
ARM GAS  C:\Users\krisa\AppData\Local\Temp\ccoeKVOr.s 			page 87


 2552              		.align	1
 2553              		.global	cdcd_xfer_cb
 2554              		.syntax unified
 2555              		.thumb
 2556              		.thumb_func
 2558              	cdcd_xfer_cb:
 2559              	.LVL249:
 2560              	.LFB137:
 459:lib/TinyUSB/src/class/cdc/cdc_device.c **** 
 460:lib/TinyUSB/src/class/cdc/cdc_device.c **** bool cdcd_xfer_cb(uint8_t rhport, uint8_t ep_addr, xfer_result_t result, uint32_t xferred_bytes) {
 2561              		.loc 1 460 98 is_stmt 1 view -0
 2562              		.cfi_startproc
 2563              		@ args = 0, pretend = 0, frame = 16
 2564              		@ frame_needed = 0, uses_anonymous_args = 0
 2565              		.loc 1 460 98 is_stmt 0 view .LVU697
 2566 0000 2DE9F043 		push	{r4, r5, r6, r7, r8, r9, lr}
 2567              	.LCFI18:
 2568              		.cfi_def_cfa_offset 28
 2569              		.cfi_offset 4, -28
 2570              		.cfi_offset 5, -24
 2571              		.cfi_offset 6, -20
 2572              		.cfi_offset 7, -16
 2573              		.cfi_offset 8, -12
 2574              		.cfi_offset 9, -8
 2575              		.cfi_offset 14, -4
 2576 0004 85B0     		sub	sp, sp, #20
 2577              	.LCFI19:
 2578              		.cfi_def_cfa_offset 48
 2579 0006 0D46     		mov	r5, r1
 2580 0008 1F46     		mov	r7, r3
 461:lib/TinyUSB/src/class/cdc/cdc_device.c ****   (void)rhport;
 2581              		.loc 1 461 3 is_stmt 1 view .LVU698
 462:lib/TinyUSB/src/class/cdc/cdc_device.c ****   (void)result;
 2582              		.loc 1 462 3 view .LVU699
 463:lib/TinyUSB/src/class/cdc/cdc_device.c **** 
 464:lib/TinyUSB/src/class/cdc/cdc_device.c ****   uint8_t itf = find_cdc_itf(ep_addr);
 2583              		.loc 1 464 3 view .LVU700
 2584              	.LVL250:
 2585              	.LBB243:
 2586              	.LBI243:
 121:lib/TinyUSB/src/class/cdc/cdc_device.c ****   for (uint8_t idx = 0; idx < CFG_TUD_CDC; idx++) {
 2587              		.loc 1 121 45 view .LVU701
 2588              	.LBB244:
 122:lib/TinyUSB/src/class/cdc/cdc_device.c ****     const cdcd_interface_t *p_cdc = &_cdcd_itf[idx];
 2589              		.loc 1 122 3 view .LVU702
 2590              	.LBB245:
 122:lib/TinyUSB/src/class/cdc/cdc_device.c ****     const cdcd_interface_t *p_cdc = &_cdcd_itf[idx];
 2591              		.loc 1 122 8 view .LVU703
 122:lib/TinyUSB/src/class/cdc/cdc_device.c ****     const cdcd_interface_t *p_cdc = &_cdcd_itf[idx];
 2592              		.loc 1 122 16 is_stmt 0 view .LVU704
 2593 000a 0024     		movs	r4, #0
 2594              	.LVL251:
 2595              	.L229:
 122:lib/TinyUSB/src/class/cdc/cdc_device.c ****     const cdcd_interface_t *p_cdc = &_cdcd_itf[idx];
 2596              		.loc 1 122 25 is_stmt 1 view .LVU705
 122:lib/TinyUSB/src/class/cdc/cdc_device.c ****     const cdcd_interface_t *p_cdc = &_cdcd_itf[idx];
 2597              		.loc 1 122 3 is_stmt 0 view .LVU706
ARM GAS  C:\Users\krisa\AppData\Local\Temp\ccoeKVOr.s 			page 88


 2598 000c 54B3     		cbz	r4, .L232
 2599              	.LBE245:
 129:lib/TinyUSB/src/class/cdc/cdc_device.c **** }
 2600              		.loc 1 129 10 view .LVU707
 2601 000e FF24     		movs	r4, #255
 2602              	.LVL252:
 2603              	.L230:
 129:lib/TinyUSB/src/class/cdc/cdc_device.c **** }
 2604              		.loc 1 129 10 view .LVU708
 2605              	.LBE244:
 2606              	.LBE243:
 465:lib/TinyUSB/src/class/cdc/cdc_device.c ****   TU_ASSERT(itf < CFG_TUD_CDC);
 2607              		.loc 1 465 3 is_stmt 1 view .LVU709
 2608              		.loc 1 465 3 view .LVU710
 2609 0010 002C     		cmp	r4, #0
 2610 0012 42D1     		bne	.L252
 2611              		.loc 1 465 3 discriminator 2 view .LVU711
 466:lib/TinyUSB/src/class/cdc/cdc_device.c ****   cdcd_interface_t *p_cdc     = &_cdcd_itf[itf];
 2612              		.loc 1 466 3 discriminator 2 view .LVU712
 2613              		.loc 1 466 43 is_stmt 0 discriminator 2 view .LVU713
 2614 0014 A146     		mov	r9, r4
 2615              	.LVL253:
 467:lib/TinyUSB/src/class/cdc/cdc_device.c ****   tu_edpt_stream_t *stream_rx = &p_cdc->rx_stream;
 2616              		.loc 1 467 3 is_stmt 1 discriminator 2 view .LVU714
 2617              		.loc 1 467 21 is_stmt 0 discriminator 2 view .LVU715
 2618 0016 5D4A     		ldr	r2, .L261
 2619 0018 BC23     		movs	r3, #188
 2620 001a 04FB03F3 		mul	r3, r4, r3
 2621 001e 03F12006 		add	r6, r3, #32
 2622 0022 1644     		add	r6, r6, r2
 2623 0024 0436     		adds	r6, r6, #4
 2624              	.LVL254:
 468:lib/TinyUSB/src/class/cdc/cdc_device.c ****   tu_edpt_stream_t *stream_tx = &p_cdc->tx_stream;
 2625              		.loc 1 468 3 is_stmt 1 discriminator 2 view .LVU716
 2626              		.loc 1 468 21 is_stmt 0 discriminator 2 view .LVU717
 2627 0026 03F10808 		add	r8, r3, #8
 2628 002a 9044     		add	r8, r8, r2
 2629 002c 08F10408 		add	r8, r8, #4
 2630              	.LVL255:
 469:lib/TinyUSB/src/class/cdc/cdc_device.c **** 
 470:lib/TinyUSB/src/class/cdc/cdc_device.c ****   // Received new data, move to fifo
 471:lib/TinyUSB/src/class/cdc/cdc_device.c ****   if (ep_addr == stream_rx->ep_addr) {
 2631              		.loc 1 471 3 is_stmt 1 discriminator 2 view .LVU718
 2632              		.loc 1 471 27 is_stmt 0 discriminator 2 view .LVU719
 2633 0030 1A44     		add	r2, r2, r3
 2634 0032 92F82630 		ldrb	r3, [r2, #38]	@ zero_extendqisi2
 2635              		.loc 1 471 6 discriminator 2 view .LVU720
 2636 0036 AB42     		cmp	r3, r5
 2637 0038 39D0     		beq	.L253
 2638              	.LVL256:
 2639              	.L236:
 472:lib/TinyUSB/src/class/cdc/cdc_device.c ****     tu_edpt_stream_read_xfer_complete(stream_rx, xferred_bytes);
 473:lib/TinyUSB/src/class/cdc/cdc_device.c **** 
 474:lib/TinyUSB/src/class/cdc/cdc_device.c ****     // Check for wanted char and invoke wanted callback
 475:lib/TinyUSB/src/class/cdc/cdc_device.c ****     if (((signed char)p_cdc->wanted_char) != -1) {
 476:lib/TinyUSB/src/class/cdc/cdc_device.c ****       tu_fifo_buffer_info_t buf_info;
 477:lib/TinyUSB/src/class/cdc/cdc_device.c ****       tu_fifo_get_read_info(&stream_rx->ff, &buf_info);
ARM GAS  C:\Users\krisa\AppData\Local\Temp\ccoeKVOr.s 			page 89


 478:lib/TinyUSB/src/class/cdc/cdc_device.c **** 
 479:lib/TinyUSB/src/class/cdc/cdc_device.c ****       // find backward
 480:lib/TinyUSB/src/class/cdc/cdc_device.c ****       uint8_t *ptr;
 481:lib/TinyUSB/src/class/cdc/cdc_device.c ****       if (buf_info.wrapped.len > 0) {
 482:lib/TinyUSB/src/class/cdc/cdc_device.c ****         ptr = buf_info.wrapped.ptr + buf_info.wrapped.len - 1; // last byte of wrap buffer
 483:lib/TinyUSB/src/class/cdc/cdc_device.c ****       } else if (buf_info.linear.len > 0) {
 484:lib/TinyUSB/src/class/cdc/cdc_device.c ****         ptr = buf_info.linear.ptr + buf_info.linear.len - 1;   // last byte of linear buffer
 485:lib/TinyUSB/src/class/cdc/cdc_device.c ****       } else {
 486:lib/TinyUSB/src/class/cdc/cdc_device.c ****         ptr = NULL;                                      // no data
 487:lib/TinyUSB/src/class/cdc/cdc_device.c ****       }
 488:lib/TinyUSB/src/class/cdc/cdc_device.c **** 
 489:lib/TinyUSB/src/class/cdc/cdc_device.c ****       if (ptr != NULL) {
 490:lib/TinyUSB/src/class/cdc/cdc_device.c ****         for (uint32_t i = 0; i < xferred_bytes; i++) {
 491:lib/TinyUSB/src/class/cdc/cdc_device.c ****           if (p_cdc->wanted_char == (char)*ptr) {
 492:lib/TinyUSB/src/class/cdc/cdc_device.c ****             tud_cdc_rx_wanted_cb(itf, p_cdc->wanted_char);
 493:lib/TinyUSB/src/class/cdc/cdc_device.c ****             break; // only invoke once per transfer, even if multiple wanted chars are present
 494:lib/TinyUSB/src/class/cdc/cdc_device.c ****           }
 495:lib/TinyUSB/src/class/cdc/cdc_device.c **** 
 496:lib/TinyUSB/src/class/cdc/cdc_device.c ****           if (ptr == buf_info.wrapped.ptr) {
 497:lib/TinyUSB/src/class/cdc/cdc_device.c ****             ptr = buf_info.linear.ptr + buf_info.linear.len - 1; // last byte of linear buffer
 498:lib/TinyUSB/src/class/cdc/cdc_device.c ****           } else if (ptr == buf_info.linear.ptr) {
 499:lib/TinyUSB/src/class/cdc/cdc_device.c ****             break;                                         // reached the beginning
 500:lib/TinyUSB/src/class/cdc/cdc_device.c ****           } else {
 501:lib/TinyUSB/src/class/cdc/cdc_device.c ****             ptr--;
 502:lib/TinyUSB/src/class/cdc/cdc_device.c ****           }
 503:lib/TinyUSB/src/class/cdc/cdc_device.c ****         }
 504:lib/TinyUSB/src/class/cdc/cdc_device.c ****       }
 505:lib/TinyUSB/src/class/cdc/cdc_device.c ****     }
 506:lib/TinyUSB/src/class/cdc/cdc_device.c **** 
 507:lib/TinyUSB/src/class/cdc/cdc_device.c ****     // invoke receive callback if there is still data
 508:lib/TinyUSB/src/class/cdc/cdc_device.c ****     if (!tu_edpt_stream_empty(stream_rx)) {
 509:lib/TinyUSB/src/class/cdc/cdc_device.c ****       tud_cdc_rx_cb(itf);
 510:lib/TinyUSB/src/class/cdc/cdc_device.c ****     }
 511:lib/TinyUSB/src/class/cdc/cdc_device.c **** 
 512:lib/TinyUSB/src/class/cdc/cdc_device.c ****     tu_edpt_stream_read_xfer(stream_rx); // prepare for more data
 513:lib/TinyUSB/src/class/cdc/cdc_device.c ****   }
 514:lib/TinyUSB/src/class/cdc/cdc_device.c **** 
 515:lib/TinyUSB/src/class/cdc/cdc_device.c ****   // Data sent to host, we continue to fetch from tx fifo to send.
 516:lib/TinyUSB/src/class/cdc/cdc_device.c ****   // Note: This will cause incorrect baudrate set in line coding. Though maybe the baudrate is not 
 517:lib/TinyUSB/src/class/cdc/cdc_device.c ****   if (ep_addr == stream_tx->ep_addr) {
 2640              		.loc 1 517 3 is_stmt 1 view .LVU721
 2641              		.loc 1 517 27 is_stmt 0 view .LVU722
 2642 003a 544B     		ldr	r3, .L261
 2643 003c BC22     		movs	r2, #188
 2644 003e 02FB0933 		mla	r3, r2, r9, r3
 2645 0042 9B7B     		ldrb	r3, [r3, #14]	@ zero_extendqisi2
 2646              		.loc 1 517 6 view .LVU723
 2647 0044 AB42     		cmp	r3, r5
 2648 0046 00F08E80 		beq	.L254
 2649              	.L248:
 518:lib/TinyUSB/src/class/cdc/cdc_device.c ****     tud_cdc_tx_complete_cb(itf); // invoke callback to possibly refill tx fifo
 519:lib/TinyUSB/src/class/cdc/cdc_device.c **** 
 520:lib/TinyUSB/src/class/cdc/cdc_device.c ****     if (0 == tu_edpt_stream_write_xfer(stream_tx)) {
 521:lib/TinyUSB/src/class/cdc/cdc_device.c ****       // If there is no data left, a ZLP should be sent if needed
 522:lib/TinyUSB/src/class/cdc/cdc_device.c ****       tu_edpt_stream_write_zlp_if_needed(stream_tx, xferred_bytes);
 523:lib/TinyUSB/src/class/cdc/cdc_device.c ****     }
 524:lib/TinyUSB/src/class/cdc/cdc_device.c ****   }
ARM GAS  C:\Users\krisa\AppData\Local\Temp\ccoeKVOr.s 			page 90


 525:lib/TinyUSB/src/class/cdc/cdc_device.c **** 
 526:lib/TinyUSB/src/class/cdc/cdc_device.c ****   // Sent notification to host
 527:lib/TinyUSB/src/class/cdc/cdc_device.c ****   if (ep_addr == p_cdc->ep_notify) {
 2650              		.loc 1 527 3 is_stmt 1 view .LVU724
 2651              		.loc 1 527 23 is_stmt 0 view .LVU725
 2652 004a 504B     		ldr	r3, .L261
 2653 004c BC22     		movs	r2, #188
 2654 004e 02FB0939 		mla	r9, r2, r9, r3
 2655 0052 99F80230 		ldrb	r3, [r9, #2]	@ zero_extendqisi2
 2656              		.loc 1 527 6 view .LVU726
 2657 0056 AB42     		cmp	r3, r5
 2658 0058 00F09380 		beq	.L255
 528:lib/TinyUSB/src/class/cdc/cdc_device.c ****     tud_cdc_notify_complete_cb(itf);
 529:lib/TinyUSB/src/class/cdc/cdc_device.c ****   }
 530:lib/TinyUSB/src/class/cdc/cdc_device.c **** 
 531:lib/TinyUSB/src/class/cdc/cdc_device.c ****   return true;
 2659              		.loc 1 531 10 view .LVU727
 2660 005c 0120     		movs	r0, #1
 2661              	.LVL257:
 2662              	.L235:
 532:lib/TinyUSB/src/class/cdc/cdc_device.c **** }
 2663              		.loc 1 532 1 view .LVU728
 2664 005e 05B0     		add	sp, sp, #20
 2665              	.LCFI20:
 2666              		.cfi_remember_state
 2667              		.cfi_def_cfa_offset 28
 2668              		@ sp needed
 2669 0060 BDE8F083 		pop	{r4, r5, r6, r7, r8, r9, pc}
 2670              	.LVL258:
 2671              	.L232:
 2672              	.LCFI21:
 2673              		.cfi_restore_state
 2674              	.LBB250:
 2675              	.LBB249:
 2676              	.LBB248:
 2677              	.LBB246:
 123:lib/TinyUSB/src/class/cdc/cdc_device.c ****     if (ep_addr == p_cdc->rx_stream.ep_addr || ep_addr == p_cdc->tx_stream.ep_addr ||
 2678              		.loc 1 123 5 is_stmt 1 view .LVU729
 124:lib/TinyUSB/src/class/cdc/cdc_device.c ****         (ep_addr == p_cdc->ep_notify && ep_addr != 0)) {
 2679              		.loc 1 124 5 view .LVU730
 124:lib/TinyUSB/src/class/cdc/cdc_device.c ****         (ep_addr == p_cdc->ep_notify && ep_addr != 0)) {
 2680              		.loc 1 124 36 is_stmt 0 view .LVU731
 2681 0064 494B     		ldr	r3, .L261
 2682 0066 BC22     		movs	r2, #188
 2683 0068 02FB0433 		mla	r3, r2, r4, r3
 2684 006c 93F82620 		ldrb	r2, [r3, #38]	@ zero_extendqisi2
 124:lib/TinyUSB/src/class/cdc/cdc_device.c ****         (ep_addr == p_cdc->ep_notify && ep_addr != 0)) {
 2685              		.loc 1 124 8 view .LVU732
 2686 0070 9542     		cmp	r5, r2
 2687 0072 CDD0     		beq	.L230
 124:lib/TinyUSB/src/class/cdc/cdc_device.c ****         (ep_addr == p_cdc->ep_notify && ep_addr != 0)) {
 2688              		.loc 1 124 75 view .LVU733
 2689 0074 454B     		ldr	r3, .L261
 2690 0076 BC22     		movs	r2, #188
 2691 0078 02FB0433 		mla	r3, r2, r4, r3
 2692 007c 9B7B     		ldrb	r3, [r3, #14]	@ zero_extendqisi2
 124:lib/TinyUSB/src/class/cdc/cdc_device.c ****         (ep_addr == p_cdc->ep_notify && ep_addr != 0)) {
ARM GAS  C:\Users\krisa\AppData\Local\Temp\ccoeKVOr.s 			page 91


 2693              		.loc 1 124 45 view .LVU734
 2694 007e 9D42     		cmp	r5, r3
 2695 0080 C6D0     		beq	.L230
 125:lib/TinyUSB/src/class/cdc/cdc_device.c ****       return idx;
 2696              		.loc 1 125 26 view .LVU735
 2697 0082 424B     		ldr	r3, .L261
 2698 0084 02FB0433 		mla	r3, r2, r4, r3
 2699 0088 9B78     		ldrb	r3, [r3, #2]	@ zero_extendqisi2
 124:lib/TinyUSB/src/class/cdc/cdc_device.c ****         (ep_addr == p_cdc->ep_notify && ep_addr != 0)) {
 2700              		.loc 1 124 84 view .LVU736
 2701 008a 9D42     		cmp	r5, r3
 2702 008c 02D0     		beq	.L256
 2703              	.L231:
 2704              	.LBE246:
 122:lib/TinyUSB/src/class/cdc/cdc_device.c ****     const cdcd_interface_t *p_cdc = &_cdcd_itf[idx];
 2705              		.loc 1 122 44 is_stmt 1 view .LVU737
 122:lib/TinyUSB/src/class/cdc/cdc_device.c ****     const cdcd_interface_t *p_cdc = &_cdcd_itf[idx];
 2706              		.loc 1 122 47 is_stmt 0 view .LVU738
 2707 008e 0134     		adds	r4, r4, #1
 2708              	.LVL259:
 122:lib/TinyUSB/src/class/cdc/cdc_device.c ****     const cdcd_interface_t *p_cdc = &_cdcd_itf[idx];
 2709              		.loc 1 122 47 view .LVU739
 2710 0090 E4B2     		uxtb	r4, r4
 2711              	.LVL260:
 122:lib/TinyUSB/src/class/cdc/cdc_device.c ****     const cdcd_interface_t *p_cdc = &_cdcd_itf[idx];
 2712              		.loc 1 122 47 view .LVU740
 2713 0092 BBE7     		b	.L229
 2714              	.LVL261:
 2715              	.L256:
 2716              	.LBB247:
 125:lib/TinyUSB/src/class/cdc/cdc_device.c ****       return idx;
 2717              		.loc 1 125 38 view .LVU741
 2718 0094 002D     		cmp	r5, #0
 2719 0096 FAD0     		beq	.L231
 2720 0098 BAE7     		b	.L230
 2721              	.LVL262:
 2722              	.L252:
 125:lib/TinyUSB/src/class/cdc/cdc_device.c ****       return idx;
 2723              		.loc 1 125 38 view .LVU742
 2724              	.LBE247:
 2725              	.LBE248:
 2726              	.LBE249:
 2727              	.LBE250:
 465:lib/TinyUSB/src/class/cdc/cdc_device.c ****   cdcd_interface_t *p_cdc     = &_cdcd_itf[itf];
 2728              		.loc 1 465 3 is_stmt 1 discriminator 1 view .LVU743
 465:lib/TinyUSB/src/class/cdc/cdc_device.c ****   cdcd_interface_t *p_cdc     = &_cdcd_itf[itf];
 2729              		.loc 1 465 3 discriminator 1 view .LVU744
 465:lib/TinyUSB/src/class/cdc/cdc_device.c ****   cdcd_interface_t *p_cdc     = &_cdcd_itf[itf];
 2730              		.loc 1 465 3 discriminator 1 view .LVU745
 465:lib/TinyUSB/src/class/cdc/cdc_device.c ****   cdcd_interface_t *p_cdc     = &_cdcd_itf[itf];
 2731              		.loc 1 465 3 discriminator 1 view .LVU746
 2732              	.LBB251:
 465:lib/TinyUSB/src/class/cdc/cdc_device.c ****   cdcd_interface_t *p_cdc     = &_cdcd_itf[itf];
 2733              		.loc 1 465 3 discriminator 1 view .LVU747
 465:lib/TinyUSB/src/class/cdc/cdc_device.c ****   cdcd_interface_t *p_cdc     = &_cdcd_itf[itf];
 2734              		.loc 1 465 3 discriminator 1 view .LVU748
 2735 009a 4FF0E023 		mov	r3, #-536813568
ARM GAS  C:\Users\krisa\AppData\Local\Temp\ccoeKVOr.s 			page 92


 2736 009e D3F8F03D 		ldr	r3, [r3, #3568]
 2737 00a2 13F0010F 		tst	r3, #1
 2738 00a6 00D0     		beq	.L234
 465:lib/TinyUSB/src/class/cdc/cdc_device.c ****   cdcd_interface_t *p_cdc     = &_cdcd_itf[itf];
 2739              		.loc 1 465 3 discriminator 3 view .LVU749
 2740              		.syntax unified
 2741              	@ 465 "lib/TinyUSB/src/class/cdc/cdc_device.c" 1
 2742 00a8 00BE     		BKPT #0
 2743              	
 2744              	@ 0 "" 2
 2745              		.thumb
 2746              		.syntax unified
 2747              	.L234:
 2748              	.LBE251:
 465:lib/TinyUSB/src/class/cdc/cdc_device.c ****   cdcd_interface_t *p_cdc     = &_cdcd_itf[itf];
 2749              		.loc 1 465 3 discriminator 5 view .LVU750
 465:lib/TinyUSB/src/class/cdc/cdc_device.c ****   cdcd_interface_t *p_cdc     = &_cdcd_itf[itf];
 2750              		.loc 1 465 3 discriminator 5 view .LVU751
 2751 00aa 0020     		movs	r0, #0
 2752              	.LVL263:
 465:lib/TinyUSB/src/class/cdc/cdc_device.c ****   cdcd_interface_t *p_cdc     = &_cdcd_itf[itf];
 2753              		.loc 1 465 3 is_stmt 0 discriminator 5 view .LVU752
 2754 00ac D7E7     		b	.L235
 2755              	.LVL264:
 2756              	.L253:
 472:lib/TinyUSB/src/class/cdc/cdc_device.c **** 
 2757              		.loc 1 472 5 is_stmt 1 view .LVU753
 2758              	.LBB252:
 2759              	.LBI252:
 180:lib/TinyUSB/src/common/tusb_private.h ****   if (s->ep_buf != NULL) {
 2760              		.loc 3 180 6 view .LVU754
 2761              	.LBB253:
 181:lib/TinyUSB/src/common/tusb_private.h ****     tu_fifo_write_n(&s->ff, s->ep_buf, (uint16_t)xferred_bytes);
 2762              		.loc 3 181 3 view .LVU755
 181:lib/TinyUSB/src/common/tusb_private.h ****     tu_fifo_write_n(&s->ff, s->ep_buf, (uint16_t)xferred_bytes);
 2763              		.loc 3 181 8 is_stmt 0 view .LVU756
 2764 00ae 374B     		ldr	r3, .L261
 2765 00b0 BC22     		movs	r2, #188
 2766 00b2 02FB0433 		mla	r3, r2, r4, r3
 2767 00b6 D96A     		ldr	r1, [r3, #44]
 2768              	.LVL265:
 181:lib/TinyUSB/src/common/tusb_private.h ****     tu_fifo_write_n(&s->ff, s->ep_buf, (uint16_t)xferred_bytes);
 2769              		.loc 3 181 6 view .LVU757
 2770 00b8 49B1     		cbz	r1, .L237
 182:lib/TinyUSB/src/common/tusb_private.h ****   }
 2771              		.loc 3 182 5 is_stmt 1 view .LVU758
 2772 00ba 02FB04F0 		mul	r0, r2, r4
 2773              	.LVL266:
 182:lib/TinyUSB/src/common/tusb_private.h ****   }
 2774              		.loc 3 182 5 is_stmt 0 view .LVU759
 2775 00be 2830     		adds	r0, r0, #40
 2776 00c0 324B     		ldr	r3, .L261
 2777 00c2 1844     		add	r0, r0, r3
 2778              	.LVL267:
 2779              	.LBB254:
 2780              	.LBI254:
 217:lib/TinyUSB/src/common/tusb_fifo.h ****   return tu_fifo_write_n_access_mode(f, data, n, TU_FIFO_INC_ADDR_RW8);
ARM GAS  C:\Users\krisa\AppData\Local\Temp\ccoeKVOr.s 			page 93


 2781              		.loc 5 217 46 is_stmt 1 view .LVU760
 2782              	.LBB255:
 218:lib/TinyUSB/src/common/tusb_fifo.h **** }
 2783              		.loc 5 218 3 view .LVU761
 218:lib/TinyUSB/src/common/tusb_fifo.h **** }
 2784              		.loc 5 218 10 is_stmt 0 view .LVU762
 2785 00c4 0023     		movs	r3, #0
 2786 00c6 BAB2     		uxth	r2, r7
 2787 00c8 0830     		adds	r0, r0, #8
 2788              	.LVL268:
 218:lib/TinyUSB/src/common/tusb_fifo.h **** }
 2789              		.loc 5 218 10 view .LVU763
 2790 00ca FFF7FEFF 		bl	tu_fifo_write_n_access_mode
 2791              	.LVL269:
 2792              	.L237:
 218:lib/TinyUSB/src/common/tusb_fifo.h **** }
 2793              		.loc 5 218 10 view .LVU764
 2794              	.LBE255:
 2795              	.LBE254:
 2796              	.LBE253:
 2797              	.LBE252:
 475:lib/TinyUSB/src/class/cdc/cdc_device.c ****       tu_fifo_buffer_info_t buf_info;
 2798              		.loc 1 475 5 is_stmt 1 view .LVU765
 475:lib/TinyUSB/src/class/cdc/cdc_device.c ****       tu_fifo_buffer_info_t buf_info;
 2799              		.loc 1 475 28 is_stmt 0 view .LVU766
 2800 00ce 2F4B     		ldr	r3, .L261
 2801 00d0 BC22     		movs	r2, #188
 2802 00d2 02FB0933 		mla	r3, r2, r9, r3
 2803 00d6 DB7A     		ldrb	r3, [r3, #11]	@ zero_extendqisi2
 475:lib/TinyUSB/src/class/cdc/cdc_device.c ****       tu_fifo_buffer_info_t buf_info;
 2804              		.loc 1 475 8 view .LVU767
 2805 00d8 FF2B     		cmp	r3, #255
 2806 00da 09D1     		bne	.L257
 2807              	.L238:
 508:lib/TinyUSB/src/class/cdc/cdc_device.c ****       tud_cdc_rx_cb(itf);
 2808              		.loc 1 508 5 is_stmt 1 view .LVU768
 2809              	.LVL270:
 2810              	.LBB256:
 2811              	.LBI256:
 147:lib/TinyUSB/src/common/tusb_private.h ****   return tu_fifo_empty(&s->ff);
 2812              		.loc 3 147 42 view .LVU769
 2813              	.LBE256:
 148:lib/TinyUSB/src/common/tusb_private.h **** }
 2814              		.loc 3 148 3 view .LVU770
 2815              	.LBB259:
 2816              	.LBB257:
 2817              	.LBI257:
 250:lib/TinyUSB/src/common/tusb_fifo.h ****   const uint16_t wr_idx = f->wr_idx;
 2818              		.loc 5 250 42 view .LVU771
 2819              	.LBB258:
 251:lib/TinyUSB/src/common/tusb_fifo.h ****   const uint16_t rd_idx = f->rd_idx;
 2820              		.loc 5 251 3 view .LVU772
 251:lib/TinyUSB/src/common/tusb_fifo.h ****   const uint16_t rd_idx = f->rd_idx;
 2821              		.loc 5 251 18 is_stmt 0 view .LVU773
 2822 00dc B28A     		ldrh	r2, [r6, #20]
 2823 00de 92B2     		uxth	r2, r2
 2824              	.LVL271:
ARM GAS  C:\Users\krisa\AppData\Local\Temp\ccoeKVOr.s 			page 94


 252:lib/TinyUSB/src/common/tusb_fifo.h ****   return wr_idx == rd_idx;
 2825              		.loc 5 252 3 is_stmt 1 view .LVU774
 252:lib/TinyUSB/src/common/tusb_fifo.h ****   return wr_idx == rd_idx;
 2826              		.loc 5 252 18 is_stmt 0 view .LVU775
 2827 00e0 F38A     		ldrh	r3, [r6, #22]
 2828 00e2 9BB2     		uxth	r3, r3
 2829              	.LVL272:
 253:lib/TinyUSB/src/common/tusb_fifo.h **** }
 2830              		.loc 5 253 3 is_stmt 1 view .LVU776
 253:lib/TinyUSB/src/common/tusb_fifo.h **** }
 2831              		.loc 5 253 3 is_stmt 0 view .LVU777
 2832              	.LBE258:
 2833              	.LBE257:
 2834              	.LBE259:
 508:lib/TinyUSB/src/class/cdc/cdc_device.c ****       tud_cdc_rx_cb(itf);
 2835              		.loc 1 508 8 view .LVU778
 2836 00e4 9A42     		cmp	r2, r3
 2837 00e6 3AD1     		bne	.L258
 2838              	.L247:
 512:lib/TinyUSB/src/class/cdc/cdc_device.c ****   }
 2839              		.loc 1 512 5 is_stmt 1 view .LVU779
 2840 00e8 3046     		mov	r0, r6
 2841 00ea FFF7FEFF 		bl	tu_edpt_stream_read_xfer
 2842              	.LVL273:
 2843 00ee A4E7     		b	.L236
 2844              	.L257:
 2845              	.LBB260:
 476:lib/TinyUSB/src/class/cdc/cdc_device.c ****       tu_fifo_get_read_info(&stream_rx->ff, &buf_info);
 2846              		.loc 1 476 7 view .LVU780
 477:lib/TinyUSB/src/class/cdc/cdc_device.c **** 
 2847              		.loc 1 477 7 view .LVU781
 2848 00f0 02FB09F0 		mul	r0, r2, r9
 2849 00f4 2830     		adds	r0, r0, #40
 2850 00f6 254B     		ldr	r3, .L261
 2851 00f8 1844     		add	r0, r0, r3
 2852 00fa 6946     		mov	r1, sp
 2853 00fc 0830     		adds	r0, r0, #8
 2854 00fe FFF7FEFF 		bl	tu_fifo_get_read_info
 2855              	.LVL274:
 480:lib/TinyUSB/src/class/cdc/cdc_device.c ****       if (buf_info.wrapped.len > 0) {
 2856              		.loc 1 480 7 view .LVU782
 481:lib/TinyUSB/src/class/cdc/cdc_device.c ****         ptr = buf_info.wrapped.ptr + buf_info.wrapped.len - 1; // last byte of wrap buffer
 2857              		.loc 1 481 7 view .LVU783
 481:lib/TinyUSB/src/class/cdc/cdc_device.c ****         ptr = buf_info.wrapped.ptr + buf_info.wrapped.len - 1; // last byte of wrap buffer
 2858              		.loc 1 481 27 is_stmt 0 view .LVU784
 2859 0102 BDF80830 		ldrh	r3, [sp, #8]
 481:lib/TinyUSB/src/class/cdc/cdc_device.c ****         ptr = buf_info.wrapped.ptr + buf_info.wrapped.len - 1; // last byte of wrap buffer
 2860              		.loc 1 481 10 view .LVU785
 2861 0106 33B1     		cbz	r3, .L239
 482:lib/TinyUSB/src/class/cdc/cdc_device.c ****       } else if (buf_info.linear.len > 0) {
 2862              		.loc 1 482 9 is_stmt 1 view .LVU786
 482:lib/TinyUSB/src/class/cdc/cdc_device.c ****       } else if (buf_info.linear.len > 0) {
 2863              		.loc 1 482 59 is_stmt 0 view .LVU787
 2864 0108 013B     		subs	r3, r3, #1
 482:lib/TinyUSB/src/class/cdc/cdc_device.c ****       } else if (buf_info.linear.len > 0) {
 2865              		.loc 1 482 13 view .LVU788
 2866 010a 039A     		ldr	r2, [sp, #12]
ARM GAS  C:\Users\krisa\AppData\Local\Temp\ccoeKVOr.s 			page 95


 2867 010c 1344     		add	r3, r3, r2
 2868              	.LVL275:
 2869              	.L240:
 489:lib/TinyUSB/src/class/cdc/cdc_device.c ****         for (uint32_t i = 0; i < xferred_bytes; i++) {
 2870              		.loc 1 489 7 is_stmt 1 view .LVU789
 489:lib/TinyUSB/src/class/cdc/cdc_device.c ****         for (uint32_t i = 0; i < xferred_bytes; i++) {
 2871              		.loc 1 489 10 is_stmt 0 view .LVU790
 2872 010e 002B     		cmp	r3, #0
 2873 0110 E4D0     		beq	.L238
 2874              	.LBB261:
 490:lib/TinyUSB/src/class/cdc/cdc_device.c ****           if (p_cdc->wanted_char == (char)*ptr) {
 2875              		.loc 1 490 23 view .LVU791
 2876 0112 0020     		movs	r0, #0
 2877 0114 11E0     		b	.L242
 2878              	.LVL276:
 2879              	.L239:
 490:lib/TinyUSB/src/class/cdc/cdc_device.c ****           if (p_cdc->wanted_char == (char)*ptr) {
 2880              		.loc 1 490 23 view .LVU792
 2881              	.LBE261:
 483:lib/TinyUSB/src/class/cdc/cdc_device.c ****         ptr = buf_info.linear.ptr + buf_info.linear.len - 1;   // last byte of linear buffer
 2882              		.loc 1 483 14 is_stmt 1 view .LVU793
 483:lib/TinyUSB/src/class/cdc/cdc_device.c ****         ptr = buf_info.linear.ptr + buf_info.linear.len - 1;   // last byte of linear buffer
 2883              		.loc 1 483 33 is_stmt 0 view .LVU794
 2884 0116 BDF80030 		ldrh	r3, [sp]
 483:lib/TinyUSB/src/class/cdc/cdc_device.c ****         ptr = buf_info.linear.ptr + buf_info.linear.len - 1;   // last byte of linear buffer
 2885              		.loc 1 483 17 view .LVU795
 2886 011a 002B     		cmp	r3, #0
 2887 011c DED0     		beq	.L238
 484:lib/TinyUSB/src/class/cdc/cdc_device.c ****       } else {
 2888              		.loc 1 484 9 is_stmt 1 view .LVU796
 484:lib/TinyUSB/src/class/cdc/cdc_device.c ****       } else {
 2889              		.loc 1 484 57 is_stmt 0 view .LVU797
 2890 011e 013B     		subs	r3, r3, #1
 484:lib/TinyUSB/src/class/cdc/cdc_device.c ****       } else {
 2891              		.loc 1 484 13 view .LVU798
 2892 0120 019A     		ldr	r2, [sp, #4]
 2893 0122 1344     		add	r3, r3, r2
 2894              	.LVL277:
 484:lib/TinyUSB/src/class/cdc/cdc_device.c ****       } else {
 2895              		.loc 1 484 13 view .LVU799
 2896 0124 F3E7     		b	.L240
 2897              	.LVL278:
 2898              	.L259:
 2899              	.LBB262:
 492:lib/TinyUSB/src/class/cdc/cdc_device.c ****             break; // only invoke once per transfer, even if multiple wanted chars are present
 2900              		.loc 1 492 13 is_stmt 1 view .LVU800
 2901 0126 2046     		mov	r0, r4
 2902              	.LVL279:
 492:lib/TinyUSB/src/class/cdc/cdc_device.c ****             break; // only invoke once per transfer, even if multiple wanted chars are present
 2903              		.loc 1 492 13 is_stmt 0 view .LVU801
 2904 0128 FFF7FEFF 		bl	tud_cdc_rx_wanted_cb
 2905              	.LVL280:
 493:lib/TinyUSB/src/class/cdc/cdc_device.c ****           }
 2906              		.loc 1 493 13 is_stmt 1 view .LVU802
 2907 012c D6E7     		b	.L238
 2908              	.LVL281:
 2909              	.L260:
ARM GAS  C:\Users\krisa\AppData\Local\Temp\ccoeKVOr.s 			page 96


 497:lib/TinyUSB/src/class/cdc/cdc_device.c ****           } else if (ptr == buf_info.linear.ptr) {
 2910              		.loc 1 497 13 view .LVU803
 497:lib/TinyUSB/src/class/cdc/cdc_device.c ****           } else if (ptr == buf_info.linear.ptr) {
 2911              		.loc 1 497 56 is_stmt 0 view .LVU804
 2912 012e BDF80030 		ldrh	r3, [sp]
 2913              	.LVL282:
 497:lib/TinyUSB/src/class/cdc/cdc_device.c ****           } else if (ptr == buf_info.linear.ptr) {
 2914              		.loc 1 497 61 view .LVU805
 2915 0132 013B     		subs	r3, r3, #1
 497:lib/TinyUSB/src/class/cdc/cdc_device.c ****           } else if (ptr == buf_info.linear.ptr) {
 2916              		.loc 1 497 17 view .LVU806
 2917 0134 019A     		ldr	r2, [sp, #4]
 2918 0136 1344     		add	r3, r3, r2
 2919              	.LVL283:
 2920              	.L245:
 490:lib/TinyUSB/src/class/cdc/cdc_device.c ****           if (p_cdc->wanted_char == (char)*ptr) {
 2921              		.loc 1 490 49 is_stmt 1 discriminator 2 view .LVU807
 490:lib/TinyUSB/src/class/cdc/cdc_device.c ****           if (p_cdc->wanted_char == (char)*ptr) {
 2922              		.loc 1 490 50 is_stmt 0 discriminator 2 view .LVU808
 2923 0138 0130     		adds	r0, r0, #1
 2924              	.LVL284:
 2925              	.L242:
 490:lib/TinyUSB/src/class/cdc/cdc_device.c ****           if (p_cdc->wanted_char == (char)*ptr) {
 2926              		.loc 1 490 30 is_stmt 1 discriminator 1 view .LVU809
 490:lib/TinyUSB/src/class/cdc/cdc_device.c ****           if (p_cdc->wanted_char == (char)*ptr) {
 2927              		.loc 1 490 9 is_stmt 0 discriminator 1 view .LVU810
 2928 013a B842     		cmp	r0, r7
 2929 013c CED2     		bcs	.L238
 491:lib/TinyUSB/src/class/cdc/cdc_device.c ****             tud_cdc_rx_wanted_cb(itf, p_cdc->wanted_char);
 2930              		.loc 1 491 11 is_stmt 1 view .LVU811
 491:lib/TinyUSB/src/class/cdc/cdc_device.c ****             tud_cdc_rx_wanted_cb(itf, p_cdc->wanted_char);
 2931              		.loc 1 491 20 is_stmt 0 view .LVU812
 2932 013e 134A     		ldr	r2, .L261
 2933 0140 BC21     		movs	r1, #188
 2934 0142 01FB0922 		mla	r2, r1, r9, r2
 2935 0146 D17A     		ldrb	r1, [r2, #11]	@ zero_extendqisi2
 491:lib/TinyUSB/src/class/cdc/cdc_device.c ****             tud_cdc_rx_wanted_cb(itf, p_cdc->wanted_char);
 2936              		.loc 1 491 34 view .LVU813
 2937 0148 1A78     		ldrb	r2, [r3]	@ zero_extendqisi2
 491:lib/TinyUSB/src/class/cdc/cdc_device.c ****             tud_cdc_rx_wanted_cb(itf, p_cdc->wanted_char);
 2938              		.loc 1 491 14 view .LVU814
 2939 014a 9142     		cmp	r1, r2
 2940 014c EBD0     		beq	.L259
 496:lib/TinyUSB/src/class/cdc/cdc_device.c ****             ptr = buf_info.linear.ptr + buf_info.linear.len - 1; // last byte of linear buffer
 2941              		.loc 1 496 11 is_stmt 1 view .LVU815
 496:lib/TinyUSB/src/class/cdc/cdc_device.c ****             ptr = buf_info.linear.ptr + buf_info.linear.len - 1; // last byte of linear buffer
 2942              		.loc 1 496 38 is_stmt 0 view .LVU816
 2943 014e 039A     		ldr	r2, [sp, #12]
 496:lib/TinyUSB/src/class/cdc/cdc_device.c ****             ptr = buf_info.linear.ptr + buf_info.linear.len - 1; // last byte of linear buffer
 2944              		.loc 1 496 14 view .LVU817
 2945 0150 9A42     		cmp	r2, r3
 2946 0152 ECD0     		beq	.L260
 498:lib/TinyUSB/src/class/cdc/cdc_device.c ****             break;                                         // reached the beginning
 2947              		.loc 1 498 18 is_stmt 1 view .LVU818
 498:lib/TinyUSB/src/class/cdc/cdc_device.c ****             break;                                         // reached the beginning
 2948              		.loc 1 498 44 is_stmt 0 view .LVU819
 2949 0154 019A     		ldr	r2, [sp, #4]
ARM GAS  C:\Users\krisa\AppData\Local\Temp\ccoeKVOr.s 			page 97


 498:lib/TinyUSB/src/class/cdc/cdc_device.c ****             break;                                         // reached the beginning
 2950              		.loc 1 498 21 view .LVU820
 2951 0156 9A42     		cmp	r2, r3
 2952 0158 C0D0     		beq	.L238
 501:lib/TinyUSB/src/class/cdc/cdc_device.c ****           }
 2953              		.loc 1 501 13 is_stmt 1 view .LVU821
 501:lib/TinyUSB/src/class/cdc/cdc_device.c ****           }
 2954              		.loc 1 501 16 is_stmt 0 view .LVU822
 2955 015a 013B     		subs	r3, r3, #1
 2956              	.LVL285:
 501:lib/TinyUSB/src/class/cdc/cdc_device.c ****           }
 2957              		.loc 1 501 16 view .LVU823
 2958 015c ECE7     		b	.L245
 2959              	.LVL286:
 2960              	.L258:
 501:lib/TinyUSB/src/class/cdc/cdc_device.c ****           }
 2961              		.loc 1 501 16 view .LVU824
 2962              	.LBE262:
 2963              	.LBE260:
 509:lib/TinyUSB/src/class/cdc/cdc_device.c ****     }
 2964              		.loc 1 509 7 is_stmt 1 view .LVU825
 2965 015e 2046     		mov	r0, r4
 2966 0160 FFF7FEFF 		bl	tud_cdc_rx_cb
 2967              	.LVL287:
 2968 0164 C0E7     		b	.L247
 2969              	.L254:
 518:lib/TinyUSB/src/class/cdc/cdc_device.c **** 
 2970              		.loc 1 518 5 view .LVU826
 2971 0166 2046     		mov	r0, r4
 2972 0168 FFF7FEFF 		bl	tud_cdc_tx_complete_cb
 2973              	.LVL288:
 520:lib/TinyUSB/src/class/cdc/cdc_device.c ****       // If there is no data left, a ZLP should be sent if needed
 2974              		.loc 1 520 5 view .LVU827
 520:lib/TinyUSB/src/class/cdc/cdc_device.c ****       // If there is no data left, a ZLP should be sent if needed
 2975              		.loc 1 520 14 is_stmt 0 view .LVU828
 2976 016c 4046     		mov	r0, r8
 2977 016e FFF7FEFF 		bl	tu_edpt_stream_write_xfer
 2978              	.LVL289:
 520:lib/TinyUSB/src/class/cdc/cdc_device.c ****       // If there is no data left, a ZLP should be sent if needed
 2979              		.loc 1 520 8 view .LVU829
 2980 0172 0028     		cmp	r0, #0
 2981 0174 7FF469AF 		bne	.L248
 522:lib/TinyUSB/src/class/cdc/cdc_device.c ****     }
 2982              		.loc 1 522 7 is_stmt 1 view .LVU830
 2983 0178 3946     		mov	r1, r7
 2984 017a 4046     		mov	r0, r8
 2985 017c FFF7FEFF 		bl	tu_edpt_stream_write_zlp_if_needed
 2986              	.LVL290:
 2987 0180 63E7     		b	.L248
 2988              	.L255:
 528:lib/TinyUSB/src/class/cdc/cdc_device.c ****   }
 2989              		.loc 1 528 5 view .LVU831
 2990 0182 2046     		mov	r0, r4
 2991 0184 FFF7FEFF 		bl	tud_cdc_notify_complete_cb
 2992              	.LVL291:
 531:lib/TinyUSB/src/class/cdc/cdc_device.c **** }
 2993              		.loc 1 531 10 is_stmt 0 view .LVU832
ARM GAS  C:\Users\krisa\AppData\Local\Temp\ccoeKVOr.s 			page 98


 2994 0188 0120     		movs	r0, #1
 2995 018a 68E7     		b	.L235
 2996              	.L262:
 2997              		.align	2
 2998              	.L261:
 2999 018c 00000000 		.word	.LANCHOR1
 3000              		.cfi_endproc
 3001              	.LFE137:
 3003              		.section	.bss._cdcd_itf,"aw",%nobits
 3004              		.align	2
 3005              		.set	.LANCHOR1,. + 0
 3008              	_cdcd_itf:
 3009 0000 00000000 		.space	188
 3009      00000000 
 3009      00000000 
 3009      00000000 
 3009      00000000 
 3010              		.section	.data._cdcd_cfg,"aw"
 3011              		.align	2
 3012              		.set	.LANCHOR0,. + 0
 3015              	_cdcd_cfg:
 3016 0000 04       		.byte	4
 3017              		.text
 3018              	.Letext0:
 3019              		.file 7 "c:\\program files (x86)\\gnu arm embedded toolchain\\10 2021.10\\arm-none-eabi\\include\\
 3020              		.file 8 "c:\\program files (x86)\\gnu arm embedded toolchain\\10 2021.10\\arm-none-eabi\\include\\
 3021              		.file 9 "lib/TinyUSB/src/class/cdc/cdc.h"
 3022              		.file 10 "lib/TinyUSB/src/class/cdc/cdc_device.h"
 3023              		.file 11 "lib/TinyUSB/src/device/usbd_pvt.h"
 3024              		.file 12 "<built-in>"
ARM GAS  C:\Users\krisa\AppData\Local\Temp\ccoeKVOr.s 			page 99


DEFINED SYMBOLS
                            *ABS*:00000000 cdc_device.c
C:\Users\krisa\AppData\Local\Temp\ccoeKVOr.s:20     .text.tud_cdc_rx_cb:00000000 $t
C:\Users\krisa\AppData\Local\Temp\ccoeKVOr.s:26     .text.tud_cdc_rx_cb:00000000 tud_cdc_rx_cb
C:\Users\krisa\AppData\Local\Temp\ccoeKVOr.s:42     .text.tud_cdc_rx_wanted_cb:00000000 $t
C:\Users\krisa\AppData\Local\Temp\ccoeKVOr.s:48     .text.tud_cdc_rx_wanted_cb:00000000 tud_cdc_rx_wanted_cb
C:\Users\krisa\AppData\Local\Temp\ccoeKVOr.s:64     .text.tud_cdc_tx_complete_cb:00000000 $t
C:\Users\krisa\AppData\Local\Temp\ccoeKVOr.s:70     .text.tud_cdc_tx_complete_cb:00000000 tud_cdc_tx_complete_cb
C:\Users\krisa\AppData\Local\Temp\ccoeKVOr.s:85     .text.tud_cdc_notify_complete_cb:00000000 $t
C:\Users\krisa\AppData\Local\Temp\ccoeKVOr.s:91     .text.tud_cdc_notify_complete_cb:00000000 tud_cdc_notify_complete_cb
C:\Users\krisa\AppData\Local\Temp\ccoeKVOr.s:106    .text.tud_cdc_line_state_cb:00000000 $t
C:\Users\krisa\AppData\Local\Temp\ccoeKVOr.s:112    .text.tud_cdc_line_state_cb:00000000 tud_cdc_line_state_cb
C:\Users\krisa\AppData\Local\Temp\ccoeKVOr.s:129    .text.tud_cdc_line_coding_cb:00000000 $t
C:\Users\krisa\AppData\Local\Temp\ccoeKVOr.s:135    .text.tud_cdc_line_coding_cb:00000000 tud_cdc_line_coding_cb
C:\Users\krisa\AppData\Local\Temp\ccoeKVOr.s:151    .text.tud_cdc_send_break_cb:00000000 $t
C:\Users\krisa\AppData\Local\Temp\ccoeKVOr.s:157    .text.tud_cdc_send_break_cb:00000000 tud_cdc_send_break_cb
C:\Users\krisa\AppData\Local\Temp\ccoeKVOr.s:173    .text.tud_cdc_configure:00000000 $t
C:\Users\krisa\AppData\Local\Temp\ccoeKVOr.s:179    .text.tud_cdc_configure:00000000 tud_cdc_configure
C:\Users\krisa\AppData\Local\Temp\ccoeKVOr.s:212    .text.tud_cdc_configure:00000010 $d
C:\Users\krisa\AppData\Local\Temp\ccoeKVOr.s:217    .text.tud_cdc_n_ready:00000000 $t
C:\Users\krisa\AppData\Local\Temp\ccoeKVOr.s:223    .text.tud_cdc_n_ready:00000000 tud_cdc_n_ready
C:\Users\krisa\AppData\Local\Temp\ccoeKVOr.s:348    .text.tud_cdc_n_ready:00000044 $d
C:\Users\krisa\AppData\Local\Temp\ccoeKVOr.s:353    .text.tud_cdc_n_connected:00000000 $t
C:\Users\krisa\AppData\Local\Temp\ccoeKVOr.s:359    .text.tud_cdc_n_connected:00000000 tud_cdc_n_connected
C:\Users\krisa\AppData\Local\Temp\ccoeKVOr.s:451    .text.tud_cdc_n_connected:00000038 $d
C:\Users\krisa\AppData\Local\Temp\ccoeKVOr.s:458    .text.tud_cdc_n_get_line_state:00000000 $t
C:\Users\krisa\AppData\Local\Temp\ccoeKVOr.s:464    .text.tud_cdc_n_get_line_state:00000000 tud_cdc_n_get_line_state
C:\Users\krisa\AppData\Local\Temp\ccoeKVOr.s:495    .text.tud_cdc_n_get_line_state:00000014 $d
C:\Users\krisa\AppData\Local\Temp\ccoeKVOr.s:500    .text.tud_cdc_n_get_line_coding:00000000 $t
C:\Users\krisa\AppData\Local\Temp\ccoeKVOr.s:506    .text.tud_cdc_n_get_line_coding:00000000 tud_cdc_n_get_line_coding
C:\Users\krisa\AppData\Local\Temp\ccoeKVOr.s:538    .text.tud_cdc_n_get_line_coding:0000001c $d
C:\Users\krisa\AppData\Local\Temp\ccoeKVOr.s:543    .text.tud_cdc_n_set_wanted_char:00000000 $t
C:\Users\krisa\AppData\Local\Temp\ccoeKVOr.s:549    .text.tud_cdc_n_set_wanted_char:00000000 tud_cdc_n_set_wanted_char
C:\Users\krisa\AppData\Local\Temp\ccoeKVOr.s:576    .text.tud_cdc_n_set_wanted_char:00000010 $d
C:\Users\krisa\AppData\Local\Temp\ccoeKVOr.s:581    .text.tud_cdc_n_available:00000000 $t
C:\Users\krisa\AppData\Local\Temp\ccoeKVOr.s:587    .text.tud_cdc_n_available:00000000 tud_cdc_n_available
C:\Users\krisa\AppData\Local\Temp\ccoeKVOr.s:703    .text.tud_cdc_n_available:0000003c $d
C:\Users\krisa\AppData\Local\Temp\ccoeKVOr.s:708    .text.tud_cdc_n_read:00000000 $t
C:\Users\krisa\AppData\Local\Temp\ccoeKVOr.s:714    .text.tud_cdc_n_read:00000000 tud_cdc_n_read
C:\Users\krisa\AppData\Local\Temp\ccoeKVOr.s:759    .text.tud_cdc_n_read:00000020 $d
C:\Users\krisa\AppData\Local\Temp\ccoeKVOr.s:764    .text.tud_cdc_n_peek:00000000 $t
C:\Users\krisa\AppData\Local\Temp\ccoeKVOr.s:770    .text.tud_cdc_n_peek:00000000 tud_cdc_n_peek
C:\Users\krisa\AppData\Local\Temp\ccoeKVOr.s:822    .text.tud_cdc_n_peek:00000020 $d
C:\Users\krisa\AppData\Local\Temp\ccoeKVOr.s:827    .text.tud_cdc_n_read_flush:00000000 $t
C:\Users\krisa\AppData\Local\Temp\ccoeKVOr.s:833    .text.tud_cdc_n_read_flush:00000000 tud_cdc_n_read_flush
C:\Users\krisa\AppData\Local\Temp\ccoeKVOr.s:886    .text.tud_cdc_n_read_flush:00000028 $d
C:\Users\krisa\AppData\Local\Temp\ccoeKVOr.s:891    .text.tud_cdc_n_write:00000000 $t
C:\Users\krisa\AppData\Local\Temp\ccoeKVOr.s:897    .text.tud_cdc_n_write:00000000 tud_cdc_n_write
C:\Users\krisa\AppData\Local\Temp\ccoeKVOr.s:942    .text.tud_cdc_n_write:00000020 $d
C:\Users\krisa\AppData\Local\Temp\ccoeKVOr.s:947    .text.tud_cdc_n_write_flush:00000000 $t
C:\Users\krisa\AppData\Local\Temp\ccoeKVOr.s:953    .text.tud_cdc_n_write_flush:00000000 tud_cdc_n_write_flush
C:\Users\krisa\AppData\Local\Temp\ccoeKVOr.s:998    .text.tud_cdc_n_write_flush:00000020 $d
C:\Users\krisa\AppData\Local\Temp\ccoeKVOr.s:1003   .text.tud_cdc_n_write_available:00000000 $t
C:\Users\krisa\AppData\Local\Temp\ccoeKVOr.s:1009   .text.tud_cdc_n_write_available:00000000 tud_cdc_n_write_available
C:\Users\krisa\AppData\Local\Temp\ccoeKVOr.s:1054   .text.tud_cdc_n_write_available:00000020 $d
C:\Users\krisa\AppData\Local\Temp\ccoeKVOr.s:1059   .text.tud_cdc_n_write_clear:00000000 $t
C:\Users\krisa\AppData\Local\Temp\ccoeKVOr.s:1065   .text.tud_cdc_n_write_clear:00000000 tud_cdc_n_write_clear
ARM GAS  C:\Users\krisa\AppData\Local\Temp\ccoeKVOr.s 			page 100


C:\Users\krisa\AppData\Local\Temp\ccoeKVOr.s:1120   .text.tud_cdc_n_write_clear:00000020 $d
C:\Users\krisa\AppData\Local\Temp\ccoeKVOr.s:1125   .text.cdcd_init:00000000 $t
C:\Users\krisa\AppData\Local\Temp\ccoeKVOr.s:1131   .text.cdcd_init:00000000 cdcd_init
C:\Users\krisa\AppData\Local\Temp\ccoeKVOr.s:1258   .text.cdcd_init:00000094 $d
C:\Users\krisa\AppData\Local\Temp\ccoeKVOr.s:1265   .text.cdcd_deinit:00000000 $t
C:\Users\krisa\AppData\Local\Temp\ccoeKVOr.s:1271   .text.cdcd_deinit:00000000 cdcd_deinit
C:\Users\krisa\AppData\Local\Temp\ccoeKVOr.s:1316   .text.cdcd_reset:00000000 $t
C:\Users\krisa\AppData\Local\Temp\ccoeKVOr.s:1322   .text.cdcd_reset:00000000 cdcd_reset
C:\Users\krisa\AppData\Local\Temp\ccoeKVOr.s:1412   .text.cdcd_reset:00000034 $d
C:\Users\krisa\AppData\Local\Temp\ccoeKVOr.s:1419   .text.cdcd_open:00000000 $t
C:\Users\krisa\AppData\Local\Temp\ccoeKVOr.s:1425   .text.cdcd_open:00000000 cdcd_open
C:\Users\krisa\AppData\Local\Temp\ccoeKVOr.s:2208   .text.cdcd_open:00000220 $d
C:\Users\krisa\AppData\Local\Temp\ccoeKVOr.s:2214   .text.cdcd_control_xfer_cb:00000000 $t
C:\Users\krisa\AppData\Local\Temp\ccoeKVOr.s:2220   .text.cdcd_control_xfer_cb:00000000 cdcd_control_xfer_cb
C:\Users\krisa\AppData\Local\Temp\ccoeKVOr.s:2264   .text.cdcd_control_xfer_cb:00000024 $d
C:\Users\krisa\AppData\Local\Temp\ccoeKVOr.s:2268   .text.cdcd_control_xfer_cb:00000028 $t
C:\Users\krisa\AppData\Local\Temp\ccoeKVOr.s:2546   .text.cdcd_control_xfer_cb:00000110 $d
C:\Users\krisa\AppData\Local\Temp\ccoeKVOr.s:2552   .text.cdcd_xfer_cb:00000000 $t
C:\Users\krisa\AppData\Local\Temp\ccoeKVOr.s:2558   .text.cdcd_xfer_cb:00000000 cdcd_xfer_cb
C:\Users\krisa\AppData\Local\Temp\ccoeKVOr.s:2999   .text.cdcd_xfer_cb:0000018c $d
C:\Users\krisa\AppData\Local\Temp\ccoeKVOr.s:3004   .bss._cdcd_itf:00000000 $d
C:\Users\krisa\AppData\Local\Temp\ccoeKVOr.s:3008   .bss._cdcd_itf:00000000 _cdcd_itf
C:\Users\krisa\AppData\Local\Temp\ccoeKVOr.s:3011   .data._cdcd_cfg:00000000 $d
C:\Users\krisa\AppData\Local\Temp\ccoeKVOr.s:3015   .data._cdcd_cfg:00000000 _cdcd_cfg

UNDEFINED SYMBOLS
tud_mounted
tud_suspended
tu_edpt_stream_read
tu_fifo_peek
tu_fifo_clear
tu_edpt_stream_read_xfer
tu_edpt_stream_write
tu_edpt_stream_write_xfer
tu_edpt_stream_write_available
memset
tu_edpt_stream_init
tu_fifo_set_overwritable
usbd_edpt_open
tud_control_xfer
tud_control_status
tu_fifo_write_n_access_mode
tu_fifo_get_read_info
tu_edpt_stream_write_zlp_if_needed
