ARM GAS  C:\Users\krisa\AppData\Local\Temp\ccNljk5K.s 			page 1


   1              		.cpu cortex-m4
   2              		.arch armv7e-m
   3              		.fpu fpv4-sp-d16
   4              		.eabi_attribute 27, 1
   5              		.eabi_attribute 28, 1
   6              		.eabi_attribute 20, 1
   7              		.eabi_attribute 21, 1
   8              		.eabi_attribute 23, 3
   9              		.eabi_attribute 24, 1
  10              		.eabi_attribute 25, 1
  11              		.eabi_attribute 26, 1
  12              		.eabi_attribute 30, 1
  13              		.eabi_attribute 34, 1
  14              		.eabi_attribute 18, 4
  15              		.file	"dcd_dwc2.c"
  16              		.text
  17              	.Ltext0:
  18              		.cfi_sections	.debug_frame
  19              		.section	.text.dfifo_alloc,"ax",%progbits
  20              		.align	1
  21              		.syntax unified
  22              		.thumb
  23              		.thumb_func
  25              	dfifo_alloc:
  26              	.LVL0:
  27              	.LFB346:
  28              		.file 1 "lib/TinyUSB/src/portable/synopsys/dwc2/dcd_dwc2.c"
   1:lib/TinyUSB/src/portable/synopsys/dwc2/dcd_dwc2.c **** /*
   2:lib/TinyUSB/src/portable/synopsys/dwc2/dcd_dwc2.c ****  * The MIT License (MIT)
   3:lib/TinyUSB/src/portable/synopsys/dwc2/dcd_dwc2.c ****  *
   4:lib/TinyUSB/src/portable/synopsys/dwc2/dcd_dwc2.c ****  * Copyright (c) 2019 William D. Jones
   5:lib/TinyUSB/src/portable/synopsys/dwc2/dcd_dwc2.c ****  * Copyright (c) 2019 Ha Thach (tinyusb.org)
   6:lib/TinyUSB/src/portable/synopsys/dwc2/dcd_dwc2.c ****  * Copyright (c) 2020 Jan Duempelmann
   7:lib/TinyUSB/src/portable/synopsys/dwc2/dcd_dwc2.c ****  * Copyright (c) 2020 Reinhard Panhuber
   8:lib/TinyUSB/src/portable/synopsys/dwc2/dcd_dwc2.c ****  *
   9:lib/TinyUSB/src/portable/synopsys/dwc2/dcd_dwc2.c ****  * Permission is hereby granted, free of charge, to any person obtaining a copy
  10:lib/TinyUSB/src/portable/synopsys/dwc2/dcd_dwc2.c ****  * of this software and associated documentation files (the "Software"), to deal
  11:lib/TinyUSB/src/portable/synopsys/dwc2/dcd_dwc2.c ****  * in the Software without restriction, including without limitation the rights
  12:lib/TinyUSB/src/portable/synopsys/dwc2/dcd_dwc2.c ****  * to use, copy, modify, merge, publish, distribute, sublicense, and/or sell
  13:lib/TinyUSB/src/portable/synopsys/dwc2/dcd_dwc2.c ****  * copies of the Software, and to permit persons to whom the Software is
  14:lib/TinyUSB/src/portable/synopsys/dwc2/dcd_dwc2.c ****  * furnished to do so, subject to the following conditions:
  15:lib/TinyUSB/src/portable/synopsys/dwc2/dcd_dwc2.c ****  *
  16:lib/TinyUSB/src/portable/synopsys/dwc2/dcd_dwc2.c ****  * The above copyright notice and this permission notice shall be included in
  17:lib/TinyUSB/src/portable/synopsys/dwc2/dcd_dwc2.c ****  * all copies or substantial portions of the Software.
  18:lib/TinyUSB/src/portable/synopsys/dwc2/dcd_dwc2.c ****  *
  19:lib/TinyUSB/src/portable/synopsys/dwc2/dcd_dwc2.c ****  * THE SOFTWARE IS PROVIDED "AS IS", WITHOUT WARRANTY OF ANY KIND, EXPRESS OR
  20:lib/TinyUSB/src/portable/synopsys/dwc2/dcd_dwc2.c ****  * IMPLIED, INCLUDING BUT NOT LIMITED TO THE WARRANTIES OF MERCHANTABILITY,
  21:lib/TinyUSB/src/portable/synopsys/dwc2/dcd_dwc2.c ****  * FITNESS FOR A PARTICULAR PURPOSE AND NONINFRINGEMENT. IN NO EVENT SHALL THE
  22:lib/TinyUSB/src/portable/synopsys/dwc2/dcd_dwc2.c ****  * AUTHORS OR COPYRIGHT HOLDERS BE LIABLE FOR ANY CLAIM, DAMAGES OR OTHER
  23:lib/TinyUSB/src/portable/synopsys/dwc2/dcd_dwc2.c ****  * LIABILITY, WHETHER IN AN ACTION OF CONTRACT, TORT OR OTHERWISE, ARISING FROM,
  24:lib/TinyUSB/src/portable/synopsys/dwc2/dcd_dwc2.c ****  * OUT OF OR IN CONNECTION WITH THE SOFTWARE OR THE USE OR OTHER DEALINGS IN
  25:lib/TinyUSB/src/portable/synopsys/dwc2/dcd_dwc2.c ****  * THE SOFTWARE.
  26:lib/TinyUSB/src/portable/synopsys/dwc2/dcd_dwc2.c ****  *
  27:lib/TinyUSB/src/portable/synopsys/dwc2/dcd_dwc2.c ****  * This file is part of the TinyUSB stack.
  28:lib/TinyUSB/src/portable/synopsys/dwc2/dcd_dwc2.c ****  */
  29:lib/TinyUSB/src/portable/synopsys/dwc2/dcd_dwc2.c **** 
  30:lib/TinyUSB/src/portable/synopsys/dwc2/dcd_dwc2.c **** #include "tusb_option.h"
ARM GAS  C:\Users\krisa\AppData\Local\Temp\ccNljk5K.s 			page 2


  31:lib/TinyUSB/src/portable/synopsys/dwc2/dcd_dwc2.c **** 
  32:lib/TinyUSB/src/portable/synopsys/dwc2/dcd_dwc2.c **** #if CFG_TUD_ENABLED && defined(TUP_USBIP_DWC2)
  33:lib/TinyUSB/src/portable/synopsys/dwc2/dcd_dwc2.c **** 
  34:lib/TinyUSB/src/portable/synopsys/dwc2/dcd_dwc2.c **** #if !(CFG_TUD_DWC2_SLAVE_ENABLE || CFG_TUD_DWC2_DMA_ENABLE)
  35:lib/TinyUSB/src/portable/synopsys/dwc2/dcd_dwc2.c **** #error DWC2 require either CFG_TUD_DWC2_SLAVE_ENABLE or CFG_TUD_DWC2_DMA_ENABLE to be enabled
  36:lib/TinyUSB/src/portable/synopsys/dwc2/dcd_dwc2.c **** #endif
  37:lib/TinyUSB/src/portable/synopsys/dwc2/dcd_dwc2.c **** 
  38:lib/TinyUSB/src/portable/synopsys/dwc2/dcd_dwc2.c **** // Debug level for DWC2
  39:lib/TinyUSB/src/portable/synopsys/dwc2/dcd_dwc2.c **** #define DWC2_DEBUG    2
  40:lib/TinyUSB/src/portable/synopsys/dwc2/dcd_dwc2.c **** 
  41:lib/TinyUSB/src/portable/synopsys/dwc2/dcd_dwc2.c **** #include "device/dcd.h"
  42:lib/TinyUSB/src/portable/synopsys/dwc2/dcd_dwc2.c **** #include "device/usbd.h"
  43:lib/TinyUSB/src/portable/synopsys/dwc2/dcd_dwc2.c **** #include "device/usbd_pvt.h"
  44:lib/TinyUSB/src/portable/synopsys/dwc2/dcd_dwc2.c **** #include "dwc2_common.h"
  45:lib/TinyUSB/src/portable/synopsys/dwc2/dcd_dwc2.c **** 
  46:lib/TinyUSB/src/portable/synopsys/dwc2/dcd_dwc2.c **** //--------------------------------------------------------------------+
  47:lib/TinyUSB/src/portable/synopsys/dwc2/dcd_dwc2.c **** // MACRO TYPEDEF CONSTANT ENUM
  48:lib/TinyUSB/src/portable/synopsys/dwc2/dcd_dwc2.c **** //--------------------------------------------------------------------+
  49:lib/TinyUSB/src/portable/synopsys/dwc2/dcd_dwc2.c **** typedef struct {
  50:lib/TinyUSB/src/portable/synopsys/dwc2/dcd_dwc2.c ****   uint8_t* buffer;
  51:lib/TinyUSB/src/portable/synopsys/dwc2/dcd_dwc2.c ****   tu_fifo_t* ff;
  52:lib/TinyUSB/src/portable/synopsys/dwc2/dcd_dwc2.c ****   uint16_t total_len;
  53:lib/TinyUSB/src/portable/synopsys/dwc2/dcd_dwc2.c ****   uint16_t max_size;
  54:lib/TinyUSB/src/portable/synopsys/dwc2/dcd_dwc2.c ****   uint8_t interval;
  55:lib/TinyUSB/src/portable/synopsys/dwc2/dcd_dwc2.c ****   uint8_t iso_retry; // ISO retry counter
  56:lib/TinyUSB/src/portable/synopsys/dwc2/dcd_dwc2.c **** } xfer_ctl_t;
  57:lib/TinyUSB/src/portable/synopsys/dwc2/dcd_dwc2.c **** 
  58:lib/TinyUSB/src/portable/synopsys/dwc2/dcd_dwc2.c **** // This variable is modified from ISR context, so it must be protected by critical section
  59:lib/TinyUSB/src/portable/synopsys/dwc2/dcd_dwc2.c **** static xfer_ctl_t xfer_status[DWC2_EP_MAX][2];
  60:lib/TinyUSB/src/portable/synopsys/dwc2/dcd_dwc2.c **** #define XFER_CTL_BASE(_ep, _dir) (&xfer_status[_ep][_dir])
  61:lib/TinyUSB/src/portable/synopsys/dwc2/dcd_dwc2.c **** 
  62:lib/TinyUSB/src/portable/synopsys/dwc2/dcd_dwc2.c **** typedef struct {
  63:lib/TinyUSB/src/portable/synopsys/dwc2/dcd_dwc2.c ****   // EP0 transfers are limited to 1 packet - larger sizes has to be split
  64:lib/TinyUSB/src/portable/synopsys/dwc2/dcd_dwc2.c ****   uint16_t ep0_pending[2];  // Index determines direction as tusb_dir_t type
  65:lib/TinyUSB/src/portable/synopsys/dwc2/dcd_dwc2.c ****   uint16_t dfifo_top;      // top free location in DFIFO in words
  66:lib/TinyUSB/src/portable/synopsys/dwc2/dcd_dwc2.c **** 
  67:lib/TinyUSB/src/portable/synopsys/dwc2/dcd_dwc2.c ****   // Number of IN endpoints active
  68:lib/TinyUSB/src/portable/synopsys/dwc2/dcd_dwc2.c ****   uint8_t allocated_epin_count;
  69:lib/TinyUSB/src/portable/synopsys/dwc2/dcd_dwc2.c **** 
  70:lib/TinyUSB/src/portable/synopsys/dwc2/dcd_dwc2.c ****   // SOF enabling flag - required for SOF to not get disabled in ISR when SOF was enabled by
  71:lib/TinyUSB/src/portable/synopsys/dwc2/dcd_dwc2.c ****   bool sof_en;
  72:lib/TinyUSB/src/portable/synopsys/dwc2/dcd_dwc2.c **** } dcd_data_t;
  73:lib/TinyUSB/src/portable/synopsys/dwc2/dcd_dwc2.c **** 
  74:lib/TinyUSB/src/portable/synopsys/dwc2/dcd_dwc2.c **** static dcd_data_t _dcd_data;
  75:lib/TinyUSB/src/portable/synopsys/dwc2/dcd_dwc2.c **** 
  76:lib/TinyUSB/src/portable/synopsys/dwc2/dcd_dwc2.c **** CFG_TUD_MEM_SECTION static struct {
  77:lib/TinyUSB/src/portable/synopsys/dwc2/dcd_dwc2.c ****   TUD_EPBUF_DEF(setup_packet, 8);
  78:lib/TinyUSB/src/portable/synopsys/dwc2/dcd_dwc2.c **** } _dcd_usbbuf;
  79:lib/TinyUSB/src/portable/synopsys/dwc2/dcd_dwc2.c **** 
  80:lib/TinyUSB/src/portable/synopsys/dwc2/dcd_dwc2.c **** static tud_configure_dwc2_t _tud_cfg = {
  81:lib/TinyUSB/src/portable/synopsys/dwc2/dcd_dwc2.c ****   .bm_double_buffered = 0
  82:lib/TinyUSB/src/portable/synopsys/dwc2/dcd_dwc2.c **** };
  83:lib/TinyUSB/src/portable/synopsys/dwc2/dcd_dwc2.c **** 
  84:lib/TinyUSB/src/portable/synopsys/dwc2/dcd_dwc2.c **** TU_ATTR_ALWAYS_INLINE static inline uint8_t dwc2_ep_count(const dwc2_regs_t* dwc2) {
  85:lib/TinyUSB/src/portable/synopsys/dwc2/dcd_dwc2.c ****   #if TU_CHECK_MCU(OPT_MCU_GD32VF103)
  86:lib/TinyUSB/src/portable/synopsys/dwc2/dcd_dwc2.c ****   (void) dwc2;
  87:lib/TinyUSB/src/portable/synopsys/dwc2/dcd_dwc2.c ****   return DWC2_EP_MAX;
ARM GAS  C:\Users\krisa\AppData\Local\Temp\ccNljk5K.s 			page 3


  88:lib/TinyUSB/src/portable/synopsys/dwc2/dcd_dwc2.c ****   #else
  89:lib/TinyUSB/src/portable/synopsys/dwc2/dcd_dwc2.c ****   const dwc2_ghwcfg2_t ghwcfg2 = {.value = dwc2->ghwcfg2};
  90:lib/TinyUSB/src/portable/synopsys/dwc2/dcd_dwc2.c ****   return ghwcfg2.num_dev_ep + 1;
  91:lib/TinyUSB/src/portable/synopsys/dwc2/dcd_dwc2.c ****   #endif
  92:lib/TinyUSB/src/portable/synopsys/dwc2/dcd_dwc2.c **** }
  93:lib/TinyUSB/src/portable/synopsys/dwc2/dcd_dwc2.c **** 
  94:lib/TinyUSB/src/portable/synopsys/dwc2/dcd_dwc2.c **** //--------------------------------------------------------------------+
  95:lib/TinyUSB/src/portable/synopsys/dwc2/dcd_dwc2.c **** //
  96:lib/TinyUSB/src/portable/synopsys/dwc2/dcd_dwc2.c **** //--------------------------------------------------------------------+
  97:lib/TinyUSB/src/portable/synopsys/dwc2/dcd_dwc2.c **** TU_ATTR_ALWAYS_INLINE static inline bool edpt_is_enabled(dwc2_dep_t* dep) {
  98:lib/TinyUSB/src/portable/synopsys/dwc2/dcd_dwc2.c ****   return (dep->ctl & EPCTL_EPENA) != 0;
  99:lib/TinyUSB/src/portable/synopsys/dwc2/dcd_dwc2.c **** }
 100:lib/TinyUSB/src/portable/synopsys/dwc2/dcd_dwc2.c **** 
 101:lib/TinyUSB/src/portable/synopsys/dwc2/dcd_dwc2.c **** //--------------------------------------------------------------------
 102:lib/TinyUSB/src/portable/synopsys/dwc2/dcd_dwc2.c **** // DMA
 103:lib/TinyUSB/src/portable/synopsys/dwc2/dcd_dwc2.c **** //--------------------------------------------------------------------
 104:lib/TinyUSB/src/portable/synopsys/dwc2/dcd_dwc2.c **** #if CFG_TUD_MEM_DCACHE_ENABLE
 105:lib/TinyUSB/src/portable/synopsys/dwc2/dcd_dwc2.c **** bool dcd_dcache_clean(const void* addr, uint32_t data_size) {
 106:lib/TinyUSB/src/portable/synopsys/dwc2/dcd_dwc2.c ****   TU_VERIFY(addr && data_size);
 107:lib/TinyUSB/src/portable/synopsys/dwc2/dcd_dwc2.c ****   return dwc2_dcache_clean(addr, data_size);
 108:lib/TinyUSB/src/portable/synopsys/dwc2/dcd_dwc2.c **** }
 109:lib/TinyUSB/src/portable/synopsys/dwc2/dcd_dwc2.c **** 
 110:lib/TinyUSB/src/portable/synopsys/dwc2/dcd_dwc2.c **** bool dcd_dcache_invalidate(const void* addr, uint32_t data_size) {
 111:lib/TinyUSB/src/portable/synopsys/dwc2/dcd_dwc2.c ****   TU_VERIFY(addr && data_size);
 112:lib/TinyUSB/src/portable/synopsys/dwc2/dcd_dwc2.c ****   return dwc2_dcache_invalidate(addr, data_size);
 113:lib/TinyUSB/src/portable/synopsys/dwc2/dcd_dwc2.c **** }
 114:lib/TinyUSB/src/portable/synopsys/dwc2/dcd_dwc2.c **** 
 115:lib/TinyUSB/src/portable/synopsys/dwc2/dcd_dwc2.c **** bool dcd_dcache_clean_invalidate(const void* addr, uint32_t data_size) {
 116:lib/TinyUSB/src/portable/synopsys/dwc2/dcd_dwc2.c ****   TU_VERIFY(addr && data_size);
 117:lib/TinyUSB/src/portable/synopsys/dwc2/dcd_dwc2.c ****   return dwc2_dcache_clean_invalidate(addr, data_size);
 118:lib/TinyUSB/src/portable/synopsys/dwc2/dcd_dwc2.c **** }
 119:lib/TinyUSB/src/portable/synopsys/dwc2/dcd_dwc2.c **** #endif
 120:lib/TinyUSB/src/portable/synopsys/dwc2/dcd_dwc2.c **** 
 121:lib/TinyUSB/src/portable/synopsys/dwc2/dcd_dwc2.c **** TU_ATTR_ALWAYS_INLINE static inline bool dma_device_enabled(const dwc2_regs_t* dwc2) {
 122:lib/TinyUSB/src/portable/synopsys/dwc2/dcd_dwc2.c ****   (void) dwc2;
 123:lib/TinyUSB/src/portable/synopsys/dwc2/dcd_dwc2.c ****   // Internal DMA only
 124:lib/TinyUSB/src/portable/synopsys/dwc2/dcd_dwc2.c ****   const dwc2_ghwcfg2_t ghwcfg2 = {.value = dwc2->ghwcfg2};
 125:lib/TinyUSB/src/portable/synopsys/dwc2/dcd_dwc2.c ****   return CFG_TUD_DWC2_DMA_ENABLE && ghwcfg2.arch == GHWCFG2_ARCH_INTERNAL_DMA;
 126:lib/TinyUSB/src/portable/synopsys/dwc2/dcd_dwc2.c **** }
 127:lib/TinyUSB/src/portable/synopsys/dwc2/dcd_dwc2.c **** 
 128:lib/TinyUSB/src/portable/synopsys/dwc2/dcd_dwc2.c **** static void dma_setup_prepare(uint8_t rhport) {
 129:lib/TinyUSB/src/portable/synopsys/dwc2/dcd_dwc2.c ****   dwc2_regs_t* dwc2 = DWC2_REG(rhport);
 130:lib/TinyUSB/src/portable/synopsys/dwc2/dcd_dwc2.c **** 
 131:lib/TinyUSB/src/portable/synopsys/dwc2/dcd_dwc2.c ****   if (dwc2->gsnpsid >= DWC2_CORE_REV_3_00a) {
 132:lib/TinyUSB/src/portable/synopsys/dwc2/dcd_dwc2.c ****     if(edpt_is_enabled(&dwc2->epout[0])) {
 133:lib/TinyUSB/src/portable/synopsys/dwc2/dcd_dwc2.c ****       return;
 134:lib/TinyUSB/src/portable/synopsys/dwc2/dcd_dwc2.c ****     }
 135:lib/TinyUSB/src/portable/synopsys/dwc2/dcd_dwc2.c ****   }
 136:lib/TinyUSB/src/portable/synopsys/dwc2/dcd_dwc2.c **** 
 137:lib/TinyUSB/src/portable/synopsys/dwc2/dcd_dwc2.c ****   // Receive only 1 packet
 138:lib/TinyUSB/src/portable/synopsys/dwc2/dcd_dwc2.c ****   dwc2->epout[0].doeptsiz = (1 << DOEPTSIZ_STUPCNT_Pos) | (1 << DOEPTSIZ_PKTCNT_Pos) | (8 << DOEPTS
 139:lib/TinyUSB/src/portable/synopsys/dwc2/dcd_dwc2.c ****   dwc2->epout[0].doepdma = (uintptr_t) _dcd_usbbuf.setup_packet;
 140:lib/TinyUSB/src/portable/synopsys/dwc2/dcd_dwc2.c ****   dwc2->epout[0].doepctl |= DOEPCTL_EPENA | DOEPCTL_USBAEP;
 141:lib/TinyUSB/src/portable/synopsys/dwc2/dcd_dwc2.c **** }
 142:lib/TinyUSB/src/portable/synopsys/dwc2/dcd_dwc2.c **** 
 143:lib/TinyUSB/src/portable/synopsys/dwc2/dcd_dwc2.c **** //--------------------------------------------------------------------+
 144:lib/TinyUSB/src/portable/synopsys/dwc2/dcd_dwc2.c **** // Data FIFO
ARM GAS  C:\Users\krisa\AppData\Local\Temp\ccNljk5K.s 			page 4


 145:lib/TinyUSB/src/portable/synopsys/dwc2/dcd_dwc2.c **** //--------------------------------------------------------------------+
 146:lib/TinyUSB/src/portable/synopsys/dwc2/dcd_dwc2.c **** 
 147:lib/TinyUSB/src/portable/synopsys/dwc2/dcd_dwc2.c **** 
 148:lib/TinyUSB/src/portable/synopsys/dwc2/dcd_dwc2.c **** /* Device Data FIFO scheme
 149:lib/TinyUSB/src/portable/synopsys/dwc2/dcd_dwc2.c **** 
 150:lib/TinyUSB/src/portable/synopsys/dwc2/dcd_dwc2.c ****   The FIFO is split up into
 151:lib/TinyUSB/src/portable/synopsys/dwc2/dcd_dwc2.c ****   - EPInfo: for storing DMA metadata, only required when use DMA. Maximum size is called
 152:lib/TinyUSB/src/portable/synopsys/dwc2/dcd_dwc2.c ****     EP_LOC_CNT = ep_fifo_size - ghwcfg3.dfifo_depth. For value less than EP_LOC_CNT, gdfifocfg must
 153:lib/TinyUSB/src/portable/synopsys/dwc2/dcd_dwc2.c ****     gahbcfg.dmaen is set
 154:lib/TinyUSB/src/portable/synopsys/dwc2/dcd_dwc2.c ****       - Buffer mode: 1 word per endpoint direction
 155:lib/TinyUSB/src/portable/synopsys/dwc2/dcd_dwc2.c ****       - Scatter/Gather DMA: 4 words per endpoint direction
 156:lib/TinyUSB/src/portable/synopsys/dwc2/dcd_dwc2.c ****   - TX FIFO: one fifo for each IN endpoint. Size is dynamic depending on packet size, starting from
 157:lib/TinyUSB/src/portable/synopsys/dwc2/dcd_dwc2.c ****   - Shared RX FIFO: a shared fifo for all OUT endpoints. Typically, can hold up to 2 packets of the
 158:lib/TinyUSB/src/portable/synopsys/dwc2/dcd_dwc2.c **** 
 159:lib/TinyUSB/src/portable/synopsys/dwc2/dcd_dwc2.c ****   We allocated TX FIFO from top to bottom (using top pointer), this to allow the RX FIFO to grow dy
 160:lib/TinyUSB/src/portable/synopsys/dwc2/dcd_dwc2.c ****   possible since the free space is located between the RX and TX FIFOs.
 161:lib/TinyUSB/src/portable/synopsys/dwc2/dcd_dwc2.c **** 
 162:lib/TinyUSB/src/portable/synopsys/dwc2/dcd_dwc2.c ****    ---------------- ep_fifo_size
 163:lib/TinyUSB/src/portable/synopsys/dwc2/dcd_dwc2.c ****   |  DxEPIDMAn  |
 164:lib/TinyUSB/src/portable/synopsys/dwc2/dcd_dwc2.c ****   |-------------|-- gdfifocfg.EPINFOBASE (max is ghwcfg3.dfifo_depth)
 165:lib/TinyUSB/src/portable/synopsys/dwc2/dcd_dwc2.c ****   | IN FIFO 0   |       control EP
 166:lib/TinyUSB/src/portable/synopsys/dwc2/dcd_dwc2.c ****   |-------------|
 167:lib/TinyUSB/src/portable/synopsys/dwc2/dcd_dwc2.c ****   | IN FIFO 1   |
 168:lib/TinyUSB/src/portable/synopsys/dwc2/dcd_dwc2.c ****   |-------------|
 169:lib/TinyUSB/src/portable/synopsys/dwc2/dcd_dwc2.c ****   |   . . . .   |
 170:lib/TinyUSB/src/portable/synopsys/dwc2/dcd_dwc2.c ****   |-------------|
 171:lib/TinyUSB/src/portable/synopsys/dwc2/dcd_dwc2.c ****   | IN FIFO n   |
 172:lib/TinyUSB/src/portable/synopsys/dwc2/dcd_dwc2.c ****   |-------------|
 173:lib/TinyUSB/src/portable/synopsys/dwc2/dcd_dwc2.c ****   |    FREE     |
 174:lib/TinyUSB/src/portable/synopsys/dwc2/dcd_dwc2.c ****   |-------------|-- GRXFSIZ (expandable)
 175:lib/TinyUSB/src/portable/synopsys/dwc2/dcd_dwc2.c ****   |  OUT FIFO   |
 176:lib/TinyUSB/src/portable/synopsys/dwc2/dcd_dwc2.c ****   | ( Shared )  |
 177:lib/TinyUSB/src/portable/synopsys/dwc2/dcd_dwc2.c ****   --------------- 0
 178:lib/TinyUSB/src/portable/synopsys/dwc2/dcd_dwc2.c **** 
 179:lib/TinyUSB/src/portable/synopsys/dwc2/dcd_dwc2.c ****   According to "FIFO RAM allocation" section in RM, FIFO RAM are allocated as follows (each word 32
 180:lib/TinyUSB/src/portable/synopsys/dwc2/dcd_dwc2.c ****   - Each EP IN needs at least max packet size
 181:lib/TinyUSB/src/portable/synopsys/dwc2/dcd_dwc2.c ****   - All EP OUT shared a unique OUT FIFO which uses (for Slave or Buffer DMA, Scatt/Gather DMA use d
 182:lib/TinyUSB/src/portable/synopsys/dwc2/dcd_dwc2.c ****     - 13 for setup packets + control words (up to 3 setup packets).
 183:lib/TinyUSB/src/portable/synopsys/dwc2/dcd_dwc2.c ****     - 1 for global NAK (not required/used here).
 184:lib/TinyUSB/src/portable/synopsys/dwc2/dcd_dwc2.c ****     - Largest-EPsize/4 + 1. (FS: 64 bytes, HS: 512 bytes). Recommended is  "2 x (Largest-EPsize/4 +
 185:lib/TinyUSB/src/portable/synopsys/dwc2/dcd_dwc2.c ****     - 2 for each used OUT endpoint
 186:lib/TinyUSB/src/portable/synopsys/dwc2/dcd_dwc2.c **** 
 187:lib/TinyUSB/src/portable/synopsys/dwc2/dcd_dwc2.c ****     Therefore GRXFSIZ = 13 + 1 + 2 x (Largest-EPsize/4 + 1) + 2 x EPOUTnum
 188:lib/TinyUSB/src/portable/synopsys/dwc2/dcd_dwc2.c **** */
 189:lib/TinyUSB/src/portable/synopsys/dwc2/dcd_dwc2.c **** 
 190:lib/TinyUSB/src/portable/synopsys/dwc2/dcd_dwc2.c **** TU_ATTR_ALWAYS_INLINE static inline uint16_t calc_device_grxfsiz(uint16_t largest_ep_size, uint8_t 
 191:lib/TinyUSB/src/portable/synopsys/dwc2/dcd_dwc2.c ****   return 13 + 1 + 2 * ((largest_ep_size / 4) + 1) + 2 * ep_count;
 192:lib/TinyUSB/src/portable/synopsys/dwc2/dcd_dwc2.c **** }
 193:lib/TinyUSB/src/portable/synopsys/dwc2/dcd_dwc2.c **** 
 194:lib/TinyUSB/src/portable/synopsys/dwc2/dcd_dwc2.c **** static bool dfifo_alloc(uint8_t rhport, uint8_t ep_addr, uint16_t packet_size, bool is_bulk) {
  29              		.loc 1 194 94 view -0
  30              		.cfi_startproc
  31              		@ args = 0, pretend = 0, frame = 0
  32              		@ frame_needed = 0, uses_anonymous_args = 0
  33              		@ link register save eliminated.
  34              		.loc 1 194 94 is_stmt 0 view .LVU1
  35 0000 70B4     		push	{r4, r5, r6}
ARM GAS  C:\Users\krisa\AppData\Local\Temp\ccNljk5K.s 			page 5


  36              	.LCFI0:
  37              		.cfi_def_cfa_offset 12
  38              		.cfi_offset 4, -12
  39              		.cfi_offset 5, -8
  40              		.cfi_offset 6, -4
 195:lib/TinyUSB/src/portable/synopsys/dwc2/dcd_dwc2.c ****   dwc2_regs_t* dwc2 = DWC2_REG(rhport);
  41              		.loc 1 195 3 is_stmt 1 view .LVU2
  42              	.LVL1:
  43              	.LBB202:
  44              	.LBI202:
  45              		.file 2 "lib/TinyUSB/src/portable/synopsys/dwc2/dwc2_common.h"
   1:lib/TinyUSB/src/portable/synopsys/dwc2/dwc2_common.h **** /*
   2:lib/TinyUSB/src/portable/synopsys/dwc2/dwc2_common.h **** * The MIT License (MIT)
   3:lib/TinyUSB/src/portable/synopsys/dwc2/dwc2_common.h ****  *
   4:lib/TinyUSB/src/portable/synopsys/dwc2/dwc2_common.h ****  * Copyright (c) 2024 Ha Thach (tinyusb.org)
   5:lib/TinyUSB/src/portable/synopsys/dwc2/dwc2_common.h ****  *
   6:lib/TinyUSB/src/portable/synopsys/dwc2/dwc2_common.h ****  * Permission is hereby granted, free of charge, to any person obtaining a copy
   7:lib/TinyUSB/src/portable/synopsys/dwc2/dwc2_common.h ****  * of this software and associated documentation files (the "Software"), to deal
   8:lib/TinyUSB/src/portable/synopsys/dwc2/dwc2_common.h ****  * in the Software without restriction, including without limitation the rights
   9:lib/TinyUSB/src/portable/synopsys/dwc2/dwc2_common.h ****  * to use, copy, modify, merge, publish, distribute, sublicense, and/or sell
  10:lib/TinyUSB/src/portable/synopsys/dwc2/dwc2_common.h ****  * copies of the Software, and to permit persons to whom the Software is
  11:lib/TinyUSB/src/portable/synopsys/dwc2/dwc2_common.h ****  * furnished to do so, subject to the following conditions:
  12:lib/TinyUSB/src/portable/synopsys/dwc2/dwc2_common.h ****  *
  13:lib/TinyUSB/src/portable/synopsys/dwc2/dwc2_common.h ****  * The above copyright notice and this permission notice shall be included in
  14:lib/TinyUSB/src/portable/synopsys/dwc2/dwc2_common.h ****  * all copies or substantial portions of the Software.
  15:lib/TinyUSB/src/portable/synopsys/dwc2/dwc2_common.h ****  *
  16:lib/TinyUSB/src/portable/synopsys/dwc2/dwc2_common.h ****  * THE SOFTWARE IS PROVIDED "AS IS", WITHOUT WARRANTY OF ANY KIND, EXPRESS OR
  17:lib/TinyUSB/src/portable/synopsys/dwc2/dwc2_common.h ****  * IMPLIED, INCLUDING BUT NOT LIMITED TO THE WARRANTIES OF MERCHANTABILITY,
  18:lib/TinyUSB/src/portable/synopsys/dwc2/dwc2_common.h ****  * FITNESS FOR A PARTICULAR PURPOSE AND NONINFRINGEMENT. IN NO EVENT SHALL THE
  19:lib/TinyUSB/src/portable/synopsys/dwc2/dwc2_common.h ****  * AUTHORS OR COPYRIGHT HOLDERS BE LIABLE FOR ANY CLAIM, DAMAGES OR OTHER
  20:lib/TinyUSB/src/portable/synopsys/dwc2/dwc2_common.h ****  * LIABILITY, WHETHER IN AN ACTION OF CONTRACT, TORT OR OTHERWISE, ARISING FROM,
  21:lib/TinyUSB/src/portable/synopsys/dwc2/dwc2_common.h ****  * OUT OF OR IN CONNECTION WITH THE SOFTWARE OR THE USE OR OTHER DEALINGS IN
  22:lib/TinyUSB/src/portable/synopsys/dwc2/dwc2_common.h ****  * THE SOFTWARE.
  23:lib/TinyUSB/src/portable/synopsys/dwc2/dwc2_common.h ****  *
  24:lib/TinyUSB/src/portable/synopsys/dwc2/dwc2_common.h ****  * This file is part of the TinyUSB stack.
  25:lib/TinyUSB/src/portable/synopsys/dwc2/dwc2_common.h ****  */
  26:lib/TinyUSB/src/portable/synopsys/dwc2/dwc2_common.h **** 
  27:lib/TinyUSB/src/portable/synopsys/dwc2/dwc2_common.h **** #ifndef TUSB_DWC2_COMMON_H
  28:lib/TinyUSB/src/portable/synopsys/dwc2/dwc2_common.h **** #define TUSB_DWC2_COMMON_H
  29:lib/TinyUSB/src/portable/synopsys/dwc2/dwc2_common.h **** 
  30:lib/TinyUSB/src/portable/synopsys/dwc2/dwc2_common.h **** #include "common/tusb_common.h"
  31:lib/TinyUSB/src/portable/synopsys/dwc2/dwc2_common.h **** #include "dwc2_type.h"
  32:lib/TinyUSB/src/portable/synopsys/dwc2/dwc2_common.h **** 
  33:lib/TinyUSB/src/portable/synopsys/dwc2/dwc2_common.h **** #if CFG_TUD_ENABLED
  34:lib/TinyUSB/src/portable/synopsys/dwc2/dwc2_common.h **** #include "device/dcd.h"
  35:lib/TinyUSB/src/portable/synopsys/dwc2/dwc2_common.h **** #endif
  36:lib/TinyUSB/src/portable/synopsys/dwc2/dwc2_common.h **** 
  37:lib/TinyUSB/src/portable/synopsys/dwc2/dwc2_common.h **** #if CFG_TUH_ENABLED
  38:lib/TinyUSB/src/portable/synopsys/dwc2/dwc2_common.h **** #include "host/hcd.h"
  39:lib/TinyUSB/src/portable/synopsys/dwc2/dwc2_common.h **** #endif
  40:lib/TinyUSB/src/portable/synopsys/dwc2/dwc2_common.h **** 
  41:lib/TinyUSB/src/portable/synopsys/dwc2/dwc2_common.h **** // Following symbols must be defined by port header
  42:lib/TinyUSB/src/portable/synopsys/dwc2/dwc2_common.h **** // - _dwc2_controller[]: array of controllers
  43:lib/TinyUSB/src/portable/synopsys/dwc2/dwc2_common.h **** // - DWC2_EP_MAX: largest EP counts of all controllers
  44:lib/TinyUSB/src/portable/synopsys/dwc2/dwc2_common.h **** // - dwc2_phy_init/dwc2_phy_update: phy init called before and after core reset
  45:lib/TinyUSB/src/portable/synopsys/dwc2/dwc2_common.h **** // - dwc2_dcd_int_enable/dwc2_dcd_int_disable
  46:lib/TinyUSB/src/portable/synopsys/dwc2/dwc2_common.h **** // - dwc2_remote_wakeup_delay
ARM GAS  C:\Users\krisa\AppData\Local\Temp\ccNljk5K.s 			page 6


  47:lib/TinyUSB/src/portable/synopsys/dwc2/dwc2_common.h **** 
  48:lib/TinyUSB/src/portable/synopsys/dwc2/dwc2_common.h **** #if defined(TUP_USBIP_DWC2_STM32)
  49:lib/TinyUSB/src/portable/synopsys/dwc2/dwc2_common.h ****   #include "dwc2_stm32.h"
  50:lib/TinyUSB/src/portable/synopsys/dwc2/dwc2_common.h **** #elif defined(TUP_USBIP_DWC2_ESP32)
  51:lib/TinyUSB/src/portable/synopsys/dwc2/dwc2_common.h ****   #include "dwc2_esp32.h"
  52:lib/TinyUSB/src/portable/synopsys/dwc2/dwc2_common.h **** #elif TU_CHECK_MCU(OPT_MCU_GD32VF103)
  53:lib/TinyUSB/src/portable/synopsys/dwc2/dwc2_common.h ****   #include "dwc2_gd32.h"
  54:lib/TinyUSB/src/portable/synopsys/dwc2/dwc2_common.h **** #elif TU_CHECK_MCU(OPT_MCU_BCM2711, OPT_MCU_BCM2835, OPT_MCU_BCM2837)
  55:lib/TinyUSB/src/portable/synopsys/dwc2/dwc2_common.h ****   #include "dwc2_bcm.h"
  56:lib/TinyUSB/src/portable/synopsys/dwc2/dwc2_common.h **** #elif TU_CHECK_MCU(OPT_MCU_EFM32GG)
  57:lib/TinyUSB/src/portable/synopsys/dwc2/dwc2_common.h ****   #include "dwc2_efm32.h"
  58:lib/TinyUSB/src/portable/synopsys/dwc2/dwc2_common.h **** #elif TU_CHECK_MCU(OPT_MCU_XMC4000)
  59:lib/TinyUSB/src/portable/synopsys/dwc2/dwc2_common.h ****   #include "dwc2_xmc.h"
  60:lib/TinyUSB/src/portable/synopsys/dwc2/dwc2_common.h **** #elif defined(TUP_USBIP_DWC2_AT32)
  61:lib/TinyUSB/src/portable/synopsys/dwc2/dwc2_common.h ****   #include "dwc2_at32.h"
  62:lib/TinyUSB/src/portable/synopsys/dwc2/dwc2_common.h **** #elif defined(TUP_USBIP_DWC2_NRF)
  63:lib/TinyUSB/src/portable/synopsys/dwc2/dwc2_common.h ****   #include "dwc2_nrf.h"
  64:lib/TinyUSB/src/portable/synopsys/dwc2/dwc2_common.h **** #else
  65:lib/TinyUSB/src/portable/synopsys/dwc2/dwc2_common.h ****   #error "Unsupported MCUs"
  66:lib/TinyUSB/src/portable/synopsys/dwc2/dwc2_common.h **** #endif
  67:lib/TinyUSB/src/portable/synopsys/dwc2/dwc2_common.h **** 
  68:lib/TinyUSB/src/portable/synopsys/dwc2/dwc2_common.h **** enum {
  69:lib/TinyUSB/src/portable/synopsys/dwc2/dwc2_common.h ****   DWC2_CONTROLLER_COUNT = TU_ARRAY_SIZE(_dwc2_controller)
  70:lib/TinyUSB/src/portable/synopsys/dwc2/dwc2_common.h **** };
  71:lib/TinyUSB/src/portable/synopsys/dwc2/dwc2_common.h **** 
  72:lib/TinyUSB/src/portable/synopsys/dwc2/dwc2_common.h **** enum {
  73:lib/TinyUSB/src/portable/synopsys/dwc2/dwc2_common.h ****   OTG_INT_COMMON = 0 // GINTSTS_DISCINT | GINTSTS_CONIDSTSCHNG
  74:lib/TinyUSB/src/portable/synopsys/dwc2/dwc2_common.h **** };
  75:lib/TinyUSB/src/portable/synopsys/dwc2/dwc2_common.h **** 
  76:lib/TinyUSB/src/portable/synopsys/dwc2/dwc2_common.h **** //--------------------------------------------------------------------+
  77:lib/TinyUSB/src/portable/synopsys/dwc2/dwc2_common.h **** // Core/Controller
  78:lib/TinyUSB/src/portable/synopsys/dwc2/dwc2_common.h **** //--------------------------------------------------------------------+
  79:lib/TinyUSB/src/portable/synopsys/dwc2/dwc2_common.h **** TU_ATTR_ALWAYS_INLINE static inline dwc2_regs_t* DWC2_REG(uint8_t rhport) {
  46              		.loc 2 79 50 view .LVU3
  47              	.LBB203:
  80:lib/TinyUSB/src/portable/synopsys/dwc2/dwc2_common.h ****   if (rhport >= DWC2_CONTROLLER_COUNT) {
  48              		.loc 2 80 3 view .LVU4
  49              		.loc 2 80 6 is_stmt 0 view .LVU5
  50 0002 0128     		cmp	r0, #1
  51 0004 21D9     		bls	.L19
  81:lib/TinyUSB/src/portable/synopsys/dwc2/dwc2_common.h ****     // user mis-configured, ignore and use first controller
  82:lib/TinyUSB/src/portable/synopsys/dwc2/dwc2_common.h ****     rhport = 0;
  52              		.loc 2 82 12 view .LVU6
  53 0006 4FF0000C 		mov	ip, #0
  54              	.L2:
  55              	.LVL2:
  83:lib/TinyUSB/src/portable/synopsys/dwc2/dwc2_common.h ****   }
  84:lib/TinyUSB/src/portable/synopsys/dwc2/dwc2_common.h ****   return (dwc2_regs_t*)_dwc2_controller[rhport].reg_base;
  56              		.loc 2 84 3 is_stmt 1 view .LVU7
  57              		.loc 2 84 48 is_stmt 0 view .LVU8
  58 000a 3E4C     		ldr	r4, .L24
  59 000c 4FEA0C1C 		lsl	ip, ip, #4
  60              	.LVL3:
  61              		.loc 2 84 48 view .LVU9
  62 0010 54F80C60 		ldr	r6, [r4, ip]
  63              	.LVL4:
  64              		.loc 2 84 48 view .LVU10
ARM GAS  C:\Users\krisa\AppData\Local\Temp\ccNljk5K.s 			page 7


  65              	.LBE203:
  66              	.LBE202:
 196:lib/TinyUSB/src/portable/synopsys/dwc2/dcd_dwc2.c ****   const dwc2_controller_t* dwc2_controller = &_dwc2_controller[rhport];
  67              		.loc 1 196 3 is_stmt 1 view .LVU11
 197:lib/TinyUSB/src/portable/synopsys/dwc2/dcd_dwc2.c ****   const uint8_t ep_count = dwc2_controller->ep_count;
  68              		.loc 1 197 3 view .LVU12
  69              		.loc 1 197 17 is_stmt 0 view .LVU13
  70 0014 04EB0014 		add	r4, r4, r0, lsl #4
  71 0018 247A     		ldrb	r4, [r4, #8]	@ zero_extendqisi2
  72              	.LVL5:
 198:lib/TinyUSB/src/portable/synopsys/dwc2/dcd_dwc2.c ****   const uint8_t epnum = tu_edpt_number(ep_addr);
  73              		.loc 1 198 3 is_stmt 1 view .LVU14
  74              	.LBB205:
  75              	.LBI205:
  76              		.file 3 "lib/TinyUSB/src/common/tusb_types.h"
   1:lib/TinyUSB/src/common/tusb_types.h **** /*
   2:lib/TinyUSB/src/common/tusb_types.h ****  * The MIT License (MIT)
   3:lib/TinyUSB/src/common/tusb_types.h ****  *
   4:lib/TinyUSB/src/common/tusb_types.h ****  * Copyright (c) 2019 Ha Thach (tinyusb.org)
   5:lib/TinyUSB/src/common/tusb_types.h ****  *
   6:lib/TinyUSB/src/common/tusb_types.h ****  * Permission is hereby granted, free of charge, to any person obtaining a copy
   7:lib/TinyUSB/src/common/tusb_types.h ****  * of this software and associated documentation files (the "Software"), to deal
   8:lib/TinyUSB/src/common/tusb_types.h ****  * in the Software without restriction, including without limitation the rights
   9:lib/TinyUSB/src/common/tusb_types.h ****  * to use, copy, modify, merge, publish, distribute, sublicense, and/or sell
  10:lib/TinyUSB/src/common/tusb_types.h ****  * copies of the Software, and to permit persons to whom the Software is
  11:lib/TinyUSB/src/common/tusb_types.h ****  * furnished to do so, subject to the following conditions:
  12:lib/TinyUSB/src/common/tusb_types.h ****  *
  13:lib/TinyUSB/src/common/tusb_types.h ****  * The above copyright notice and this permission notice shall be included in
  14:lib/TinyUSB/src/common/tusb_types.h ****  * all copies or substantial portions of the Software.
  15:lib/TinyUSB/src/common/tusb_types.h ****  *
  16:lib/TinyUSB/src/common/tusb_types.h ****  * THE SOFTWARE IS PROVIDED "AS IS", WITHOUT WARRANTY OF ANY KIND, EXPRESS OR
  17:lib/TinyUSB/src/common/tusb_types.h ****  * IMPLIED, INCLUDING BUT NOT LIMITED TO THE WARRANTIES OF MERCHANTABILITY,
  18:lib/TinyUSB/src/common/tusb_types.h ****  * FITNESS FOR A PARTICULAR PURPOSE AND NONINFRINGEMENT. IN NO EVENT SHALL THE
  19:lib/TinyUSB/src/common/tusb_types.h ****  * AUTHORS OR COPYRIGHT HOLDERS BE LIABLE FOR ANY CLAIM, DAMAGES OR OTHER
  20:lib/TinyUSB/src/common/tusb_types.h ****  * LIABILITY, WHETHER IN AN ACTION OF CONTRACT, TORT OR OTHERWISE, ARISING FROM,
  21:lib/TinyUSB/src/common/tusb_types.h ****  * OUT OF OR IN CONNECTION WITH THE SOFTWARE OR THE USE OR OTHER DEALINGS IN
  22:lib/TinyUSB/src/common/tusb_types.h ****  * THE SOFTWARE.
  23:lib/TinyUSB/src/common/tusb_types.h ****  *
  24:lib/TinyUSB/src/common/tusb_types.h ****  * This file is part of the TinyUSB stack.
  25:lib/TinyUSB/src/common/tusb_types.h ****  */
  26:lib/TinyUSB/src/common/tusb_types.h **** 
  27:lib/TinyUSB/src/common/tusb_types.h **** #ifndef TUSB_TYPES_H_
  28:lib/TinyUSB/src/common/tusb_types.h **** #define TUSB_TYPES_H_
  29:lib/TinyUSB/src/common/tusb_types.h **** 
  30:lib/TinyUSB/src/common/tusb_types.h **** #include <stdbool.h>
  31:lib/TinyUSB/src/common/tusb_types.h **** #include <stdint.h>
  32:lib/TinyUSB/src/common/tusb_types.h **** #include "tusb_compiler.h"
  33:lib/TinyUSB/src/common/tusb_types.h **** 
  34:lib/TinyUSB/src/common/tusb_types.h **** #ifdef __cplusplus
  35:lib/TinyUSB/src/common/tusb_types.h ****  extern "C" {
  36:lib/TinyUSB/src/common/tusb_types.h **** #endif
  37:lib/TinyUSB/src/common/tusb_types.h **** 
  38:lib/TinyUSB/src/common/tusb_types.h **** //------------- Device DCache declaration -------------//
  39:lib/TinyUSB/src/common/tusb_types.h **** #define TUD_EPBUF_DCACHE_SIZE(_size) (CFG_TUD_MEM_DCACHE_ENABLE ? \
  40:lib/TinyUSB/src/common/tusb_types.h ****   (TU_DIV_CEIL(_size, CFG_TUD_MEM_DCACHE_LINE_SIZE) * CFG_TUD_MEM_DCACHE_LINE_SIZE) : (_size))
  41:lib/TinyUSB/src/common/tusb_types.h **** 
  42:lib/TinyUSB/src/common/tusb_types.h **** // Declare an endpoint buffer with uint8_t[size]
ARM GAS  C:\Users\krisa\AppData\Local\Temp\ccNljk5K.s 			page 8


  43:lib/TinyUSB/src/common/tusb_types.h **** #define TUD_EPBUF_DEF(_name, _size) \
  44:lib/TinyUSB/src/common/tusb_types.h ****   union { \
  45:lib/TinyUSB/src/common/tusb_types.h ****     CFG_TUD_MEM_ALIGN uint8_t _name[_size]; \
  46:lib/TinyUSB/src/common/tusb_types.h ****     TU_ATTR_ALIGNED(CFG_TUD_MEM_DCACHE_ENABLE ? CFG_TUD_MEM_DCACHE_LINE_SIZE : 1) uint8_t _name##_d
  47:lib/TinyUSB/src/common/tusb_types.h ****   }
  48:lib/TinyUSB/src/common/tusb_types.h **** 
  49:lib/TinyUSB/src/common/tusb_types.h **** // Declare an endpoint buffer with a type
  50:lib/TinyUSB/src/common/tusb_types.h **** #define TUD_EPBUF_TYPE_DEF(_type, _name) \
  51:lib/TinyUSB/src/common/tusb_types.h ****   union { \
  52:lib/TinyUSB/src/common/tusb_types.h ****     CFG_TUD_MEM_ALIGN _type _name; \
  53:lib/TinyUSB/src/common/tusb_types.h ****     TU_ATTR_ALIGNED(CFG_TUD_MEM_DCACHE_ENABLE ? CFG_TUD_MEM_DCACHE_LINE_SIZE : 1) uint8_t _name##_d
  54:lib/TinyUSB/src/common/tusb_types.h ****   }
  55:lib/TinyUSB/src/common/tusb_types.h **** 
  56:lib/TinyUSB/src/common/tusb_types.h **** //------------- Host DCache declaration -------------//
  57:lib/TinyUSB/src/common/tusb_types.h **** #define TUH_EPBUF_DCACHE_SIZE(_size) (CFG_TUH_MEM_DCACHE_ENABLE ? \
  58:lib/TinyUSB/src/common/tusb_types.h ****   (TU_DIV_CEIL(_size, CFG_TUH_MEM_DCACHE_LINE_SIZE) * CFG_TUH_MEM_DCACHE_LINE_SIZE) : (_size))
  59:lib/TinyUSB/src/common/tusb_types.h **** 
  60:lib/TinyUSB/src/common/tusb_types.h **** // Declare an endpoint buffer with uint8_t[size]
  61:lib/TinyUSB/src/common/tusb_types.h **** #define TUH_EPBUF_DEF(_name, _size) \
  62:lib/TinyUSB/src/common/tusb_types.h ****   union { \
  63:lib/TinyUSB/src/common/tusb_types.h ****     CFG_TUH_MEM_ALIGN uint8_t _name[_size]; \
  64:lib/TinyUSB/src/common/tusb_types.h ****     TU_ATTR_ALIGNED(CFG_TUH_MEM_DCACHE_ENABLE ? CFG_TUH_MEM_DCACHE_LINE_SIZE : 1) uint8_t _name##_d
  65:lib/TinyUSB/src/common/tusb_types.h ****   }
  66:lib/TinyUSB/src/common/tusb_types.h **** 
  67:lib/TinyUSB/src/common/tusb_types.h **** // Declare an endpoint buffer with a type
  68:lib/TinyUSB/src/common/tusb_types.h **** #define TUH_EPBUF_TYPE_DEF(_type, _name) \
  69:lib/TinyUSB/src/common/tusb_types.h ****   union { \
  70:lib/TinyUSB/src/common/tusb_types.h ****     CFG_TUH_MEM_ALIGN _type _name; \
  71:lib/TinyUSB/src/common/tusb_types.h ****     TU_ATTR_ALIGNED(CFG_TUH_MEM_DCACHE_ENABLE ? CFG_TUH_MEM_DCACHE_LINE_SIZE : 1) uint8_t _name##_d
  72:lib/TinyUSB/src/common/tusb_types.h ****   }
  73:lib/TinyUSB/src/common/tusb_types.h **** 
  74:lib/TinyUSB/src/common/tusb_types.h **** 
  75:lib/TinyUSB/src/common/tusb_types.h **** /*------------------------------------------------------------------*/
  76:lib/TinyUSB/src/common/tusb_types.h **** /* CONSTANTS
  77:lib/TinyUSB/src/common/tusb_types.h ****  *------------------------------------------------------------------*/
  78:lib/TinyUSB/src/common/tusb_types.h **** 
  79:lib/TinyUSB/src/common/tusb_types.h **** typedef enum {
  80:lib/TinyUSB/src/common/tusb_types.h ****   TUSB_ROLE_INVALID = 0u,
  81:lib/TinyUSB/src/common/tusb_types.h ****   TUSB_ROLE_DEVICE  = 0x1,
  82:lib/TinyUSB/src/common/tusb_types.h ****   TUSB_ROLE_HOST    = 0x2,
  83:lib/TinyUSB/src/common/tusb_types.h **** } tusb_role_t;
  84:lib/TinyUSB/src/common/tusb_types.h **** 
  85:lib/TinyUSB/src/common/tusb_types.h **** /// defined base on EHCI specs value for Endpoint Speed
  86:lib/TinyUSB/src/common/tusb_types.h **** typedef enum {
  87:lib/TinyUSB/src/common/tusb_types.h ****   TUSB_SPEED_FULL = 0,
  88:lib/TinyUSB/src/common/tusb_types.h ****   TUSB_SPEED_LOW  = 1,
  89:lib/TinyUSB/src/common/tusb_types.h ****   TUSB_SPEED_HIGH = 2,
  90:lib/TinyUSB/src/common/tusb_types.h ****   TUSB_SPEED_AUTO = 0xaa,
  91:lib/TinyUSB/src/common/tusb_types.h ****   TUSB_SPEED_INVALID = 0xff,
  92:lib/TinyUSB/src/common/tusb_types.h **** } tusb_speed_t;
  93:lib/TinyUSB/src/common/tusb_types.h **** 
  94:lib/TinyUSB/src/common/tusb_types.h **** /// defined base on USB Specs Endpoint's bmAttributes
  95:lib/TinyUSB/src/common/tusb_types.h **** typedef enum {
  96:lib/TinyUSB/src/common/tusb_types.h ****   TUSB_XFER_CONTROL     = 0,
  97:lib/TinyUSB/src/common/tusb_types.h ****   TUSB_XFER_ISOCHRONOUS = 1,
  98:lib/TinyUSB/src/common/tusb_types.h ****   TUSB_XFER_BULK        = 2,
  99:lib/TinyUSB/src/common/tusb_types.h ****   TUSB_XFER_INTERRUPT   = 3
ARM GAS  C:\Users\krisa\AppData\Local\Temp\ccNljk5K.s 			page 9


 100:lib/TinyUSB/src/common/tusb_types.h **** } tusb_xfer_type_t;
 101:lib/TinyUSB/src/common/tusb_types.h **** 
 102:lib/TinyUSB/src/common/tusb_types.h **** typedef enum {
 103:lib/TinyUSB/src/common/tusb_types.h ****   TUSB_DIR_OUT = 0,
 104:lib/TinyUSB/src/common/tusb_types.h ****   TUSB_DIR_IN  = 1,
 105:lib/TinyUSB/src/common/tusb_types.h **** 
 106:lib/TinyUSB/src/common/tusb_types.h ****   TUSB_EPNUM_MASK = 0x0F,
 107:lib/TinyUSB/src/common/tusb_types.h ****   TUSB_DIR_IN_MASK = 0x80
 108:lib/TinyUSB/src/common/tusb_types.h **** } tusb_dir_t;
 109:lib/TinyUSB/src/common/tusb_types.h **** 
 110:lib/TinyUSB/src/common/tusb_types.h **** enum {
 111:lib/TinyUSB/src/common/tusb_types.h ****   TUSB_EPSIZE_BULK_FS = 64,
 112:lib/TinyUSB/src/common/tusb_types.h ****   TUSB_EPSIZE_BULK_HS = 512,
 113:lib/TinyUSB/src/common/tusb_types.h **** 
 114:lib/TinyUSB/src/common/tusb_types.h ****   TUSB_EPSIZE_ISO_FS_MAX = 1023,
 115:lib/TinyUSB/src/common/tusb_types.h ****   TUSB_EPSIZE_ISO_HS_MAX = 1024,
 116:lib/TinyUSB/src/common/tusb_types.h **** };
 117:lib/TinyUSB/src/common/tusb_types.h **** 
 118:lib/TinyUSB/src/common/tusb_types.h **** /// Isochronous Endpoint Attributes
 119:lib/TinyUSB/src/common/tusb_types.h **** typedef enum {
 120:lib/TinyUSB/src/common/tusb_types.h ****   TUSB_ISO_EP_ATT_NO_SYNC         = 0x00,
 121:lib/TinyUSB/src/common/tusb_types.h ****   TUSB_ISO_EP_ATT_ASYNCHRONOUS    = 0x04,
 122:lib/TinyUSB/src/common/tusb_types.h ****   TUSB_ISO_EP_ATT_ADAPTIVE        = 0x08,
 123:lib/TinyUSB/src/common/tusb_types.h ****   TUSB_ISO_EP_ATT_SYNCHRONOUS     = 0x0C,
 124:lib/TinyUSB/src/common/tusb_types.h ****   TUSB_ISO_EP_ATT_DATA            = 0x00, ///< Data End Point
 125:lib/TinyUSB/src/common/tusb_types.h ****   TUSB_ISO_EP_ATT_EXPLICIT_FB     = 0x10, ///< Feedback End Point
 126:lib/TinyUSB/src/common/tusb_types.h ****   TUSB_ISO_EP_ATT_IMPLICIT_FB     = 0x20, ///< Data endpoint that also serves as an implicit feedba
 127:lib/TinyUSB/src/common/tusb_types.h **** } tusb_iso_ep_attribute_t;
 128:lib/TinyUSB/src/common/tusb_types.h **** 
 129:lib/TinyUSB/src/common/tusb_types.h **** /// USB Descriptor Types
 130:lib/TinyUSB/src/common/tusb_types.h **** typedef enum {
 131:lib/TinyUSB/src/common/tusb_types.h ****   TUSB_DESC_DEVICE                = 0x01,
 132:lib/TinyUSB/src/common/tusb_types.h ****   TUSB_DESC_CONFIGURATION         = 0x02,
 133:lib/TinyUSB/src/common/tusb_types.h ****   TUSB_DESC_STRING                = 0x03,
 134:lib/TinyUSB/src/common/tusb_types.h ****   TUSB_DESC_INTERFACE             = 0x04,
 135:lib/TinyUSB/src/common/tusb_types.h ****   TUSB_DESC_ENDPOINT              = 0x05,
 136:lib/TinyUSB/src/common/tusb_types.h ****   TUSB_DESC_DEVICE_QUALIFIER      = 0x06,
 137:lib/TinyUSB/src/common/tusb_types.h ****   TUSB_DESC_OTHER_SPEED_CONFIG    = 0x07,
 138:lib/TinyUSB/src/common/tusb_types.h ****   TUSB_DESC_INTERFACE_POWER       = 0x08,
 139:lib/TinyUSB/src/common/tusb_types.h ****   TUSB_DESC_OTG                   = 0x09,
 140:lib/TinyUSB/src/common/tusb_types.h ****   TUSB_DESC_DEBUG                 = 0x0A,
 141:lib/TinyUSB/src/common/tusb_types.h ****   TUSB_DESC_INTERFACE_ASSOCIATION = 0x0B,
 142:lib/TinyUSB/src/common/tusb_types.h **** 
 143:lib/TinyUSB/src/common/tusb_types.h ****   TUSB_DESC_BOS                   = 0x0F,
 144:lib/TinyUSB/src/common/tusb_types.h ****   TUSB_DESC_DEVICE_CAPABILITY     = 0x10,
 145:lib/TinyUSB/src/common/tusb_types.h **** 
 146:lib/TinyUSB/src/common/tusb_types.h ****   TUSB_DESC_FUNCTIONAL            = 0x21,
 147:lib/TinyUSB/src/common/tusb_types.h **** 
 148:lib/TinyUSB/src/common/tusb_types.h ****   // Class Specific Descriptor
 149:lib/TinyUSB/src/common/tusb_types.h ****   TUSB_DESC_CS_DEVICE             = 0x21,
 150:lib/TinyUSB/src/common/tusb_types.h ****   TUSB_DESC_CS_CONFIGURATION      = 0x22,
 151:lib/TinyUSB/src/common/tusb_types.h ****   TUSB_DESC_CS_STRING             = 0x23,
 152:lib/TinyUSB/src/common/tusb_types.h ****   TUSB_DESC_CS_INTERFACE          = 0x24,
 153:lib/TinyUSB/src/common/tusb_types.h ****   TUSB_DESC_CS_ENDPOINT           = 0x25,
 154:lib/TinyUSB/src/common/tusb_types.h **** 
 155:lib/TinyUSB/src/common/tusb_types.h ****   TUSB_DESC_SUPERSPEED_ENDPOINT_COMPANION     = 0x30,
 156:lib/TinyUSB/src/common/tusb_types.h ****   TUSB_DESC_SUPERSPEED_ISO_ENDPOINT_COMPANION = 0x31
ARM GAS  C:\Users\krisa\AppData\Local\Temp\ccNljk5K.s 			page 10


 157:lib/TinyUSB/src/common/tusb_types.h **** } tusb_desc_type_t;
 158:lib/TinyUSB/src/common/tusb_types.h **** 
 159:lib/TinyUSB/src/common/tusb_types.h **** typedef enum {
 160:lib/TinyUSB/src/common/tusb_types.h ****   TUSB_REQ_GET_STATUS        = 0  ,
 161:lib/TinyUSB/src/common/tusb_types.h ****   TUSB_REQ_CLEAR_FEATURE     = 1  ,
 162:lib/TinyUSB/src/common/tusb_types.h ****   TUSB_REQ_RESERVED          = 2  ,
 163:lib/TinyUSB/src/common/tusb_types.h ****   TUSB_REQ_SET_FEATURE       = 3  ,
 164:lib/TinyUSB/src/common/tusb_types.h ****   TUSB_REQ_RESERVED2         = 4  ,
 165:lib/TinyUSB/src/common/tusb_types.h ****   TUSB_REQ_SET_ADDRESS       = 5  ,
 166:lib/TinyUSB/src/common/tusb_types.h ****   TUSB_REQ_GET_DESCRIPTOR    = 6  ,
 167:lib/TinyUSB/src/common/tusb_types.h ****   TUSB_REQ_SET_DESCRIPTOR    = 7  ,
 168:lib/TinyUSB/src/common/tusb_types.h ****   TUSB_REQ_GET_CONFIGURATION = 8  ,
 169:lib/TinyUSB/src/common/tusb_types.h ****   TUSB_REQ_SET_CONFIGURATION = 9  ,
 170:lib/TinyUSB/src/common/tusb_types.h ****   TUSB_REQ_GET_INTERFACE     = 10 ,
 171:lib/TinyUSB/src/common/tusb_types.h ****   TUSB_REQ_SET_INTERFACE     = 11 ,
 172:lib/TinyUSB/src/common/tusb_types.h ****   TUSB_REQ_SYNCH_FRAME       = 12
 173:lib/TinyUSB/src/common/tusb_types.h **** } tusb_request_code_t;
 174:lib/TinyUSB/src/common/tusb_types.h **** 
 175:lib/TinyUSB/src/common/tusb_types.h **** typedef enum {
 176:lib/TinyUSB/src/common/tusb_types.h ****   TUSB_REQ_FEATURE_EDPT_HALT     = 0,
 177:lib/TinyUSB/src/common/tusb_types.h ****   TUSB_REQ_FEATURE_REMOTE_WAKEUP = 1,
 178:lib/TinyUSB/src/common/tusb_types.h ****   TUSB_REQ_FEATURE_TEST_MODE     = 2
 179:lib/TinyUSB/src/common/tusb_types.h **** } tusb_request_feature_selector_t;
 180:lib/TinyUSB/src/common/tusb_types.h **** 
 181:lib/TinyUSB/src/common/tusb_types.h **** typedef enum {
 182:lib/TinyUSB/src/common/tusb_types.h ****   TUSB_REQ_TYPE_STANDARD = 0u,
 183:lib/TinyUSB/src/common/tusb_types.h ****   TUSB_REQ_TYPE_CLASS,
 184:lib/TinyUSB/src/common/tusb_types.h ****   TUSB_REQ_TYPE_VENDOR,
 185:lib/TinyUSB/src/common/tusb_types.h ****   TUSB_REQ_TYPE_INVALID
 186:lib/TinyUSB/src/common/tusb_types.h **** } tusb_request_type_t;
 187:lib/TinyUSB/src/common/tusb_types.h **** 
 188:lib/TinyUSB/src/common/tusb_types.h **** typedef enum {
 189:lib/TinyUSB/src/common/tusb_types.h ****   TUSB_REQ_RCPT_DEVICE =0,
 190:lib/TinyUSB/src/common/tusb_types.h ****   TUSB_REQ_RCPT_INTERFACE,
 191:lib/TinyUSB/src/common/tusb_types.h ****   TUSB_REQ_RCPT_ENDPOINT,
 192:lib/TinyUSB/src/common/tusb_types.h ****   TUSB_REQ_RCPT_OTHER
 193:lib/TinyUSB/src/common/tusb_types.h **** } tusb_request_recipient_t;
 194:lib/TinyUSB/src/common/tusb_types.h **** 
 195:lib/TinyUSB/src/common/tusb_types.h **** // https://www.usb.org/defined-class-codes
 196:lib/TinyUSB/src/common/tusb_types.h **** typedef enum {
 197:lib/TinyUSB/src/common/tusb_types.h ****   TUSB_CLASS_UNSPECIFIED          = 0    ,
 198:lib/TinyUSB/src/common/tusb_types.h ****   TUSB_CLASS_AUDIO                = 1    ,
 199:lib/TinyUSB/src/common/tusb_types.h ****   TUSB_CLASS_CDC                  = 2    ,
 200:lib/TinyUSB/src/common/tusb_types.h ****   TUSB_CLASS_HID                  = 3    ,
 201:lib/TinyUSB/src/common/tusb_types.h ****   TUSB_CLASS_RESERVED_4           = 4    ,
 202:lib/TinyUSB/src/common/tusb_types.h ****   TUSB_CLASS_PHYSICAL             = 5    ,
 203:lib/TinyUSB/src/common/tusb_types.h ****   TUSB_CLASS_IMAGE                = 6    ,
 204:lib/TinyUSB/src/common/tusb_types.h ****   TUSB_CLASS_PRINTER              = 7    ,
 205:lib/TinyUSB/src/common/tusb_types.h ****   TUSB_CLASS_MSC                  = 8    ,
 206:lib/TinyUSB/src/common/tusb_types.h ****   TUSB_CLASS_HUB                  = 9    ,
 207:lib/TinyUSB/src/common/tusb_types.h ****   TUSB_CLASS_CDC_DATA             = 10   ,
 208:lib/TinyUSB/src/common/tusb_types.h ****   TUSB_CLASS_SMART_CARD           = 11   ,
 209:lib/TinyUSB/src/common/tusb_types.h ****   TUSB_CLASS_RESERVED_12          = 12   ,
 210:lib/TinyUSB/src/common/tusb_types.h ****   TUSB_CLASS_CONTENT_SECURITY     = 13   ,
 211:lib/TinyUSB/src/common/tusb_types.h ****   TUSB_CLASS_VIDEO                = 14   ,
 212:lib/TinyUSB/src/common/tusb_types.h ****   TUSB_CLASS_PERSONAL_HEALTHCARE  = 15   ,
 213:lib/TinyUSB/src/common/tusb_types.h ****   TUSB_CLASS_AUDIO_VIDEO          = 16   ,
ARM GAS  C:\Users\krisa\AppData\Local\Temp\ccNljk5K.s 			page 11


 214:lib/TinyUSB/src/common/tusb_types.h **** 
 215:lib/TinyUSB/src/common/tusb_types.h ****   TUSB_CLASS_DIAGNOSTIC           = 0xDC ,
 216:lib/TinyUSB/src/common/tusb_types.h ****   TUSB_CLASS_WIRELESS_CONTROLLER  = 0xE0 ,
 217:lib/TinyUSB/src/common/tusb_types.h ****   TUSB_CLASS_MISC                 = 0xEF ,
 218:lib/TinyUSB/src/common/tusb_types.h ****   TUSB_CLASS_APPLICATION_SPECIFIC = 0xFE ,
 219:lib/TinyUSB/src/common/tusb_types.h ****   TUSB_CLASS_VENDOR_SPECIFIC      = 0xFF
 220:lib/TinyUSB/src/common/tusb_types.h **** } tusb_class_code_t;
 221:lib/TinyUSB/src/common/tusb_types.h **** 
 222:lib/TinyUSB/src/common/tusb_types.h **** typedef enum
 223:lib/TinyUSB/src/common/tusb_types.h **** {
 224:lib/TinyUSB/src/common/tusb_types.h ****   MISC_SUBCLASS_COMMON = 2
 225:lib/TinyUSB/src/common/tusb_types.h **** }misc_subclass_type_t;
 226:lib/TinyUSB/src/common/tusb_types.h **** 
 227:lib/TinyUSB/src/common/tusb_types.h **** typedef enum {
 228:lib/TinyUSB/src/common/tusb_types.h ****   MISC_PROTOCOL_IAD = 1
 229:lib/TinyUSB/src/common/tusb_types.h **** } misc_protocol_type_t;
 230:lib/TinyUSB/src/common/tusb_types.h **** 
 231:lib/TinyUSB/src/common/tusb_types.h **** typedef enum {
 232:lib/TinyUSB/src/common/tusb_types.h ****   APP_SUBCLASS_USBTMC = 0x03,
 233:lib/TinyUSB/src/common/tusb_types.h ****   APP_SUBCLASS_DFU_RUNTIME = 0x01
 234:lib/TinyUSB/src/common/tusb_types.h **** } app_subclass_type_t;
 235:lib/TinyUSB/src/common/tusb_types.h **** 
 236:lib/TinyUSB/src/common/tusb_types.h **** typedef enum {
 237:lib/TinyUSB/src/common/tusb_types.h ****   DEVICE_CAPABILITY_WIRELESS_USB               = 0x01,
 238:lib/TinyUSB/src/common/tusb_types.h ****   DEVICE_CAPABILITY_USB20_EXTENSION            = 0x02,
 239:lib/TinyUSB/src/common/tusb_types.h ****   DEVICE_CAPABILITY_SUPERSPEED_USB             = 0x03,
 240:lib/TinyUSB/src/common/tusb_types.h ****   DEVICE_CAPABILITY_CONTAINER_id               = 0x04,
 241:lib/TinyUSB/src/common/tusb_types.h ****   DEVICE_CAPABILITY_PLATFORM                   = 0x05,
 242:lib/TinyUSB/src/common/tusb_types.h ****   DEVICE_CAPABILITY_POWER_DELIVERY             = 0x06,
 243:lib/TinyUSB/src/common/tusb_types.h ****   DEVICE_CAPABILITY_BATTERY_INFO               = 0x07,
 244:lib/TinyUSB/src/common/tusb_types.h ****   DEVICE_CAPABILITY_PD_CONSUMER_PORT           = 0x08,
 245:lib/TinyUSB/src/common/tusb_types.h ****   DEVICE_CAPABILITY_PD_PROVIDER_PORT           = 0x09,
 246:lib/TinyUSB/src/common/tusb_types.h ****   DEVICE_CAPABILITY_SUPERSPEED_PLUS            = 0x0A,
 247:lib/TinyUSB/src/common/tusb_types.h ****   DEVICE_CAPABILITY_PRECESION_TIME_MEASUREMENT = 0x0B,
 248:lib/TinyUSB/src/common/tusb_types.h ****   DEVICE_CAPABILITY_WIRELESS_USB_EXT           = 0x0C,
 249:lib/TinyUSB/src/common/tusb_types.h ****   DEVICE_CAPABILITY_BILLBOARD                  = 0x0D,
 250:lib/TinyUSB/src/common/tusb_types.h ****   DEVICE_CAPABILITY_AUTHENTICATION             = 0x0E,
 251:lib/TinyUSB/src/common/tusb_types.h ****   DEVICE_CAPABILITY_BILLBOARD_EX               = 0x0F,
 252:lib/TinyUSB/src/common/tusb_types.h ****   DEVICE_CAPABILITY_CONFIGURATION_SUMMARY      = 0x10
 253:lib/TinyUSB/src/common/tusb_types.h **** } device_capability_type_t;
 254:lib/TinyUSB/src/common/tusb_types.h **** 
 255:lib/TinyUSB/src/common/tusb_types.h **** enum {
 256:lib/TinyUSB/src/common/tusb_types.h ****   TUSB_DESC_CONFIG_ATT_REMOTE_WAKEUP = 1 << 5,
 257:lib/TinyUSB/src/common/tusb_types.h ****   TUSB_DESC_CONFIG_ATT_SELF_POWERED  = 1 << 6,
 258:lib/TinyUSB/src/common/tusb_types.h **** };
 259:lib/TinyUSB/src/common/tusb_types.h **** 
 260:lib/TinyUSB/src/common/tusb_types.h **** #define TUSB_DESC_CONFIG_POWER_MA(x)  ((x)/2)
 261:lib/TinyUSB/src/common/tusb_types.h **** 
 262:lib/TinyUSB/src/common/tusb_types.h **** // USB 2.0 Spec Table 9-7: Test Mode Selectors
 263:lib/TinyUSB/src/common/tusb_types.h **** typedef enum {
 264:lib/TinyUSB/src/common/tusb_types.h ****   TUSB_FEATURE_TEST_J = 1,
 265:lib/TinyUSB/src/common/tusb_types.h ****   TUSB_FEATURE_TEST_K = 2,
 266:lib/TinyUSB/src/common/tusb_types.h ****   TUSB_FEATURE_TEST_SE0_NAK = 3,
 267:lib/TinyUSB/src/common/tusb_types.h ****   TUSB_FEATURE_TEST_PACKET = 4,
 268:lib/TinyUSB/src/common/tusb_types.h ****   TUSB_FEATURE_TEST_FORCE_ENABLE = 5,
 269:lib/TinyUSB/src/common/tusb_types.h **** } tusb_feature_test_mode_t;
 270:lib/TinyUSB/src/common/tusb_types.h **** 
ARM GAS  C:\Users\krisa\AppData\Local\Temp\ccNljk5K.s 			page 12


 271:lib/TinyUSB/src/common/tusb_types.h **** //--------------------------------------------------------------------+
 272:lib/TinyUSB/src/common/tusb_types.h **** //
 273:lib/TinyUSB/src/common/tusb_types.h **** //--------------------------------------------------------------------+
 274:lib/TinyUSB/src/common/tusb_types.h **** typedef enum {
 275:lib/TinyUSB/src/common/tusb_types.h ****   XFER_RESULT_SUCCESS = 0,
 276:lib/TinyUSB/src/common/tusb_types.h ****   XFER_RESULT_FAILED,
 277:lib/TinyUSB/src/common/tusb_types.h ****   XFER_RESULT_STALLED,
 278:lib/TinyUSB/src/common/tusb_types.h ****   XFER_RESULT_TIMEOUT,
 279:lib/TinyUSB/src/common/tusb_types.h ****   XFER_RESULT_INVALID
 280:lib/TinyUSB/src/common/tusb_types.h **** } xfer_result_t;
 281:lib/TinyUSB/src/common/tusb_types.h **** 
 282:lib/TinyUSB/src/common/tusb_types.h **** #define tusb_xfer_result_t xfer_result_t
 283:lib/TinyUSB/src/common/tusb_types.h **** 
 284:lib/TinyUSB/src/common/tusb_types.h **** // TODO remove
 285:lib/TinyUSB/src/common/tusb_types.h **** enum {
 286:lib/TinyUSB/src/common/tusb_types.h ****   DESC_OFFSET_LEN  = 0,
 287:lib/TinyUSB/src/common/tusb_types.h ****   DESC_OFFSET_TYPE = 1,
 288:lib/TinyUSB/src/common/tusb_types.h ****   DESC_OFFSET_SUBTYPE = 2
 289:lib/TinyUSB/src/common/tusb_types.h **** };
 290:lib/TinyUSB/src/common/tusb_types.h **** 
 291:lib/TinyUSB/src/common/tusb_types.h **** enum {
 292:lib/TinyUSB/src/common/tusb_types.h ****   INTERFACE_INVALID_NUMBER = 0xff
 293:lib/TinyUSB/src/common/tusb_types.h **** };
 294:lib/TinyUSB/src/common/tusb_types.h **** 
 295:lib/TinyUSB/src/common/tusb_types.h **** typedef enum {
 296:lib/TinyUSB/src/common/tusb_types.h ****   MS_OS_20_SET_HEADER_DESCRIPTOR       = 0x00,
 297:lib/TinyUSB/src/common/tusb_types.h ****   MS_OS_20_SUBSET_HEADER_CONFIGURATION = 0x01,
 298:lib/TinyUSB/src/common/tusb_types.h ****   MS_OS_20_SUBSET_HEADER_FUNCTION      = 0x02,
 299:lib/TinyUSB/src/common/tusb_types.h ****   MS_OS_20_FEATURE_COMPATBLE_ID        = 0x03,
 300:lib/TinyUSB/src/common/tusb_types.h ****   MS_OS_20_FEATURE_REG_PROPERTY        = 0x04,
 301:lib/TinyUSB/src/common/tusb_types.h ****   MS_OS_20_FEATURE_MIN_RESUME_TIME     = 0x05,
 302:lib/TinyUSB/src/common/tusb_types.h ****   MS_OS_20_FEATURE_MODEL_ID            = 0x06,
 303:lib/TinyUSB/src/common/tusb_types.h ****   MS_OS_20_FEATURE_CCGP_DEVICE         = 0x07,
 304:lib/TinyUSB/src/common/tusb_types.h ****   MS_OS_20_FEATURE_VENDOR_REVISION     = 0x08
 305:lib/TinyUSB/src/common/tusb_types.h **** } microsoft_os_20_type_t;
 306:lib/TinyUSB/src/common/tusb_types.h **** 
 307:lib/TinyUSB/src/common/tusb_types.h **** enum {
 308:lib/TinyUSB/src/common/tusb_types.h ****   CONTROL_STAGE_IDLE = 0,
 309:lib/TinyUSB/src/common/tusb_types.h ****   CONTROL_STAGE_SETUP, // 1
 310:lib/TinyUSB/src/common/tusb_types.h ****   CONTROL_STAGE_DATA,  // 2
 311:lib/TinyUSB/src/common/tusb_types.h ****   CONTROL_STAGE_ACK    // 3
 312:lib/TinyUSB/src/common/tusb_types.h **** };
 313:lib/TinyUSB/src/common/tusb_types.h **** 
 314:lib/TinyUSB/src/common/tusb_types.h **** enum {
 315:lib/TinyUSB/src/common/tusb_types.h ****   TUSB_INDEX_INVALID_8 = 0xFF
 316:lib/TinyUSB/src/common/tusb_types.h **** };
 317:lib/TinyUSB/src/common/tusb_types.h **** 
 318:lib/TinyUSB/src/common/tusb_types.h **** //--------------------------------------------------------------------+
 319:lib/TinyUSB/src/common/tusb_types.h **** //
 320:lib/TinyUSB/src/common/tusb_types.h **** //--------------------------------------------------------------------+
 321:lib/TinyUSB/src/common/tusb_types.h **** typedef struct {
 322:lib/TinyUSB/src/common/tusb_types.h ****   tusb_role_t role;
 323:lib/TinyUSB/src/common/tusb_types.h ****   tusb_speed_t speed;
 324:lib/TinyUSB/src/common/tusb_types.h **** } tusb_rhport_init_t;
 325:lib/TinyUSB/src/common/tusb_types.h **** 
 326:lib/TinyUSB/src/common/tusb_types.h **** typedef struct {
 327:lib/TinyUSB/src/common/tusb_types.h ****   uint16_t len;
ARM GAS  C:\Users\krisa\AppData\Local\Temp\ccNljk5K.s 			page 13


 328:lib/TinyUSB/src/common/tusb_types.h ****   uint8_t *buffer;
 329:lib/TinyUSB/src/common/tusb_types.h **** } tusb_buffer_t;
 330:lib/TinyUSB/src/common/tusb_types.h **** 
 331:lib/TinyUSB/src/common/tusb_types.h **** //--------------------------------------------------------------------+
 332:lib/TinyUSB/src/common/tusb_types.h **** // USB Descriptors
 333:lib/TinyUSB/src/common/tusb_types.h **** //--------------------------------------------------------------------+
 334:lib/TinyUSB/src/common/tusb_types.h **** 
 335:lib/TinyUSB/src/common/tusb_types.h **** // Start of all packed definitions for compiler without per-type packed
 336:lib/TinyUSB/src/common/tusb_types.h **** TU_ATTR_PACKED_BEGIN
 337:lib/TinyUSB/src/common/tusb_types.h **** TU_ATTR_BIT_FIELD_ORDER_BEGIN
 338:lib/TinyUSB/src/common/tusb_types.h **** 
 339:lib/TinyUSB/src/common/tusb_types.h **** /// USB Device Descriptor
 340:lib/TinyUSB/src/common/tusb_types.h **** typedef struct TU_ATTR_PACKED {
 341:lib/TinyUSB/src/common/tusb_types.h ****   uint8_t  bLength            ; ///< Size of this descriptor in bytes.
 342:lib/TinyUSB/src/common/tusb_types.h ****   uint8_t  bDescriptorType    ; ///< DEVICE Descriptor Type.
 343:lib/TinyUSB/src/common/tusb_types.h ****   uint16_t bcdUSB             ; ///< BUSB Specification Release Number in Binary-Coded Decimal (i.e
 344:lib/TinyUSB/src/common/tusb_types.h **** 
 345:lib/TinyUSB/src/common/tusb_types.h ****   uint8_t  bDeviceClass       ; ///< Class code (assigned by the USB-IF).
 346:lib/TinyUSB/src/common/tusb_types.h ****   uint8_t  bDeviceSubClass    ; ///< Subclass code (assigned by the USB-IF).
 347:lib/TinyUSB/src/common/tusb_types.h ****   uint8_t  bDeviceProtocol    ; ///< Protocol code (assigned by the USB-IF).
 348:lib/TinyUSB/src/common/tusb_types.h ****   uint8_t  bMaxPacketSize0    ; ///< Maximum packet size for endpoint zero (only 8, 16, 32, or 64 a
 349:lib/TinyUSB/src/common/tusb_types.h **** 
 350:lib/TinyUSB/src/common/tusb_types.h ****   uint16_t idVendor           ; ///< Vendor ID (assigned by the USB-IF).
 351:lib/TinyUSB/src/common/tusb_types.h ****   uint16_t idProduct          ; ///< Product ID (assigned by the manufacturer).
 352:lib/TinyUSB/src/common/tusb_types.h ****   uint16_t bcdDevice          ; ///< Device release number in binary-coded decimal.
 353:lib/TinyUSB/src/common/tusb_types.h ****   uint8_t  iManufacturer      ; ///< Index of string descriptor describing manufacturer.
 354:lib/TinyUSB/src/common/tusb_types.h ****   uint8_t  iProduct           ; ///< Index of string descriptor describing product.
 355:lib/TinyUSB/src/common/tusb_types.h ****   uint8_t  iSerialNumber      ; ///< Index of string descriptor describing the device's serial numb
 356:lib/TinyUSB/src/common/tusb_types.h ****   uint8_t  bNumConfigurations ; ///< Number of possible configurations.
 357:lib/TinyUSB/src/common/tusb_types.h **** } tusb_desc_device_t;
 358:lib/TinyUSB/src/common/tusb_types.h **** 
 359:lib/TinyUSB/src/common/tusb_types.h **** TU_VERIFY_STATIC( sizeof(tusb_desc_device_t) == 18u, "size is not correct");
 360:lib/TinyUSB/src/common/tusb_types.h **** 
 361:lib/TinyUSB/src/common/tusb_types.h **** // USB Binary Device Object Store (BOS) Descriptor
 362:lib/TinyUSB/src/common/tusb_types.h **** typedef struct TU_ATTR_PACKED {
 363:lib/TinyUSB/src/common/tusb_types.h ****   uint8_t  bLength         ; ///< Size of this descriptor in bytes
 364:lib/TinyUSB/src/common/tusb_types.h ****   uint8_t  bDescriptorType ; ///< CONFIGURATION Descriptor Type
 365:lib/TinyUSB/src/common/tusb_types.h ****   uint16_t wTotalLength    ; ///< Total length of data returned for this descriptor
 366:lib/TinyUSB/src/common/tusb_types.h ****   uint8_t  bNumDeviceCaps  ; ///< Number of device capability descriptors in the BOS
 367:lib/TinyUSB/src/common/tusb_types.h **** } tusb_desc_bos_t;
 368:lib/TinyUSB/src/common/tusb_types.h **** 
 369:lib/TinyUSB/src/common/tusb_types.h **** TU_VERIFY_STATIC( sizeof(tusb_desc_bos_t) == 5u, "size is not correct");
 370:lib/TinyUSB/src/common/tusb_types.h **** 
 371:lib/TinyUSB/src/common/tusb_types.h **** /// USB Configuration Descriptor
 372:lib/TinyUSB/src/common/tusb_types.h **** typedef struct TU_ATTR_PACKED {
 373:lib/TinyUSB/src/common/tusb_types.h ****   uint8_t  bLength             ; ///< Size of this descriptor in bytes
 374:lib/TinyUSB/src/common/tusb_types.h ****   uint8_t  bDescriptorType     ; ///< CONFIGURATION Descriptor Type
 375:lib/TinyUSB/src/common/tusb_types.h ****   uint16_t wTotalLength        ; ///< Total length of data returned for this configuration. Include
 376:lib/TinyUSB/src/common/tusb_types.h **** 
 377:lib/TinyUSB/src/common/tusb_types.h ****   uint8_t  bNumInterfaces      ; ///< Number of interfaces supported by this configuration
 378:lib/TinyUSB/src/common/tusb_types.h ****   uint8_t  bConfigurationValue ; ///< Value to use as an argument to the SetConfiguration() request
 379:lib/TinyUSB/src/common/tusb_types.h ****   uint8_t  iConfiguration      ; ///< Index of string descriptor describing this configuration
 380:lib/TinyUSB/src/common/tusb_types.h ****   uint8_t  bmAttributes        ; ///< Configuration characteristics \n D7: Reserved (set to one)\n 
 381:lib/TinyUSB/src/common/tusb_types.h ****   uint8_t  bMaxPower           ; ///< Maximum power consumption of the USB device from the bus in t
 382:lib/TinyUSB/src/common/tusb_types.h **** } tusb_desc_configuration_t;
 383:lib/TinyUSB/src/common/tusb_types.h **** 
 384:lib/TinyUSB/src/common/tusb_types.h **** TU_VERIFY_STATIC( sizeof(tusb_desc_configuration_t) == 9u, "size is not correct");
ARM GAS  C:\Users\krisa\AppData\Local\Temp\ccNljk5K.s 			page 14


 385:lib/TinyUSB/src/common/tusb_types.h **** 
 386:lib/TinyUSB/src/common/tusb_types.h **** /// USB Interface Descriptor
 387:lib/TinyUSB/src/common/tusb_types.h **** typedef struct TU_ATTR_PACKED {
 388:lib/TinyUSB/src/common/tusb_types.h ****   uint8_t  bLength            ; ///< Size of this descriptor in bytes
 389:lib/TinyUSB/src/common/tusb_types.h ****   uint8_t  bDescriptorType    ; ///< INTERFACE Descriptor Type
 390:lib/TinyUSB/src/common/tusb_types.h **** 
 391:lib/TinyUSB/src/common/tusb_types.h ****   uint8_t  bInterfaceNumber   ; ///< Number of this interface. Zero-based value identifying the ind
 392:lib/TinyUSB/src/common/tusb_types.h ****   uint8_t  bAlternateSetting  ; ///< Value used to select this alternate setting for the interface 
 393:lib/TinyUSB/src/common/tusb_types.h ****   uint8_t  bNumEndpoints      ; ///< Number of endpoints used by this interface (excluding endpoint
 394:lib/TinyUSB/src/common/tusb_types.h ****   uint8_t  bInterfaceClass    ; ///< Class code (assigned by the USB-IF). \li A value of zero is re
 395:lib/TinyUSB/src/common/tusb_types.h ****   uint8_t  bInterfaceSubClass ; ///< Subclass code (assigned by the USB-IF). \n These codes are qua
 396:lib/TinyUSB/src/common/tusb_types.h ****   uint8_t  bInterfaceProtocol ; ///< Protocol code (assigned by the USB). \n These codes are qualif
 397:lib/TinyUSB/src/common/tusb_types.h ****   uint8_t  iInterface         ; ///< Index of string descriptor describing this interface
 398:lib/TinyUSB/src/common/tusb_types.h **** } tusb_desc_interface_t;
 399:lib/TinyUSB/src/common/tusb_types.h **** 
 400:lib/TinyUSB/src/common/tusb_types.h **** TU_VERIFY_STATIC( sizeof(tusb_desc_interface_t) == 9u, "size is not correct");
 401:lib/TinyUSB/src/common/tusb_types.h **** 
 402:lib/TinyUSB/src/common/tusb_types.h **** /// USB Endpoint Descriptor
 403:lib/TinyUSB/src/common/tusb_types.h **** typedef struct TU_ATTR_PACKED {
 404:lib/TinyUSB/src/common/tusb_types.h ****   uint8_t  bLength          ; // Size of this descriptor in bytes
 405:lib/TinyUSB/src/common/tusb_types.h ****   uint8_t  bDescriptorType  ; // ENDPOINT Descriptor Type
 406:lib/TinyUSB/src/common/tusb_types.h **** 
 407:lib/TinyUSB/src/common/tusb_types.h ****   uint8_t  bEndpointAddress ; // The address of the endpoint
 408:lib/TinyUSB/src/common/tusb_types.h **** 
 409:lib/TinyUSB/src/common/tusb_types.h ****   struct TU_ATTR_PACKED {
 410:lib/TinyUSB/src/common/tusb_types.h ****     uint8_t xfer  : 2;        // Control, ISO, Bulk, Interrupt
 411:lib/TinyUSB/src/common/tusb_types.h ****     uint8_t sync  : 2;        // None, Asynchronous, Adaptive, Synchronous
 412:lib/TinyUSB/src/common/tusb_types.h ****     uint8_t usage : 2;        // Data, Feedback, Implicit feedback
 413:lib/TinyUSB/src/common/tusb_types.h ****     uint8_t       : 2;
 414:lib/TinyUSB/src/common/tusb_types.h ****   } bmAttributes;
 415:lib/TinyUSB/src/common/tusb_types.h **** 
 416:lib/TinyUSB/src/common/tusb_types.h ****   uint16_t wMaxPacketSize   ; // Bit 10..0 : max packet size, bit 12..11 additional transaction per
 417:lib/TinyUSB/src/common/tusb_types.h ****   uint8_t  bInterval        ; // Polling interval, in frames or microframes depending on the operat
 418:lib/TinyUSB/src/common/tusb_types.h **** } tusb_desc_endpoint_t;
 419:lib/TinyUSB/src/common/tusb_types.h **** 
 420:lib/TinyUSB/src/common/tusb_types.h **** TU_VERIFY_STATIC( sizeof(tusb_desc_endpoint_t) == 7u, "size is not correct");
 421:lib/TinyUSB/src/common/tusb_types.h **** 
 422:lib/TinyUSB/src/common/tusb_types.h **** /// USB Other Speed Configuration Descriptor
 423:lib/TinyUSB/src/common/tusb_types.h **** typedef struct TU_ATTR_PACKED {
 424:lib/TinyUSB/src/common/tusb_types.h ****   uint8_t  bLength             ; ///< Size of descriptor
 425:lib/TinyUSB/src/common/tusb_types.h ****   uint8_t  bDescriptorType     ; ///< Other_speed_Configuration Type
 426:lib/TinyUSB/src/common/tusb_types.h ****   uint16_t wTotalLength        ; ///< Total length of data returned
 427:lib/TinyUSB/src/common/tusb_types.h **** 
 428:lib/TinyUSB/src/common/tusb_types.h ****   uint8_t  bNumInterfaces      ; ///< Number of interfaces supported by this speed configuration
 429:lib/TinyUSB/src/common/tusb_types.h ****   uint8_t  bConfigurationValue ; ///< Value to use to select configuration
 430:lib/TinyUSB/src/common/tusb_types.h ****   uint8_t  iConfiguration      ; ///< Index of string descriptor
 431:lib/TinyUSB/src/common/tusb_types.h ****   uint8_t  bmAttributes        ; ///< Same as Configuration descriptor
 432:lib/TinyUSB/src/common/tusb_types.h ****   uint8_t  bMaxPower           ; ///< Same as Configuration descriptor
 433:lib/TinyUSB/src/common/tusb_types.h **** } tusb_desc_other_speed_t;
 434:lib/TinyUSB/src/common/tusb_types.h **** 
 435:lib/TinyUSB/src/common/tusb_types.h **** /// USB Device Qualifier Descriptor
 436:lib/TinyUSB/src/common/tusb_types.h **** typedef struct TU_ATTR_PACKED {
 437:lib/TinyUSB/src/common/tusb_types.h ****   uint8_t  bLength            ; ///< Size of descriptor
 438:lib/TinyUSB/src/common/tusb_types.h ****   uint8_t  bDescriptorType    ; ///< Device Qualifier Type
 439:lib/TinyUSB/src/common/tusb_types.h ****   uint16_t bcdUSB             ; ///< USB specification version number (e.g., 0200H for V2.00)
 440:lib/TinyUSB/src/common/tusb_types.h **** 
 441:lib/TinyUSB/src/common/tusb_types.h ****   uint8_t  bDeviceClass       ; ///< Class Code
ARM GAS  C:\Users\krisa\AppData\Local\Temp\ccNljk5K.s 			page 15


 442:lib/TinyUSB/src/common/tusb_types.h ****   uint8_t  bDeviceSubClass    ; ///< SubClass Code
 443:lib/TinyUSB/src/common/tusb_types.h ****   uint8_t  bDeviceProtocol    ; ///< Protocol Code
 444:lib/TinyUSB/src/common/tusb_types.h **** 
 445:lib/TinyUSB/src/common/tusb_types.h ****   uint8_t  bMaxPacketSize0    ; ///< Maximum packet size for other speed
 446:lib/TinyUSB/src/common/tusb_types.h ****   uint8_t  bNumConfigurations ; ///< Number of Other-speed Configurations
 447:lib/TinyUSB/src/common/tusb_types.h ****   uint8_t  bReserved          ; ///< Reserved for future use, must be zero
 448:lib/TinyUSB/src/common/tusb_types.h **** } tusb_desc_device_qualifier_t;
 449:lib/TinyUSB/src/common/tusb_types.h **** 
 450:lib/TinyUSB/src/common/tusb_types.h **** TU_VERIFY_STATIC( sizeof(tusb_desc_device_qualifier_t) == 10u, "size is not correct");
 451:lib/TinyUSB/src/common/tusb_types.h **** 
 452:lib/TinyUSB/src/common/tusb_types.h **** /// USB Interface Association Descriptor (IAD ECN)
 453:lib/TinyUSB/src/common/tusb_types.h **** typedef struct TU_ATTR_PACKED {
 454:lib/TinyUSB/src/common/tusb_types.h ****   uint8_t bLength           ; ///< Size of descriptor
 455:lib/TinyUSB/src/common/tusb_types.h ****   uint8_t bDescriptorType   ; ///< Other_speed_Configuration Type
 456:lib/TinyUSB/src/common/tusb_types.h **** 
 457:lib/TinyUSB/src/common/tusb_types.h ****   uint8_t bFirstInterface   ; ///< Index of the first associated interface.
 458:lib/TinyUSB/src/common/tusb_types.h ****   uint8_t bInterfaceCount   ; ///< Total number of associated interfaces.
 459:lib/TinyUSB/src/common/tusb_types.h **** 
 460:lib/TinyUSB/src/common/tusb_types.h ****   uint8_t bFunctionClass    ; ///< Interface class ID.
 461:lib/TinyUSB/src/common/tusb_types.h ****   uint8_t bFunctionSubClass ; ///< Interface subclass ID.
 462:lib/TinyUSB/src/common/tusb_types.h ****   uint8_t bFunctionProtocol ; ///< Interface protocol ID.
 463:lib/TinyUSB/src/common/tusb_types.h **** 
 464:lib/TinyUSB/src/common/tusb_types.h ****   uint8_t iFunction         ; ///< Index of the string descriptor describing the interface associat
 465:lib/TinyUSB/src/common/tusb_types.h **** } tusb_desc_interface_assoc_t;
 466:lib/TinyUSB/src/common/tusb_types.h **** 
 467:lib/TinyUSB/src/common/tusb_types.h **** TU_VERIFY_STATIC( sizeof(tusb_desc_interface_assoc_t) == 8u, "size is not correct");
 468:lib/TinyUSB/src/common/tusb_types.h **** 
 469:lib/TinyUSB/src/common/tusb_types.h **** // USB String Descriptor
 470:lib/TinyUSB/src/common/tusb_types.h **** typedef struct TU_ATTR_PACKED {
 471:lib/TinyUSB/src/common/tusb_types.h ****   uint8_t  bLength         ; ///< Size of this descriptor in bytes
 472:lib/TinyUSB/src/common/tusb_types.h ****   uint8_t  bDescriptorType ; ///< Descriptor Type
 473:lib/TinyUSB/src/common/tusb_types.h ****   uint16_t utf16le[];
 474:lib/TinyUSB/src/common/tusb_types.h **** } tusb_desc_string_t;
 475:lib/TinyUSB/src/common/tusb_types.h **** 
 476:lib/TinyUSB/src/common/tusb_types.h **** // USB Binary Device Object Store (BOS)
 477:lib/TinyUSB/src/common/tusb_types.h **** typedef struct TU_ATTR_PACKED {
 478:lib/TinyUSB/src/common/tusb_types.h ****   uint8_t bLength;
 479:lib/TinyUSB/src/common/tusb_types.h ****   uint8_t bDescriptorType ;
 480:lib/TinyUSB/src/common/tusb_types.h ****   uint8_t bDevCapabilityType;
 481:lib/TinyUSB/src/common/tusb_types.h ****   uint8_t bReserved;
 482:lib/TinyUSB/src/common/tusb_types.h ****   uint8_t PlatformCapabilityUUID[16];
 483:lib/TinyUSB/src/common/tusb_types.h ****   uint8_t CapabilityData[];
 484:lib/TinyUSB/src/common/tusb_types.h **** } tusb_desc_bos_platform_t;
 485:lib/TinyUSB/src/common/tusb_types.h **** 
 486:lib/TinyUSB/src/common/tusb_types.h **** // USB WebUSB URL Descriptor
 487:lib/TinyUSB/src/common/tusb_types.h **** typedef struct TU_ATTR_PACKED {
 488:lib/TinyUSB/src/common/tusb_types.h ****   uint8_t bLength;
 489:lib/TinyUSB/src/common/tusb_types.h ****   uint8_t bDescriptorType;
 490:lib/TinyUSB/src/common/tusb_types.h ****   uint8_t bScheme;
 491:lib/TinyUSB/src/common/tusb_types.h ****   char    url[];
 492:lib/TinyUSB/src/common/tusb_types.h **** } tusb_desc_webusb_url_t;
 493:lib/TinyUSB/src/common/tusb_types.h **** 
 494:lib/TinyUSB/src/common/tusb_types.h **** // DFU Functional Descriptor
 495:lib/TinyUSB/src/common/tusb_types.h **** typedef struct TU_ATTR_PACKED {
 496:lib/TinyUSB/src/common/tusb_types.h ****   uint8_t  bLength;
 497:lib/TinyUSB/src/common/tusb_types.h ****   uint8_t  bDescriptorType;
 498:lib/TinyUSB/src/common/tusb_types.h **** 
ARM GAS  C:\Users\krisa\AppData\Local\Temp\ccNljk5K.s 			page 16


 499:lib/TinyUSB/src/common/tusb_types.h ****   union {
 500:lib/TinyUSB/src/common/tusb_types.h ****     struct TU_ATTR_PACKED {
 501:lib/TinyUSB/src/common/tusb_types.h ****       uint8_t bitCanDnload             : 1;
 502:lib/TinyUSB/src/common/tusb_types.h ****       uint8_t bitCanUpload             : 1;
 503:lib/TinyUSB/src/common/tusb_types.h ****       uint8_t bitManifestationTolerant : 1;
 504:lib/TinyUSB/src/common/tusb_types.h ****       uint8_t bitWillDetach            : 1;
 505:lib/TinyUSB/src/common/tusb_types.h ****       uint8_t reserved                 : 4;
 506:lib/TinyUSB/src/common/tusb_types.h ****     } bmAttributes;
 507:lib/TinyUSB/src/common/tusb_types.h **** 
 508:lib/TinyUSB/src/common/tusb_types.h ****     uint8_t bAttributes;
 509:lib/TinyUSB/src/common/tusb_types.h ****   };
 510:lib/TinyUSB/src/common/tusb_types.h **** 
 511:lib/TinyUSB/src/common/tusb_types.h ****   uint16_t wDetachTimeOut;
 512:lib/TinyUSB/src/common/tusb_types.h ****   uint16_t wTransferSize;
 513:lib/TinyUSB/src/common/tusb_types.h ****   uint16_t bcdDFUVersion;
 514:lib/TinyUSB/src/common/tusb_types.h **** } tusb_desc_dfu_functional_t;
 515:lib/TinyUSB/src/common/tusb_types.h **** 
 516:lib/TinyUSB/src/common/tusb_types.h **** //--------------------------------------------------------------------+
 517:lib/TinyUSB/src/common/tusb_types.h **** //
 518:lib/TinyUSB/src/common/tusb_types.h **** //--------------------------------------------------------------------+
 519:lib/TinyUSB/src/common/tusb_types.h **** 
 520:lib/TinyUSB/src/common/tusb_types.h **** typedef struct TU_ATTR_PACKED {
 521:lib/TinyUSB/src/common/tusb_types.h ****   union {
 522:lib/TinyUSB/src/common/tusb_types.h ****     struct TU_ATTR_PACKED {
 523:lib/TinyUSB/src/common/tusb_types.h ****       uint8_t recipient :  5; ///< Recipient type tusb_request_recipient_t.
 524:lib/TinyUSB/src/common/tusb_types.h ****       uint8_t type      :  2; ///< Request type tusb_request_type_t.
 525:lib/TinyUSB/src/common/tusb_types.h ****       uint8_t direction :  1; ///< Direction type. tusb_dir_t
 526:lib/TinyUSB/src/common/tusb_types.h ****     } bmRequestType_bit;
 527:lib/TinyUSB/src/common/tusb_types.h **** 
 528:lib/TinyUSB/src/common/tusb_types.h ****     uint8_t bmRequestType;
 529:lib/TinyUSB/src/common/tusb_types.h ****   };
 530:lib/TinyUSB/src/common/tusb_types.h **** 
 531:lib/TinyUSB/src/common/tusb_types.h ****   uint8_t  bRequest;
 532:lib/TinyUSB/src/common/tusb_types.h ****   uint16_t wValue;
 533:lib/TinyUSB/src/common/tusb_types.h ****   uint16_t wIndex;
 534:lib/TinyUSB/src/common/tusb_types.h ****   uint16_t wLength;
 535:lib/TinyUSB/src/common/tusb_types.h **** } tusb_control_request_t;
 536:lib/TinyUSB/src/common/tusb_types.h **** 
 537:lib/TinyUSB/src/common/tusb_types.h **** TU_VERIFY_STATIC( sizeof(tusb_control_request_t) == 8u, "size is not correct");
 538:lib/TinyUSB/src/common/tusb_types.h **** 
 539:lib/TinyUSB/src/common/tusb_types.h **** TU_ATTR_PACKED_END  // End of all packed definitions
 540:lib/TinyUSB/src/common/tusb_types.h **** TU_ATTR_BIT_FIELD_ORDER_END
 541:lib/TinyUSB/src/common/tusb_types.h **** 
 542:lib/TinyUSB/src/common/tusb_types.h **** //--------------------------------------------------------------------+
 543:lib/TinyUSB/src/common/tusb_types.h **** // Endpoint helper
 544:lib/TinyUSB/src/common/tusb_types.h **** //--------------------------------------------------------------------+
 545:lib/TinyUSB/src/common/tusb_types.h **** 
 546:lib/TinyUSB/src/common/tusb_types.h **** // Get direction from Endpoint address
 547:lib/TinyUSB/src/common/tusb_types.h **** TU_ATTR_ALWAYS_INLINE static inline tusb_dir_t tu_edpt_dir(uint8_t addr) {
 548:lib/TinyUSB/src/common/tusb_types.h ****   return (addr & TUSB_DIR_IN_MASK) ? TUSB_DIR_IN : TUSB_DIR_OUT;
 549:lib/TinyUSB/src/common/tusb_types.h **** }
 550:lib/TinyUSB/src/common/tusb_types.h **** 
 551:lib/TinyUSB/src/common/tusb_types.h **** // Get Endpoint number from address
 552:lib/TinyUSB/src/common/tusb_types.h **** TU_ATTR_ALWAYS_INLINE static inline uint8_t tu_edpt_number(uint8_t addr) {
  77              		.loc 3 552 45 view .LVU15
  78              	.LBB206:
 553:lib/TinyUSB/src/common/tusb_types.h ****   return (uint8_t) (addr & TUSB_EPNUM_MASK);
ARM GAS  C:\Users\krisa\AppData\Local\Temp\ccNljk5K.s 			page 17


  79              		.loc 3 553 3 view .LVU16
  80              		.loc 3 553 10 is_stmt 0 view .LVU17
  81 001a 01F00F05 		and	r5, r1, #15
  82              	.LVL6:
  83              		.loc 3 553 10 view .LVU18
  84              	.LBE206:
  85              	.LBE205:
 199:lib/TinyUSB/src/portable/synopsys/dwc2/dcd_dwc2.c ****   const uint8_t dir = tu_edpt_dir(ep_addr);
  86              		.loc 1 199 3 is_stmt 1 view .LVU19
  87              	.LBB207:
  88              	.LBI207:
 547:lib/TinyUSB/src/common/tusb_types.h ****   return (addr & TUSB_DIR_IN_MASK) ? TUSB_DIR_IN : TUSB_DIR_OUT;
  89              		.loc 3 547 48 view .LVU20
  90              	.LBB208:
 548:lib/TinyUSB/src/common/tusb_types.h **** }
  91              		.loc 3 548 3 view .LVU21
 548:lib/TinyUSB/src/common/tusb_types.h **** }
  92              		.loc 3 548 50 is_stmt 0 view .LVU22
  93 001e C909     		lsrs	r1, r1, #7
  94              	.LVL7:
 548:lib/TinyUSB/src/common/tusb_types.h **** }
  95              		.loc 3 548 50 view .LVU23
  96              	.LBE208:
  97              	.LBE207:
 200:lib/TinyUSB/src/portable/synopsys/dwc2/dcd_dwc2.c **** 
 201:lib/TinyUSB/src/portable/synopsys/dwc2/dcd_dwc2.c ****   TU_ASSERT(epnum < ep_count);
  98              		.loc 1 201 3 is_stmt 1 view .LVU24
  99              		.loc 1 201 3 view .LVU25
 100 0020 AC42     		cmp	r4, r5
 101 0022 14D9     		bls	.L20
 102              		.loc 1 201 3 discriminator 2 view .LVU26
 202:lib/TinyUSB/src/portable/synopsys/dwc2/dcd_dwc2.c **** 
 203:lib/TinyUSB/src/portable/synopsys/dwc2/dcd_dwc2.c ****   uint16_t fifo_size = tu_div_ceil(packet_size, 4);
 103              		.loc 1 203 3 discriminator 2 view .LVU27
 104              	.LVL8:
 105              	.LBB209:
 106              	.LBI209:
 107              		.file 4 "lib/TinyUSB/src/common/tusb_common.h"
   1:lib/TinyUSB/src/common/tusb_common.h **** /*
   2:lib/TinyUSB/src/common/tusb_common.h ****  * The MIT License (MIT)
   3:lib/TinyUSB/src/common/tusb_common.h ****  *
   4:lib/TinyUSB/src/common/tusb_common.h ****  * Copyright (c) 2019 Ha Thach (tinyusb.org)
   5:lib/TinyUSB/src/common/tusb_common.h ****  *
   6:lib/TinyUSB/src/common/tusb_common.h ****  * Permission is hereby granted, free of charge, to any person obtaining a copy
   7:lib/TinyUSB/src/common/tusb_common.h ****  * of this software and associated documentation files (the "Software"), to deal
   8:lib/TinyUSB/src/common/tusb_common.h ****  * in the Software without restriction, including without limitation the rights
   9:lib/TinyUSB/src/common/tusb_common.h ****  * to use, copy, modify, merge, publish, distribute, sublicense, and/or sell
  10:lib/TinyUSB/src/common/tusb_common.h ****  * copies of the Software, and to permit persons to whom the Software is
  11:lib/TinyUSB/src/common/tusb_common.h ****  * furnished to do so, subject to the following conditions:
  12:lib/TinyUSB/src/common/tusb_common.h ****  *
  13:lib/TinyUSB/src/common/tusb_common.h ****  * The above copyright notice and this permission notice shall be included in
  14:lib/TinyUSB/src/common/tusb_common.h ****  * all copies or substantial portions of the Software.
  15:lib/TinyUSB/src/common/tusb_common.h ****  *
  16:lib/TinyUSB/src/common/tusb_common.h ****  * THE SOFTWARE IS PROVIDED "AS IS", WITHOUT WARRANTY OF ANY KIND, EXPRESS OR
  17:lib/TinyUSB/src/common/tusb_common.h ****  * IMPLIED, INCLUDING BUT NOT LIMITED TO THE WARRANTIES OF MERCHANTABILITY,
  18:lib/TinyUSB/src/common/tusb_common.h ****  * FITNESS FOR A PARTICULAR PURPOSE AND NONINFRINGEMENT. IN NO EVENT SHALL THE
  19:lib/TinyUSB/src/common/tusb_common.h ****  * AUTHORS OR COPYRIGHT HOLDERS BE LIABLE FOR ANY CLAIM, DAMAGES OR OTHER
ARM GAS  C:\Users\krisa\AppData\Local\Temp\ccNljk5K.s 			page 18


  20:lib/TinyUSB/src/common/tusb_common.h ****  * LIABILITY, WHETHER IN AN ACTION OF CONTRACT, TORT OR OTHERWISE, ARISING FROM,
  21:lib/TinyUSB/src/common/tusb_common.h ****  * OUT OF OR IN CONNECTION WITH THE SOFTWARE OR THE USE OR OTHER DEALINGS IN
  22:lib/TinyUSB/src/common/tusb_common.h ****  * THE SOFTWARE.
  23:lib/TinyUSB/src/common/tusb_common.h ****  *
  24:lib/TinyUSB/src/common/tusb_common.h ****  * This file is part of the TinyUSB stack.
  25:lib/TinyUSB/src/common/tusb_common.h ****  */
  26:lib/TinyUSB/src/common/tusb_common.h **** 
  27:lib/TinyUSB/src/common/tusb_common.h **** #ifndef TUSB_COMMON_H_
  28:lib/TinyUSB/src/common/tusb_common.h **** #define TUSB_COMMON_H_
  29:lib/TinyUSB/src/common/tusb_common.h **** 
  30:lib/TinyUSB/src/common/tusb_common.h **** #ifdef __cplusplus
  31:lib/TinyUSB/src/common/tusb_common.h ****  extern "C" {
  32:lib/TinyUSB/src/common/tusb_common.h **** #endif
  33:lib/TinyUSB/src/common/tusb_common.h **** 
  34:lib/TinyUSB/src/common/tusb_common.h **** //--------------------------------------------------------------------+
  35:lib/TinyUSB/src/common/tusb_common.h **** // Macros Helper
  36:lib/TinyUSB/src/common/tusb_common.h **** //--------------------------------------------------------------------+
  37:lib/TinyUSB/src/common/tusb_common.h **** #define TU_ARRAY_SIZE(_arr)           ( sizeof(_arr) / sizeof(_arr[0]) )
  38:lib/TinyUSB/src/common/tusb_common.h **** #define TU_FIELD_SIZE(_type, _field)  (sizeof(((_type *)0)->_field))
  39:lib/TinyUSB/src/common/tusb_common.h **** #define TU_MIN(_x, _y)                ( ( (_x) < (_y) ) ? (_x) : (_y) )
  40:lib/TinyUSB/src/common/tusb_common.h **** #define TU_MAX(_x, _y)                ( ( (_x) > (_y) ) ? (_x) : (_y) )
  41:lib/TinyUSB/src/common/tusb_common.h **** #define TU_DIV_CEIL(n, d)             (((n) + (d) - 1) / (d))
  42:lib/TinyUSB/src/common/tusb_common.h **** #define TU_DIV_ROUND_NEAREST(v, d)    (((v) + (d)/2) / (d) ) // round to nearest integer
  43:lib/TinyUSB/src/common/tusb_common.h **** 
  44:lib/TinyUSB/src/common/tusb_common.h **** #define TU_U16(_high, _low)           ((uint16_t) ((((uint16_t) (_high)) << 8) | ((uint16_t) (_low)
  45:lib/TinyUSB/src/common/tusb_common.h **** #define TU_U16_HIGH(_u16)             ((uint8_t) (((uint16_t) (_u16) >> 8) & 0x00ffu))
  46:lib/TinyUSB/src/common/tusb_common.h **** #define TU_U16_LOW(_u16)              ((uint8_t) ((uint16_t) (_u16) & 0x00ffu))
  47:lib/TinyUSB/src/common/tusb_common.h **** #define U16_TO_U8S_BE(_u16)           TU_U16_HIGH(_u16), TU_U16_LOW(_u16)
  48:lib/TinyUSB/src/common/tusb_common.h **** #define U16_TO_U8S_LE(_u16)           TU_U16_LOW(_u16), TU_U16_HIGH(_u16)
  49:lib/TinyUSB/src/common/tusb_common.h **** 
  50:lib/TinyUSB/src/common/tusb_common.h **** #define TU_U24(_high, _mid, _low)     ((uint32_t) ((((uint32_t) (_high)) << 16) | (((uint32_t) (_mi
  51:lib/TinyUSB/src/common/tusb_common.h **** #define TU_U24_HIGH(_u24)             ((uint8_t) (((uint32_t) (_u24) >> 16) & 0x0000ffu))
  52:lib/TinyUSB/src/common/tusb_common.h **** #define TU_U24_MID(_u24)              ((uint8_t) (((uint32_t) (_u24) >>  8) & 0x0000ffu))
  53:lib/TinyUSB/src/common/tusb_common.h **** #define TU_U24_LOW(_u24)              ((uint8_t) ((uint32_t) (_u24) & 0x0000ffu))
  54:lib/TinyUSB/src/common/tusb_common.h **** #define U24_TO_U8S_BE(_u24)           TU_U24_HIGH(_u24), TU_U24_MID(_u24), TU_U24_LOW(_u24)
  55:lib/TinyUSB/src/common/tusb_common.h **** #define U24_TO_U8S_LE(_u24)           TU_U24_LOW(_u24), TU_U24_MID(_u24), TU_U24_HIGH(_u24)
  56:lib/TinyUSB/src/common/tusb_common.h **** 
  57:lib/TinyUSB/src/common/tusb_common.h **** #define TU_U32_BYTE3(_u32)            ((uint8_t) ((((uint32_t) _u32) >> 24) & 0x000000ff)) // MSB
  58:lib/TinyUSB/src/common/tusb_common.h **** #define TU_U32_BYTE2(_u32)            ((uint8_t) ((((uint32_t) _u32) >> 16) & 0x000000ff))
  59:lib/TinyUSB/src/common/tusb_common.h **** #define TU_U32_BYTE1(_u32)            ((uint8_t) ((((uint32_t) _u32) >>  8) & 0x000000ff))
  60:lib/TinyUSB/src/common/tusb_common.h **** #define TU_U32_BYTE0(_u32)            ((uint8_t) (((uint32_t)  _u32)        & 0x000000ff)) // LSB
  61:lib/TinyUSB/src/common/tusb_common.h **** 
  62:lib/TinyUSB/src/common/tusb_common.h **** #define U32_TO_U8S_BE(_u32)           TU_U32_BYTE3(_u32), TU_U32_BYTE2(_u32), TU_U32_BYTE1(_u32), T
  63:lib/TinyUSB/src/common/tusb_common.h **** #define U32_TO_U8S_LE(_u32)           TU_U32_BYTE0(_u32), TU_U32_BYTE1(_u32), TU_U32_BYTE2(_u32), T
  64:lib/TinyUSB/src/common/tusb_common.h **** 
  65:lib/TinyUSB/src/common/tusb_common.h **** #define TU_BIT(n)                     (1UL << (n))
  66:lib/TinyUSB/src/common/tusb_common.h **** 
  67:lib/TinyUSB/src/common/tusb_common.h **** // Generate a mask with bit from high (31) to low (0) set, e.g TU_GENMASK(3, 0) = 0b1111
  68:lib/TinyUSB/src/common/tusb_common.h **** #define TU_GENMASK(h, l)              ( (UINT32_MAX << (l)) & (UINT32_MAX >> (31 - (h))) )
  69:lib/TinyUSB/src/common/tusb_common.h **** 
  70:lib/TinyUSB/src/common/tusb_common.h **** //--------------------------------------------------------------------+
  71:lib/TinyUSB/src/common/tusb_common.h **** // Includes
  72:lib/TinyUSB/src/common/tusb_common.h **** //--------------------------------------------------------------------+
  73:lib/TinyUSB/src/common/tusb_common.h **** 
  74:lib/TinyUSB/src/common/tusb_common.h **** // Standard Headers
  75:lib/TinyUSB/src/common/tusb_common.h **** #include <stdbool.h>
  76:lib/TinyUSB/src/common/tusb_common.h **** #include <stdint.h>
ARM GAS  C:\Users\krisa\AppData\Local\Temp\ccNljk5K.s 			page 19


  77:lib/TinyUSB/src/common/tusb_common.h **** #include <inttypes.h>
  78:lib/TinyUSB/src/common/tusb_common.h **** #include <stddef.h>
  79:lib/TinyUSB/src/common/tusb_common.h **** #include <string.h>
  80:lib/TinyUSB/src/common/tusb_common.h **** 
  81:lib/TinyUSB/src/common/tusb_common.h **** // Tinyusb Common Headers
  82:lib/TinyUSB/src/common/tusb_common.h **** #include "tusb_option.h"
  83:lib/TinyUSB/src/common/tusb_common.h **** #include "tusb_compiler.h"
  84:lib/TinyUSB/src/common/tusb_common.h **** #include "tusb_verify.h"
  85:lib/TinyUSB/src/common/tusb_common.h **** #include "tusb_types.h"
  86:lib/TinyUSB/src/common/tusb_common.h **** #include "tusb_debug.h"
  87:lib/TinyUSB/src/common/tusb_common.h **** 
  88:lib/TinyUSB/src/common/tusb_common.h **** //--------------------------------------------------------------------+
  89:lib/TinyUSB/src/common/tusb_common.h **** // API implemented by application if needed
  90:lib/TinyUSB/src/common/tusb_common.h **** // TODO move to a more obvious place/file
  91:lib/TinyUSB/src/common/tusb_common.h **** //--------------------------------------------------------------------+
  92:lib/TinyUSB/src/common/tusb_common.h **** 
  93:lib/TinyUSB/src/common/tusb_common.h **** // Get current milliseconds, required by some port/configuration without RTOS
  94:lib/TinyUSB/src/common/tusb_common.h **** extern uint32_t tusb_time_millis_api(void);
  95:lib/TinyUSB/src/common/tusb_common.h **** 
  96:lib/TinyUSB/src/common/tusb_common.h **** // Delay in milliseconds, use tusb_time_millis_api() by default. required by some port/configuratio
  97:lib/TinyUSB/src/common/tusb_common.h **** extern void tusb_time_delay_ms_api(uint32_t ms);
  98:lib/TinyUSB/src/common/tusb_common.h **** 
  99:lib/TinyUSB/src/common/tusb_common.h **** // flush data cache
 100:lib/TinyUSB/src/common/tusb_common.h **** extern void tusb_app_dcache_flush(uintptr_t addr, uint32_t data_size);
 101:lib/TinyUSB/src/common/tusb_common.h **** 
 102:lib/TinyUSB/src/common/tusb_common.h **** // invalidate data cache
 103:lib/TinyUSB/src/common/tusb_common.h **** extern void tusb_app_dcache_invalidate(uintptr_t addr, uint32_t data_size);
 104:lib/TinyUSB/src/common/tusb_common.h **** 
 105:lib/TinyUSB/src/common/tusb_common.h **** // Optional physical <-> virtual address translation
 106:lib/TinyUSB/src/common/tusb_common.h **** extern void* tusb_app_virt_to_phys(void *virt_addr);
 107:lib/TinyUSB/src/common/tusb_common.h **** extern void* tusb_app_phys_to_virt(void *phys_addr);
 108:lib/TinyUSB/src/common/tusb_common.h **** 
 109:lib/TinyUSB/src/common/tusb_common.h **** //--------------------------------------------------------------------+
 110:lib/TinyUSB/src/common/tusb_common.h **** // Internal Inline Functions
 111:lib/TinyUSB/src/common/tusb_common.h **** //--------------------------------------------------------------------+
 112:lib/TinyUSB/src/common/tusb_common.h **** 
 113:lib/TinyUSB/src/common/tusb_common.h **** //------------- Mem -------------//
 114:lib/TinyUSB/src/common/tusb_common.h **** #define tu_memclr(buffer, size)  (void) memset((buffer), 0, (size))
 115:lib/TinyUSB/src/common/tusb_common.h **** #define tu_varclr(_var)          tu_memclr(_var, sizeof(*(_var)))
 116:lib/TinyUSB/src/common/tusb_common.h **** 
 117:lib/TinyUSB/src/common/tusb_common.h **** // This is a backport of memset_s from c11
 118:lib/TinyUSB/src/common/tusb_common.h **** TU_ATTR_ALWAYS_INLINE static inline int tu_memset_s(void *dest, size_t destsz, int ch, size_t count
 119:lib/TinyUSB/src/common/tusb_common.h ****   // Validate parameters
 120:lib/TinyUSB/src/common/tusb_common.h ****   if (dest == NULL) {
 121:lib/TinyUSB/src/common/tusb_common.h ****     return -1;
 122:lib/TinyUSB/src/common/tusb_common.h ****   }
 123:lib/TinyUSB/src/common/tusb_common.h **** 
 124:lib/TinyUSB/src/common/tusb_common.h ****   if (count == 0u) {
 125:lib/TinyUSB/src/common/tusb_common.h ****     return 0;
 126:lib/TinyUSB/src/common/tusb_common.h ****   }
 127:lib/TinyUSB/src/common/tusb_common.h **** 
 128:lib/TinyUSB/src/common/tusb_common.h ****   if (count > destsz) {
 129:lib/TinyUSB/src/common/tusb_common.h ****     return -1;
 130:lib/TinyUSB/src/common/tusb_common.h ****   }
 131:lib/TinyUSB/src/common/tusb_common.h **** 
 132:lib/TinyUSB/src/common/tusb_common.h ****   (void) memset(dest, ch, count);
 133:lib/TinyUSB/src/common/tusb_common.h ****   return 0;
ARM GAS  C:\Users\krisa\AppData\Local\Temp\ccNljk5K.s 			page 20


 134:lib/TinyUSB/src/common/tusb_common.h **** }
 135:lib/TinyUSB/src/common/tusb_common.h **** 
 136:lib/TinyUSB/src/common/tusb_common.h **** // This is a backport of memcpy_s from c11
 137:lib/TinyUSB/src/common/tusb_common.h **** TU_ATTR_ALWAYS_INLINE static inline int tu_memcpy_s(void *dest, size_t destsz, const void *src, siz
 138:lib/TinyUSB/src/common/tusb_common.h ****   if (dest == NULL) {
 139:lib/TinyUSB/src/common/tusb_common.h ****     return -1;
 140:lib/TinyUSB/src/common/tusb_common.h ****   }
 141:lib/TinyUSB/src/common/tusb_common.h **** 
 142:lib/TinyUSB/src/common/tusb_common.h ****   if (count == 0u) {
 143:lib/TinyUSB/src/common/tusb_common.h ****     return 0;
 144:lib/TinyUSB/src/common/tusb_common.h ****   }
 145:lib/TinyUSB/src/common/tusb_common.h **** 
 146:lib/TinyUSB/src/common/tusb_common.h ****   if (src == NULL) {
 147:lib/TinyUSB/src/common/tusb_common.h ****     return -1;
 148:lib/TinyUSB/src/common/tusb_common.h ****   }
 149:lib/TinyUSB/src/common/tusb_common.h **** 
 150:lib/TinyUSB/src/common/tusb_common.h ****   if (count > destsz) {
 151:lib/TinyUSB/src/common/tusb_common.h ****     return -1;
 152:lib/TinyUSB/src/common/tusb_common.h ****   }
 153:lib/TinyUSB/src/common/tusb_common.h **** 
 154:lib/TinyUSB/src/common/tusb_common.h ****   (void) memcpy(dest, src, count);
 155:lib/TinyUSB/src/common/tusb_common.h ****   return 0;
 156:lib/TinyUSB/src/common/tusb_common.h **** }
 157:lib/TinyUSB/src/common/tusb_common.h **** 
 158:lib/TinyUSB/src/common/tusb_common.h **** TU_ATTR_ALWAYS_INLINE static inline bool tu_mem_is_zero(const void *buffer, size_t size) {
 159:lib/TinyUSB/src/common/tusb_common.h ****   const uint8_t* buf8 = (const uint8_t*) buffer;
 160:lib/TinyUSB/src/common/tusb_common.h ****   for (size_t i = 0; i < size; i++) {
 161:lib/TinyUSB/src/common/tusb_common.h ****     if (buf8[i] != 0) { return false; }
 162:lib/TinyUSB/src/common/tusb_common.h ****   }
 163:lib/TinyUSB/src/common/tusb_common.h ****   return true;
 164:lib/TinyUSB/src/common/tusb_common.h **** }
 165:lib/TinyUSB/src/common/tusb_common.h **** 
 166:lib/TinyUSB/src/common/tusb_common.h **** TU_ATTR_ALWAYS_INLINE static inline bool tu_mem_is_ff(const void *buffer, size_t size) {
 167:lib/TinyUSB/src/common/tusb_common.h ****   const uint8_t* buf8 = (const uint8_t*) buffer;
 168:lib/TinyUSB/src/common/tusb_common.h ****   for (size_t i = 0; i < size; i++) {
 169:lib/TinyUSB/src/common/tusb_common.h ****     if (buf8[i] != 0xff) { return false; }
 170:lib/TinyUSB/src/common/tusb_common.h ****   }
 171:lib/TinyUSB/src/common/tusb_common.h ****   return true;
 172:lib/TinyUSB/src/common/tusb_common.h **** }
 173:lib/TinyUSB/src/common/tusb_common.h **** 
 174:lib/TinyUSB/src/common/tusb_common.h **** 
 175:lib/TinyUSB/src/common/tusb_common.h **** //------------- Bytes -------------//
 176:lib/TinyUSB/src/common/tusb_common.h **** TU_ATTR_ALWAYS_INLINE static inline uint32_t tu_u32(uint8_t b3, uint8_t b2, uint8_t b1, uint8_t b0)
 177:lib/TinyUSB/src/common/tusb_common.h ****   return (((uint32_t)b3) << 24) | (((uint32_t)b2) << 16) | (((uint32_t)b1) << 8) | b0;
 178:lib/TinyUSB/src/common/tusb_common.h **** }
 179:lib/TinyUSB/src/common/tusb_common.h **** 
 180:lib/TinyUSB/src/common/tusb_common.h **** TU_ATTR_ALWAYS_INLINE static inline uint32_t tu_u32_from_u16(uint16_t high, uint16_t low) {
 181:lib/TinyUSB/src/common/tusb_common.h ****   return (((uint32_t)high) << 16) | low;
 182:lib/TinyUSB/src/common/tusb_common.h **** }
 183:lib/TinyUSB/src/common/tusb_common.h **** 
 184:lib/TinyUSB/src/common/tusb_common.h **** TU_ATTR_ALWAYS_INLINE static inline uint16_t tu_u16(uint8_t high, uint8_t low) {
 185:lib/TinyUSB/src/common/tusb_common.h ****   return (uint16_t)((((uint16_t)high) << 8) | low);
 186:lib/TinyUSB/src/common/tusb_common.h **** }
 187:lib/TinyUSB/src/common/tusb_common.h **** 
 188:lib/TinyUSB/src/common/tusb_common.h **** TU_ATTR_ALWAYS_INLINE static inline uint8_t tu_u32_byte3(uint32_t ui32) { return TU_U32_BYTE3(ui32)
 189:lib/TinyUSB/src/common/tusb_common.h **** TU_ATTR_ALWAYS_INLINE static inline uint8_t tu_u32_byte2(uint32_t ui32) { return TU_U32_BYTE2(ui32)
 190:lib/TinyUSB/src/common/tusb_common.h **** TU_ATTR_ALWAYS_INLINE static inline uint8_t tu_u32_byte1(uint32_t ui32) { return TU_U32_BYTE1(ui32)
ARM GAS  C:\Users\krisa\AppData\Local\Temp\ccNljk5K.s 			page 21


 191:lib/TinyUSB/src/common/tusb_common.h **** TU_ATTR_ALWAYS_INLINE static inline uint8_t tu_u32_byte0(uint32_t ui32) { return TU_U32_BYTE0(ui32)
 192:lib/TinyUSB/src/common/tusb_common.h **** 
 193:lib/TinyUSB/src/common/tusb_common.h **** TU_ATTR_ALWAYS_INLINE static inline uint16_t tu_u32_high16(uint32_t ui32) { return (uint16_t) (ui32
 194:lib/TinyUSB/src/common/tusb_common.h **** TU_ATTR_ALWAYS_INLINE static inline uint16_t tu_u32_low16 (uint32_t ui32) { return (uint16_t) (ui32
 195:lib/TinyUSB/src/common/tusb_common.h **** 
 196:lib/TinyUSB/src/common/tusb_common.h **** TU_ATTR_ALWAYS_INLINE static inline uint8_t tu_u16_high(uint16_t ui16) { return TU_U16_HIGH(ui16); 
 197:lib/TinyUSB/src/common/tusb_common.h **** TU_ATTR_ALWAYS_INLINE static inline uint8_t tu_u16_low (uint16_t ui16) { return TU_U16_LOW(ui16); }
 198:lib/TinyUSB/src/common/tusb_common.h **** 
 199:lib/TinyUSB/src/common/tusb_common.h **** //------------- Bits -------------//
 200:lib/TinyUSB/src/common/tusb_common.h **** TU_ATTR_ALWAYS_INLINE static inline uint32_t tu_bit_set  (uint32_t value, uint8_t pos) { return val
 201:lib/TinyUSB/src/common/tusb_common.h **** TU_ATTR_ALWAYS_INLINE static inline uint32_t tu_bit_clear(uint32_t value, uint8_t pos) { return val
 202:lib/TinyUSB/src/common/tusb_common.h **** TU_ATTR_ALWAYS_INLINE static inline bool     tu_bit_test (uint32_t value, uint8_t pos) { return (va
 203:lib/TinyUSB/src/common/tusb_common.h **** 
 204:lib/TinyUSB/src/common/tusb_common.h **** //------------- Min -------------//
 205:lib/TinyUSB/src/common/tusb_common.h **** TU_ATTR_ALWAYS_INLINE static inline uint8_t  tu_min8  (uint8_t  x, uint8_t y ) { return (x < y) ? x
 206:lib/TinyUSB/src/common/tusb_common.h **** TU_ATTR_ALWAYS_INLINE static inline uint16_t tu_min16 (uint16_t x, uint16_t y) { return (x < y) ? x
 207:lib/TinyUSB/src/common/tusb_common.h **** TU_ATTR_ALWAYS_INLINE static inline uint32_t tu_min32 (uint32_t x, uint32_t y) { return (x < y) ? x
 208:lib/TinyUSB/src/common/tusb_common.h **** 
 209:lib/TinyUSB/src/common/tusb_common.h **** //------------- Max -------------//
 210:lib/TinyUSB/src/common/tusb_common.h **** TU_ATTR_ALWAYS_INLINE static inline uint8_t  tu_max8  (uint8_t  x, uint8_t y ) { return (x > y) ? x
 211:lib/TinyUSB/src/common/tusb_common.h **** TU_ATTR_ALWAYS_INLINE static inline uint16_t tu_max16 (uint16_t x, uint16_t y) { return (x > y) ? x
 212:lib/TinyUSB/src/common/tusb_common.h **** TU_ATTR_ALWAYS_INLINE static inline uint32_t tu_max32 (uint32_t x, uint32_t y) { return (x > y) ? x
 213:lib/TinyUSB/src/common/tusb_common.h **** 
 214:lib/TinyUSB/src/common/tusb_common.h **** //------------- Align -------------//
 215:lib/TinyUSB/src/common/tusb_common.h **** TU_ATTR_ALWAYS_INLINE static inline uint32_t tu_align(uint32_t value, uint32_t alignment) {
 216:lib/TinyUSB/src/common/tusb_common.h ****   return value & ((uint32_t) ~(alignment-1));
 217:lib/TinyUSB/src/common/tusb_common.h **** }
 218:lib/TinyUSB/src/common/tusb_common.h **** 
 219:lib/TinyUSB/src/common/tusb_common.h **** TU_ATTR_ALWAYS_INLINE static inline uint32_t tu_align4  (uint32_t value) { return (value & 0xFFFFFF
 220:lib/TinyUSB/src/common/tusb_common.h **** TU_ATTR_ALWAYS_INLINE static inline uint32_t tu_align8  (uint32_t value) { return (value & 0xFFFFFF
 221:lib/TinyUSB/src/common/tusb_common.h **** TU_ATTR_ALWAYS_INLINE static inline uint32_t tu_align16 (uint32_t value) { return (value & 0xFFFFFF
 222:lib/TinyUSB/src/common/tusb_common.h **** TU_ATTR_ALWAYS_INLINE static inline uint32_t tu_align32 (uint32_t value) { return (value & 0xFFFFFF
 223:lib/TinyUSB/src/common/tusb_common.h **** TU_ATTR_ALWAYS_INLINE static inline uint32_t tu_align4k (uint32_t value) { return (value & 0xFFFFF0
 224:lib/TinyUSB/src/common/tusb_common.h **** TU_ATTR_ALWAYS_INLINE static inline uint32_t tu_offset4k(uint32_t value) { return (value & 0xFFFUL)
 225:lib/TinyUSB/src/common/tusb_common.h **** 
 226:lib/TinyUSB/src/common/tusb_common.h **** TU_ATTR_ALWAYS_INLINE static inline bool tu_is_aligned32(uint32_t value) { return (value & 0x1FUL) 
 227:lib/TinyUSB/src/common/tusb_common.h **** TU_ATTR_ALWAYS_INLINE static inline bool tu_is_aligned64(uint64_t value) { return (value & 0x3FUL) 
 228:lib/TinyUSB/src/common/tusb_common.h **** 
 229:lib/TinyUSB/src/common/tusb_common.h **** //------------- Mathematics -------------//
 230:lib/TinyUSB/src/common/tusb_common.h **** TU_ATTR_ALWAYS_INLINE static inline uint32_t tu_div_ceil(uint32_t v, uint32_t d) { return TU_DIV_CE
 108              		.loc 4 230 46 discriminator 2 view .LVU28
 109              	.LBB210:
 110              		.loc 4 230 84 discriminator 2 view .LVU29
 111              		.loc 4 230 91 is_stmt 0 discriminator 2 view .LVU30
 112 0024 0332     		adds	r2, r2, #3
 113              	.LVL9:
 114              		.loc 4 230 91 discriminator 2 view .LVU31
 115              	.LBE210:
 116              	.LBE209:
 117              		.loc 1 203 12 discriminator 2 view .LVU32
 118 0026 9208     		lsrs	r2, r2, #2
 119              	.LVL10:
 204:lib/TinyUSB/src/portable/synopsys/dwc2/dcd_dwc2.c ****   if (dir == TUSB_DIR_OUT) {
 120              		.loc 1 204 3 is_stmt 1 discriminator 2 view .LVU33
 121              		.loc 1 204 6 is_stmt 0 discriminator 2 view .LVU34
 122 0028 31BB     		cbnz	r1, .L6
 123              	.LBB211:
ARM GAS  C:\Users\krisa\AppData\Local\Temp\ccNljk5K.s 			page 22


 205:lib/TinyUSB/src/portable/synopsys/dwc2/dcd_dwc2.c ****     // Calculate required size of RX FIFO
 206:lib/TinyUSB/src/portable/synopsys/dwc2/dcd_dwc2.c ****     const uint16_t new_sz = calc_device_grxfsiz(4 * fifo_size, ep_count);
 124              		.loc 1 206 5 is_stmt 1 view .LVU35
 125              	.LVL11:
 126              	.LBB212:
 127              	.LBI212:
 190:lib/TinyUSB/src/portable/synopsys/dwc2/dcd_dwc2.c ****   return 13 + 1 + 2 * ((largest_ep_size / 4) + 1) + 2 * ep_count;
 128              		.loc 1 190 46 view .LVU36
 129              	.LBB213:
 191:lib/TinyUSB/src/portable/synopsys/dwc2/dcd_dwc2.c **** }
 130              		.loc 1 191 3 view .LVU37
 191:lib/TinyUSB/src/portable/synopsys/dwc2/dcd_dwc2.c **** }
 131              		.loc 1 191 41 is_stmt 0 view .LVU38
 132 002a C2F30D02 		ubfx	r2, r2, #0, #14
 133              	.LVL12:
 191:lib/TinyUSB/src/portable/synopsys/dwc2/dcd_dwc2.c **** }
 134              		.loc 1 191 17 view .LVU39
 135 002e 0832     		adds	r2, r2, #8
 191:lib/TinyUSB/src/portable/synopsys/dwc2/dcd_dwc2.c **** }
 136              		.loc 1 191 51 view .LVU40
 137 0030 1444     		add	r4, r4, r2
 138              	.LVL13:
 191:lib/TinyUSB/src/portable/synopsys/dwc2/dcd_dwc2.c **** }
 139              		.loc 1 191 51 view .LVU41
 140 0032 6400     		lsls	r4, r4, #1
 141 0034 A4B2     		uxth	r4, r4
 142              	.LVL14:
 191:lib/TinyUSB/src/portable/synopsys/dwc2/dcd_dwc2.c **** }
 143              		.loc 1 191 51 view .LVU42
 144              	.LBE213:
 145              	.LBE212:
 207:lib/TinyUSB/src/portable/synopsys/dwc2/dcd_dwc2.c **** 
 208:lib/TinyUSB/src/portable/synopsys/dwc2/dcd_dwc2.c ****     // If size_rx needs to be extended check if there is enough free space
 209:lib/TinyUSB/src/portable/synopsys/dwc2/dcd_dwc2.c ****     if (dwc2->grxfsiz < new_sz) {
 146              		.loc 1 209 5 is_stmt 1 view .LVU43
 147              		.loc 1 209 13 is_stmt 0 view .LVU44
 148 0036 736A     		ldr	r3, [r6, #36]
 149              	.LVL15:
 150              		.loc 1 209 8 view .LVU45
 151 0038 A342     		cmp	r3, r4
 152 003a 60D2     		bcs	.L17
 210:lib/TinyUSB/src/portable/synopsys/dwc2/dcd_dwc2.c ****       TU_ASSERT(new_sz <= _dcd_data.dfifo_top);
 153              		.loc 1 210 7 is_stmt 1 view .LVU46
 154              		.loc 1 210 7 view .LVU47
 155 003c 324B     		ldr	r3, .L24+4
 156 003e 9B88     		ldrh	r3, [r3, #4]
 157 0040 A342     		cmp	r3, r4
 158 0042 0FD3     		bcc	.L21
 159              		.loc 1 210 7 discriminator 2 view .LVU48
 211:lib/TinyUSB/src/portable/synopsys/dwc2/dcd_dwc2.c ****       dwc2->grxfsiz = new_sz; // Enlarge RX FIFO
 160              		.loc 1 211 7 discriminator 2 view .LVU49
 161              		.loc 1 211 21 is_stmt 0 discriminator 2 view .LVU50
 162 0044 7462     		str	r4, [r6, #36]
 163              	.LBE211:
 212:lib/TinyUSB/src/portable/synopsys/dwc2/dcd_dwc2.c ****     }
 213:lib/TinyUSB/src/portable/synopsys/dwc2/dcd_dwc2.c ****   } else {
 214:lib/TinyUSB/src/portable/synopsys/dwc2/dcd_dwc2.c ****     // Check IN endpoints concurrently active limit
ARM GAS  C:\Users\krisa\AppData\Local\Temp\ccNljk5K.s 			page 23


 215:lib/TinyUSB/src/portable/synopsys/dwc2/dcd_dwc2.c ****     if(0 != dwc2_controller->ep_in_count) {
 216:lib/TinyUSB/src/portable/synopsys/dwc2/dcd_dwc2.c ****       TU_ASSERT(_dcd_data.allocated_epin_count < dwc2_controller->ep_in_count);
 217:lib/TinyUSB/src/portable/synopsys/dwc2/dcd_dwc2.c ****       _dcd_data.allocated_epin_count++;
 218:lib/TinyUSB/src/portable/synopsys/dwc2/dcd_dwc2.c ****     }
 219:lib/TinyUSB/src/portable/synopsys/dwc2/dcd_dwc2.c **** 
 220:lib/TinyUSB/src/portable/synopsys/dwc2/dcd_dwc2.c ****     // Enable double buffering if configured, only effective for non-periodic endpoints
 221:lib/TinyUSB/src/portable/synopsys/dwc2/dcd_dwc2.c ****     // Since we queue only 1 control transfer at a time, it's only applicable for bulk IN endpoints
 222:lib/TinyUSB/src/portable/synopsys/dwc2/dcd_dwc2.c ****     if (((_tud_cfg.bm_double_buffered & (1 << epnum)) != 0) && epnum > 0 && is_bulk) {
 223:lib/TinyUSB/src/portable/synopsys/dwc2/dcd_dwc2.c ****       fifo_size *= 2;
 224:lib/TinyUSB/src/portable/synopsys/dwc2/dcd_dwc2.c ****     }
 225:lib/TinyUSB/src/portable/synopsys/dwc2/dcd_dwc2.c **** 
 226:lib/TinyUSB/src/portable/synopsys/dwc2/dcd_dwc2.c ****     // Check if free space is available
 227:lib/TinyUSB/src/portable/synopsys/dwc2/dcd_dwc2.c ****     TU_ASSERT(_dcd_data.dfifo_top >= fifo_size + dwc2->grxfsiz);
 228:lib/TinyUSB/src/portable/synopsys/dwc2/dcd_dwc2.c ****     _dcd_data.dfifo_top -= fifo_size;
 229:lib/TinyUSB/src/portable/synopsys/dwc2/dcd_dwc2.c ****     // TU_LOG(DWC2_DEBUG, "    TX FIFO %u: allocated %u words at offset %u\r\n", epnum, fifo_size, 
 230:lib/TinyUSB/src/portable/synopsys/dwc2/dcd_dwc2.c **** 
 231:lib/TinyUSB/src/portable/synopsys/dwc2/dcd_dwc2.c ****     // Both TXFD and TXSA are in unit of 32-bit words.
 232:lib/TinyUSB/src/portable/synopsys/dwc2/dcd_dwc2.c ****     if (epnum == 0) {
 233:lib/TinyUSB/src/portable/synopsys/dwc2/dcd_dwc2.c ****       dwc2->dieptxf0 = ((uint32_t) fifo_size << DIEPTXF0_TX0FD_Pos) | _dcd_data.dfifo_top;
 234:lib/TinyUSB/src/portable/synopsys/dwc2/dcd_dwc2.c ****     } else {
 235:lib/TinyUSB/src/portable/synopsys/dwc2/dcd_dwc2.c ****       // DIEPTXF starts at FIFO #1.
 236:lib/TinyUSB/src/portable/synopsys/dwc2/dcd_dwc2.c ****       dwc2->dieptxf[epnum - 1] = ((uint32_t) fifo_size << DIEPTXF_INEPTXFD_Pos) | _dcd_data.dfifo_t
 237:lib/TinyUSB/src/portable/synopsys/dwc2/dcd_dwc2.c ****     }
 238:lib/TinyUSB/src/portable/synopsys/dwc2/dcd_dwc2.c ****   }
 239:lib/TinyUSB/src/portable/synopsys/dwc2/dcd_dwc2.c **** 
 240:lib/TinyUSB/src/portable/synopsys/dwc2/dcd_dwc2.c ****   return true;
 164              		.loc 1 240 10 discriminator 2 view .LVU51
 165 0046 0120     		movs	r0, #1
 166              	.LVL16:
 167              		.loc 1 240 10 discriminator 2 view .LVU52
 168 0048 0AE0     		b	.L5
 169              	.LVL17:
 170              	.L19:
 171              	.LBB215:
 172              	.LBB204:
  80:lib/TinyUSB/src/portable/synopsys/dwc2/dwc2_common.h ****     // user mis-configured, ignore and use first controller
 173              		.loc 2 80 6 view .LVU53
 174 004a 8446     		mov	ip, r0
 175 004c DDE7     		b	.L2
 176              	.LVL18:
 177              	.L20:
  80:lib/TinyUSB/src/portable/synopsys/dwc2/dwc2_common.h ****     // user mis-configured, ignore and use first controller
 178              		.loc 2 80 6 view .LVU54
 179              	.LBE204:
 180              	.LBE215:
 201:lib/TinyUSB/src/portable/synopsys/dwc2/dcd_dwc2.c **** 
 181              		.loc 1 201 3 is_stmt 1 discriminator 1 view .LVU55
 201:lib/TinyUSB/src/portable/synopsys/dwc2/dcd_dwc2.c **** 
 182              		.loc 1 201 3 discriminator 1 view .LVU56
 201:lib/TinyUSB/src/portable/synopsys/dwc2/dcd_dwc2.c **** 
 183              		.loc 1 201 3 discriminator 1 view .LVU57
 201:lib/TinyUSB/src/portable/synopsys/dwc2/dcd_dwc2.c **** 
 184              		.loc 1 201 3 discriminator 1 view .LVU58
 185              	.LBB216:
 201:lib/TinyUSB/src/portable/synopsys/dwc2/dcd_dwc2.c **** 
 186              		.loc 1 201 3 discriminator 1 view .LVU59
 201:lib/TinyUSB/src/portable/synopsys/dwc2/dcd_dwc2.c **** 
ARM GAS  C:\Users\krisa\AppData\Local\Temp\ccNljk5K.s 			page 24


 187              		.loc 1 201 3 discriminator 1 view .LVU60
 188 004e 4FF0E023 		mov	r3, #-536813568
 189              	.LVL19:
 201:lib/TinyUSB/src/portable/synopsys/dwc2/dcd_dwc2.c **** 
 190              		.loc 1 201 3 is_stmt 0 discriminator 1 view .LVU61
 191 0052 D3F8F03D 		ldr	r3, [r3, #3568]
 192 0056 13F0010F 		tst	r3, #1
 193 005a 00D0     		beq	.L4
 201:lib/TinyUSB/src/portable/synopsys/dwc2/dcd_dwc2.c **** 
 194              		.loc 1 201 3 is_stmt 1 discriminator 3 view .LVU62
 195              		.syntax unified
 196              	@ 201 "lib/TinyUSB/src/portable/synopsys/dwc2/dcd_dwc2.c" 1
 197 005c 00BE     		BKPT #0
 198              	
 199              	@ 0 "" 2
 200              		.thumb
 201              		.syntax unified
 202              	.L4:
 203              	.LBE216:
 201:lib/TinyUSB/src/portable/synopsys/dwc2/dcd_dwc2.c **** 
 204              		.loc 1 201 3 discriminator 5 view .LVU63
 201:lib/TinyUSB/src/portable/synopsys/dwc2/dcd_dwc2.c **** 
 205              		.loc 1 201 3 discriminator 5 view .LVU64
 206 005e 0020     		movs	r0, #0
 207              	.LVL20:
 208              	.L5:
 241:lib/TinyUSB/src/portable/synopsys/dwc2/dcd_dwc2.c **** }
 209              		.loc 1 241 1 is_stmt 0 view .LVU65
 210 0060 70BC     		pop	{r4, r5, r6}
 211              	.LCFI1:
 212              		.cfi_remember_state
 213              		.cfi_restore 6
 214              		.cfi_restore 5
 215              		.cfi_restore 4
 216              		.cfi_def_cfa_offset 0
 217              	.LVL21:
 218              		.loc 1 241 1 view .LVU66
 219 0062 7047     		bx	lr
 220              	.LVL22:
 221              	.L21:
 222              	.LCFI2:
 223              		.cfi_restore_state
 224              	.LBB217:
 210:lib/TinyUSB/src/portable/synopsys/dwc2/dcd_dwc2.c ****       dwc2->grxfsiz = new_sz; // Enlarge RX FIFO
 225              		.loc 1 210 7 is_stmt 1 discriminator 1 view .LVU67
 210:lib/TinyUSB/src/portable/synopsys/dwc2/dcd_dwc2.c ****       dwc2->grxfsiz = new_sz; // Enlarge RX FIFO
 226              		.loc 1 210 7 discriminator 1 view .LVU68
 210:lib/TinyUSB/src/portable/synopsys/dwc2/dcd_dwc2.c ****       dwc2->grxfsiz = new_sz; // Enlarge RX FIFO
 227              		.loc 1 210 7 discriminator 1 view .LVU69
 210:lib/TinyUSB/src/portable/synopsys/dwc2/dcd_dwc2.c ****       dwc2->grxfsiz = new_sz; // Enlarge RX FIFO
 228              		.loc 1 210 7 discriminator 1 view .LVU70
 229              	.LBB214:
 210:lib/TinyUSB/src/portable/synopsys/dwc2/dcd_dwc2.c ****       dwc2->grxfsiz = new_sz; // Enlarge RX FIFO
 230              		.loc 1 210 7 discriminator 1 view .LVU71
 210:lib/TinyUSB/src/portable/synopsys/dwc2/dcd_dwc2.c ****       dwc2->grxfsiz = new_sz; // Enlarge RX FIFO
 231              		.loc 1 210 7 discriminator 1 view .LVU72
 232 0064 4FF0E023 		mov	r3, #-536813568
ARM GAS  C:\Users\krisa\AppData\Local\Temp\ccNljk5K.s 			page 25


 233 0068 D3F8F03D 		ldr	r3, [r3, #3568]
 234 006c 13F0010F 		tst	r3, #1
 235 0070 00D0     		beq	.L8
 210:lib/TinyUSB/src/portable/synopsys/dwc2/dcd_dwc2.c ****       dwc2->grxfsiz = new_sz; // Enlarge RX FIFO
 236              		.loc 1 210 7 discriminator 3 view .LVU73
 237              		.syntax unified
 238              	@ 210 "lib/TinyUSB/src/portable/synopsys/dwc2/dcd_dwc2.c" 1
 239 0072 00BE     		BKPT #0
 240              	
 241              	@ 0 "" 2
 242              		.thumb
 243              		.syntax unified
 244              	.L8:
 245              	.LBE214:
 210:lib/TinyUSB/src/portable/synopsys/dwc2/dcd_dwc2.c ****       dwc2->grxfsiz = new_sz; // Enlarge RX FIFO
 246              		.loc 1 210 7 discriminator 5 view .LVU74
 210:lib/TinyUSB/src/portable/synopsys/dwc2/dcd_dwc2.c ****       dwc2->grxfsiz = new_sz; // Enlarge RX FIFO
 247              		.loc 1 210 7 discriminator 5 view .LVU75
 248 0074 0020     		movs	r0, #0
 249              	.LVL23:
 210:lib/TinyUSB/src/portable/synopsys/dwc2/dcd_dwc2.c ****       dwc2->grxfsiz = new_sz; // Enlarge RX FIFO
 250              		.loc 1 210 7 is_stmt 0 discriminator 5 view .LVU76
 251 0076 F3E7     		b	.L5
 252              	.LVL24:
 253              	.L6:
 210:lib/TinyUSB/src/portable/synopsys/dwc2/dcd_dwc2.c ****       dwc2->grxfsiz = new_sz; // Enlarge RX FIFO
 254              		.loc 1 210 7 discriminator 5 view .LVU77
 255              	.LBE217:
 215:lib/TinyUSB/src/portable/synopsys/dwc2/dcd_dwc2.c ****       TU_ASSERT(_dcd_data.allocated_epin_count < dwc2_controller->ep_in_count);
 256              		.loc 1 215 5 is_stmt 1 view .LVU78
 215:lib/TinyUSB/src/portable/synopsys/dwc2/dcd_dwc2.c ****       TU_ASSERT(_dcd_data.allocated_epin_count < dwc2_controller->ep_in_count);
 257              		.loc 1 215 28 is_stmt 0 view .LVU79
 258 0078 2249     		ldr	r1, .L24
 259              	.LVL25:
 215:lib/TinyUSB/src/portable/synopsys/dwc2/dcd_dwc2.c ****       TU_ASSERT(_dcd_data.allocated_epin_count < dwc2_controller->ep_in_count);
 260              		.loc 1 215 28 view .LVU80
 261 007a 01EB0010 		add	r0, r1, r0, lsl #4
 262              	.LVL26:
 215:lib/TinyUSB/src/portable/synopsys/dwc2/dcd_dwc2.c ****       TU_ASSERT(_dcd_data.allocated_epin_count < dwc2_controller->ep_in_count);
 263              		.loc 1 215 28 view .LVU81
 264 007e 417A     		ldrb	r1, [r0, #9]	@ zero_extendqisi2
 215:lib/TinyUSB/src/portable/synopsys/dwc2/dcd_dwc2.c ****       TU_ASSERT(_dcd_data.allocated_epin_count < dwc2_controller->ep_in_count);
 265              		.loc 1 215 7 view .LVU82
 266 0080 31B1     		cbz	r1, .L9
 216:lib/TinyUSB/src/portable/synopsys/dwc2/dcd_dwc2.c ****       _dcd_data.allocated_epin_count++;
 267              		.loc 1 216 7 is_stmt 1 view .LVU83
 216:lib/TinyUSB/src/portable/synopsys/dwc2/dcd_dwc2.c ****       _dcd_data.allocated_epin_count++;
 268              		.loc 1 216 7 view .LVU84
 269 0082 2148     		ldr	r0, .L24+4
 270 0084 8079     		ldrb	r0, [r0, #6]	@ zero_extendqisi2
 271 0086 8142     		cmp	r1, r0
 272 0088 1DD9     		bls	.L22
 216:lib/TinyUSB/src/portable/synopsys/dwc2/dcd_dwc2.c ****       _dcd_data.allocated_epin_count++;
 273              		.loc 1 216 7 discriminator 2 view .LVU85
 217:lib/TinyUSB/src/portable/synopsys/dwc2/dcd_dwc2.c ****     }
 274              		.loc 1 217 7 discriminator 2 view .LVU86
 217:lib/TinyUSB/src/portable/synopsys/dwc2/dcd_dwc2.c ****     }
ARM GAS  C:\Users\krisa\AppData\Local\Temp\ccNljk5K.s 			page 26


 275              		.loc 1 217 37 is_stmt 0 discriminator 2 view .LVU87
 276 008a 0130     		adds	r0, r0, #1
 277 008c 1E49     		ldr	r1, .L24+4
 278 008e 8871     		strb	r0, [r1, #6]
 279              	.L9:
 222:lib/TinyUSB/src/portable/synopsys/dwc2/dcd_dwc2.c ****       fifo_size *= 2;
 280              		.loc 1 222 5 is_stmt 1 view .LVU88
 222:lib/TinyUSB/src/portable/synopsys/dwc2/dcd_dwc2.c ****       fifo_size *= 2;
 281              		.loc 1 222 19 is_stmt 0 view .LVU89
 282 0090 1E49     		ldr	r1, .L24+8
 283 0092 0988     		ldrh	r1, [r1]
 222:lib/TinyUSB/src/portable/synopsys/dwc2/dcd_dwc2.c ****       fifo_size *= 2;
 284              		.loc 1 222 55 view .LVU90
 285 0094 2941     		asrs	r1, r1, r5
 222:lib/TinyUSB/src/portable/synopsys/dwc2/dcd_dwc2.c ****       fifo_size *= 2;
 286              		.loc 1 222 8 view .LVU91
 287 0096 11F0010F 		tst	r1, #1
 288 009a 03D0     		beq	.L12
 222:lib/TinyUSB/src/portable/synopsys/dwc2/dcd_dwc2.c ****       fifo_size *= 2;
 289              		.loc 1 222 61 discriminator 1 view .LVU92
 290 009c 15B1     		cbz	r5, .L12
 222:lib/TinyUSB/src/portable/synopsys/dwc2/dcd_dwc2.c ****       fifo_size *= 2;
 291              		.loc 1 222 74 discriminator 2 view .LVU93
 292 009e 0BB1     		cbz	r3, .L12
 223:lib/TinyUSB/src/portable/synopsys/dwc2/dcd_dwc2.c ****     }
 293              		.loc 1 223 7 is_stmt 1 view .LVU94
 223:lib/TinyUSB/src/portable/synopsys/dwc2/dcd_dwc2.c ****     }
 294              		.loc 1 223 17 is_stmt 0 view .LVU95
 295 00a0 5200     		lsls	r2, r2, #1
 296              	.LVL27:
 223:lib/TinyUSB/src/portable/synopsys/dwc2/dcd_dwc2.c ****     }
 297              		.loc 1 223 17 view .LVU96
 298 00a2 92B2     		uxth	r2, r2
 299              	.LVL28:
 300              	.L12:
 227:lib/TinyUSB/src/portable/synopsys/dwc2/dcd_dwc2.c ****     _dcd_data.dfifo_top -= fifo_size;
 301              		.loc 1 227 5 is_stmt 1 view .LVU97
 227:lib/TinyUSB/src/portable/synopsys/dwc2/dcd_dwc2.c ****     _dcd_data.dfifo_top -= fifo_size;
 302              		.loc 1 227 5 view .LVU98
 303 00a4 184B     		ldr	r3, .L24+4
 304              	.LVL29:
 227:lib/TinyUSB/src/portable/synopsys/dwc2/dcd_dwc2.c ****     _dcd_data.dfifo_top -= fifo_size;
 305              		.loc 1 227 5 is_stmt 0 view .LVU99
 306 00a6 9B88     		ldrh	r3, [r3, #4]
 307 00a8 1046     		mov	r0, r2
 308 00aa 716A     		ldr	r1, [r6, #36]
 309 00ac 1144     		add	r1, r1, r2
 310 00ae 8B42     		cmp	r3, r1
 311 00b0 13D3     		bcc	.L23
 227:lib/TinyUSB/src/portable/synopsys/dwc2/dcd_dwc2.c ****     _dcd_data.dfifo_top -= fifo_size;
 312              		.loc 1 227 5 is_stmt 1 discriminator 2 view .LVU100
 228:lib/TinyUSB/src/portable/synopsys/dwc2/dcd_dwc2.c ****     // TU_LOG(DWC2_DEBUG, "    TX FIFO %u: allocated %u words at offset %u\r\n", epnum, fifo_size, 
 313              		.loc 1 228 5 discriminator 2 view .LVU101
 228:lib/TinyUSB/src/portable/synopsys/dwc2/dcd_dwc2.c ****     // TU_LOG(DWC2_DEBUG, "    TX FIFO %u: allocated %u words at offset %u\r\n", epnum, fifo_size, 
 314              		.loc 1 228 25 is_stmt 0 discriminator 2 view .LVU102
 315 00b2 9B1A     		subs	r3, r3, r2
 316 00b4 9BB2     		uxth	r3, r3
ARM GAS  C:\Users\krisa\AppData\Local\Temp\ccNljk5K.s 			page 27


 317 00b6 144A     		ldr	r2, .L24+4
 318              	.LVL30:
 228:lib/TinyUSB/src/portable/synopsys/dwc2/dcd_dwc2.c ****     // TU_LOG(DWC2_DEBUG, "    TX FIFO %u: allocated %u words at offset %u\r\n", epnum, fifo_size, 
 319              		.loc 1 228 25 discriminator 2 view .LVU103
 320 00b8 9380     		strh	r3, [r2, #4]	@ movhi
 232:lib/TinyUSB/src/portable/synopsys/dwc2/dcd_dwc2.c ****       dwc2->dieptxf0 = ((uint32_t) fifo_size << DIEPTXF0_TX0FD_Pos) | _dcd_data.dfifo_top;
 321              		.loc 1 232 5 is_stmt 1 discriminator 2 view .LVU104
 232:lib/TinyUSB/src/portable/synopsys/dwc2/dcd_dwc2.c ****       dwc2->dieptxf0 = ((uint32_t) fifo_size << DIEPTXF0_TX0FD_Pos) | _dcd_data.dfifo_top;
 322              		.loc 1 232 8 is_stmt 0 discriminator 2 view .LVU105
 323 00ba C5B9     		cbnz	r5, .L15
 233:lib/TinyUSB/src/portable/synopsys/dwc2/dcd_dwc2.c ****     } else {
 324              		.loc 1 233 7 is_stmt 1 view .LVU106
 233:lib/TinyUSB/src/portable/synopsys/dwc2/dcd_dwc2.c ****     } else {
 325              		.loc 1 233 69 is_stmt 0 view .LVU107
 326 00bc 43EA0043 		orr	r3, r3, r0, lsl #16
 233:lib/TinyUSB/src/portable/synopsys/dwc2/dcd_dwc2.c ****     } else {
 327              		.loc 1 233 22 view .LVU108
 328 00c0 B362     		str	r3, [r6, #40]
 240:lib/TinyUSB/src/portable/synopsys/dwc2/dcd_dwc2.c **** }
 329              		.loc 1 240 10 view .LVU109
 330 00c2 0120     		movs	r0, #1
 331 00c4 CCE7     		b	.L5
 332              	.LVL31:
 333              	.L22:
 216:lib/TinyUSB/src/portable/synopsys/dwc2/dcd_dwc2.c ****       _dcd_data.allocated_epin_count++;
 334              		.loc 1 216 7 is_stmt 1 discriminator 1 view .LVU110
 216:lib/TinyUSB/src/portable/synopsys/dwc2/dcd_dwc2.c ****       _dcd_data.allocated_epin_count++;
 335              		.loc 1 216 7 discriminator 1 view .LVU111
 216:lib/TinyUSB/src/portable/synopsys/dwc2/dcd_dwc2.c ****       _dcd_data.allocated_epin_count++;
 336              		.loc 1 216 7 discriminator 1 view .LVU112
 216:lib/TinyUSB/src/portable/synopsys/dwc2/dcd_dwc2.c ****       _dcd_data.allocated_epin_count++;
 337              		.loc 1 216 7 discriminator 1 view .LVU113
 338              	.LBB218:
 216:lib/TinyUSB/src/portable/synopsys/dwc2/dcd_dwc2.c ****       _dcd_data.allocated_epin_count++;
 339              		.loc 1 216 7 discriminator 1 view .LVU114
 216:lib/TinyUSB/src/portable/synopsys/dwc2/dcd_dwc2.c ****       _dcd_data.allocated_epin_count++;
 340              		.loc 1 216 7 discriminator 1 view .LVU115
 341 00c6 4FF0E023 		mov	r3, #-536813568
 342              	.LVL32:
 216:lib/TinyUSB/src/portable/synopsys/dwc2/dcd_dwc2.c ****       _dcd_data.allocated_epin_count++;
 343              		.loc 1 216 7 is_stmt 0 discriminator 1 view .LVU116
 344 00ca D3F8F03D 		ldr	r3, [r3, #3568]
 345 00ce 13F0010F 		tst	r3, #1
 346 00d2 00D0     		beq	.L11
 216:lib/TinyUSB/src/portable/synopsys/dwc2/dcd_dwc2.c ****       _dcd_data.allocated_epin_count++;
 347              		.loc 1 216 7 is_stmt 1 discriminator 3 view .LVU117
 348              		.syntax unified
 349              	@ 216 "lib/TinyUSB/src/portable/synopsys/dwc2/dcd_dwc2.c" 1
 350 00d4 00BE     		BKPT #0
 351              	
 352              	@ 0 "" 2
 353              		.thumb
 354              		.syntax unified
 355              	.L11:
 356              	.LBE218:
 216:lib/TinyUSB/src/portable/synopsys/dwc2/dcd_dwc2.c ****       _dcd_data.allocated_epin_count++;
 357              		.loc 1 216 7 discriminator 5 view .LVU118
ARM GAS  C:\Users\krisa\AppData\Local\Temp\ccNljk5K.s 			page 28


 216:lib/TinyUSB/src/portable/synopsys/dwc2/dcd_dwc2.c ****       _dcd_data.allocated_epin_count++;
 358              		.loc 1 216 7 discriminator 5 view .LVU119
 359 00d6 0020     		movs	r0, #0
 360 00d8 C2E7     		b	.L5
 361              	.LVL33:
 362              	.L23:
 227:lib/TinyUSB/src/portable/synopsys/dwc2/dcd_dwc2.c ****     _dcd_data.dfifo_top -= fifo_size;
 363              		.loc 1 227 5 discriminator 1 view .LVU120
 227:lib/TinyUSB/src/portable/synopsys/dwc2/dcd_dwc2.c ****     _dcd_data.dfifo_top -= fifo_size;
 364              		.loc 1 227 5 discriminator 1 view .LVU121
 227:lib/TinyUSB/src/portable/synopsys/dwc2/dcd_dwc2.c ****     _dcd_data.dfifo_top -= fifo_size;
 365              		.loc 1 227 5 discriminator 1 view .LVU122
 227:lib/TinyUSB/src/portable/synopsys/dwc2/dcd_dwc2.c ****     _dcd_data.dfifo_top -= fifo_size;
 366              		.loc 1 227 5 discriminator 1 view .LVU123
 367              	.LBB219:
 227:lib/TinyUSB/src/portable/synopsys/dwc2/dcd_dwc2.c ****     _dcd_data.dfifo_top -= fifo_size;
 368              		.loc 1 227 5 discriminator 1 view .LVU124
 227:lib/TinyUSB/src/portable/synopsys/dwc2/dcd_dwc2.c ****     _dcd_data.dfifo_top -= fifo_size;
 369              		.loc 1 227 5 discriminator 1 view .LVU125
 370 00da 4FF0E023 		mov	r3, #-536813568
 371 00de D3F8F03D 		ldr	r3, [r3, #3568]
 372 00e2 13F0010F 		tst	r3, #1
 373 00e6 00D0     		beq	.L14
 227:lib/TinyUSB/src/portable/synopsys/dwc2/dcd_dwc2.c ****     _dcd_data.dfifo_top -= fifo_size;
 374              		.loc 1 227 5 discriminator 3 view .LVU126
 375              		.syntax unified
 376              	@ 227 "lib/TinyUSB/src/portable/synopsys/dwc2/dcd_dwc2.c" 1
 377 00e8 00BE     		BKPT #0
 378              	
 379              	@ 0 "" 2
 380              		.thumb
 381              		.syntax unified
 382              	.L14:
 383              	.LBE219:
 227:lib/TinyUSB/src/portable/synopsys/dwc2/dcd_dwc2.c ****     _dcd_data.dfifo_top -= fifo_size;
 384              		.loc 1 227 5 discriminator 5 view .LVU127
 227:lib/TinyUSB/src/portable/synopsys/dwc2/dcd_dwc2.c ****     _dcd_data.dfifo_top -= fifo_size;
 385              		.loc 1 227 5 discriminator 5 view .LVU128
 386 00ea 0020     		movs	r0, #0
 387 00ec B8E7     		b	.L5
 388              	.LVL34:
 389              	.L15:
 236:lib/TinyUSB/src/portable/synopsys/dwc2/dcd_dwc2.c ****     }
 390              		.loc 1 236 7 view .LVU129
 236:lib/TinyUSB/src/portable/synopsys/dwc2/dcd_dwc2.c ****     }
 391              		.loc 1 236 81 is_stmt 0 view .LVU130
 392 00ee 43EA0043 		orr	r3, r3, r0, lsl #16
 236:lib/TinyUSB/src/portable/synopsys/dwc2/dcd_dwc2.c ****     }
 393              		.loc 1 236 32 view .LVU131
 394 00f2 3F35     		adds	r5, r5, #63
 395              	.LVL35:
 236:lib/TinyUSB/src/portable/synopsys/dwc2/dcd_dwc2.c ****     }
 396              		.loc 1 236 32 view .LVU132
 397 00f4 06EB8505 		add	r5, r6, r5, lsl #2
 398              	.LVL36:
 236:lib/TinyUSB/src/portable/synopsys/dwc2/dcd_dwc2.c ****     }
 399              		.loc 1 236 32 view .LVU133
ARM GAS  C:\Users\krisa\AppData\Local\Temp\ccNljk5K.s 			page 29


 400 00f8 6B60     		str	r3, [r5, #4]
 240:lib/TinyUSB/src/portable/synopsys/dwc2/dcd_dwc2.c **** }
 401              		.loc 1 240 10 view .LVU134
 402 00fa 0120     		movs	r0, #1
 403 00fc B0E7     		b	.L5
 404              	.LVL37:
 405              	.L17:
 240:lib/TinyUSB/src/portable/synopsys/dwc2/dcd_dwc2.c **** }
 406              		.loc 1 240 10 view .LVU135
 407 00fe 0120     		movs	r0, #1
 408              	.LVL38:
 240:lib/TinyUSB/src/portable/synopsys/dwc2/dcd_dwc2.c **** }
 409              		.loc 1 240 10 view .LVU136
 410 0100 AEE7     		b	.L5
 411              	.L25:
 412 0102 00BF     		.align	2
 413              	.L24:
 414 0104 00000000 		.word	.LANCHOR0
 415 0108 00000000 		.word	.LANCHOR1
 416 010c 00000000 		.word	.LANCHOR2
 417              		.cfi_endproc
 418              	.LFE346:
 420              		.section	.text.dfifo_device_init,"ax",%progbits
 421              		.align	1
 422              		.syntax unified
 423              		.thumb
 424              		.thumb_func
 426              	dfifo_device_init:
 427              	.LVL39:
 428              	.LFB347:
 242:lib/TinyUSB/src/portable/synopsys/dwc2/dcd_dwc2.c **** 
 243:lib/TinyUSB/src/portable/synopsys/dwc2/dcd_dwc2.c **** static void dfifo_device_init(uint8_t rhport) {
 429              		.loc 1 243 47 is_stmt 1 view -0
 430              		.cfi_startproc
 431              		@ args = 0, pretend = 0, frame = 0
 432              		@ frame_needed = 0, uses_anonymous_args = 0
 433              		.loc 1 243 47 is_stmt 0 view .LVU138
 434 0000 08B5     		push	{r3, lr}
 435              	.LCFI3:
 436              		.cfi_def_cfa_offset 8
 437              		.cfi_offset 3, -8
 438              		.cfi_offset 14, -4
 244:lib/TinyUSB/src/portable/synopsys/dwc2/dcd_dwc2.c ****   const dwc2_controller_t* dwc2_controller = &_dwc2_controller[rhport];
 439              		.loc 1 244 3 is_stmt 1 view .LVU139
 440              	.LVL40:
 245:lib/TinyUSB/src/portable/synopsys/dwc2/dcd_dwc2.c ****   dwc2_regs_t* dwc2 = DWC2_REG(rhport);
 441              		.loc 1 245 3 view .LVU140
 442              	.LBB220:
 443              	.LBI220:
  79:lib/TinyUSB/src/portable/synopsys/dwc2/dwc2_common.h ****   if (rhport >= DWC2_CONTROLLER_COUNT) {
 444              		.loc 2 79 50 view .LVU141
 445              	.LBB221:
  80:lib/TinyUSB/src/portable/synopsys/dwc2/dwc2_common.h ****     // user mis-configured, ignore and use first controller
 446              		.loc 2 80 3 view .LVU142
  80:lib/TinyUSB/src/portable/synopsys/dwc2/dwc2_common.h ****     // user mis-configured, ignore and use first controller
 447              		.loc 2 80 6 is_stmt 0 view .LVU143
 448 0002 0128     		cmp	r0, #1
ARM GAS  C:\Users\krisa\AppData\Local\Temp\ccNljk5K.s 			page 30


 449 0004 18D9     		bls	.L30
  82:lib/TinyUSB/src/portable/synopsys/dwc2/dwc2_common.h ****   }
 450              		.loc 2 82 12 view .LVU144
 451 0006 0022     		movs	r2, #0
 452              	.L27:
 453              	.LVL41:
 454              		.loc 2 84 3 is_stmt 1 view .LVU145
 455              		.loc 2 84 48 is_stmt 0 view .LVU146
 456 0008 0C4B     		ldr	r3, .L31
 457 000a 1201     		lsls	r2, r2, #4
 458              	.LVL42:
 459              		.loc 2 84 48 view .LVU147
 460 000c 9958     		ldr	r1, [r3, r2]
 461              	.LVL43:
 462              		.loc 2 84 48 view .LVU148
 463              	.LBE221:
 464              	.LBE220:
 246:lib/TinyUSB/src/portable/synopsys/dwc2/dcd_dwc2.c ****   dwc2->grxfsiz = calc_device_grxfsiz(CFG_TUD_ENDPOINT0_SIZE, dwc2_controller->ep_count);
 465              		.loc 1 246 3 is_stmt 1 view .LVU149
 466              		.loc 1 246 19 is_stmt 0 view .LVU150
 467 000e 03EB0013 		add	r3, r3, r0, lsl #4
 468 0012 1A7A     		ldrb	r2, [r3, #8]	@ zero_extendqisi2
 469              	.LVL44:
 470              	.LBB223:
 471              	.LBI223:
 190:lib/TinyUSB/src/portable/synopsys/dwc2/dcd_dwc2.c ****   return 13 + 1 + 2 * ((largest_ep_size / 4) + 1) + 2 * ep_count;
 472              		.loc 1 190 46 is_stmt 1 view .LVU151
 473              	.LBB224:
 191:lib/TinyUSB/src/portable/synopsys/dwc2/dcd_dwc2.c **** }
 474              		.loc 1 191 3 view .LVU152
 191:lib/TinyUSB/src/portable/synopsys/dwc2/dcd_dwc2.c **** }
 475              		.loc 1 191 51 is_stmt 0 view .LVU153
 476 0014 1832     		adds	r2, r2, #24
 477              	.LVL45:
 191:lib/TinyUSB/src/portable/synopsys/dwc2/dcd_dwc2.c **** }
 478              		.loc 1 191 51 view .LVU154
 479 0016 5200     		lsls	r2, r2, #1
 480              	.LVL46:
 191:lib/TinyUSB/src/portable/synopsys/dwc2/dcd_dwc2.c **** }
 481              		.loc 1 191 51 view .LVU155
 482              	.LBE224:
 483              	.LBE223:
 484              		.loc 1 246 17 view .LVU156
 485 0018 4A62     		str	r2, [r1, #36]
 247:lib/TinyUSB/src/portable/synopsys/dwc2/dcd_dwc2.c **** 
 248:lib/TinyUSB/src/portable/synopsys/dwc2/dcd_dwc2.c ****   // Scatter/Gather DMA mode is not yet supported. Buffer DMA only need 1 words per endpoint direct
 249:lib/TinyUSB/src/portable/synopsys/dwc2/dcd_dwc2.c ****   const bool is_dma = dma_device_enabled(dwc2);
 486              		.loc 1 249 3 is_stmt 1 view .LVU157
 487              	.LVL47:
 488              	.LBB225:
 489              	.LBI225:
 121:lib/TinyUSB/src/portable/synopsys/dwc2/dcd_dwc2.c ****   (void) dwc2;
 490              		.loc 1 121 42 view .LVU158
 491              	.LBB226:
 122:lib/TinyUSB/src/portable/synopsys/dwc2/dcd_dwc2.c ****   // Internal DMA only
 492              		.loc 1 122 3 view .LVU159
 124:lib/TinyUSB/src/portable/synopsys/dwc2/dcd_dwc2.c ****   return CFG_TUD_DWC2_DMA_ENABLE && ghwcfg2.arch == GHWCFG2_ARCH_INTERNAL_DMA;
ARM GAS  C:\Users\krisa\AppData\Local\Temp\ccNljk5K.s 			page 31


 493              		.loc 1 124 3 view .LVU160
 124:lib/TinyUSB/src/portable/synopsys/dwc2/dcd_dwc2.c ****   return CFG_TUD_DWC2_DMA_ENABLE && ghwcfg2.arch == GHWCFG2_ARCH_INTERNAL_DMA;
 494              		.loc 1 124 48 is_stmt 0 view .LVU161
 495 001a 8A6C     		ldr	r2, [r1, #72]
 125:lib/TinyUSB/src/portable/synopsys/dwc2/dcd_dwc2.c **** }
 496              		.loc 1 125 3 is_stmt 1 view .LVU162
 497              	.LVL48:
 125:lib/TinyUSB/src/portable/synopsys/dwc2/dcd_dwc2.c **** }
 498              		.loc 1 125 3 is_stmt 0 view .LVU163
 499              	.LBE226:
 500              	.LBE225:
 250:lib/TinyUSB/src/portable/synopsys/dwc2/dcd_dwc2.c ****   _dcd_data.dfifo_top = dwc2_controller->ep_fifo_size/4;
 501              		.loc 1 250 3 is_stmt 1 view .LVU164
 502              		.loc 1 250 40 is_stmt 0 view .LVU165
 503 001c DB68     		ldr	r3, [r3, #12]
 504              		.loc 1 250 23 view .LVU166
 505 001e C3F38F03 		ubfx	r3, r3, #2, #16
 506 0022 074A     		ldr	r2, .L31+4
 507 0024 9380     		strh	r3, [r2, #4]	@ movhi
 251:lib/TinyUSB/src/portable/synopsys/dwc2/dcd_dwc2.c ****   if (is_dma) {
 508              		.loc 1 251 3 is_stmt 1 view .LVU167
 252:lib/TinyUSB/src/portable/synopsys/dwc2/dcd_dwc2.c ****     _dcd_data.dfifo_top -= 2 * dwc2_controller->ep_count;
 253:lib/TinyUSB/src/portable/synopsys/dwc2/dcd_dwc2.c ****   }
 254:lib/TinyUSB/src/portable/synopsys/dwc2/dcd_dwc2.c ****   dwc2->gdfifocfg = ((uint32_t) _dcd_data.dfifo_top << GDFIFOCFG_EPINFOBASE_SHIFT) | _dcd_data.dfif
 509              		.loc 1 254 3 view .LVU168
 510              		.loc 1 254 84 is_stmt 0 view .LVU169
 511 0026 43EA0343 		orr	r3, r3, r3, lsl #16
 512              		.loc 1 254 19 view .LVU170
 513 002a CB65     		str	r3, [r1, #92]
 255:lib/TinyUSB/src/portable/synopsys/dwc2/dcd_dwc2.c **** 
 256:lib/TinyUSB/src/portable/synopsys/dwc2/dcd_dwc2.c ****   // Allocate FIFO for EP0 IN
 257:lib/TinyUSB/src/portable/synopsys/dwc2/dcd_dwc2.c ****   (void) dfifo_alloc(rhport, 0x80, CFG_TUD_ENDPOINT0_SIZE, false);
 514              		.loc 1 257 3 is_stmt 1 view .LVU171
 515              		.loc 1 257 10 is_stmt 0 view .LVU172
 516 002c 0023     		movs	r3, #0
 517 002e 4022     		movs	r2, #64
 518 0030 8021     		movs	r1, #128
 519              	.LVL49:
 520              		.loc 1 257 10 view .LVU173
 521 0032 FFF7FEFF 		bl	dfifo_alloc
 522              	.LVL50:
 258:lib/TinyUSB/src/portable/synopsys/dwc2/dcd_dwc2.c **** }
 523              		.loc 1 258 1 view .LVU174
 524 0036 08BD     		pop	{r3, pc}
 525              	.LVL51:
 526              	.L30:
 527              	.LBB227:
 528              	.LBB222:
  80:lib/TinyUSB/src/portable/synopsys/dwc2/dwc2_common.h ****     // user mis-configured, ignore and use first controller
 529              		.loc 2 80 6 view .LVU175
 530 0038 0246     		mov	r2, r0
 531 003a E5E7     		b	.L27
 532              	.L32:
 533              		.align	2
 534              	.L31:
 535 003c 00000000 		.word	.LANCHOR0
 536 0040 00000000 		.word	.LANCHOR1
ARM GAS  C:\Users\krisa\AppData\Local\Temp\ccNljk5K.s 			page 32


 537              	.LBE222:
 538              	.LBE227:
 539              		.cfi_endproc
 540              	.LFE347:
 542              		.section	.text.edpt_activate,"ax",%progbits
 543              		.align	1
 544              		.syntax unified
 545              		.thumb
 546              		.thumb_func
 548              	edpt_activate:
 549              	.LVL52:
 550              	.LFB348:
 259:lib/TinyUSB/src/portable/synopsys/dwc2/dcd_dwc2.c **** 
 260:lib/TinyUSB/src/portable/synopsys/dwc2/dcd_dwc2.c **** 
 261:lib/TinyUSB/src/portable/synopsys/dwc2/dcd_dwc2.c **** //--------------------------------------------------------------------
 262:lib/TinyUSB/src/portable/synopsys/dwc2/dcd_dwc2.c **** // Endpoint
 263:lib/TinyUSB/src/portable/synopsys/dwc2/dcd_dwc2.c **** //--------------------------------------------------------------------
 264:lib/TinyUSB/src/portable/synopsys/dwc2/dcd_dwc2.c **** static void edpt_activate(uint8_t rhport, const tusb_desc_endpoint_t* p_endpoint_desc) {
 551              		.loc 1 264 88 is_stmt 1 view -0
 552              		.cfi_startproc
 553              		@ args = 0, pretend = 0, frame = 0
 554              		@ frame_needed = 0, uses_anonymous_args = 0
 555              		.loc 1 264 88 is_stmt 0 view .LVU177
 556 0000 70B5     		push	{r4, r5, r6, lr}
 557              	.LCFI4:
 558              		.cfi_def_cfa_offset 16
 559              		.cfi_offset 4, -16
 560              		.cfi_offset 5, -12
 561              		.cfi_offset 6, -8
 562              		.cfi_offset 14, -4
 265:lib/TinyUSB/src/portable/synopsys/dwc2/dcd_dwc2.c ****   dwc2_regs_t* dwc2 = DWC2_REG(rhport);
 563              		.loc 1 265 3 is_stmt 1 view .LVU178
 564              	.LVL53:
 565              	.LBB228:
 566              	.LBI228:
  79:lib/TinyUSB/src/portable/synopsys/dwc2/dwc2_common.h ****   if (rhport >= DWC2_CONTROLLER_COUNT) {
 567              		.loc 2 79 50 view .LVU179
 568              	.LBB229:
  80:lib/TinyUSB/src/portable/synopsys/dwc2/dwc2_common.h ****     // user mis-configured, ignore and use first controller
 569              		.loc 2 80 3 view .LVU180
  80:lib/TinyUSB/src/portable/synopsys/dwc2/dwc2_common.h ****     // user mis-configured, ignore and use first controller
 570              		.loc 2 80 6 is_stmt 0 view .LVU181
 571 0002 0128     		cmp	r0, #1
 572 0004 00D9     		bls	.L34
  82:lib/TinyUSB/src/portable/synopsys/dwc2/dwc2_common.h ****   }
 573              		.loc 2 82 12 view .LVU182
 574 0006 0020     		movs	r0, #0
 575              	.LVL54:
 576              	.L34:
 577              		.loc 2 84 3 is_stmt 1 view .LVU183
 578              		.loc 2 84 48 is_stmt 0 view .LVU184
 579 0008 0001     		lsls	r0, r0, #4
 580              	.LVL55:
 581              		.loc 2 84 48 view .LVU185
 582 000a 2B4B     		ldr	r3, .L45
 583 000c 1C58     		ldr	r4, [r3, r0]
 584              	.LVL56:
ARM GAS  C:\Users\krisa\AppData\Local\Temp\ccNljk5K.s 			page 33


 585              		.loc 2 84 48 view .LVU186
 586              	.LBE229:
 587              	.LBE228:
 266:lib/TinyUSB/src/portable/synopsys/dwc2/dcd_dwc2.c ****   const uint8_t epnum = tu_edpt_number(p_endpoint_desc->bEndpointAddress);
 588              		.loc 1 266 3 is_stmt 1 view .LVU187
 589              		.loc 1 266 25 is_stmt 0 view .LVU188
 590 000e 91F802C0 		ldrb	ip, [r1, #2]	@ zero_extendqisi2
 591              	.LVL57:
 592              	.LBB230:
 593              	.LBI230:
 552:lib/TinyUSB/src/common/tusb_types.h ****   return (uint8_t) (addr & TUSB_EPNUM_MASK);
 594              		.loc 3 552 45 is_stmt 1 view .LVU189
 595              	.LBB231:
 596              		.loc 3 553 3 view .LVU190
 597              		.loc 3 553 10 is_stmt 0 view .LVU191
 598 0012 0CF00F00 		and	r0, ip, #15
 599              	.LVL58:
 600              		.loc 3 553 10 view .LVU192
 601              	.LBE231:
 602              	.LBE230:
 267:lib/TinyUSB/src/portable/synopsys/dwc2/dcd_dwc2.c ****   const uint8_t dir = tu_edpt_dir(p_endpoint_desc->bEndpointAddress);
 603              		.loc 1 267 3 is_stmt 1 view .LVU193
 604              	.LBB232:
 605              	.LBI232:
 547:lib/TinyUSB/src/common/tusb_types.h ****   return (addr & TUSB_DIR_IN_MASK) ? TUSB_DIR_IN : TUSB_DIR_OUT;
 606              		.loc 3 547 48 view .LVU194
 607              	.LBB233:
 548:lib/TinyUSB/src/common/tusb_types.h **** }
 608              		.loc 3 548 3 view .LVU195
 548:lib/TinyUSB/src/common/tusb_types.h **** }
 609              		.loc 3 548 50 is_stmt 0 view .LVU196
 610 0016 4FEADC15 		lsr	r5, ip, #7
 611              	.LVL59:
 548:lib/TinyUSB/src/common/tusb_types.h **** }
 612              		.loc 3 548 50 view .LVU197
 613              	.LBE233:
 614              	.LBE232:
 268:lib/TinyUSB/src/portable/synopsys/dwc2/dcd_dwc2.c **** 
 269:lib/TinyUSB/src/portable/synopsys/dwc2/dcd_dwc2.c ****   xfer_ctl_t* xfer = XFER_CTL_BASE(epnum, dir);
 615              		.loc 1 269 3 is_stmt 1 view .LVU198
 270:lib/TinyUSB/src/portable/synopsys/dwc2/dcd_dwc2.c ****   xfer->max_size = tu_edpt_packet_size(p_endpoint_desc);
 616              		.loc 1 270 3 view .LVU199
 617              	.LBB234:
 618              	.LBI234:
 554:lib/TinyUSB/src/common/tusb_types.h **** }
 555:lib/TinyUSB/src/common/tusb_types.h **** 
 556:lib/TinyUSB/src/common/tusb_types.h **** TU_ATTR_ALWAYS_INLINE static inline uint8_t tu_edpt_addr(uint8_t num, uint8_t dir) {
 557:lib/TinyUSB/src/common/tusb_types.h ****   return (uint8_t) (num | (dir == TUSB_DIR_IN ? TUSB_DIR_IN_MASK : 0u));
 558:lib/TinyUSB/src/common/tusb_types.h **** }
 559:lib/TinyUSB/src/common/tusb_types.h **** 
 560:lib/TinyUSB/src/common/tusb_types.h **** TU_ATTR_ALWAYS_INLINE static inline uint16_t tu_edpt_packet_size(tusb_desc_endpoint_t const* desc_e
 619              		.loc 3 560 46 view .LVU200
 620              	.LBB235:
 561:lib/TinyUSB/src/common/tusb_types.h ****   return tu_le16toh(desc_ep->wMaxPacketSize) & 0x7FF;
 621              		.loc 3 561 3 view .LVU201
 622              		.loc 3 561 10 is_stmt 0 view .LVU202
 623 001a 8B88     		ldrh	r3, [r1, #4]	@ unaligned
ARM GAS  C:\Users\krisa\AppData\Local\Temp\ccNljk5K.s 			page 34


 624              		.loc 3 561 46 view .LVU203
 625 001c C3F30A03 		ubfx	r3, r3, #0, #11
 626              	.LVL60:
 627              		.loc 3 561 46 view .LVU204
 628              	.LBE235:
 629              	.LBE234:
 630              		.loc 1 270 18 view .LVU205
 631 0020 4200     		lsls	r2, r0, #1
 632 0022 02EBDC1E 		add	lr, r2, ip, lsr #7
 633 0026 254A     		ldr	r2, .L45+4
 634 0028 02EB0E12 		add	r2, r2, lr, lsl #4
 635 002c 5381     		strh	r3, [r2, #10]	@ movhi
 271:lib/TinyUSB/src/portable/synopsys/dwc2/dcd_dwc2.c **** 
 272:lib/TinyUSB/src/portable/synopsys/dwc2/dcd_dwc2.c ****   const dwc2_dsts_t dsts = {.value = dwc2->dsts};
 636              		.loc 1 272 3 is_stmt 1 view .LVU206
 637              		.loc 1 272 42 is_stmt 0 view .LVU207
 638 002e D4F80828 		ldr	r2, [r4, #2056]
 273:lib/TinyUSB/src/portable/synopsys/dwc2/dcd_dwc2.c ****   if (dsts.enum_speed == DCFG_SPEED_HIGH) {
 639              		.loc 1 273 3 is_stmt 1 view .LVU208
 640              		.loc 1 273 6 is_stmt 0 view .LVU209
 641 0032 12F0060F 		tst	r2, #6
 642 0036 30D1     		bne	.L35
 274:lib/TinyUSB/src/portable/synopsys/dwc2/dcd_dwc2.c ****     xfer->interval = 1 << (p_endpoint_desc->bInterval - 1);
 643              		.loc 1 274 5 is_stmt 1 view .LVU210
 644              		.loc 1 274 43 is_stmt 0 view .LVU211
 645 0038 91F806E0 		ldrb	lr, [r1, #6]	@ zero_extendqisi2
 646              		.loc 1 274 55 view .LVU212
 647 003c 0EF1FF32 		add	r2, lr, #-1
 648              		.loc 1 274 24 view .LVU213
 649 0040 4FF0010E 		mov	lr, #1
 650 0044 0EFA02FE 		lsl	lr, lr, r2
 651              		.loc 1 274 20 view .LVU214
 652 0048 05EB4002 		add	r2, r5, r0, lsl #1
 653 004c 1B4E     		ldr	r6, .L45+4
 654 004e 06EB0212 		add	r2, r6, r2, lsl #4
 655 0052 82F80CE0 		strb	lr, [r2, #12]
 656              	.L36:
 275:lib/TinyUSB/src/portable/synopsys/dwc2/dcd_dwc2.c ****   } else {
 276:lib/TinyUSB/src/portable/synopsys/dwc2/dcd_dwc2.c ****     xfer->interval =  p_endpoint_desc->bInterval;
 277:lib/TinyUSB/src/portable/synopsys/dwc2/dcd_dwc2.c ****   }
 278:lib/TinyUSB/src/portable/synopsys/dwc2/dcd_dwc2.c **** 
 279:lib/TinyUSB/src/portable/synopsys/dwc2/dcd_dwc2.c ****   // Endpoint control
 280:lib/TinyUSB/src/portable/synopsys/dwc2/dcd_dwc2.c ****   dwc2_depctl_t depctl = {.value = 0};
 657              		.loc 1 280 3 is_stmt 1 view .LVU215
 658              		.loc 1 280 17 is_stmt 0 view .LVU216
 659 0056 0022     		movs	r2, #0
 660              	.LVL61:
 281:lib/TinyUSB/src/portable/synopsys/dwc2/dcd_dwc2.c ****   depctl.mps = xfer->max_size;
 661              		.loc 1 281 3 is_stmt 1 view .LVU217
 662              		.loc 1 281 14 is_stmt 0 view .LVU218
 663 0058 63F30A02 		bfi	r2, r3, #0, #11
 664              	.LVL62:
 282:lib/TinyUSB/src/portable/synopsys/dwc2/dcd_dwc2.c ****   depctl.active = 1;
 665              		.loc 1 282 3 is_stmt 1 view .LVU219
 666              		.loc 1 282 17 is_stmt 0 view .LVU220
 667 005c 42F40042 		orr	r2, r2, #32768
 668              	.LVL63:
ARM GAS  C:\Users\krisa\AppData\Local\Temp\ccNljk5K.s 			page 35


 283:lib/TinyUSB/src/portable/synopsys/dwc2/dcd_dwc2.c ****   depctl.type = p_endpoint_desc->bmAttributes.xfer;
 669              		.loc 1 283 3 is_stmt 1 view .LVU221
 670              		.loc 1 283 46 is_stmt 0 view .LVU222
 671 0060 CB78     		ldrb	r3, [r1, #3]	@ zero_extendqisi2
 672              		.loc 1 283 15 view .LVU223
 673 0062 63F39342 		bfi	r2, r3, #18, #2
 674              	.LVL64:
 284:lib/TinyUSB/src/portable/synopsys/dwc2/dcd_dwc2.c ****   if (p_endpoint_desc->bmAttributes.xfer != TUSB_XFER_ISOCHRONOUS) {
 675              		.loc 1 284 3 is_stmt 1 view .LVU224
 676              		.loc 1 284 42 is_stmt 0 view .LVU225
 677 0066 03F00303 		and	r3, r3, #3
 678              		.loc 1 284 6 view .LVU226
 679 006a 012B     		cmp	r3, #1
 680 006c 01D0     		beq	.L37
 285:lib/TinyUSB/src/portable/synopsys/dwc2/dcd_dwc2.c ****     depctl.set_data0_iso_even = 1;
 681              		.loc 1 285 5 is_stmt 1 view .LVU227
 682              		.loc 1 285 31 is_stmt 0 view .LVU228
 683 006e 42F08052 		orr	r2, r2, #268435456
 684              	.LVL65:
 685              	.L37:
 286:lib/TinyUSB/src/portable/synopsys/dwc2/dcd_dwc2.c ****   }
 287:lib/TinyUSB/src/portable/synopsys/dwc2/dcd_dwc2.c ****   if (dir == TUSB_DIR_IN) {
 686              		.loc 1 287 3 is_stmt 1 view .LVU229
 687              		.loc 1 287 6 is_stmt 0 view .LVU230
 688 0072 E5B9     		cbnz	r5, .L43
 689              	.L38:
 288:lib/TinyUSB/src/portable/synopsys/dwc2/dcd_dwc2.c ****     depctl.tx_fifo_num = epnum;
 289:lib/TinyUSB/src/portable/synopsys/dwc2/dcd_dwc2.c ****   }
 290:lib/TinyUSB/src/portable/synopsys/dwc2/dcd_dwc2.c **** 
 291:lib/TinyUSB/src/portable/synopsys/dwc2/dcd_dwc2.c ****   dwc2_dep_t* dep = &dwc2->ep[dir == TUSB_DIR_IN ? 0 : 1][epnum];
 690              		.loc 1 291 3 is_stmt 1 view .LVU231
 691              		.loc 1 291 54 is_stmt 0 view .LVU232
 692 0074 85F00103 		eor	r3, r5, #1
 693              	.LVL66:
 292:lib/TinyUSB/src/portable/synopsys/dwc2/dcd_dwc2.c ****   dep->ctl = depctl.value;
 694              		.loc 1 292 3 is_stmt 1 view .LVU233
 695              		.loc 1 292 12 is_stmt 0 view .LVU234
 696 0078 00EB0313 		add	r3, r0, r3, lsl #4
 697              	.LVL67:
 698              		.loc 1 292 12 view .LVU235
 699 007c 4833     		adds	r3, r3, #72
 700 007e 5B01     		lsls	r3, r3, #5
 701 0080 E250     		str	r2, [r4, r3]
 293:lib/TinyUSB/src/portable/synopsys/dwc2/dcd_dwc2.c ****   dwc2->daintmsk |= TU_BIT(epnum + DAINT_SHIFT(dir));
 702              		.loc 1 293 3 is_stmt 1 view .LVU236
 703              		.loc 1 293 18 is_stmt 0 view .LVU237
 704 0082 D4F81C38 		ldr	r3, [r4, #2076]
 705              		.loc 1 293 21 view .LVU238
 706 0086 ADB9     		cbnz	r5, .L44
 707 0088 1022     		movs	r2, #16
 708              	.LVL68:
 709              	.L39:
 710              		.loc 1 293 21 discriminator 4 view .LVU239
 711 008a 1044     		add	r0, r0, r2
 712              	.LVL69:
 713              		.loc 1 293 21 discriminator 4 view .LVU240
 714 008c 0122     		movs	r2, #1
ARM GAS  C:\Users\krisa\AppData\Local\Temp\ccNljk5K.s 			page 36


 715 008e 02FA00F0 		lsl	r0, r2, r0
 716              		.loc 1 293 18 discriminator 4 view .LVU241
 717 0092 1843     		orrs	r0, r0, r3
 718 0094 C4F81C08 		str	r0, [r4, #2076]
 294:lib/TinyUSB/src/portable/synopsys/dwc2/dcd_dwc2.c **** }
 719              		.loc 1 294 1 discriminator 4 view .LVU242
 720 0098 70BD     		pop	{r4, r5, r6, pc}
 721              	.LVL70:
 722              	.L35:
 276:lib/TinyUSB/src/portable/synopsys/dwc2/dcd_dwc2.c ****   }
 723              		.loc 1 276 5 is_stmt 1 view .LVU243
 276:lib/TinyUSB/src/portable/synopsys/dwc2/dcd_dwc2.c ****   }
 724              		.loc 1 276 38 is_stmt 0 view .LVU244
 725 009a 91F806E0 		ldrb	lr, [r1, #6]	@ zero_extendqisi2
 276:lib/TinyUSB/src/portable/synopsys/dwc2/dcd_dwc2.c ****   }
 726              		.loc 1 276 20 view .LVU245
 727 009e 05EB4002 		add	r2, r5, r0, lsl #1
 728 00a2 064E     		ldr	r6, .L45+4
 729 00a4 06EB0212 		add	r2, r6, r2, lsl #4
 730 00a8 82F80CE0 		strb	lr, [r2, #12]
 731 00ac D3E7     		b	.L36
 732              	.LVL71:
 733              	.L43:
 288:lib/TinyUSB/src/portable/synopsys/dwc2/dcd_dwc2.c ****   }
 734              		.loc 1 288 5 is_stmt 1 view .LVU246
 288:lib/TinyUSB/src/portable/synopsys/dwc2/dcd_dwc2.c ****   }
 735              		.loc 1 288 24 is_stmt 0 view .LVU247
 736 00ae 6CF39952 		bfi	r2, ip, #22, #4
 737 00b2 DFE7     		b	.L38
 738              	.LVL72:
 739              	.L44:
 293:lib/TinyUSB/src/portable/synopsys/dwc2/dcd_dwc2.c **** }
 740              		.loc 1 293 21 view .LVU248
 741 00b4 0022     		movs	r2, #0
 742              	.LVL73:
 293:lib/TinyUSB/src/portable/synopsys/dwc2/dcd_dwc2.c **** }
 743              		.loc 1 293 21 view .LVU249
 744 00b6 E8E7     		b	.L39
 745              	.L46:
 746              		.align	2
 747              	.L45:
 748 00b8 00000000 		.word	.LANCHOR0
 749 00bc 00000000 		.word	.LANCHOR3
 750              		.cfi_endproc
 751              	.LFE348:
 753              		.section	.text.edpt_disable,"ax",%progbits
 754              		.align	1
 755              		.syntax unified
 756              		.thumb
 757              		.thumb_func
 759              	edpt_disable:
 760              	.LVL74:
 761              	.LFB349:
 295:lib/TinyUSB/src/portable/synopsys/dwc2/dcd_dwc2.c **** 
 296:lib/TinyUSB/src/portable/synopsys/dwc2/dcd_dwc2.c **** static void edpt_disable(uint8_t rhport, uint8_t ep_addr, bool stall) {
 762              		.loc 1 296 71 is_stmt 1 view -0
 763              		.cfi_startproc
ARM GAS  C:\Users\krisa\AppData\Local\Temp\ccNljk5K.s 			page 37


 764              		@ args = 0, pretend = 0, frame = 0
 765              		@ frame_needed = 0, uses_anonymous_args = 0
 766              		@ link register save eliminated.
 767              		.loc 1 296 71 is_stmt 0 view .LVU251
 768 0000 10B4     		push	{r4}
 769              	.LCFI5:
 770              		.cfi_def_cfa_offset 4
 771              		.cfi_offset 4, -4
 297:lib/TinyUSB/src/portable/synopsys/dwc2/dcd_dwc2.c ****   (void) rhport;
 772              		.loc 1 297 3 is_stmt 1 view .LVU252
 298:lib/TinyUSB/src/portable/synopsys/dwc2/dcd_dwc2.c **** 
 299:lib/TinyUSB/src/portable/synopsys/dwc2/dcd_dwc2.c ****   dwc2_regs_t* dwc2 = DWC2_REG(rhport);
 773              		.loc 1 299 3 view .LVU253
 774              	.LVL75:
 775              	.LBB236:
 776              	.LBI236:
  79:lib/TinyUSB/src/portable/synopsys/dwc2/dwc2_common.h ****   if (rhport >= DWC2_CONTROLLER_COUNT) {
 777              		.loc 2 79 50 view .LVU254
 778              	.LBB237:
  80:lib/TinyUSB/src/portable/synopsys/dwc2/dwc2_common.h ****     // user mis-configured, ignore and use first controller
 779              		.loc 2 80 3 view .LVU255
  80:lib/TinyUSB/src/portable/synopsys/dwc2/dwc2_common.h ****     // user mis-configured, ignore and use first controller
 780              		.loc 2 80 6 is_stmt 0 view .LVU256
 781 0002 0128     		cmp	r0, #1
 782 0004 00D9     		bls	.L48
  82:lib/TinyUSB/src/portable/synopsys/dwc2/dwc2_common.h ****   }
 783              		.loc 2 82 12 view .LVU257
 784 0006 0020     		movs	r0, #0
 785              	.LVL76:
 786              	.L48:
 787              		.loc 2 84 3 is_stmt 1 view .LVU258
 788              		.loc 2 84 48 is_stmt 0 view .LVU259
 789 0008 0001     		lsls	r0, r0, #4
 790              	.LVL77:
 791              		.loc 2 84 48 view .LVU260
 792 000a 4A4B     		ldr	r3, .L66
 793 000c 1B58     		ldr	r3, [r3, r0]
 794              	.LVL78:
 795              		.loc 2 84 48 view .LVU261
 796              	.LBE237:
 797              	.LBE236:
 300:lib/TinyUSB/src/portable/synopsys/dwc2/dcd_dwc2.c ****   const uint8_t epnum = tu_edpt_number(ep_addr);
 798              		.loc 1 300 3 is_stmt 1 view .LVU262
 799              	.LBB238:
 800              	.LBI238:
 552:lib/TinyUSB/src/common/tusb_types.h ****   return (uint8_t) (addr & TUSB_EPNUM_MASK);
 801              		.loc 3 552 45 view .LVU263
 802              	.LBB239:
 553:lib/TinyUSB/src/common/tusb_types.h **** }
 803              		.loc 3 553 3 view .LVU264
 553:lib/TinyUSB/src/common/tusb_types.h **** }
 804              		.loc 3 553 10 is_stmt 0 view .LVU265
 805 000e 01F00F00 		and	r0, r1, #15
 806              	.LVL79:
 553:lib/TinyUSB/src/common/tusb_types.h **** }
 807              		.loc 3 553 10 view .LVU266
 808              	.LBE239:
ARM GAS  C:\Users\krisa\AppData\Local\Temp\ccNljk5K.s 			page 38


 809              	.LBE238:
 301:lib/TinyUSB/src/portable/synopsys/dwc2/dcd_dwc2.c ****   const uint8_t dir = tu_edpt_dir(ep_addr);
 810              		.loc 1 301 3 is_stmt 1 view .LVU267
 811              	.LBB240:
 812              	.LBI240:
 547:lib/TinyUSB/src/common/tusb_types.h ****   return (addr & TUSB_DIR_IN_MASK) ? TUSB_DIR_IN : TUSB_DIR_OUT;
 813              		.loc 3 547 48 view .LVU268
 814              	.LBB241:
 548:lib/TinyUSB/src/common/tusb_types.h **** }
 815              		.loc 3 548 3 view .LVU269
 548:lib/TinyUSB/src/common/tusb_types.h **** }
 816              		.loc 3 548 3 is_stmt 0 view .LVU270
 817              	.LBE241:
 818              	.LBE240:
 302:lib/TinyUSB/src/portable/synopsys/dwc2/dcd_dwc2.c ****   dwc2_dep_t* dep = &dwc2->ep[dir == TUSB_DIR_IN ? 0 : 1][epnum];
 819              		.loc 1 302 3 is_stmt 1 view .LVU271
 820              		.loc 1 302 54 is_stmt 0 view .LVU272
 821 0012 CC09     		lsrs	r4, r1, #7
 822 0014 0CBF     		ite	eq
 823 0016 0121     		moveq	r1, #1
 824              	.LVL80:
 825              		.loc 1 302 54 view .LVU273
 826 0018 0021     		movne	r1, #0
 827              	.LVL81:
 303:lib/TinyUSB/src/portable/synopsys/dwc2/dcd_dwc2.c **** 
 304:lib/TinyUSB/src/portable/synopsys/dwc2/dcd_dwc2.c ****   const uint32_t stall_mask = (stall ? EPCTL_STALL : 0);
 828              		.loc 1 304 3 is_stmt 1 view .LVU274
 829              		.loc 1 304 52 is_stmt 0 view .LVU275
 830 001a A2B1     		cbz	r2, .L62
 831 001c 4FF4001C 		mov	ip, #2097152
 832              	.L49:
 833              	.LVL82:
 305:lib/TinyUSB/src/portable/synopsys/dwc2/dcd_dwc2.c **** 
 306:lib/TinyUSB/src/portable/synopsys/dwc2/dcd_dwc2.c ****   if (dir == TUSB_DIR_IN) {
 834              		.loc 1 306 3 is_stmt 1 discriminator 4 view .LVU276
 835              		.loc 1 306 6 is_stmt 0 discriminator 4 view .LVU277
 836 0020 A4B9     		cbnz	r4, .L64
 307:lib/TinyUSB/src/portable/synopsys/dwc2/dcd_dwc2.c ****     if (!edpt_is_enabled(dep)) {
 308:lib/TinyUSB/src/portable/synopsys/dwc2/dcd_dwc2.c ****       dep->diepctl |= DIEPCTL_SNAK | stall_mask;
 309:lib/TinyUSB/src/portable/synopsys/dwc2/dcd_dwc2.c ****     } else {
 310:lib/TinyUSB/src/portable/synopsys/dwc2/dcd_dwc2.c ****       // Stop transmitting packets and NAK IN xfers.
 311:lib/TinyUSB/src/portable/synopsys/dwc2/dcd_dwc2.c ****       dep->diepctl |= DIEPCTL_SNAK;
 312:lib/TinyUSB/src/portable/synopsys/dwc2/dcd_dwc2.c ****       while ((dep->diepint & DIEPINT_INEPNE) == 0) {}
 313:lib/TinyUSB/src/portable/synopsys/dwc2/dcd_dwc2.c **** 
 314:lib/TinyUSB/src/portable/synopsys/dwc2/dcd_dwc2.c ****       // Disable the endpoint.
 315:lib/TinyUSB/src/portable/synopsys/dwc2/dcd_dwc2.c ****       dep->diepctl |= DIEPCTL_EPDIS | stall_mask;
 316:lib/TinyUSB/src/portable/synopsys/dwc2/dcd_dwc2.c ****       while ((dep->diepint & DIEPINT_EPDISD_Msk) == 0) {}
 317:lib/TinyUSB/src/portable/synopsys/dwc2/dcd_dwc2.c **** 
 318:lib/TinyUSB/src/portable/synopsys/dwc2/dcd_dwc2.c ****       dep->diepint = DIEPINT_EPDISD;
 319:lib/TinyUSB/src/portable/synopsys/dwc2/dcd_dwc2.c ****     }
 320:lib/TinyUSB/src/portable/synopsys/dwc2/dcd_dwc2.c **** 
 321:lib/TinyUSB/src/portable/synopsys/dwc2/dcd_dwc2.c ****     // Flush the FIFO, and wait until we have confirmed it cleared.
 322:lib/TinyUSB/src/portable/synopsys/dwc2/dcd_dwc2.c ****     dfifo_flush_tx(dwc2, epnum);
 323:lib/TinyUSB/src/portable/synopsys/dwc2/dcd_dwc2.c ****   } else {
 324:lib/TinyUSB/src/portable/synopsys/dwc2/dcd_dwc2.c ****     if (!edpt_is_enabled(dep) || epnum == 0) {
 837              		.loc 1 324 5 is_stmt 1 view .LVU278
 838              	.LVL83:
ARM GAS  C:\Users\krisa\AppData\Local\Temp\ccNljk5K.s 			page 39


 839              	.LBB242:
 840              	.LBI242:
  97:lib/TinyUSB/src/portable/synopsys/dwc2/dcd_dwc2.c ****   return (dep->ctl & EPCTL_EPENA) != 0;
 841              		.loc 1 97 42 view .LVU279
 842              	.LBB243:
  98:lib/TinyUSB/src/portable/synopsys/dwc2/dcd_dwc2.c **** }
 843              		.loc 1 98 3 view .LVU280
  98:lib/TinyUSB/src/portable/synopsys/dwc2/dcd_dwc2.c **** }
 844              		.loc 1 98 14 is_stmt 0 view .LVU281
 845 0022 00EB0112 		add	r2, r0, r1, lsl #4
 846              	.LVL84:
  98:lib/TinyUSB/src/portable/synopsys/dwc2/dcd_dwc2.c **** }
 847              		.loc 1 98 14 view .LVU282
 848 0026 4832     		adds	r2, r2, #72
 849 0028 5201     		lsls	r2, r2, #5
 850 002a 9A58     		ldr	r2, [r3, r2]
 851              	.LVL85:
  98:lib/TinyUSB/src/portable/synopsys/dwc2/dcd_dwc2.c **** }
 852              		.loc 1 98 14 view .LVU283
 853              	.LBE243:
 854              	.LBE242:
 855              		.loc 1 324 8 view .LVU284
 856 002c 002A     		cmp	r2, #0
 857 002e 53DB     		blt	.L65
 858              	.L57:
 325:lib/TinyUSB/src/portable/synopsys/dwc2/dcd_dwc2.c ****       // non-control not-enabled: stall if set
 326:lib/TinyUSB/src/portable/synopsys/dwc2/dcd_dwc2.c ****       // For EP0 Out, keep it enabled to receive SETUP packets
 327:lib/TinyUSB/src/portable/synopsys/dwc2/dcd_dwc2.c ****       dep->doepctl |= stall_mask;
 859              		.loc 1 327 7 is_stmt 1 view .LVU285
 860              		.loc 1 327 20 is_stmt 0 view .LVU286
 861 0030 00EB0111 		add	r1, r0, r1, lsl #4
 862              	.LVL86:
 863              		.loc 1 327 20 view .LVU287
 864 0034 4831     		adds	r1, r1, #72
 865 0036 4901     		lsls	r1, r1, #5
 866 0038 5A58     		ldr	r2, [r3, r1]
 867 003a 42EA0C02 		orr	r2, r2, ip
 868 003e 5A50     		str	r2, [r3, r1]
 869              	.LVL87:
 870              	.L47:
 328:lib/TinyUSB/src/portable/synopsys/dwc2/dcd_dwc2.c ****     } else {
 329:lib/TinyUSB/src/portable/synopsys/dwc2/dcd_dwc2.c ****       // Asserting GONAK is required to STALL an OUT endpoint.
 330:lib/TinyUSB/src/portable/synopsys/dwc2/dcd_dwc2.c ****       // Simpler to use polling here, we don't use the "B"OUTNAKEFF interrupt
 331:lib/TinyUSB/src/portable/synopsys/dwc2/dcd_dwc2.c ****       // anyway, and it can't be cleared by user code. If this while loop never
 332:lib/TinyUSB/src/portable/synopsys/dwc2/dcd_dwc2.c ****       // finishes, we have bigger problems than just the stack.
 333:lib/TinyUSB/src/portable/synopsys/dwc2/dcd_dwc2.c ****       dwc2->dctl |= DCTL_SGONAK;
 334:lib/TinyUSB/src/portable/synopsys/dwc2/dcd_dwc2.c ****       while ((dwc2->gintsts & GINTSTS_BOUTNAKEFF_Msk) == 0) {}
 335:lib/TinyUSB/src/portable/synopsys/dwc2/dcd_dwc2.c **** 
 336:lib/TinyUSB/src/portable/synopsys/dwc2/dcd_dwc2.c ****       // Ditto here disable the endpoint.
 337:lib/TinyUSB/src/portable/synopsys/dwc2/dcd_dwc2.c ****       dep->doepctl |= DOEPCTL_EPDIS | stall_mask;
 338:lib/TinyUSB/src/portable/synopsys/dwc2/dcd_dwc2.c ****       while ((dep->doepint & DOEPINT_EPDISD_Msk) == 0) {}
 339:lib/TinyUSB/src/portable/synopsys/dwc2/dcd_dwc2.c **** 
 340:lib/TinyUSB/src/portable/synopsys/dwc2/dcd_dwc2.c ****       dep->doepint = DOEPINT_EPDISD;
 341:lib/TinyUSB/src/portable/synopsys/dwc2/dcd_dwc2.c **** 
 342:lib/TinyUSB/src/portable/synopsys/dwc2/dcd_dwc2.c ****       // Allow other OUT endpoints to keep receiving.
 343:lib/TinyUSB/src/portable/synopsys/dwc2/dcd_dwc2.c ****       dwc2->dctl |= DCTL_CGONAK;
 344:lib/TinyUSB/src/portable/synopsys/dwc2/dcd_dwc2.c ****     }
ARM GAS  C:\Users\krisa\AppData\Local\Temp\ccNljk5K.s 			page 40


 345:lib/TinyUSB/src/portable/synopsys/dwc2/dcd_dwc2.c ****   }
 346:lib/TinyUSB/src/portable/synopsys/dwc2/dcd_dwc2.c **** }
 871              		.loc 1 346 1 view .LVU288
 872 0040 5DF8044B 		ldr	r4, [sp], #4
 873              	.LCFI6:
 874              		.cfi_remember_state
 875              		.cfi_restore 4
 876              		.cfi_def_cfa_offset 0
 877 0044 7047     		bx	lr
 878              	.LVL88:
 879              	.L62:
 880              	.LCFI7:
 881              		.cfi_restore_state
 304:lib/TinyUSB/src/portable/synopsys/dwc2/dcd_dwc2.c **** 
 882              		.loc 1 304 52 view .LVU289
 883 0046 4FF0000C 		mov	ip, #0
 884 004a E9E7     		b	.L49
 885              	.LVL89:
 886              	.L64:
 307:lib/TinyUSB/src/portable/synopsys/dwc2/dcd_dwc2.c ****       dep->diepctl |= DIEPCTL_SNAK | stall_mask;
 887              		.loc 1 307 5 is_stmt 1 view .LVU290
 888              	.LBB244:
 889              	.LBI244:
  97:lib/TinyUSB/src/portable/synopsys/dwc2/dcd_dwc2.c ****   return (dep->ctl & EPCTL_EPENA) != 0;
 890              		.loc 1 97 42 view .LVU291
 891              	.LBB245:
  98:lib/TinyUSB/src/portable/synopsys/dwc2/dcd_dwc2.c **** }
 892              		.loc 1 98 3 view .LVU292
  98:lib/TinyUSB/src/portable/synopsys/dwc2/dcd_dwc2.c **** }
 893              		.loc 1 98 14 is_stmt 0 view .LVU293
 894 004c 00EB0112 		add	r2, r0, r1, lsl #4
 895              	.LVL90:
  98:lib/TinyUSB/src/portable/synopsys/dwc2/dcd_dwc2.c **** }
 896              		.loc 1 98 14 view .LVU294
 897 0050 4832     		adds	r2, r2, #72
 898 0052 5201     		lsls	r2, r2, #5
 899 0054 9A58     		ldr	r2, [r3, r2]
 900              	.LVL91:
  98:lib/TinyUSB/src/portable/synopsys/dwc2/dcd_dwc2.c **** }
 901              		.loc 1 98 14 view .LVU295
 902              	.LBE245:
 903              	.LBE244:
 307:lib/TinyUSB/src/portable/synopsys/dwc2/dcd_dwc2.c ****       dep->diepctl |= DIEPCTL_SNAK | stall_mask;
 904              		.loc 1 307 8 view .LVU296
 905 0056 002A     		cmp	r2, #0
 906 0058 12DB     		blt	.L51
 308:lib/TinyUSB/src/portable/synopsys/dwc2/dcd_dwc2.c ****     } else {
 907              		.loc 1 308 7 is_stmt 1 view .LVU297
 308:lib/TinyUSB/src/portable/synopsys/dwc2/dcd_dwc2.c ****     } else {
 908              		.loc 1 308 20 is_stmt 0 view .LVU298
 909 005a 00EB0111 		add	r1, r0, r1, lsl #4
 910              	.LVL92:
 308:lib/TinyUSB/src/portable/synopsys/dwc2/dcd_dwc2.c ****     } else {
 911              		.loc 1 308 20 view .LVU299
 912 005e 4831     		adds	r1, r1, #72
 913 0060 4901     		lsls	r1, r1, #5
 914 0062 5A58     		ldr	r2, [r3, r1]
ARM GAS  C:\Users\krisa\AppData\Local\Temp\ccNljk5K.s 			page 41


 915 0064 42EA0C0C 		orr	ip, r2, ip
 916              	.LVL93:
 308:lib/TinyUSB/src/portable/synopsys/dwc2/dcd_dwc2.c ****     } else {
 917              		.loc 1 308 20 view .LVU300
 918 0068 4CF00062 		orr	r2, ip, #134217728
 919 006c 5A50     		str	r2, [r3, r1]
 920              	.L52:
 322:lib/TinyUSB/src/portable/synopsys/dwc2/dcd_dwc2.c ****   } else {
 921              		.loc 1 322 5 is_stmt 1 view .LVU301
 922              	.LVL94:
 923              	.LBB246:
 924              	.LBI246:
  85:lib/TinyUSB/src/portable/synopsys/dwc2/dwc2_common.h **** }
  86:lib/TinyUSB/src/portable/synopsys/dwc2/dwc2_common.h **** 
  87:lib/TinyUSB/src/portable/synopsys/dwc2/dwc2_common.h **** bool dwc2_core_is_highspeed(dwc2_regs_t* dwc2, tusb_role_t role);
  88:lib/TinyUSB/src/portable/synopsys/dwc2/dwc2_common.h **** bool dwc2_core_init(uint8_t rhport, bool is_highspeed, bool is_dma);
  89:lib/TinyUSB/src/portable/synopsys/dwc2/dwc2_common.h **** void dwc2_core_handle_common_irq(uint8_t rhport, bool in_isr);
  90:lib/TinyUSB/src/portable/synopsys/dwc2/dwc2_common.h **** 
  91:lib/TinyUSB/src/portable/synopsys/dwc2/dwc2_common.h **** //--------------------------------------------------------------------+
  92:lib/TinyUSB/src/portable/synopsys/dwc2/dwc2_common.h **** // DFIFO
  93:lib/TinyUSB/src/portable/synopsys/dwc2/dwc2_common.h **** //--------------------------------------------------------------------+
  94:lib/TinyUSB/src/portable/synopsys/dwc2/dwc2_common.h **** TU_ATTR_ALWAYS_INLINE static inline void dfifo_flush_tx(dwc2_regs_t* dwc2, uint8_t fnum) {
 925              		.loc 2 94 42 view .LVU302
 926              	.LBB247:
  95:lib/TinyUSB/src/portable/synopsys/dwc2/dwc2_common.h ****   // flush TX fifo and wait for it cleared
  96:lib/TinyUSB/src/portable/synopsys/dwc2/dwc2_common.h ****   dwc2->grstctl = GRSTCTL_TXFFLSH | (fnum << GRSTCTL_TXFNUM_Pos);
 927              		.loc 2 96 3 view .LVU303
 928              		.loc 2 96 43 is_stmt 0 view .LVU304
 929 006e 8001     		lsls	r0, r0, #6
 930              	.LVL95:
 931              		.loc 2 96 35 view .LVU305
 932 0070 40F02000 		orr	r0, r0, #32
 933              		.loc 2 96 17 view .LVU306
 934 0074 1861     		str	r0, [r3, #16]
  97:lib/TinyUSB/src/portable/synopsys/dwc2/dwc2_common.h ****   while (0 != (dwc2->grstctl & GRSTCTL_TXFFLSH_Msk)) {}
 935              		.loc 2 97 3 is_stmt 1 view .LVU307
 936              	.L55:
 937              		.loc 2 97 55 view .LVU308
 938              		.loc 2 97 9 view .LVU309
 939              		.loc 2 97 20 is_stmt 0 view .LVU310
 940 0076 1A69     		ldr	r2, [r3, #16]
 941              		.loc 2 97 9 view .LVU311
 942 0078 12F0200F 		tst	r2, #32
 943 007c FBD1     		bne	.L55
 944 007e DFE7     		b	.L47
 945              	.LVL96:
 946              	.L51:
 947              		.loc 2 97 9 view .LVU312
 948              	.LBE247:
 949              	.LBE246:
 311:lib/TinyUSB/src/portable/synopsys/dwc2/dcd_dwc2.c ****       while ((dep->diepint & DIEPINT_INEPNE) == 0) {}
 950              		.loc 1 311 7 is_stmt 1 view .LVU313
 311:lib/TinyUSB/src/portable/synopsys/dwc2/dcd_dwc2.c ****       while ((dep->diepint & DIEPINT_INEPNE) == 0) {}
 951              		.loc 1 311 20 is_stmt 0 view .LVU314
 952 0080 00EB0112 		add	r2, r0, r1, lsl #4
 953 0084 4832     		adds	r2, r2, #72
 954 0086 5201     		lsls	r2, r2, #5
ARM GAS  C:\Users\krisa\AppData\Local\Temp\ccNljk5K.s 			page 42


 955 0088 9C58     		ldr	r4, [r3, r2]
 956 008a 44F00064 		orr	r4, r4, #134217728
 957 008e 9C50     		str	r4, [r3, r2]
 312:lib/TinyUSB/src/portable/synopsys/dwc2/dcd_dwc2.c **** 
 958              		.loc 1 312 7 is_stmt 1 view .LVU315
 959              	.L53:
 312:lib/TinyUSB/src/portable/synopsys/dwc2/dcd_dwc2.c **** 
 960              		.loc 1 312 53 discriminator 1 view .LVU316
 312:lib/TinyUSB/src/portable/synopsys/dwc2/dcd_dwc2.c **** 
 961              		.loc 1 312 13 discriminator 1 view .LVU317
 312:lib/TinyUSB/src/portable/synopsys/dwc2/dcd_dwc2.c **** 
 962              		.loc 1 312 18 is_stmt 0 discriminator 1 view .LVU318
 963 0090 00EB0112 		add	r2, r0, r1, lsl #4
 964 0094 03EB4212 		add	r2, r3, r2, lsl #5
 965 0098 D2F80829 		ldr	r2, [r2, #2312]
 312:lib/TinyUSB/src/portable/synopsys/dwc2/dcd_dwc2.c **** 
 966              		.loc 1 312 13 discriminator 1 view .LVU319
 967 009c 12F0400F 		tst	r2, #64
 968 00a0 F6D0     		beq	.L53
 315:lib/TinyUSB/src/portable/synopsys/dwc2/dcd_dwc2.c ****       while ((dep->diepint & DIEPINT_EPDISD_Msk) == 0) {}
 969              		.loc 1 315 7 is_stmt 1 view .LVU320
 315:lib/TinyUSB/src/portable/synopsys/dwc2/dcd_dwc2.c ****       while ((dep->diepint & DIEPINT_EPDISD_Msk) == 0) {}
 970              		.loc 1 315 20 is_stmt 0 view .LVU321
 971 00a2 00EB0112 		add	r2, r0, r1, lsl #4
 972 00a6 4832     		adds	r2, r2, #72
 973 00a8 5201     		lsls	r2, r2, #5
 974 00aa 9C58     		ldr	r4, [r3, r2]
 975 00ac 44EA0C0C 		orr	ip, r4, ip
 976              	.LVL97:
 315:lib/TinyUSB/src/portable/synopsys/dwc2/dcd_dwc2.c ****       while ((dep->diepint & DIEPINT_EPDISD_Msk) == 0) {}
 977              		.loc 1 315 20 view .LVU322
 978 00b0 4CF08044 		orr	r4, ip, #1073741824
 979 00b4 9C50     		str	r4, [r3, r2]
 316:lib/TinyUSB/src/portable/synopsys/dwc2/dcd_dwc2.c **** 
 980              		.loc 1 316 7 is_stmt 1 view .LVU323
 981              	.L54:
 316:lib/TinyUSB/src/portable/synopsys/dwc2/dcd_dwc2.c **** 
 982              		.loc 1 316 57 discriminator 1 view .LVU324
 316:lib/TinyUSB/src/portable/synopsys/dwc2/dcd_dwc2.c **** 
 983              		.loc 1 316 13 discriminator 1 view .LVU325
 316:lib/TinyUSB/src/portable/synopsys/dwc2/dcd_dwc2.c **** 
 984              		.loc 1 316 18 is_stmt 0 discriminator 1 view .LVU326
 985 00b6 00EB0112 		add	r2, r0, r1, lsl #4
 986 00ba 03EB4212 		add	r2, r3, r2, lsl #5
 987 00be D2F80829 		ldr	r2, [r2, #2312]
 316:lib/TinyUSB/src/portable/synopsys/dwc2/dcd_dwc2.c **** 
 988              		.loc 1 316 13 discriminator 1 view .LVU327
 989 00c2 12F0020F 		tst	r2, #2
 990 00c6 F6D0     		beq	.L54
 318:lib/TinyUSB/src/portable/synopsys/dwc2/dcd_dwc2.c ****     }
 991              		.loc 1 318 7 is_stmt 1 view .LVU328
 318:lib/TinyUSB/src/portable/synopsys/dwc2/dcd_dwc2.c ****     }
 992              		.loc 1 318 20 is_stmt 0 view .LVU329
 993 00c8 00EB0111 		add	r1, r0, r1, lsl #4
 994              	.LVL98:
 318:lib/TinyUSB/src/portable/synopsys/dwc2/dcd_dwc2.c ****     }
 995              		.loc 1 318 20 view .LVU330
ARM GAS  C:\Users\krisa\AppData\Local\Temp\ccNljk5K.s 			page 43


 996 00cc 03EB4111 		add	r1, r3, r1, lsl #5
 997 00d0 0222     		movs	r2, #2
 998 00d2 C1F80829 		str	r2, [r1, #2312]
 999 00d6 CAE7     		b	.L52
 1000              	.LVL99:
 1001              	.L65:
 324:lib/TinyUSB/src/portable/synopsys/dwc2/dcd_dwc2.c ****       // non-control not-enabled: stall if set
 1002              		.loc 1 324 31 discriminator 1 view .LVU331
 1003 00d8 0028     		cmp	r0, #0
 1004 00da A9D0     		beq	.L57
 333:lib/TinyUSB/src/portable/synopsys/dwc2/dcd_dwc2.c ****       while ((dwc2->gintsts & GINTSTS_BOUTNAKEFF_Msk) == 0) {}
 1005              		.loc 1 333 7 is_stmt 1 view .LVU332
 333:lib/TinyUSB/src/portable/synopsys/dwc2/dcd_dwc2.c ****       while ((dwc2->gintsts & GINTSTS_BOUTNAKEFF_Msk) == 0) {}
 1006              		.loc 1 333 18 is_stmt 0 view .LVU333
 1007 00dc D3F80428 		ldr	r2, [r3, #2052]
 1008 00e0 42F40072 		orr	r2, r2, #512
 1009 00e4 C3F80428 		str	r2, [r3, #2052]
 334:lib/TinyUSB/src/portable/synopsys/dwc2/dcd_dwc2.c **** 
 1010              		.loc 1 334 7 is_stmt 1 view .LVU334
 1011              	.L59:
 334:lib/TinyUSB/src/portable/synopsys/dwc2/dcd_dwc2.c **** 
 1012              		.loc 1 334 62 discriminator 1 view .LVU335
 334:lib/TinyUSB/src/portable/synopsys/dwc2/dcd_dwc2.c **** 
 1013              		.loc 1 334 13 discriminator 1 view .LVU336
 334:lib/TinyUSB/src/portable/synopsys/dwc2/dcd_dwc2.c **** 
 1014              		.loc 1 334 19 is_stmt 0 discriminator 1 view .LVU337
 1015 00e8 5A69     		ldr	r2, [r3, #20]
 334:lib/TinyUSB/src/portable/synopsys/dwc2/dcd_dwc2.c **** 
 1016              		.loc 1 334 13 discriminator 1 view .LVU338
 1017 00ea 12F0800F 		tst	r2, #128
 1018 00ee FBD0     		beq	.L59
 337:lib/TinyUSB/src/portable/synopsys/dwc2/dcd_dwc2.c ****       while ((dep->doepint & DOEPINT_EPDISD_Msk) == 0) {}
 1019              		.loc 1 337 7 is_stmt 1 view .LVU339
 337:lib/TinyUSB/src/portable/synopsys/dwc2/dcd_dwc2.c ****       while ((dep->doepint & DOEPINT_EPDISD_Msk) == 0) {}
 1020              		.loc 1 337 20 is_stmt 0 view .LVU340
 1021 00f0 00EB0112 		add	r2, r0, r1, lsl #4
 1022 00f4 4832     		adds	r2, r2, #72
 1023 00f6 5201     		lsls	r2, r2, #5
 1024 00f8 9C58     		ldr	r4, [r3, r2]
 1025 00fa 44EA0C0C 		orr	ip, r4, ip
 1026              	.LVL100:
 337:lib/TinyUSB/src/portable/synopsys/dwc2/dcd_dwc2.c ****       while ((dep->doepint & DOEPINT_EPDISD_Msk) == 0) {}
 1027              		.loc 1 337 20 view .LVU341
 1028 00fe 4CF08044 		orr	r4, ip, #1073741824
 1029 0102 9C50     		str	r4, [r3, r2]
 338:lib/TinyUSB/src/portable/synopsys/dwc2/dcd_dwc2.c **** 
 1030              		.loc 1 338 7 is_stmt 1 view .LVU342
 1031              	.L60:
 338:lib/TinyUSB/src/portable/synopsys/dwc2/dcd_dwc2.c **** 
 1032              		.loc 1 338 57 discriminator 1 view .LVU343
 338:lib/TinyUSB/src/portable/synopsys/dwc2/dcd_dwc2.c **** 
 1033              		.loc 1 338 13 discriminator 1 view .LVU344
 338:lib/TinyUSB/src/portable/synopsys/dwc2/dcd_dwc2.c **** 
 1034              		.loc 1 338 18 is_stmt 0 discriminator 1 view .LVU345
 1035 0104 00EB0112 		add	r2, r0, r1, lsl #4
 1036 0108 03EB4212 		add	r2, r3, r2, lsl #5
 1037 010c D2F80829 		ldr	r2, [r2, #2312]
ARM GAS  C:\Users\krisa\AppData\Local\Temp\ccNljk5K.s 			page 44


 338:lib/TinyUSB/src/portable/synopsys/dwc2/dcd_dwc2.c **** 
 1038              		.loc 1 338 13 discriminator 1 view .LVU346
 1039 0110 12F0020F 		tst	r2, #2
 1040 0114 F6D0     		beq	.L60
 340:lib/TinyUSB/src/portable/synopsys/dwc2/dcd_dwc2.c **** 
 1041              		.loc 1 340 7 is_stmt 1 view .LVU347
 340:lib/TinyUSB/src/portable/synopsys/dwc2/dcd_dwc2.c **** 
 1042              		.loc 1 340 20 is_stmt 0 view .LVU348
 1043 0116 00EB0111 		add	r1, r0, r1, lsl #4
 1044              	.LVL101:
 340:lib/TinyUSB/src/portable/synopsys/dwc2/dcd_dwc2.c **** 
 1045              		.loc 1 340 20 view .LVU349
 1046 011a 03EB4111 		add	r1, r3, r1, lsl #5
 1047 011e 0222     		movs	r2, #2
 1048 0120 C1F80829 		str	r2, [r1, #2312]
 343:lib/TinyUSB/src/portable/synopsys/dwc2/dcd_dwc2.c ****     }
 1049              		.loc 1 343 7 is_stmt 1 view .LVU350
 343:lib/TinyUSB/src/portable/synopsys/dwc2/dcd_dwc2.c ****     }
 1050              		.loc 1 343 18 is_stmt 0 view .LVU351
 1051 0124 D3F80428 		ldr	r2, [r3, #2052]
 1052 0128 42F48062 		orr	r2, r2, #1024
 1053 012c C3F80428 		str	r2, [r3, #2052]
 1054              		.loc 1 346 1 view .LVU352
 1055 0130 86E7     		b	.L47
 1056              	.L67:
 1057 0132 00BF     		.align	2
 1058              	.L66:
 1059 0134 00000000 		.word	.LANCHOR0
 1060              		.cfi_endproc
 1061              	.LFE349:
 1063              		.section	.text.handle_bus_reset,"ax",%progbits
 1064              		.align	1
 1065              		.syntax unified
 1066              		.thumb
 1067              		.thumb_func
 1069              	handle_bus_reset:
 1070              	.LVL102:
 1071              	.LFB369:
 347:lib/TinyUSB/src/portable/synopsys/dwc2/dcd_dwc2.c **** 
 348:lib/TinyUSB/src/portable/synopsys/dwc2/dcd_dwc2.c **** static uint16_t epin_write_tx_fifo(uint8_t rhport, uint8_t epnum) {
 349:lib/TinyUSB/src/portable/synopsys/dwc2/dcd_dwc2.c ****   dwc2_regs_t* dwc2 = DWC2_REG(rhport);
 350:lib/TinyUSB/src/portable/synopsys/dwc2/dcd_dwc2.c ****   dwc2_dep_t* const epin = &dwc2->ep[0][epnum];
 351:lib/TinyUSB/src/portable/synopsys/dwc2/dcd_dwc2.c ****   xfer_ctl_t* const xfer = XFER_CTL_BASE(epnum, TUSB_DIR_IN);
 352:lib/TinyUSB/src/portable/synopsys/dwc2/dcd_dwc2.c **** 
 353:lib/TinyUSB/src/portable/synopsys/dwc2/dcd_dwc2.c ****   dwc2_ep_tsize_t tsiz = {.value = epin->tsiz};
 354:lib/TinyUSB/src/portable/synopsys/dwc2/dcd_dwc2.c ****   const uint16_t remain_packets = tsiz.packet_count;
 355:lib/TinyUSB/src/portable/synopsys/dwc2/dcd_dwc2.c **** 
 356:lib/TinyUSB/src/portable/synopsys/dwc2/dcd_dwc2.c ****   uint16_t total_bytes_written = 0;
 357:lib/TinyUSB/src/portable/synopsys/dwc2/dcd_dwc2.c ****   // Process every single packet (only whole packets can be written to fifo)
 358:lib/TinyUSB/src/portable/synopsys/dwc2/dcd_dwc2.c ****   for (uint16_t i = 0; i < remain_packets; i++) {
 359:lib/TinyUSB/src/portable/synopsys/dwc2/dcd_dwc2.c ****     tsiz.value = epin->tsiz;
 360:lib/TinyUSB/src/portable/synopsys/dwc2/dcd_dwc2.c ****     const uint16_t remain_bytes = (uint16_t) tsiz.xfer_size;
 361:lib/TinyUSB/src/portable/synopsys/dwc2/dcd_dwc2.c ****     const uint16_t xact_bytes = tu_min16(remain_bytes, xfer->max_size);
 362:lib/TinyUSB/src/portable/synopsys/dwc2/dcd_dwc2.c **** 
 363:lib/TinyUSB/src/portable/synopsys/dwc2/dcd_dwc2.c ****     // Check if dtxfsts has enough space available
 364:lib/TinyUSB/src/portable/synopsys/dwc2/dcd_dwc2.c ****     if (xact_bytes > ((epin->dtxfsts & DTXFSTS_INEPTFSAV_Msk) << 2)) {
 365:lib/TinyUSB/src/portable/synopsys/dwc2/dcd_dwc2.c ****       break;
ARM GAS  C:\Users\krisa\AppData\Local\Temp\ccNljk5K.s 			page 45


 366:lib/TinyUSB/src/portable/synopsys/dwc2/dcd_dwc2.c ****     }
 367:lib/TinyUSB/src/portable/synopsys/dwc2/dcd_dwc2.c **** 
 368:lib/TinyUSB/src/portable/synopsys/dwc2/dcd_dwc2.c ****     // Push packet to Tx-FIFO
 369:lib/TinyUSB/src/portable/synopsys/dwc2/dcd_dwc2.c ****     if (xfer->ff) {
 370:lib/TinyUSB/src/portable/synopsys/dwc2/dcd_dwc2.c ****       volatile uint32_t* tx_fifo = dwc2->fifo[epnum];
 371:lib/TinyUSB/src/portable/synopsys/dwc2/dcd_dwc2.c ****       tu_fifo_read_n_access_mode(xfer->ff, (void *)(uintptr_t)tx_fifo, xact_bytes, TU_FIFO_FIXED_AD
 372:lib/TinyUSB/src/portable/synopsys/dwc2/dcd_dwc2.c ****       total_bytes_written += xact_bytes;
 373:lib/TinyUSB/src/portable/synopsys/dwc2/dcd_dwc2.c ****     } else {
 374:lib/TinyUSB/src/portable/synopsys/dwc2/dcd_dwc2.c ****       dfifo_write_packet(dwc2, epnum, xfer->buffer, xact_bytes);
 375:lib/TinyUSB/src/portable/synopsys/dwc2/dcd_dwc2.c ****       xfer->buffer += xact_bytes;
 376:lib/TinyUSB/src/portable/synopsys/dwc2/dcd_dwc2.c ****       total_bytes_written += xact_bytes;
 377:lib/TinyUSB/src/portable/synopsys/dwc2/dcd_dwc2.c ****     }
 378:lib/TinyUSB/src/portable/synopsys/dwc2/dcd_dwc2.c ****   }
 379:lib/TinyUSB/src/portable/synopsys/dwc2/dcd_dwc2.c ****   return total_bytes_written;
 380:lib/TinyUSB/src/portable/synopsys/dwc2/dcd_dwc2.c **** }
 381:lib/TinyUSB/src/portable/synopsys/dwc2/dcd_dwc2.c **** 
 382:lib/TinyUSB/src/portable/synopsys/dwc2/dcd_dwc2.c **** // Since this function returns void, it is not possible to return a boolean success message
 383:lib/TinyUSB/src/portable/synopsys/dwc2/dcd_dwc2.c **** // We must make sure that this function is not called when the EP is disabled
 384:lib/TinyUSB/src/portable/synopsys/dwc2/dcd_dwc2.c **** // Must be called from critical section
 385:lib/TinyUSB/src/portable/synopsys/dwc2/dcd_dwc2.c **** static void edpt_schedule_packets(uint8_t rhport, const uint8_t epnum, const uint8_t dir) {
 386:lib/TinyUSB/src/portable/synopsys/dwc2/dcd_dwc2.c ****   dwc2_regs_t* dwc2 = DWC2_REG(rhport);
 387:lib/TinyUSB/src/portable/synopsys/dwc2/dcd_dwc2.c ****   xfer_ctl_t* const xfer = XFER_CTL_BASE(epnum, dir);
 388:lib/TinyUSB/src/portable/synopsys/dwc2/dcd_dwc2.c ****   dwc2_dep_t* dep = &dwc2->ep[dir == TUSB_DIR_IN ? 0 : 1][epnum];
 389:lib/TinyUSB/src/portable/synopsys/dwc2/dcd_dwc2.c **** 
 390:lib/TinyUSB/src/portable/synopsys/dwc2/dcd_dwc2.c ****   uint16_t num_packets;
 391:lib/TinyUSB/src/portable/synopsys/dwc2/dcd_dwc2.c ****   uint16_t total_bytes;
 392:lib/TinyUSB/src/portable/synopsys/dwc2/dcd_dwc2.c **** 
 393:lib/TinyUSB/src/portable/synopsys/dwc2/dcd_dwc2.c ****   // EP0 is limited to one packet per xfer
 394:lib/TinyUSB/src/portable/synopsys/dwc2/dcd_dwc2.c ****   if (epnum == 0) {
 395:lib/TinyUSB/src/portable/synopsys/dwc2/dcd_dwc2.c ****     total_bytes = tu_min16(_dcd_data.ep0_pending[dir], CFG_TUD_ENDPOINT0_SIZE);
 396:lib/TinyUSB/src/portable/synopsys/dwc2/dcd_dwc2.c ****     _dcd_data.ep0_pending[dir] -= total_bytes;
 397:lib/TinyUSB/src/portable/synopsys/dwc2/dcd_dwc2.c ****     num_packets = 1;
 398:lib/TinyUSB/src/portable/synopsys/dwc2/dcd_dwc2.c ****   } else {
 399:lib/TinyUSB/src/portable/synopsys/dwc2/dcd_dwc2.c ****     total_bytes = xfer->total_len;
 400:lib/TinyUSB/src/portable/synopsys/dwc2/dcd_dwc2.c ****     num_packets = tu_div_ceil(total_bytes, xfer->max_size);
 401:lib/TinyUSB/src/portable/synopsys/dwc2/dcd_dwc2.c ****     if (num_packets == 0) {
 402:lib/TinyUSB/src/portable/synopsys/dwc2/dcd_dwc2.c ****       num_packets = 1; // zero length packet still count as 1
 403:lib/TinyUSB/src/portable/synopsys/dwc2/dcd_dwc2.c ****     }
 404:lib/TinyUSB/src/portable/synopsys/dwc2/dcd_dwc2.c ****   }
 405:lib/TinyUSB/src/portable/synopsys/dwc2/dcd_dwc2.c **** 
 406:lib/TinyUSB/src/portable/synopsys/dwc2/dcd_dwc2.c ****   // transfer size: A full OUT transfer (multiple packets, possibly) triggers XFRC.
 407:lib/TinyUSB/src/portable/synopsys/dwc2/dcd_dwc2.c ****   dwc2_ep_tsize_t deptsiz = {.value = 0};
 408:lib/TinyUSB/src/portable/synopsys/dwc2/dcd_dwc2.c ****   deptsiz.xfer_size = total_bytes;
 409:lib/TinyUSB/src/portable/synopsys/dwc2/dcd_dwc2.c ****   deptsiz.packet_count = num_packets;
 410:lib/TinyUSB/src/portable/synopsys/dwc2/dcd_dwc2.c ****   dep->tsiz = deptsiz.value;
 411:lib/TinyUSB/src/portable/synopsys/dwc2/dcd_dwc2.c **** 
 412:lib/TinyUSB/src/portable/synopsys/dwc2/dcd_dwc2.c ****   // control
 413:lib/TinyUSB/src/portable/synopsys/dwc2/dcd_dwc2.c ****   dwc2_depctl_t depctl = {.value = dep->ctl};
 414:lib/TinyUSB/src/portable/synopsys/dwc2/dcd_dwc2.c ****   depctl.clear_nak = 1;
 415:lib/TinyUSB/src/portable/synopsys/dwc2/dcd_dwc2.c ****   depctl.enable = 1;
 416:lib/TinyUSB/src/portable/synopsys/dwc2/dcd_dwc2.c ****   if (depctl.type == DEPCTL_EPTYPE_ISOCHRONOUS) {
 417:lib/TinyUSB/src/portable/synopsys/dwc2/dcd_dwc2.c ****     const dwc2_dsts_t dsts = {.value = dwc2->dsts};
 418:lib/TinyUSB/src/portable/synopsys/dwc2/dcd_dwc2.c ****     const uint32_t odd_now = dsts.frame_number & 1u;
 419:lib/TinyUSB/src/portable/synopsys/dwc2/dcd_dwc2.c ****     if (odd_now != 0) {
 420:lib/TinyUSB/src/portable/synopsys/dwc2/dcd_dwc2.c ****       depctl.set_data0_iso_even = 1;
 421:lib/TinyUSB/src/portable/synopsys/dwc2/dcd_dwc2.c ****     } else {
 422:lib/TinyUSB/src/portable/synopsys/dwc2/dcd_dwc2.c ****       depctl.set_data1_iso_odd = 1;
ARM GAS  C:\Users\krisa\AppData\Local\Temp\ccNljk5K.s 			page 46


 423:lib/TinyUSB/src/portable/synopsys/dwc2/dcd_dwc2.c ****     }
 424:lib/TinyUSB/src/portable/synopsys/dwc2/dcd_dwc2.c ****   }
 425:lib/TinyUSB/src/portable/synopsys/dwc2/dcd_dwc2.c **** 
 426:lib/TinyUSB/src/portable/synopsys/dwc2/dcd_dwc2.c ****   const bool is_dma = dma_device_enabled(dwc2);
 427:lib/TinyUSB/src/portable/synopsys/dwc2/dcd_dwc2.c ****   if(is_dma) {
 428:lib/TinyUSB/src/portable/synopsys/dwc2/dcd_dwc2.c ****     if (dir == TUSB_DIR_IN && total_bytes != 0) {
 429:lib/TinyUSB/src/portable/synopsys/dwc2/dcd_dwc2.c ****       dcd_dcache_clean(xfer->buffer, total_bytes);
 430:lib/TinyUSB/src/portable/synopsys/dwc2/dcd_dwc2.c ****     }
 431:lib/TinyUSB/src/portable/synopsys/dwc2/dcd_dwc2.c ****     dep->diepdma = (uintptr_t) xfer->buffer;
 432:lib/TinyUSB/src/portable/synopsys/dwc2/dcd_dwc2.c ****     dep->diepctl = depctl.value; // enable endpoint
 433:lib/TinyUSB/src/portable/synopsys/dwc2/dcd_dwc2.c ****     // Advance buffer pointer for EP0
 434:lib/TinyUSB/src/portable/synopsys/dwc2/dcd_dwc2.c ****     if (epnum == 0) {
 435:lib/TinyUSB/src/portable/synopsys/dwc2/dcd_dwc2.c ****       xfer->buffer += total_bytes;
 436:lib/TinyUSB/src/portable/synopsys/dwc2/dcd_dwc2.c ****     }
 437:lib/TinyUSB/src/portable/synopsys/dwc2/dcd_dwc2.c ****   } else {
 438:lib/TinyUSB/src/portable/synopsys/dwc2/dcd_dwc2.c ****     dep->diepctl = depctl.value; // enable endpoint
 439:lib/TinyUSB/src/portable/synopsys/dwc2/dcd_dwc2.c **** 
 440:lib/TinyUSB/src/portable/synopsys/dwc2/dcd_dwc2.c ****     if (dir == TUSB_DIR_IN && total_bytes != 0) {
 441:lib/TinyUSB/src/portable/synopsys/dwc2/dcd_dwc2.c ****       const uint16_t xferred_bytes = epin_write_tx_fifo(rhport, epnum);
 442:lib/TinyUSB/src/portable/synopsys/dwc2/dcd_dwc2.c **** 
 443:lib/TinyUSB/src/portable/synopsys/dwc2/dcd_dwc2.c ****       // Enable TXFE interrupt if there are still data to be sent
 444:lib/TinyUSB/src/portable/synopsys/dwc2/dcd_dwc2.c ****       // EP0 only sends one packet at a time, so no need to check for EP0
 445:lib/TinyUSB/src/portable/synopsys/dwc2/dcd_dwc2.c ****       if ((epnum != 0) && (xfer->total_len - xferred_bytes > 0)) {
 446:lib/TinyUSB/src/portable/synopsys/dwc2/dcd_dwc2.c ****          dwc2->diepempmsk |= (1u << epnum);
 447:lib/TinyUSB/src/portable/synopsys/dwc2/dcd_dwc2.c ****       }
 448:lib/TinyUSB/src/portable/synopsys/dwc2/dcd_dwc2.c ****     }
 449:lib/TinyUSB/src/portable/synopsys/dwc2/dcd_dwc2.c ****   }
 450:lib/TinyUSB/src/portable/synopsys/dwc2/dcd_dwc2.c **** }
 451:lib/TinyUSB/src/portable/synopsys/dwc2/dcd_dwc2.c **** 
 452:lib/TinyUSB/src/portable/synopsys/dwc2/dcd_dwc2.c **** //--------------------------------------------------------------------
 453:lib/TinyUSB/src/portable/synopsys/dwc2/dcd_dwc2.c **** // Controller API
 454:lib/TinyUSB/src/portable/synopsys/dwc2/dcd_dwc2.c **** //--------------------------------------------------------------------
 455:lib/TinyUSB/src/portable/synopsys/dwc2/dcd_dwc2.c **** // optional dcd configuration, called by tud_configure()
 456:lib/TinyUSB/src/portable/synopsys/dwc2/dcd_dwc2.c **** bool dcd_configure(uint8_t rhport, uint32_t cfg_id, const void* cfg_param) {
 457:lib/TinyUSB/src/portable/synopsys/dwc2/dcd_dwc2.c ****   (void) rhport;
 458:lib/TinyUSB/src/portable/synopsys/dwc2/dcd_dwc2.c ****   TU_VERIFY(cfg_id == TUD_CFGID_DWC2 && cfg_param != NULL);
 459:lib/TinyUSB/src/portable/synopsys/dwc2/dcd_dwc2.c **** 
 460:lib/TinyUSB/src/portable/synopsys/dwc2/dcd_dwc2.c ****   const tud_configure_param_t* const cfg = (const tud_configure_param_t*) cfg_param;
 461:lib/TinyUSB/src/portable/synopsys/dwc2/dcd_dwc2.c ****   _tud_cfg = cfg->dwc2;
 462:lib/TinyUSB/src/portable/synopsys/dwc2/dcd_dwc2.c ****   return true;
 463:lib/TinyUSB/src/portable/synopsys/dwc2/dcd_dwc2.c **** }
 464:lib/TinyUSB/src/portable/synopsys/dwc2/dcd_dwc2.c **** 
 465:lib/TinyUSB/src/portable/synopsys/dwc2/dcd_dwc2.c **** bool dcd_init(uint8_t rhport, const tusb_rhport_init_t* rh_init) {
 466:lib/TinyUSB/src/portable/synopsys/dwc2/dcd_dwc2.c ****   (void) rh_init;
 467:lib/TinyUSB/src/portable/synopsys/dwc2/dcd_dwc2.c ****   dwc2_regs_t* dwc2 = DWC2_REG(rhport);
 468:lib/TinyUSB/src/portable/synopsys/dwc2/dcd_dwc2.c **** 
 469:lib/TinyUSB/src/portable/synopsys/dwc2/dcd_dwc2.c ****   tu_memclr(&_dcd_data, sizeof(_dcd_data));
 470:lib/TinyUSB/src/portable/synopsys/dwc2/dcd_dwc2.c **** 
 471:lib/TinyUSB/src/portable/synopsys/dwc2/dcd_dwc2.c ****   // Core Initialization
 472:lib/TinyUSB/src/portable/synopsys/dwc2/dcd_dwc2.c ****   const bool is_highspeed = dwc2_core_is_highspeed(dwc2, TUSB_ROLE_DEVICE);
 473:lib/TinyUSB/src/portable/synopsys/dwc2/dcd_dwc2.c ****   const bool is_dma = dma_device_enabled(dwc2);
 474:lib/TinyUSB/src/portable/synopsys/dwc2/dcd_dwc2.c ****   TU_ASSERT(dwc2_core_init(rhport, is_highspeed, is_dma));
 475:lib/TinyUSB/src/portable/synopsys/dwc2/dcd_dwc2.c **** 
 476:lib/TinyUSB/src/portable/synopsys/dwc2/dcd_dwc2.c ****   //------------- 7.1 Device Initialization -------------//
 477:lib/TinyUSB/src/portable/synopsys/dwc2/dcd_dwc2.c ****   // Set device max speed
 478:lib/TinyUSB/src/portable/synopsys/dwc2/dcd_dwc2.c ****   uint32_t dcfg = dwc2->dcfg & ~DCFG_DSPD_Msk;
 479:lib/TinyUSB/src/portable/synopsys/dwc2/dcd_dwc2.c ****   if (is_highspeed) {
ARM GAS  C:\Users\krisa\AppData\Local\Temp\ccNljk5K.s 			page 47


 480:lib/TinyUSB/src/portable/synopsys/dwc2/dcd_dwc2.c ****     // dcfg Highspeed's mask is 0
 481:lib/TinyUSB/src/portable/synopsys/dwc2/dcd_dwc2.c **** 
 482:lib/TinyUSB/src/portable/synopsys/dwc2/dcd_dwc2.c ****     // XCVRDLY: transceiver delay between xcvr_sel and txvalid during device chirp is required
 483:lib/TinyUSB/src/portable/synopsys/dwc2/dcd_dwc2.c ****     // when using with some PHYs such as USB334x (USB3341, USB3343, USB3346, USB3347)
 484:lib/TinyUSB/src/portable/synopsys/dwc2/dcd_dwc2.c ****     const dwc2_ghwcfg2_t ghwcfg2 = {.value = dwc2->ghwcfg2};
 485:lib/TinyUSB/src/portable/synopsys/dwc2/dcd_dwc2.c ****     if (ghwcfg2.hs_phy_type == GHWCFG2_HSPHY_ULPI) {
 486:lib/TinyUSB/src/portable/synopsys/dwc2/dcd_dwc2.c ****       dcfg |= DCFG_XCVRDLY;
 487:lib/TinyUSB/src/portable/synopsys/dwc2/dcd_dwc2.c ****     }
 488:lib/TinyUSB/src/portable/synopsys/dwc2/dcd_dwc2.c ****   } else {
 489:lib/TinyUSB/src/portable/synopsys/dwc2/dcd_dwc2.c ****     dcfg |= DCFG_DSPD_FS << DCFG_DSPD_Pos;
 490:lib/TinyUSB/src/portable/synopsys/dwc2/dcd_dwc2.c ****   }
 491:lib/TinyUSB/src/portable/synopsys/dwc2/dcd_dwc2.c **** 
 492:lib/TinyUSB/src/portable/synopsys/dwc2/dcd_dwc2.c ****   dcfg |= DCFG_NZLSOHSK; // send STALL back and discard if host send non-zlp during control status
 493:lib/TinyUSB/src/portable/synopsys/dwc2/dcd_dwc2.c ****   dwc2->dcfg = dcfg;
 494:lib/TinyUSB/src/portable/synopsys/dwc2/dcd_dwc2.c **** 
 495:lib/TinyUSB/src/portable/synopsys/dwc2/dcd_dwc2.c ****   dcd_disconnect(rhport);
 496:lib/TinyUSB/src/portable/synopsys/dwc2/dcd_dwc2.c **** 
 497:lib/TinyUSB/src/portable/synopsys/dwc2/dcd_dwc2.c ****   // Force device mode
 498:lib/TinyUSB/src/portable/synopsys/dwc2/dcd_dwc2.c ****   dwc2->gusbcfg = (dwc2->gusbcfg & ~GUSBCFG_FHMOD) | GUSBCFG_FDMOD;
 499:lib/TinyUSB/src/portable/synopsys/dwc2/dcd_dwc2.c **** 
 500:lib/TinyUSB/src/portable/synopsys/dwc2/dcd_dwc2.c ****   // Clear A override, force B Valid
 501:lib/TinyUSB/src/portable/synopsys/dwc2/dcd_dwc2.c ****   dwc2->gotgctl = (dwc2->gotgctl & ~GOTGCTL_AVALOEN) | GOTGCTL_BVALOEN | GOTGCTL_BVALOVAL;
 502:lib/TinyUSB/src/portable/synopsys/dwc2/dcd_dwc2.c **** 
 503:lib/TinyUSB/src/portable/synopsys/dwc2/dcd_dwc2.c **** #if CFG_TUSB_MCU == OPT_MCU_STM32N6
 504:lib/TinyUSB/src/portable/synopsys/dwc2/dcd_dwc2.c ****   // No hardware detection of Vbus B-session is available on the STM32N6
 505:lib/TinyUSB/src/portable/synopsys/dwc2/dcd_dwc2.c ****   dwc2->stm32_gccfg |= STM32_GCCFG_VBVALOVAL;
 506:lib/TinyUSB/src/portable/synopsys/dwc2/dcd_dwc2.c **** #endif
 507:lib/TinyUSB/src/portable/synopsys/dwc2/dcd_dwc2.c **** 
 508:lib/TinyUSB/src/portable/synopsys/dwc2/dcd_dwc2.c ****   // Enable required interrupts
 509:lib/TinyUSB/src/portable/synopsys/dwc2/dcd_dwc2.c ****   dwc2->gintmsk |= GINTMSK_OTGINT | GINTMSK_USBRST | GINTMSK_ENUMDNEM | GINTMSK_WUIM;
 510:lib/TinyUSB/src/portable/synopsys/dwc2/dcd_dwc2.c **** 
 511:lib/TinyUSB/src/portable/synopsys/dwc2/dcd_dwc2.c ****   uint32_t gahbcfg = dwc2->gahbcfg;
 512:lib/TinyUSB/src/portable/synopsys/dwc2/dcd_dwc2.c ****   gahbcfg |= GAHBCFG_GINT; // Enable global interrupt
 513:lib/TinyUSB/src/portable/synopsys/dwc2/dcd_dwc2.c ****   dwc2->gahbcfg = gahbcfg;
 514:lib/TinyUSB/src/portable/synopsys/dwc2/dcd_dwc2.c **** 
 515:lib/TinyUSB/src/portable/synopsys/dwc2/dcd_dwc2.c ****   dcd_connect(rhport);
 516:lib/TinyUSB/src/portable/synopsys/dwc2/dcd_dwc2.c ****   return true;
 517:lib/TinyUSB/src/portable/synopsys/dwc2/dcd_dwc2.c **** }
 518:lib/TinyUSB/src/portable/synopsys/dwc2/dcd_dwc2.c **** 
 519:lib/TinyUSB/src/portable/synopsys/dwc2/dcd_dwc2.c **** void dcd_int_enable(uint8_t rhport) {
 520:lib/TinyUSB/src/portable/synopsys/dwc2/dcd_dwc2.c ****   dwc2_dcd_int_enable(rhport);
 521:lib/TinyUSB/src/portable/synopsys/dwc2/dcd_dwc2.c **** }
 522:lib/TinyUSB/src/portable/synopsys/dwc2/dcd_dwc2.c **** 
 523:lib/TinyUSB/src/portable/synopsys/dwc2/dcd_dwc2.c **** void dcd_int_disable(uint8_t rhport) {
 524:lib/TinyUSB/src/portable/synopsys/dwc2/dcd_dwc2.c ****   dwc2_dcd_int_disable(rhport);
 525:lib/TinyUSB/src/portable/synopsys/dwc2/dcd_dwc2.c **** }
 526:lib/TinyUSB/src/portable/synopsys/dwc2/dcd_dwc2.c **** 
 527:lib/TinyUSB/src/portable/synopsys/dwc2/dcd_dwc2.c **** void dcd_set_address(uint8_t rhport, uint8_t dev_addr) {
 528:lib/TinyUSB/src/portable/synopsys/dwc2/dcd_dwc2.c ****   dwc2_regs_t* dwc2 = DWC2_REG(rhport);
 529:lib/TinyUSB/src/portable/synopsys/dwc2/dcd_dwc2.c ****   dwc2->dcfg = (dwc2->dcfg & ~DCFG_DAD_Msk) | (dev_addr << DCFG_DAD_Pos);
 530:lib/TinyUSB/src/portable/synopsys/dwc2/dcd_dwc2.c **** 
 531:lib/TinyUSB/src/portable/synopsys/dwc2/dcd_dwc2.c ****   // Response with status after changing device address
 532:lib/TinyUSB/src/portable/synopsys/dwc2/dcd_dwc2.c ****   dcd_edpt_xfer(rhport, tu_edpt_addr(0, TUSB_DIR_IN), NULL, 0, false);
 533:lib/TinyUSB/src/portable/synopsys/dwc2/dcd_dwc2.c **** }
 534:lib/TinyUSB/src/portable/synopsys/dwc2/dcd_dwc2.c **** 
 535:lib/TinyUSB/src/portable/synopsys/dwc2/dcd_dwc2.c **** void dcd_remote_wakeup(uint8_t rhport) {
 536:lib/TinyUSB/src/portable/synopsys/dwc2/dcd_dwc2.c ****   (void) rhport;
ARM GAS  C:\Users\krisa\AppData\Local\Temp\ccNljk5K.s 			page 48


 537:lib/TinyUSB/src/portable/synopsys/dwc2/dcd_dwc2.c **** 
 538:lib/TinyUSB/src/portable/synopsys/dwc2/dcd_dwc2.c ****   dwc2_regs_t* dwc2 = DWC2_REG(rhport);
 539:lib/TinyUSB/src/portable/synopsys/dwc2/dcd_dwc2.c **** 
 540:lib/TinyUSB/src/portable/synopsys/dwc2/dcd_dwc2.c ****   // set remote wakeup
 541:lib/TinyUSB/src/portable/synopsys/dwc2/dcd_dwc2.c ****   dwc2->dctl |= DCTL_RWUSIG;
 542:lib/TinyUSB/src/portable/synopsys/dwc2/dcd_dwc2.c **** 
 543:lib/TinyUSB/src/portable/synopsys/dwc2/dcd_dwc2.c ****   // enable SOF to detect bus resume
 544:lib/TinyUSB/src/portable/synopsys/dwc2/dcd_dwc2.c ****   dwc2->gintsts = GINTSTS_SOF;
 545:lib/TinyUSB/src/portable/synopsys/dwc2/dcd_dwc2.c ****   dwc2->gintmsk |= GINTMSK_SOFM;
 546:lib/TinyUSB/src/portable/synopsys/dwc2/dcd_dwc2.c **** 
 547:lib/TinyUSB/src/portable/synopsys/dwc2/dcd_dwc2.c ****   // Per specs: remote wakeup signal bit must be clear within 1-15ms
 548:lib/TinyUSB/src/portable/synopsys/dwc2/dcd_dwc2.c ****   dwc2_remote_wakeup_delay();
 549:lib/TinyUSB/src/portable/synopsys/dwc2/dcd_dwc2.c **** 
 550:lib/TinyUSB/src/portable/synopsys/dwc2/dcd_dwc2.c ****   dwc2->dctl &= ~DCTL_RWUSIG;
 551:lib/TinyUSB/src/portable/synopsys/dwc2/dcd_dwc2.c **** }
 552:lib/TinyUSB/src/portable/synopsys/dwc2/dcd_dwc2.c **** 
 553:lib/TinyUSB/src/portable/synopsys/dwc2/dcd_dwc2.c **** void dcd_connect(uint8_t rhport) {
 554:lib/TinyUSB/src/portable/synopsys/dwc2/dcd_dwc2.c ****   (void) rhport;
 555:lib/TinyUSB/src/portable/synopsys/dwc2/dcd_dwc2.c ****   dwc2_regs_t* dwc2 = DWC2_REG(rhport);
 556:lib/TinyUSB/src/portable/synopsys/dwc2/dcd_dwc2.c **** 
 557:lib/TinyUSB/src/portable/synopsys/dwc2/dcd_dwc2.c **** #ifdef TUP_USBIP_DWC2_ESP32
 558:lib/TinyUSB/src/portable/synopsys/dwc2/dcd_dwc2.c ****   usb_wrap_otg_conf_reg_t conf = USB_WRAP.otg_conf;
 559:lib/TinyUSB/src/portable/synopsys/dwc2/dcd_dwc2.c ****   conf.pad_pull_override = 0;
 560:lib/TinyUSB/src/portable/synopsys/dwc2/dcd_dwc2.c ****   conf.dp_pullup = 0;
 561:lib/TinyUSB/src/portable/synopsys/dwc2/dcd_dwc2.c ****   conf.dp_pulldown = 0;
 562:lib/TinyUSB/src/portable/synopsys/dwc2/dcd_dwc2.c ****   conf.dm_pullup = 0;
 563:lib/TinyUSB/src/portable/synopsys/dwc2/dcd_dwc2.c ****   conf.dm_pulldown = 0;
 564:lib/TinyUSB/src/portable/synopsys/dwc2/dcd_dwc2.c ****   USB_WRAP.otg_conf = conf;
 565:lib/TinyUSB/src/portable/synopsys/dwc2/dcd_dwc2.c **** #endif
 566:lib/TinyUSB/src/portable/synopsys/dwc2/dcd_dwc2.c **** 
 567:lib/TinyUSB/src/portable/synopsys/dwc2/dcd_dwc2.c ****   dwc2->dctl &= ~DCTL_SDIS;
 568:lib/TinyUSB/src/portable/synopsys/dwc2/dcd_dwc2.c **** }
 569:lib/TinyUSB/src/portable/synopsys/dwc2/dcd_dwc2.c **** 
 570:lib/TinyUSB/src/portable/synopsys/dwc2/dcd_dwc2.c **** void dcd_disconnect(uint8_t rhport) {
 571:lib/TinyUSB/src/portable/synopsys/dwc2/dcd_dwc2.c ****   (void) rhport;
 572:lib/TinyUSB/src/portable/synopsys/dwc2/dcd_dwc2.c ****   dwc2_regs_t* dwc2 = DWC2_REG(rhport);
 573:lib/TinyUSB/src/portable/synopsys/dwc2/dcd_dwc2.c **** 
 574:lib/TinyUSB/src/portable/synopsys/dwc2/dcd_dwc2.c **** #ifdef TUP_USBIP_DWC2_ESP32
 575:lib/TinyUSB/src/portable/synopsys/dwc2/dcd_dwc2.c ****   usb_wrap_otg_conf_reg_t conf = USB_WRAP.otg_conf;
 576:lib/TinyUSB/src/portable/synopsys/dwc2/dcd_dwc2.c ****   conf.pad_pull_override = 1;
 577:lib/TinyUSB/src/portable/synopsys/dwc2/dcd_dwc2.c ****   conf.dp_pullup = 0;
 578:lib/TinyUSB/src/portable/synopsys/dwc2/dcd_dwc2.c ****   conf.dp_pulldown = 1;
 579:lib/TinyUSB/src/portable/synopsys/dwc2/dcd_dwc2.c ****   conf.dm_pullup = 0;
 580:lib/TinyUSB/src/portable/synopsys/dwc2/dcd_dwc2.c ****   conf.dm_pulldown = 1;
 581:lib/TinyUSB/src/portable/synopsys/dwc2/dcd_dwc2.c ****   USB_WRAP.otg_conf = conf;
 582:lib/TinyUSB/src/portable/synopsys/dwc2/dcd_dwc2.c **** #endif
 583:lib/TinyUSB/src/portable/synopsys/dwc2/dcd_dwc2.c **** 
 584:lib/TinyUSB/src/portable/synopsys/dwc2/dcd_dwc2.c ****   dwc2->dctl |= DCTL_SDIS;
 585:lib/TinyUSB/src/portable/synopsys/dwc2/dcd_dwc2.c **** }
 586:lib/TinyUSB/src/portable/synopsys/dwc2/dcd_dwc2.c **** 
 587:lib/TinyUSB/src/portable/synopsys/dwc2/dcd_dwc2.c **** // Be advised: audio, video and possibly other iso-ep classes use dcd_sof_enable() to enable/disabl
 588:lib/TinyUSB/src/portable/synopsys/dwc2/dcd_dwc2.c **** void dcd_sof_enable(uint8_t rhport, bool en) {
 589:lib/TinyUSB/src/portable/synopsys/dwc2/dcd_dwc2.c ****   (void) rhport;
 590:lib/TinyUSB/src/portable/synopsys/dwc2/dcd_dwc2.c ****   dwc2_regs_t* dwc2 = DWC2_REG(rhport);
 591:lib/TinyUSB/src/portable/synopsys/dwc2/dcd_dwc2.c **** 
 592:lib/TinyUSB/src/portable/synopsys/dwc2/dcd_dwc2.c ****   _dcd_data.sof_en = en;
 593:lib/TinyUSB/src/portable/synopsys/dwc2/dcd_dwc2.c **** 
ARM GAS  C:\Users\krisa\AppData\Local\Temp\ccNljk5K.s 			page 49


 594:lib/TinyUSB/src/portable/synopsys/dwc2/dcd_dwc2.c ****   if (en) {
 595:lib/TinyUSB/src/portable/synopsys/dwc2/dcd_dwc2.c ****     dwc2->gintsts = GINTSTS_SOF;
 596:lib/TinyUSB/src/portable/synopsys/dwc2/dcd_dwc2.c ****     dwc2->gintmsk |= GINTMSK_SOFM;
 597:lib/TinyUSB/src/portable/synopsys/dwc2/dcd_dwc2.c ****   } else {
 598:lib/TinyUSB/src/portable/synopsys/dwc2/dcd_dwc2.c ****     dwc2->gintmsk &= ~GINTMSK_SOFM;
 599:lib/TinyUSB/src/portable/synopsys/dwc2/dcd_dwc2.c ****   }
 600:lib/TinyUSB/src/portable/synopsys/dwc2/dcd_dwc2.c **** }
 601:lib/TinyUSB/src/portable/synopsys/dwc2/dcd_dwc2.c **** 
 602:lib/TinyUSB/src/portable/synopsys/dwc2/dcd_dwc2.c **** /*------------------------------------------------------------------*/
 603:lib/TinyUSB/src/portable/synopsys/dwc2/dcd_dwc2.c **** /* DCD Endpoint port
 604:lib/TinyUSB/src/portable/synopsys/dwc2/dcd_dwc2.c ****  *------------------------------------------------------------------*/
 605:lib/TinyUSB/src/portable/synopsys/dwc2/dcd_dwc2.c **** 
 606:lib/TinyUSB/src/portable/synopsys/dwc2/dcd_dwc2.c **** bool dcd_edpt_open(uint8_t rhport, tusb_desc_endpoint_t const* desc_edpt) {
 607:lib/TinyUSB/src/portable/synopsys/dwc2/dcd_dwc2.c ****   TU_ASSERT(dfifo_alloc(rhport, desc_edpt->bEndpointAddress, tu_edpt_packet_size(desc_edpt),
 608:lib/TinyUSB/src/portable/synopsys/dwc2/dcd_dwc2.c ****                        desc_edpt->bmAttributes.xfer == TUSB_XFER_BULK));
 609:lib/TinyUSB/src/portable/synopsys/dwc2/dcd_dwc2.c ****   edpt_activate(rhport, desc_edpt);
 610:lib/TinyUSB/src/portable/synopsys/dwc2/dcd_dwc2.c ****   return true;
 611:lib/TinyUSB/src/portable/synopsys/dwc2/dcd_dwc2.c **** }
 612:lib/TinyUSB/src/portable/synopsys/dwc2/dcd_dwc2.c **** 
 613:lib/TinyUSB/src/portable/synopsys/dwc2/dcd_dwc2.c **** // Close all non-control endpoints, cancel all pending transfers if any.
 614:lib/TinyUSB/src/portable/synopsys/dwc2/dcd_dwc2.c **** void dcd_edpt_close_all(uint8_t rhport) {
 615:lib/TinyUSB/src/portable/synopsys/dwc2/dcd_dwc2.c ****   dwc2_regs_t* dwc2 = DWC2_REG(rhport);
 616:lib/TinyUSB/src/portable/synopsys/dwc2/dcd_dwc2.c ****   uint8_t const ep_count = _dwc2_controller[rhport].ep_count;
 617:lib/TinyUSB/src/portable/synopsys/dwc2/dcd_dwc2.c **** 
 618:lib/TinyUSB/src/portable/synopsys/dwc2/dcd_dwc2.c ****   usbd_spin_lock(false);
 619:lib/TinyUSB/src/portable/synopsys/dwc2/dcd_dwc2.c **** 
 620:lib/TinyUSB/src/portable/synopsys/dwc2/dcd_dwc2.c ****   _dcd_data.allocated_epin_count = 0;
 621:lib/TinyUSB/src/portable/synopsys/dwc2/dcd_dwc2.c **** 
 622:lib/TinyUSB/src/portable/synopsys/dwc2/dcd_dwc2.c ****   // Disable non-control interrupt
 623:lib/TinyUSB/src/portable/synopsys/dwc2/dcd_dwc2.c ****   dwc2->daintmsk = (1 << DAINTMSK_OEPM_Pos) | (1 << DAINTMSK_IEPM_Pos);
 624:lib/TinyUSB/src/portable/synopsys/dwc2/dcd_dwc2.c **** 
 625:lib/TinyUSB/src/portable/synopsys/dwc2/dcd_dwc2.c ****   for (uint8_t n = 1; n < ep_count; n++) {
 626:lib/TinyUSB/src/portable/synopsys/dwc2/dcd_dwc2.c ****     for (uint8_t d = 0; d < 2; d++) {
 627:lib/TinyUSB/src/portable/synopsys/dwc2/dcd_dwc2.c ****       dwc2_dep_t* dep = &dwc2->ep[d][n];
 628:lib/TinyUSB/src/portable/synopsys/dwc2/dcd_dwc2.c ****       if (edpt_is_enabled(dep)) {
 629:lib/TinyUSB/src/portable/synopsys/dwc2/dcd_dwc2.c ****         dep->ctl |= EPCTL_SNAK | EPCTL_EPDIS;
 630:lib/TinyUSB/src/portable/synopsys/dwc2/dcd_dwc2.c ****       }
 631:lib/TinyUSB/src/portable/synopsys/dwc2/dcd_dwc2.c ****       xfer_status[n][1-d].max_size = 0;
 632:lib/TinyUSB/src/portable/synopsys/dwc2/dcd_dwc2.c ****     }
 633:lib/TinyUSB/src/portable/synopsys/dwc2/dcd_dwc2.c ****   }
 634:lib/TinyUSB/src/portable/synopsys/dwc2/dcd_dwc2.c **** 
 635:lib/TinyUSB/src/portable/synopsys/dwc2/dcd_dwc2.c ****   dfifo_flush_tx(dwc2, 0x10); // all tx fifo
 636:lib/TinyUSB/src/portable/synopsys/dwc2/dcd_dwc2.c ****   dfifo_flush_rx(dwc2);
 637:lib/TinyUSB/src/portable/synopsys/dwc2/dcd_dwc2.c ****   dfifo_device_init(rhport); // re-init dfifo
 638:lib/TinyUSB/src/portable/synopsys/dwc2/dcd_dwc2.c **** 
 639:lib/TinyUSB/src/portable/synopsys/dwc2/dcd_dwc2.c ****   usbd_spin_unlock(false);
 640:lib/TinyUSB/src/portable/synopsys/dwc2/dcd_dwc2.c **** }
 641:lib/TinyUSB/src/portable/synopsys/dwc2/dcd_dwc2.c **** 
 642:lib/TinyUSB/src/portable/synopsys/dwc2/dcd_dwc2.c **** bool dcd_edpt_iso_alloc(uint8_t rhport, uint8_t ep_addr, uint16_t largest_packet_size) {
 643:lib/TinyUSB/src/portable/synopsys/dwc2/dcd_dwc2.c ****   TU_ASSERT(dfifo_alloc(rhport, ep_addr, largest_packet_size, false));
 644:lib/TinyUSB/src/portable/synopsys/dwc2/dcd_dwc2.c ****   return true;
 645:lib/TinyUSB/src/portable/synopsys/dwc2/dcd_dwc2.c **** }
 646:lib/TinyUSB/src/portable/synopsys/dwc2/dcd_dwc2.c **** 
 647:lib/TinyUSB/src/portable/synopsys/dwc2/dcd_dwc2.c **** bool dcd_edpt_iso_activate(uint8_t rhport,  tusb_desc_endpoint_t const * p_endpoint_desc) {
 648:lib/TinyUSB/src/portable/synopsys/dwc2/dcd_dwc2.c ****   // Disable EP to clear potential incomplete transfers
 649:lib/TinyUSB/src/portable/synopsys/dwc2/dcd_dwc2.c ****   edpt_disable(rhport, p_endpoint_desc->bEndpointAddress, false);
 650:lib/TinyUSB/src/portable/synopsys/dwc2/dcd_dwc2.c ****   edpt_activate(rhport, p_endpoint_desc);
ARM GAS  C:\Users\krisa\AppData\Local\Temp\ccNljk5K.s 			page 50


 651:lib/TinyUSB/src/portable/synopsys/dwc2/dcd_dwc2.c ****   return true;
 652:lib/TinyUSB/src/portable/synopsys/dwc2/dcd_dwc2.c **** }
 653:lib/TinyUSB/src/portable/synopsys/dwc2/dcd_dwc2.c **** 
 654:lib/TinyUSB/src/portable/synopsys/dwc2/dcd_dwc2.c **** bool dcd_edpt_xfer(uint8_t rhport, uint8_t ep_addr, uint8_t* buffer, uint16_t total_bytes, bool is_
 655:lib/TinyUSB/src/portable/synopsys/dwc2/dcd_dwc2.c ****   (void) is_isr;
 656:lib/TinyUSB/src/portable/synopsys/dwc2/dcd_dwc2.c ****   uint8_t const epnum = tu_edpt_number(ep_addr);
 657:lib/TinyUSB/src/portable/synopsys/dwc2/dcd_dwc2.c ****   uint8_t const dir = tu_edpt_dir(ep_addr);
 658:lib/TinyUSB/src/portable/synopsys/dwc2/dcd_dwc2.c ****   xfer_ctl_t* xfer = XFER_CTL_BASE(epnum, dir);
 659:lib/TinyUSB/src/portable/synopsys/dwc2/dcd_dwc2.c ****   bool ret;
 660:lib/TinyUSB/src/portable/synopsys/dwc2/dcd_dwc2.c **** 
 661:lib/TinyUSB/src/portable/synopsys/dwc2/dcd_dwc2.c ****   usbd_spin_lock(is_isr);
 662:lib/TinyUSB/src/portable/synopsys/dwc2/dcd_dwc2.c **** 
 663:lib/TinyUSB/src/portable/synopsys/dwc2/dcd_dwc2.c ****   if (xfer->max_size == 0) {
 664:lib/TinyUSB/src/portable/synopsys/dwc2/dcd_dwc2.c ****     ret = false;  // Endpoint is closed
 665:lib/TinyUSB/src/portable/synopsys/dwc2/dcd_dwc2.c ****   } else {
 666:lib/TinyUSB/src/portable/synopsys/dwc2/dcd_dwc2.c ****     xfer->buffer = buffer;
 667:lib/TinyUSB/src/portable/synopsys/dwc2/dcd_dwc2.c ****     xfer->ff = NULL;
 668:lib/TinyUSB/src/portable/synopsys/dwc2/dcd_dwc2.c ****     xfer->total_len = total_bytes;
 669:lib/TinyUSB/src/portable/synopsys/dwc2/dcd_dwc2.c ****     xfer->iso_retry = xfer->interval; // Reset ISO retry counter to interval value
 670:lib/TinyUSB/src/portable/synopsys/dwc2/dcd_dwc2.c **** 
 671:lib/TinyUSB/src/portable/synopsys/dwc2/dcd_dwc2.c ****     // EP0 can only handle one packet
 672:lib/TinyUSB/src/portable/synopsys/dwc2/dcd_dwc2.c ****     if (epnum == 0) {
 673:lib/TinyUSB/src/portable/synopsys/dwc2/dcd_dwc2.c ****       _dcd_data.ep0_pending[dir] = total_bytes;
 674:lib/TinyUSB/src/portable/synopsys/dwc2/dcd_dwc2.c ****     }
 675:lib/TinyUSB/src/portable/synopsys/dwc2/dcd_dwc2.c **** 
 676:lib/TinyUSB/src/portable/synopsys/dwc2/dcd_dwc2.c ****     // Schedule packets to be sent within interrupt
 677:lib/TinyUSB/src/portable/synopsys/dwc2/dcd_dwc2.c ****     edpt_schedule_packets(rhport, epnum, dir);
 678:lib/TinyUSB/src/portable/synopsys/dwc2/dcd_dwc2.c ****     ret = true;
 679:lib/TinyUSB/src/portable/synopsys/dwc2/dcd_dwc2.c ****   }
 680:lib/TinyUSB/src/portable/synopsys/dwc2/dcd_dwc2.c **** 
 681:lib/TinyUSB/src/portable/synopsys/dwc2/dcd_dwc2.c ****   usbd_spin_unlock(is_isr);
 682:lib/TinyUSB/src/portable/synopsys/dwc2/dcd_dwc2.c **** 
 683:lib/TinyUSB/src/portable/synopsys/dwc2/dcd_dwc2.c ****   return ret;
 684:lib/TinyUSB/src/portable/synopsys/dwc2/dcd_dwc2.c **** }
 685:lib/TinyUSB/src/portable/synopsys/dwc2/dcd_dwc2.c **** 
 686:lib/TinyUSB/src/portable/synopsys/dwc2/dcd_dwc2.c **** // The number of bytes has to be given explicitly to allow more flexible control of how many
 687:lib/TinyUSB/src/portable/synopsys/dwc2/dcd_dwc2.c **** // bytes should be written and second to keep the return value free to give back a boolean
 688:lib/TinyUSB/src/portable/synopsys/dwc2/dcd_dwc2.c **** // success message. If total_bytes is too big, the FIFO will copy only what is available
 689:lib/TinyUSB/src/portable/synopsys/dwc2/dcd_dwc2.c **** // into the USB buffer!
 690:lib/TinyUSB/src/portable/synopsys/dwc2/dcd_dwc2.c **** bool dcd_edpt_xfer_fifo(uint8_t rhport, uint8_t ep_addr, tu_fifo_t* ff, uint16_t total_bytes, bool 
 691:lib/TinyUSB/src/portable/synopsys/dwc2/dcd_dwc2.c ****   (void) is_isr;
 692:lib/TinyUSB/src/portable/synopsys/dwc2/dcd_dwc2.c ****   // USB buffers always work in bytes so to avoid unnecessary divisions we demand item_size = 1
 693:lib/TinyUSB/src/portable/synopsys/dwc2/dcd_dwc2.c ****   TU_ASSERT(ff->item_size == 1);
 694:lib/TinyUSB/src/portable/synopsys/dwc2/dcd_dwc2.c **** 
 695:lib/TinyUSB/src/portable/synopsys/dwc2/dcd_dwc2.c ****   uint8_t const epnum = tu_edpt_number(ep_addr);
 696:lib/TinyUSB/src/portable/synopsys/dwc2/dcd_dwc2.c ****   uint8_t const dir = tu_edpt_dir(ep_addr);
 697:lib/TinyUSB/src/portable/synopsys/dwc2/dcd_dwc2.c ****   xfer_ctl_t* xfer = XFER_CTL_BASE(epnum, dir);
 698:lib/TinyUSB/src/portable/synopsys/dwc2/dcd_dwc2.c ****   bool ret;
 699:lib/TinyUSB/src/portable/synopsys/dwc2/dcd_dwc2.c **** 
 700:lib/TinyUSB/src/portable/synopsys/dwc2/dcd_dwc2.c ****   usbd_spin_lock(is_isr);
 701:lib/TinyUSB/src/portable/synopsys/dwc2/dcd_dwc2.c **** 
 702:lib/TinyUSB/src/portable/synopsys/dwc2/dcd_dwc2.c ****   if (xfer->max_size == 0) {
 703:lib/TinyUSB/src/portable/synopsys/dwc2/dcd_dwc2.c ****     ret = false;  // Endpoint is closed
 704:lib/TinyUSB/src/portable/synopsys/dwc2/dcd_dwc2.c ****   } else {
 705:lib/TinyUSB/src/portable/synopsys/dwc2/dcd_dwc2.c ****     xfer->buffer = NULL;
 706:lib/TinyUSB/src/portable/synopsys/dwc2/dcd_dwc2.c ****     xfer->ff = ff;
 707:lib/TinyUSB/src/portable/synopsys/dwc2/dcd_dwc2.c ****     xfer->total_len = total_bytes;
ARM GAS  C:\Users\krisa\AppData\Local\Temp\ccNljk5K.s 			page 51


 708:lib/TinyUSB/src/portable/synopsys/dwc2/dcd_dwc2.c ****     xfer->iso_retry = xfer->interval; // Reset ISO retry counter to interval value
 709:lib/TinyUSB/src/portable/synopsys/dwc2/dcd_dwc2.c **** 
 710:lib/TinyUSB/src/portable/synopsys/dwc2/dcd_dwc2.c ****     // Schedule packets to be sent within interrupt
 711:lib/TinyUSB/src/portable/synopsys/dwc2/dcd_dwc2.c ****     // TODO xfer fifo may only available for slave mode
 712:lib/TinyUSB/src/portable/synopsys/dwc2/dcd_dwc2.c ****     edpt_schedule_packets(rhport, epnum, dir);
 713:lib/TinyUSB/src/portable/synopsys/dwc2/dcd_dwc2.c ****     ret = true;
 714:lib/TinyUSB/src/portable/synopsys/dwc2/dcd_dwc2.c ****   }
 715:lib/TinyUSB/src/portable/synopsys/dwc2/dcd_dwc2.c **** 
 716:lib/TinyUSB/src/portable/synopsys/dwc2/dcd_dwc2.c ****   usbd_spin_unlock(is_isr);
 717:lib/TinyUSB/src/portable/synopsys/dwc2/dcd_dwc2.c **** 
 718:lib/TinyUSB/src/portable/synopsys/dwc2/dcd_dwc2.c ****   return ret;
 719:lib/TinyUSB/src/portable/synopsys/dwc2/dcd_dwc2.c **** }
 720:lib/TinyUSB/src/portable/synopsys/dwc2/dcd_dwc2.c **** 
 721:lib/TinyUSB/src/portable/synopsys/dwc2/dcd_dwc2.c **** void dcd_edpt_stall(uint8_t rhport, uint8_t ep_addr) {
 722:lib/TinyUSB/src/portable/synopsys/dwc2/dcd_dwc2.c ****   dwc2_regs_t* dwc2 = DWC2_REG(rhport);
 723:lib/TinyUSB/src/portable/synopsys/dwc2/dcd_dwc2.c ****   edpt_disable(rhport, ep_addr, true);
 724:lib/TinyUSB/src/portable/synopsys/dwc2/dcd_dwc2.c **** 
 725:lib/TinyUSB/src/portable/synopsys/dwc2/dcd_dwc2.c ****   // For control endpoint, prepare to receive SETUP packet
 726:lib/TinyUSB/src/portable/synopsys/dwc2/dcd_dwc2.c ****   if (tu_edpt_number(ep_addr) == 0) {
 727:lib/TinyUSB/src/portable/synopsys/dwc2/dcd_dwc2.c ****     if (dma_device_enabled(dwc2)) {
 728:lib/TinyUSB/src/portable/synopsys/dwc2/dcd_dwc2.c ****       dma_setup_prepare(rhport);
 729:lib/TinyUSB/src/portable/synopsys/dwc2/dcd_dwc2.c ****     }
 730:lib/TinyUSB/src/portable/synopsys/dwc2/dcd_dwc2.c ****   }
 731:lib/TinyUSB/src/portable/synopsys/dwc2/dcd_dwc2.c **** }
 732:lib/TinyUSB/src/portable/synopsys/dwc2/dcd_dwc2.c **** 
 733:lib/TinyUSB/src/portable/synopsys/dwc2/dcd_dwc2.c **** void dcd_edpt_clear_stall(uint8_t rhport, uint8_t ep_addr) {
 734:lib/TinyUSB/src/portable/synopsys/dwc2/dcd_dwc2.c ****   dwc2_regs_t* dwc2 = DWC2_REG(rhport);
 735:lib/TinyUSB/src/portable/synopsys/dwc2/dcd_dwc2.c ****   uint8_t const epnum = tu_edpt_number(ep_addr);
 736:lib/TinyUSB/src/portable/synopsys/dwc2/dcd_dwc2.c ****   uint8_t const dir = tu_edpt_dir(ep_addr);
 737:lib/TinyUSB/src/portable/synopsys/dwc2/dcd_dwc2.c ****   dwc2_dep_t* dep = &dwc2->ep[dir == TUSB_DIR_IN ? 0 : 1][epnum];
 738:lib/TinyUSB/src/portable/synopsys/dwc2/dcd_dwc2.c **** 
 739:lib/TinyUSB/src/portable/synopsys/dwc2/dcd_dwc2.c ****   // Clear stall and reset data toggle
 740:lib/TinyUSB/src/portable/synopsys/dwc2/dcd_dwc2.c ****   dep->ctl &= ~EPCTL_STALL;;
 741:lib/TinyUSB/src/portable/synopsys/dwc2/dcd_dwc2.c ****   dep->ctl |= EPCTL_SD0PID_SEVNFRM;
 742:lib/TinyUSB/src/portable/synopsys/dwc2/dcd_dwc2.c **** }
 743:lib/TinyUSB/src/portable/synopsys/dwc2/dcd_dwc2.c **** 
 744:lib/TinyUSB/src/portable/synopsys/dwc2/dcd_dwc2.c **** //--------------------------------------------------------------------
 745:lib/TinyUSB/src/portable/synopsys/dwc2/dcd_dwc2.c **** // Interrupt Handler
 746:lib/TinyUSB/src/portable/synopsys/dwc2/dcd_dwc2.c **** //--------------------------------------------------------------------
 747:lib/TinyUSB/src/portable/synopsys/dwc2/dcd_dwc2.c **** 
 748:lib/TinyUSB/src/portable/synopsys/dwc2/dcd_dwc2.c **** // 7.4.1 Initialization on USB Reset
 749:lib/TinyUSB/src/portable/synopsys/dwc2/dcd_dwc2.c **** // Must be called from critical section
 750:lib/TinyUSB/src/portable/synopsys/dwc2/dcd_dwc2.c **** static void handle_bus_reset(uint8_t rhport) {
 1072              		.loc 1 750 46 is_stmt 1 view -0
 1073              		.cfi_startproc
 1074              		@ args = 0, pretend = 0, frame = 0
 1075              		@ frame_needed = 0, uses_anonymous_args = 0
 1076              		.loc 1 750 46 is_stmt 0 view .LVU354
 1077 0000 70B5     		push	{r4, r5, r6, lr}
 1078              	.LCFI8:
 1079              		.cfi_def_cfa_offset 16
 1080              		.cfi_offset 4, -16
 1081              		.cfi_offset 5, -12
 1082              		.cfi_offset 6, -8
 1083              		.cfi_offset 14, -4
 1084 0002 0646     		mov	r6, r0
 751:lib/TinyUSB/src/portable/synopsys/dwc2/dcd_dwc2.c ****   dwc2_regs_t *dwc2 = DWC2_REG(rhport);
ARM GAS  C:\Users\krisa\AppData\Local\Temp\ccNljk5K.s 			page 52


 1085              		.loc 1 751 3 is_stmt 1 view .LVU355
 1086              	.LVL103:
 1087              	.LBB248:
 1088              	.LBI248:
  79:lib/TinyUSB/src/portable/synopsys/dwc2/dwc2_common.h ****   if (rhport >= DWC2_CONTROLLER_COUNT) {
 1089              		.loc 2 79 50 view .LVU356
 1090              	.LBB249:
  80:lib/TinyUSB/src/portable/synopsys/dwc2/dwc2_common.h ****     // user mis-configured, ignore and use first controller
 1091              		.loc 2 80 3 view .LVU357
  80:lib/TinyUSB/src/portable/synopsys/dwc2/dwc2_common.h ****     // user mis-configured, ignore and use first controller
 1092              		.loc 2 80 6 is_stmt 0 view .LVU358
 1093 0004 0128     		cmp	r0, #1
 1094 0006 12D9     		bls	.L79
  82:lib/TinyUSB/src/portable/synopsys/dwc2/dwc2_common.h ****   }
 1095              		.loc 2 82 12 view .LVU359
 1096 0008 0023     		movs	r3, #0
 1097              	.L69:
 1098              	.LVL104:
  84:lib/TinyUSB/src/portable/synopsys/dwc2/dwc2_common.h **** }
 1099              		.loc 2 84 3 is_stmt 1 view .LVU360
  84:lib/TinyUSB/src/portable/synopsys/dwc2/dwc2_common.h **** }
 1100              		.loc 2 84 48 is_stmt 0 view .LVU361
 1101 000a 1B01     		lsls	r3, r3, #4
 1102              	.LVL105:
  84:lib/TinyUSB/src/portable/synopsys/dwc2/dwc2_common.h **** }
 1103              		.loc 2 84 48 view .LVU362
 1104 000c 3A4A     		ldr	r2, .L81
 1105 000e D458     		ldr	r4, [r2, r3]
 1106              	.LVL106:
  84:lib/TinyUSB/src/portable/synopsys/dwc2/dwc2_common.h **** }
 1107              		.loc 2 84 48 view .LVU363
 1108              	.LBE249:
 1109              	.LBE248:
 752:lib/TinyUSB/src/portable/synopsys/dwc2/dcd_dwc2.c ****   const uint8_t ep_count =  dwc2_ep_count(dwc2);
 1110              		.loc 1 752 3 is_stmt 1 view .LVU364
 1111              	.LBB251:
 1112              	.LBI251:
  84:lib/TinyUSB/src/portable/synopsys/dwc2/dcd_dwc2.c ****   #if TU_CHECK_MCU(OPT_MCU_GD32VF103)
 1113              		.loc 1 84 45 view .LVU365
 1114              	.LBB252:
  89:lib/TinyUSB/src/portable/synopsys/dwc2/dcd_dwc2.c ****   return ghwcfg2.num_dev_ep + 1;
 1115              		.loc 1 89 3 view .LVU366
  89:lib/TinyUSB/src/portable/synopsys/dwc2/dcd_dwc2.c ****   return ghwcfg2.num_dev_ep + 1;
 1116              		.loc 1 89 48 is_stmt 0 view .LVU367
 1117 0010 A56C     		ldr	r5, [r4, #72]
  90:lib/TinyUSB/src/portable/synopsys/dwc2/dcd_dwc2.c ****   #endif
 1118              		.loc 1 90 3 is_stmt 1 view .LVU368
  90:lib/TinyUSB/src/portable/synopsys/dwc2/dcd_dwc2.c ****   #endif
 1119              		.loc 1 90 17 is_stmt 0 view .LVU369
 1120 0012 C5F38325 		ubfx	r5, r5, #10, #4
  90:lib/TinyUSB/src/portable/synopsys/dwc2/dcd_dwc2.c ****   #endif
 1121              		.loc 1 90 29 view .LVU370
 1122 0016 0135     		adds	r5, r5, #1
 1123              	.LVL107:
  90:lib/TinyUSB/src/portable/synopsys/dwc2/dcd_dwc2.c ****   #endif
 1124              		.loc 1 90 29 view .LVU371
 1125              	.LBE252:
ARM GAS  C:\Users\krisa\AppData\Local\Temp\ccNljk5K.s 			page 53


 1126              	.LBE251:
 753:lib/TinyUSB/src/portable/synopsys/dwc2/dcd_dwc2.c **** 
 754:lib/TinyUSB/src/portable/synopsys/dwc2/dcd_dwc2.c ****   tu_memclr(xfer_status, sizeof(xfer_status));
 1127              		.loc 1 754 3 is_stmt 1 view .LVU372
 1128 0018 4FF49072 		mov	r2, #288
 1129 001c 0021     		movs	r1, #0
 1130 001e 3748     		ldr	r0, .L81+4
 1131              	.LVL108:
 1132              		.loc 1 754 3 is_stmt 0 view .LVU373
 1133 0020 FFF7FEFF 		bl	memset
 1134              	.LVL109:
 755:lib/TinyUSB/src/portable/synopsys/dwc2/dcd_dwc2.c **** 
 756:lib/TinyUSB/src/portable/synopsys/dwc2/dcd_dwc2.c ****   _dcd_data.sof_en = false;
 1135              		.loc 1 756 3 is_stmt 1 view .LVU374
 1136              		.loc 1 756 20 is_stmt 0 view .LVU375
 1137 0024 364A     		ldr	r2, .L81+8
 1138 0026 0023     		movs	r3, #0
 1139 0028 D371     		strb	r3, [r2, #7]
 757:lib/TinyUSB/src/portable/synopsys/dwc2/dcd_dwc2.c ****   _dcd_data.allocated_epin_count = 0;
 1140              		.loc 1 757 3 is_stmt 1 view .LVU376
 1141              		.loc 1 757 34 is_stmt 0 view .LVU377
 1142 002a 9371     		strb	r3, [r2, #6]
 758:lib/TinyUSB/src/portable/synopsys/dwc2/dcd_dwc2.c **** 
 759:lib/TinyUSB/src/portable/synopsys/dwc2/dcd_dwc2.c ****   // 1. NAK for all OUT endpoints
 760:lib/TinyUSB/src/portable/synopsys/dwc2/dcd_dwc2.c ****   for (uint8_t n = 0; n < ep_count; n++) {
 1143              		.loc 1 760 3 is_stmt 1 view .LVU378
 1144              	.LBB253:
 1145              		.loc 1 760 8 view .LVU379
 1146              	.LVL110:
 1147              		.loc 1 760 3 is_stmt 0 view .LVU380
 1148 002c 0AE0     		b	.L70
 1149              	.LVL111:
 1150              	.L79:
 1151              		.loc 1 760 3 view .LVU381
 1152              	.LBE253:
 1153              	.LBB254:
 1154              	.LBB250:
  80:lib/TinyUSB/src/portable/synopsys/dwc2/dwc2_common.h ****     // user mis-configured, ignore and use first controller
 1155              		.loc 2 80 6 view .LVU382
 1156 002e 0346     		mov	r3, r0
 1157 0030 EBE7     		b	.L69
 1158              	.LVL112:
 1159              	.L71:
  80:lib/TinyUSB/src/portable/synopsys/dwc2/dwc2_common.h ****     // user mis-configured, ignore and use first controller
 1160              		.loc 2 80 6 view .LVU383
 1161              	.LBE250:
 1162              	.LBE254:
 1163              	.LBB255:
 761:lib/TinyUSB/src/portable/synopsys/dwc2/dcd_dwc2.c ****     dwc2->epout[n].doepctl |= DOEPCTL_SNAK;
 1164              		.loc 1 761 5 is_stmt 1 discriminator 3 view .LVU384
 1165              		.loc 1 761 28 is_stmt 0 discriminator 3 view .LVU385
 1166 0032 03F15802 		add	r2, r3, #88
 1167 0036 5201     		lsls	r2, r2, #5
 1168 0038 A158     		ldr	r1, [r4, r2]
 1169 003a 41F00061 		orr	r1, r1, #134217728
 1170 003e A150     		str	r1, [r4, r2]
 760:lib/TinyUSB/src/portable/synopsys/dwc2/dcd_dwc2.c ****     dwc2->epout[n].doepctl |= DOEPCTL_SNAK;
ARM GAS  C:\Users\krisa\AppData\Local\Temp\ccNljk5K.s 			page 54


 1171              		.loc 1 760 37 is_stmt 1 discriminator 3 view .LVU386
 760:lib/TinyUSB/src/portable/synopsys/dwc2/dcd_dwc2.c ****     dwc2->epout[n].doepctl |= DOEPCTL_SNAK;
 1172              		.loc 1 760 38 is_stmt 0 discriminator 3 view .LVU387
 1173 0040 0133     		adds	r3, r3, #1
 1174              	.LVL113:
 760:lib/TinyUSB/src/portable/synopsys/dwc2/dcd_dwc2.c ****     dwc2->epout[n].doepctl |= DOEPCTL_SNAK;
 1175              		.loc 1 760 38 discriminator 3 view .LVU388
 1176 0042 DBB2     		uxtb	r3, r3
 1177              	.LVL114:
 1178              	.L70:
 760:lib/TinyUSB/src/portable/synopsys/dwc2/dcd_dwc2.c ****     dwc2->epout[n].doepctl |= DOEPCTL_SNAK;
 1179              		.loc 1 760 23 is_stmt 1 discriminator 1 view .LVU389
 760:lib/TinyUSB/src/portable/synopsys/dwc2/dcd_dwc2.c ****     dwc2->epout[n].doepctl |= DOEPCTL_SNAK;
 1180              		.loc 1 760 3 is_stmt 0 discriminator 1 view .LVU390
 1181 0044 AB42     		cmp	r3, r5
 1182 0046 F4D3     		bcc	.L71
 1183              	.LBE255:
 1184              	.LBB256:
 762:lib/TinyUSB/src/portable/synopsys/dwc2/dcd_dwc2.c ****   }
 763:lib/TinyUSB/src/portable/synopsys/dwc2/dcd_dwc2.c **** 
 764:lib/TinyUSB/src/portable/synopsys/dwc2/dcd_dwc2.c ****   // Disable all IN endpoints
 765:lib/TinyUSB/src/portable/synopsys/dwc2/dcd_dwc2.c ****   for (uint8_t n = 0; n < ep_count; n++) {
 1185              		.loc 1 765 16 view .LVU391
 1186 0048 0023     		movs	r3, #0
 1187              	.LVL115:
 1188              		.loc 1 765 16 view .LVU392
 1189 004a 01E0     		b	.L72
 1190              	.LVL116:
 1191              	.L73:
 1192              		.loc 1 765 37 is_stmt 1 discriminator 2 view .LVU393
 1193              		.loc 1 765 38 is_stmt 0 discriminator 2 view .LVU394
 1194 004c 0133     		adds	r3, r3, #1
 1195              	.LVL117:
 1196              		.loc 1 765 38 discriminator 2 view .LVU395
 1197 004e DBB2     		uxtb	r3, r3
 1198              	.LVL118:
 1199              	.L72:
 1200              		.loc 1 765 23 is_stmt 1 discriminator 1 view .LVU396
 1201              		.loc 1 765 3 is_stmt 0 discriminator 1 view .LVU397
 1202 0050 AB42     		cmp	r3, r5
 1203 0052 0DD2     		bcs	.L80
 1204              	.LBB257:
 766:lib/TinyUSB/src/portable/synopsys/dwc2/dcd_dwc2.c ****     dwc2_dep_t* dep = &dwc2->epin[n];
 1205              		.loc 1 766 5 is_stmt 1 view .LVU398
 1206              	.LVL119:
 767:lib/TinyUSB/src/portable/synopsys/dwc2/dcd_dwc2.c ****     if (edpt_is_enabled(dep)) {
 1207              		.loc 1 767 5 view .LVU399
 1208              	.LBB258:
 1209              	.LBI258:
  97:lib/TinyUSB/src/portable/synopsys/dwc2/dcd_dwc2.c ****   return (dep->ctl & EPCTL_EPENA) != 0;
 1210              		.loc 1 97 42 view .LVU400
 1211              	.LBB259:
  98:lib/TinyUSB/src/portable/synopsys/dwc2/dcd_dwc2.c **** }
 1212              		.loc 1 98 3 view .LVU401
  98:lib/TinyUSB/src/portable/synopsys/dwc2/dcd_dwc2.c **** }
 1213              		.loc 1 98 14 is_stmt 0 view .LVU402
 1214 0054 03F14802 		add	r2, r3, #72
ARM GAS  C:\Users\krisa\AppData\Local\Temp\ccNljk5K.s 			page 55


 1215 0058 5201     		lsls	r2, r2, #5
 1216 005a A258     		ldr	r2, [r4, r2]
 1217              	.LVL120:
  98:lib/TinyUSB/src/portable/synopsys/dwc2/dcd_dwc2.c **** }
 1218              		.loc 1 98 14 view .LVU403
 1219              	.LBE259:
 1220              	.LBE258:
 1221              		.loc 1 767 8 view .LVU404
 1222 005c 002A     		cmp	r2, #0
 1223 005e F5DA     		bge	.L73
 768:lib/TinyUSB/src/portable/synopsys/dwc2/dcd_dwc2.c ****       dep->diepctl |= DIEPCTL_SNAK | DIEPCTL_EPDIS;
 1224              		.loc 1 768 7 is_stmt 1 view .LVU405
 1225              		.loc 1 768 20 is_stmt 0 view .LVU406
 1226 0060 03F14802 		add	r2, r3, #72
 1227 0064 5201     		lsls	r2, r2, #5
 1228 0066 A158     		ldr	r1, [r4, r2]
 1229 0068 41F09041 		orr	r1, r1, #1207959552
 1230 006c A150     		str	r1, [r4, r2]
 1231 006e EDE7     		b	.L73
 1232              	.LVL121:
 1233              	.L80:
 1234              		.loc 1 768 20 view .LVU407
 1235              	.LBE257:
 1236              	.LBE256:
 769:lib/TinyUSB/src/portable/synopsys/dwc2/dcd_dwc2.c ****     }
 770:lib/TinyUSB/src/portable/synopsys/dwc2/dcd_dwc2.c ****   }
 771:lib/TinyUSB/src/portable/synopsys/dwc2/dcd_dwc2.c **** 
 772:lib/TinyUSB/src/portable/synopsys/dwc2/dcd_dwc2.c ****   // 2. Set up interrupt mask for EP0
 773:lib/TinyUSB/src/portable/synopsys/dwc2/dcd_dwc2.c ****   dwc2->daintmsk = TU_BIT(DAINTMSK_OEPM_Pos) | TU_BIT(DAINTMSK_IEPM_Pos);
 1237              		.loc 1 773 3 is_stmt 1 view .LVU408
 1238              		.loc 1 773 18 is_stmt 0 view .LVU409
 1239 0070 4FF00113 		mov	r3, #65537
 1240              	.LVL122:
 1241              		.loc 1 773 18 view .LVU410
 1242 0074 C4F81C38 		str	r3, [r4, #2076]
 774:lib/TinyUSB/src/portable/synopsys/dwc2/dcd_dwc2.c ****   dwc2->doepmsk = DOEPMSK_STUPM | DOEPMSK_XFRCM;
 1243              		.loc 1 774 3 is_stmt 1 view .LVU411
 1244              		.loc 1 774 17 is_stmt 0 view .LVU412
 1245 0078 0923     		movs	r3, #9
 1246 007a C4F81438 		str	r3, [r4, #2068]
 775:lib/TinyUSB/src/portable/synopsys/dwc2/dcd_dwc2.c ****   dwc2->diepmsk = DIEPMSK_TOM | DIEPMSK_XFRCM;
 1247              		.loc 1 775 3 is_stmt 1 view .LVU413
 1248              		.loc 1 775 17 is_stmt 0 view .LVU414
 1249 007e C4F81038 		str	r3, [r4, #2064]
 776:lib/TinyUSB/src/portable/synopsys/dwc2/dcd_dwc2.c **** 
 777:lib/TinyUSB/src/portable/synopsys/dwc2/dcd_dwc2.c ****   // 4. Set up DFIFO
 778:lib/TinyUSB/src/portable/synopsys/dwc2/dcd_dwc2.c ****   dfifo_flush_tx(dwc2, 0x10); // all tx fifo
 1250              		.loc 1 778 3 is_stmt 1 view .LVU415
 1251              	.LVL123:
 1252              	.LBB260:
 1253              	.LBI260:
  94:lib/TinyUSB/src/portable/synopsys/dwc2/dwc2_common.h ****   // flush TX fifo and wait for it cleared
 1254              		.loc 2 94 42 view .LVU416
 1255              	.LBB261:
  96:lib/TinyUSB/src/portable/synopsys/dwc2/dwc2_common.h ****   while (0 != (dwc2->grstctl & GRSTCTL_TXFFLSH_Msk)) {}
 1256              		.loc 2 96 3 view .LVU417
  96:lib/TinyUSB/src/portable/synopsys/dwc2/dwc2_common.h ****   while (0 != (dwc2->grstctl & GRSTCTL_TXFFLSH_Msk)) {}
ARM GAS  C:\Users\krisa\AppData\Local\Temp\ccNljk5K.s 			page 56


 1257              		.loc 2 96 17 is_stmt 0 view .LVU418
 1258 0082 4FF48463 		mov	r3, #1056
 1259 0086 2361     		str	r3, [r4, #16]
 1260              		.loc 2 97 3 is_stmt 1 view .LVU419
 1261              	.L75:
 1262              		.loc 2 97 55 view .LVU420
 1263              		.loc 2 97 9 view .LVU421
 1264              		.loc 2 97 20 is_stmt 0 view .LVU422
 1265 0088 2369     		ldr	r3, [r4, #16]
 1266              		.loc 2 97 9 view .LVU423
 1267 008a 13F0200F 		tst	r3, #32
 1268 008e FBD1     		bne	.L75
 1269              	.LVL124:
 1270              		.loc 2 97 9 view .LVU424
 1271              	.LBE261:
 1272              	.LBE260:
 779:lib/TinyUSB/src/portable/synopsys/dwc2/dcd_dwc2.c ****   dfifo_flush_rx(dwc2);
 1273              		.loc 1 779 3 is_stmt 1 view .LVU425
 1274              	.LBB262:
 1275              	.LBI262:
  98:lib/TinyUSB/src/portable/synopsys/dwc2/dwc2_common.h **** }
  99:lib/TinyUSB/src/portable/synopsys/dwc2/dwc2_common.h **** 
 100:lib/TinyUSB/src/portable/synopsys/dwc2/dwc2_common.h **** TU_ATTR_ALWAYS_INLINE static inline void dfifo_flush_rx(dwc2_regs_t* dwc2) {
 1276              		.loc 2 100 42 view .LVU426
 1277              	.LBB263:
 101:lib/TinyUSB/src/portable/synopsys/dwc2/dwc2_common.h ****   // flush RX fifo and wait for it cleared
 102:lib/TinyUSB/src/portable/synopsys/dwc2/dwc2_common.h ****   dwc2->grstctl = GRSTCTL_RXFFLSH;
 1278              		.loc 2 102 3 view .LVU427
 1279              		.loc 2 102 17 is_stmt 0 view .LVU428
 1280 0090 1023     		movs	r3, #16
 1281 0092 2361     		str	r3, [r4, #16]
 103:lib/TinyUSB/src/portable/synopsys/dwc2/dwc2_common.h ****   while (0 != (dwc2->grstctl & GRSTCTL_RXFFLSH_Msk)) {}
 1282              		.loc 2 103 3 is_stmt 1 view .LVU429
 1283              	.L76:
 1284              		.loc 2 103 55 view .LVU430
 1285              		.loc 2 103 9 view .LVU431
 1286              		.loc 2 103 20 is_stmt 0 view .LVU432
 1287 0094 2369     		ldr	r3, [r4, #16]
 1288              		.loc 2 103 9 view .LVU433
 1289 0096 13F0100F 		tst	r3, #16
 1290 009a FBD1     		bne	.L76
 1291              	.LVL125:
 1292              		.loc 2 103 9 view .LVU434
 1293              	.LBE263:
 1294              	.LBE262:
 780:lib/TinyUSB/src/portable/synopsys/dwc2/dcd_dwc2.c ****   dfifo_device_init(rhport);
 1295              		.loc 1 780 3 is_stmt 1 view .LVU435
 1296 009c 3046     		mov	r0, r6
 1297 009e FFF7FEFF 		bl	dfifo_device_init
 1298              	.LVL126:
 781:lib/TinyUSB/src/portable/synopsys/dwc2/dcd_dwc2.c **** 
 782:lib/TinyUSB/src/portable/synopsys/dwc2/dcd_dwc2.c ****   // 5. Reset device address
 783:lib/TinyUSB/src/portable/synopsys/dwc2/dcd_dwc2.c ****   dwc2_dcfg_t dcfg = {.value = dwc2->dcfg};
 1299              		.loc 1 783 3 view .LVU436
 1300              		.loc 1 783 36 is_stmt 0 view .LVU437
 1301 00a2 D4F80038 		ldr	r3, [r4, #2048]
 784:lib/TinyUSB/src/portable/synopsys/dwc2/dcd_dwc2.c ****   dcfg.address = 0;
ARM GAS  C:\Users\krisa\AppData\Local\Temp\ccNljk5K.s 			page 57


 1302              		.loc 1 784 3 is_stmt 1 view .LVU438
 1303              		.loc 1 784 16 is_stmt 0 view .LVU439
 1304 00a6 6FF30A13 		bfc	r3, #4, #7
 1305              	.LVL127:
 785:lib/TinyUSB/src/portable/synopsys/dwc2/dcd_dwc2.c ****   dwc2->dcfg = dcfg.value;
 1306              		.loc 1 785 3 is_stmt 1 view .LVU440
 1307              		.loc 1 785 14 is_stmt 0 view .LVU441
 1308 00aa C4F80038 		str	r3, [r4, #2048]
 786:lib/TinyUSB/src/portable/synopsys/dwc2/dcd_dwc2.c **** 
 787:lib/TinyUSB/src/portable/synopsys/dwc2/dcd_dwc2.c ****   // 6. Configure maximum packet size for EP0
 788:lib/TinyUSB/src/portable/synopsys/dwc2/dcd_dwc2.c ****   uint8_t mps = 0;
 1309              		.loc 1 788 3 is_stmt 1 view .LVU442
 1310              	.LVL128:
 789:lib/TinyUSB/src/portable/synopsys/dwc2/dcd_dwc2.c ****   switch (CFG_TUD_ENDPOINT0_SIZE) {
 1311              		.loc 1 789 3 view .LVU443
 790:lib/TinyUSB/src/portable/synopsys/dwc2/dcd_dwc2.c ****     case 8: mps = 3; break;
 791:lib/TinyUSB/src/portable/synopsys/dwc2/dcd_dwc2.c ****     case 16: mps = 2; break;
 792:lib/TinyUSB/src/portable/synopsys/dwc2/dcd_dwc2.c ****     case 32: mps = 1; break;
 793:lib/TinyUSB/src/portable/synopsys/dwc2/dcd_dwc2.c ****     case 64: mps = 0; break;
 1312              		.loc 1 793 14 view .LVU444
 1313              		.loc 1 793 23 view .LVU445
 794:lib/TinyUSB/src/portable/synopsys/dwc2/dcd_dwc2.c ****     default: mps = 0; break;
 795:lib/TinyUSB/src/portable/synopsys/dwc2/dcd_dwc2.c ****   }
 796:lib/TinyUSB/src/portable/synopsys/dwc2/dcd_dwc2.c **** 
 797:lib/TinyUSB/src/portable/synopsys/dwc2/dcd_dwc2.c ****   dwc2->epin[0].ctl &= ~DIEPCTL0_MPSIZ_Msk;
 1314              		.loc 1 797 3 view .LVU446
 1315              		.loc 1 797 21 is_stmt 0 view .LVU447
 1316 00ae D4F80039 		ldr	r3, [r4, #2304]
 1317              	.LVL129:
 1318              		.loc 1 797 21 view .LVU448
 1319 00b2 23F00303 		bic	r3, r3, #3
 1320 00b6 C4F80039 		str	r3, [r4, #2304]
 798:lib/TinyUSB/src/portable/synopsys/dwc2/dcd_dwc2.c ****   dwc2->epout[0].ctl &= ~DOEPCTL0_MPSIZ_Msk;
 1321              		.loc 1 798 3 is_stmt 1 view .LVU449
 1322              		.loc 1 798 22 is_stmt 0 view .LVU450
 1323 00ba D4F8003B 		ldr	r3, [r4, #2816]
 1324 00be 23F00303 		bic	r3, r3, #3
 1325 00c2 C4F8003B 		str	r3, [r4, #2816]
 799:lib/TinyUSB/src/portable/synopsys/dwc2/dcd_dwc2.c ****   dwc2->epin[0].ctl |= mps << DIEPCTL0_MPSIZ_Pos;
 1326              		.loc 1 799 3 is_stmt 1 view .LVU451
 1327              		.loc 1 799 21 is_stmt 0 view .LVU452
 1328 00c6 D4F80039 		ldr	r3, [r4, #2304]
 1329 00ca C4F80039 		str	r3, [r4, #2304]
 800:lib/TinyUSB/src/portable/synopsys/dwc2/dcd_dwc2.c ****   dwc2->epout[0].ctl |= mps << DOEPCTL0_MPSIZ_Pos;
 1330              		.loc 1 800 3 is_stmt 1 view .LVU453
 1331              		.loc 1 800 22 is_stmt 0 view .LVU454
 1332 00ce D4F8003B 		ldr	r3, [r4, #2816]
 1333 00d2 C4F8003B 		str	r3, [r4, #2816]
 801:lib/TinyUSB/src/portable/synopsys/dwc2/dcd_dwc2.c **** 
 802:lib/TinyUSB/src/portable/synopsys/dwc2/dcd_dwc2.c ****   xfer_status[0][TUSB_DIR_OUT].max_size = CFG_TUD_ENDPOINT0_SIZE;
 1334              		.loc 1 802 3 is_stmt 1 view .LVU455
 1335              		.loc 1 802 41 is_stmt 0 view .LVU456
 1336 00d6 094B     		ldr	r3, .L81+4
 1337 00d8 4022     		movs	r2, #64
 1338 00da 5A81     		strh	r2, [r3, #10]	@ movhi
 803:lib/TinyUSB/src/portable/synopsys/dwc2/dcd_dwc2.c ****   xfer_status[0][TUSB_DIR_IN].max_size = CFG_TUD_ENDPOINT0_SIZE;
 1339              		.loc 1 803 3 is_stmt 1 view .LVU457
ARM GAS  C:\Users\krisa\AppData\Local\Temp\ccNljk5K.s 			page 58


 1340              		.loc 1 803 40 is_stmt 0 view .LVU458
 1341 00dc 5A83     		strh	r2, [r3, #26]	@ movhi
 804:lib/TinyUSB/src/portable/synopsys/dwc2/dcd_dwc2.c **** 
 805:lib/TinyUSB/src/portable/synopsys/dwc2/dcd_dwc2.c ****   if(dma_device_enabled(dwc2)) {
 1342              		.loc 1 805 3 is_stmt 1 view .LVU459
 1343              	.LVL130:
 1344              	.LBB264:
 1345              	.LBI264:
 121:lib/TinyUSB/src/portable/synopsys/dwc2/dcd_dwc2.c ****   (void) dwc2;
 1346              		.loc 1 121 42 view .LVU460
 1347              	.LBB265:
 122:lib/TinyUSB/src/portable/synopsys/dwc2/dcd_dwc2.c ****   // Internal DMA only
 1348              		.loc 1 122 3 view .LVU461
 124:lib/TinyUSB/src/portable/synopsys/dwc2/dcd_dwc2.c ****   return CFG_TUD_DWC2_DMA_ENABLE && ghwcfg2.arch == GHWCFG2_ARCH_INTERNAL_DMA;
 1349              		.loc 1 124 3 view .LVU462
 124:lib/TinyUSB/src/portable/synopsys/dwc2/dcd_dwc2.c ****   return CFG_TUD_DWC2_DMA_ENABLE && ghwcfg2.arch == GHWCFG2_ARCH_INTERNAL_DMA;
 1350              		.loc 1 124 48 is_stmt 0 view .LVU463
 1351 00de A36C     		ldr	r3, [r4, #72]
 125:lib/TinyUSB/src/portable/synopsys/dwc2/dcd_dwc2.c **** }
 1352              		.loc 1 125 3 is_stmt 1 view .LVU464
 1353              	.LVL131:
 125:lib/TinyUSB/src/portable/synopsys/dwc2/dcd_dwc2.c **** }
 1354              		.loc 1 125 3 is_stmt 0 view .LVU465
 1355              	.LBE265:
 1356              	.LBE264:
 806:lib/TinyUSB/src/portable/synopsys/dwc2/dcd_dwc2.c ****     dma_setup_prepare(rhport);
 807:lib/TinyUSB/src/portable/synopsys/dwc2/dcd_dwc2.c ****   } else {
 808:lib/TinyUSB/src/portable/synopsys/dwc2/dcd_dwc2.c ****     dwc2->epout[0].doeptsiz |= (3 << DOEPTSIZ_STUPCNT_Pos);
 1357              		.loc 1 808 5 is_stmt 1 view .LVU466
 1358              		.loc 1 808 29 is_stmt 0 view .LVU467
 1359 00e0 D4F8103B 		ldr	r3, [r4, #2832]
 1360 00e4 43F0C043 		orr	r3, r3, #1610612736
 1361 00e8 C4F8103B 		str	r3, [r4, #2832]
 809:lib/TinyUSB/src/portable/synopsys/dwc2/dcd_dwc2.c ****   }
 810:lib/TinyUSB/src/portable/synopsys/dwc2/dcd_dwc2.c **** 
 811:lib/TinyUSB/src/portable/synopsys/dwc2/dcd_dwc2.c ****   dwc2->gintmsk |= GINTMSK_OEPINT | GINTMSK_IEPINT | GINTMSK_IISOIXFRM;
 1362              		.loc 1 811 3 is_stmt 1 view .LVU468
 1363              		.loc 1 811 17 is_stmt 0 view .LVU469
 1364 00ec A369     		ldr	r3, [r4, #24]
 1365 00ee 43F4E013 		orr	r3, r3, #1835008
 1366 00f2 A361     		str	r3, [r4, #24]
 812:lib/TinyUSB/src/portable/synopsys/dwc2/dcd_dwc2.c **** }
 1367              		.loc 1 812 1 view .LVU470
 1368 00f4 70BD     		pop	{r4, r5, r6, pc}
 1369              	.LVL132:
 1370              	.L82:
 1371              		.loc 1 812 1 view .LVU471
 1372 00f6 00BF     		.align	2
 1373              	.L81:
 1374 00f8 00000000 		.word	.LANCHOR0
 1375 00fc 00000000 		.word	.LANCHOR3
 1376 0100 00000000 		.word	.LANCHOR1
 1377              		.cfi_endproc
 1378              	.LFE369:
 1380              		.section	.text.epin_write_tx_fifo,"ax",%progbits
 1381              		.align	1
 1382              		.syntax unified
ARM GAS  C:\Users\krisa\AppData\Local\Temp\ccNljk5K.s 			page 59


 1383              		.thumb
 1384              		.thumb_func
 1386              	epin_write_tx_fifo:
 1387              	.LVL133:
 1388              	.LFB350:
 348:lib/TinyUSB/src/portable/synopsys/dwc2/dcd_dwc2.c ****   dwc2_regs_t* dwc2 = DWC2_REG(rhport);
 1389              		.loc 1 348 67 is_stmt 1 view -0
 1390              		.cfi_startproc
 1391              		@ args = 0, pretend = 0, frame = 0
 1392              		@ frame_needed = 0, uses_anonymous_args = 0
 348:lib/TinyUSB/src/portable/synopsys/dwc2/dcd_dwc2.c ****   dwc2_regs_t* dwc2 = DWC2_REG(rhport);
 1393              		.loc 1 348 67 is_stmt 0 view .LVU473
 1394 0000 2DE9F047 		push	{r4, r5, r6, r7, r8, r9, r10, lr}
 1395              	.LCFI9:
 1396              		.cfi_def_cfa_offset 32
 1397              		.cfi_offset 4, -32
 1398              		.cfi_offset 5, -28
 1399              		.cfi_offset 6, -24
 1400              		.cfi_offset 7, -20
 1401              		.cfi_offset 8, -16
 1402              		.cfi_offset 9, -12
 1403              		.cfi_offset 10, -8
 1404              		.cfi_offset 14, -4
 1405 0004 0E46     		mov	r6, r1
 349:lib/TinyUSB/src/portable/synopsys/dwc2/dcd_dwc2.c ****   dwc2_dep_t* const epin = &dwc2->ep[0][epnum];
 1406              		.loc 1 349 3 is_stmt 1 view .LVU474
 1407              	.LVL134:
 1408              	.LBB266:
 1409              	.LBI266:
  79:lib/TinyUSB/src/portable/synopsys/dwc2/dwc2_common.h ****   if (rhport >= DWC2_CONTROLLER_COUNT) {
 1410              		.loc 2 79 50 view .LVU475
 1411              	.LBB267:
  80:lib/TinyUSB/src/portable/synopsys/dwc2/dwc2_common.h ****     // user mis-configured, ignore and use first controller
 1412              		.loc 2 80 3 view .LVU476
  80:lib/TinyUSB/src/portable/synopsys/dwc2/dwc2_common.h ****     // user mis-configured, ignore and use first controller
 1413              		.loc 2 80 6 is_stmt 0 view .LVU477
 1414 0006 0128     		cmp	r0, #1
 1415 0008 00D9     		bls	.L84
  82:lib/TinyUSB/src/portable/synopsys/dwc2/dwc2_common.h ****   }
 1416              		.loc 2 82 12 view .LVU478
 1417 000a 0020     		movs	r0, #0
 1418              	.LVL135:
 1419              	.L84:
  84:lib/TinyUSB/src/portable/synopsys/dwc2/dwc2_common.h **** }
 1420              		.loc 2 84 3 is_stmt 1 view .LVU479
  84:lib/TinyUSB/src/portable/synopsys/dwc2/dwc2_common.h **** }
 1421              		.loc 2 84 48 is_stmt 0 view .LVU480
 1422 000c 0001     		lsls	r0, r0, #4
 1423              	.LVL136:
  84:lib/TinyUSB/src/portable/synopsys/dwc2/dwc2_common.h **** }
 1424              		.loc 2 84 48 view .LVU481
 1425 000e 244B     		ldr	r3, .L92
 1426 0010 1F58     		ldr	r7, [r3, r0]
 1427              	.LVL137:
  84:lib/TinyUSB/src/portable/synopsys/dwc2/dwc2_common.h **** }
 1428              		.loc 2 84 48 view .LVU482
 1429              	.LBE267:
ARM GAS  C:\Users\krisa\AppData\Local\Temp\ccNljk5K.s 			page 60


 1430              	.LBE266:
 350:lib/TinyUSB/src/portable/synopsys/dwc2/dcd_dwc2.c ****   xfer_ctl_t* const xfer = XFER_CTL_BASE(epnum, TUSB_DIR_IN);
 1431              		.loc 1 350 3 is_stmt 1 view .LVU483
 351:lib/TinyUSB/src/portable/synopsys/dwc2/dcd_dwc2.c **** 
 1432              		.loc 1 351 3 view .LVU484
 353:lib/TinyUSB/src/portable/synopsys/dwc2/dcd_dwc2.c ****   const uint16_t remain_packets = tsiz.packet_count;
 1433              		.loc 1 353 3 view .LVU485
 353:lib/TinyUSB/src/portable/synopsys/dwc2/dcd_dwc2.c ****   const uint16_t remain_packets = tsiz.packet_count;
 1434              		.loc 1 353 40 is_stmt 0 view .LVU486
 1435 0012 07EB4613 		add	r3, r7, r6, lsl #5
 1436 0016 D3F81039 		ldr	r3, [r3, #2320]
 354:lib/TinyUSB/src/portable/synopsys/dwc2/dcd_dwc2.c **** 
 1437              		.loc 1 354 3 is_stmt 1 view .LVU487
 354:lib/TinyUSB/src/portable/synopsys/dwc2/dcd_dwc2.c **** 
 1438              		.loc 1 354 39 is_stmt 0 view .LVU488
 1439 001a C3F3C948 		ubfx	r8, r3, #19, #10
 1440              	.LVL138:
 356:lib/TinyUSB/src/portable/synopsys/dwc2/dcd_dwc2.c ****   // Process every single packet (only whole packets can be written to fifo)
 1441              		.loc 1 356 3 is_stmt 1 view .LVU489
 358:lib/TinyUSB/src/portable/synopsys/dwc2/dcd_dwc2.c ****     tsiz.value = epin->tsiz;
 1442              		.loc 1 358 3 view .LVU490
 1443              	.LBB268:
 358:lib/TinyUSB/src/portable/synopsys/dwc2/dcd_dwc2.c ****     tsiz.value = epin->tsiz;
 1444              		.loc 1 358 8 view .LVU491
 358:lib/TinyUSB/src/portable/synopsys/dwc2/dcd_dwc2.c ****     tsiz.value = epin->tsiz;
 1445              		.loc 1 358 17 is_stmt 0 view .LVU492
 1446 001e 0025     		movs	r5, #0
 1447              	.LBE268:
 356:lib/TinyUSB/src/portable/synopsys/dwc2/dcd_dwc2.c ****   // Process every single packet (only whole packets can be written to fifo)
 1448              		.loc 1 356 12 view .LVU493
 1449 0020 A946     		mov	r9, r5
 1450              	.LBB274:
 358:lib/TinyUSB/src/portable/synopsys/dwc2/dcd_dwc2.c ****     tsiz.value = epin->tsiz;
 1451              		.loc 1 358 3 view .LVU494
 1452 0022 13E0     		b	.L85
 1453              	.LVL139:
 1454              	.L87:
 1455              	.LBB269:
 374:lib/TinyUSB/src/portable/synopsys/dwc2/dcd_dwc2.c ****       xfer->buffer += xact_bytes;
 1456              		.loc 1 374 7 is_stmt 1 view .LVU495
 374:lib/TinyUSB/src/portable/synopsys/dwc2/dcd_dwc2.c ****       xfer->buffer += xact_bytes;
 1457              		.loc 1 374 43 is_stmt 0 view .LVU496
 1458 0024 1F4B     		ldr	r3, .L92+4
 1459 0026 03EB461A 		add	r10, r3, r6, lsl #5
 374:lib/TinyUSB/src/portable/synopsys/dwc2/dcd_dwc2.c ****       xfer->buffer += xact_bytes;
 1460              		.loc 1 374 7 view .LVU497
 1461 002a 2346     		mov	r3, r4
 1462 002c DAF81020 		ldr	r2, [r10, #16]
 1463 0030 3146     		mov	r1, r6
 1464 0032 3846     		mov	r0, r7
 1465 0034 FFF7FEFF 		bl	dfifo_write_packet
 1466              	.LVL140:
 375:lib/TinyUSB/src/portable/synopsys/dwc2/dcd_dwc2.c ****       total_bytes_written += xact_bytes;
 1467              		.loc 1 375 7 is_stmt 1 view .LVU498
 375:lib/TinyUSB/src/portable/synopsys/dwc2/dcd_dwc2.c ****       total_bytes_written += xact_bytes;
 1468              		.loc 1 375 20 is_stmt 0 view .LVU499
 1469 0038 DAF81030 		ldr	r3, [r10, #16]
ARM GAS  C:\Users\krisa\AppData\Local\Temp\ccNljk5K.s 			page 61


 1470 003c 2344     		add	r3, r3, r4
 1471 003e CAF81030 		str	r3, [r10, #16]
 376:lib/TinyUSB/src/portable/synopsys/dwc2/dcd_dwc2.c ****     }
 1472              		.loc 1 376 7 is_stmt 1 view .LVU500
 376:lib/TinyUSB/src/portable/synopsys/dwc2/dcd_dwc2.c ****     }
 1473              		.loc 1 376 27 is_stmt 0 view .LVU501
 1474 0042 4C44     		add	r4, r4, r9
 1475              	.LVL141:
 376:lib/TinyUSB/src/portable/synopsys/dwc2/dcd_dwc2.c ****     }
 1476              		.loc 1 376 27 view .LVU502
 1477 0044 1FFA84F9 		uxth	r9, r4
 1478              	.LVL142:
 1479              	.L88:
 376:lib/TinyUSB/src/portable/synopsys/dwc2/dcd_dwc2.c ****     }
 1480              		.loc 1 376 27 view .LVU503
 1481              	.LBE269:
 358:lib/TinyUSB/src/portable/synopsys/dwc2/dcd_dwc2.c ****     tsiz.value = epin->tsiz;
 1482              		.loc 1 358 44 is_stmt 1 discriminator 2 view .LVU504
 358:lib/TinyUSB/src/portable/synopsys/dwc2/dcd_dwc2.c ****     tsiz.value = epin->tsiz;
 1483              		.loc 1 358 45 is_stmt 0 discriminator 2 view .LVU505
 1484 0048 0135     		adds	r5, r5, #1
 1485              	.LVL143:
 358:lib/TinyUSB/src/portable/synopsys/dwc2/dcd_dwc2.c ****     tsiz.value = epin->tsiz;
 1486              		.loc 1 358 45 discriminator 2 view .LVU506
 1487 004a ADB2     		uxth	r5, r5
 1488              	.LVL144:
 1489              	.L85:
 358:lib/TinyUSB/src/portable/synopsys/dwc2/dcd_dwc2.c ****     tsiz.value = epin->tsiz;
 1490              		.loc 1 358 24 is_stmt 1 discriminator 1 view .LVU507
 358:lib/TinyUSB/src/portable/synopsys/dwc2/dcd_dwc2.c ****     tsiz.value = epin->tsiz;
 1491              		.loc 1 358 3 is_stmt 0 discriminator 1 view .LVU508
 1492 004c 4545     		cmp	r5, r8
 1493 004e 23D2     		bcs	.L86
 1494              	.LBB273:
 359:lib/TinyUSB/src/portable/synopsys/dwc2/dcd_dwc2.c ****     const uint16_t remain_bytes = (uint16_t) tsiz.xfer_size;
 1495              		.loc 1 359 5 is_stmt 1 view .LVU509
 359:lib/TinyUSB/src/portable/synopsys/dwc2/dcd_dwc2.c ****     const uint16_t remain_bytes = (uint16_t) tsiz.xfer_size;
 1496              		.loc 1 359 22 is_stmt 0 view .LVU510
 1497 0050 07EB4611 		add	r1, r7, r6, lsl #5
 1498 0054 D1F81039 		ldr	r3, [r1, #2320]
 360:lib/TinyUSB/src/portable/synopsys/dwc2/dcd_dwc2.c ****     const uint16_t xact_bytes = tu_min16(remain_bytes, xfer->max_size);
 1499              		.loc 1 360 5 is_stmt 1 view .LVU511
 360:lib/TinyUSB/src/portable/synopsys/dwc2/dcd_dwc2.c ****     const uint16_t xact_bytes = tu_min16(remain_bytes, xfer->max_size);
 1500              		.loc 1 360 20 is_stmt 0 view .LVU512
 1501 0058 9BB2     		uxth	r3, r3
 1502              	.LVL145:
 361:lib/TinyUSB/src/portable/synopsys/dwc2/dcd_dwc2.c **** 
 1503              		.loc 1 361 5 is_stmt 1 view .LVU513
 361:lib/TinyUSB/src/portable/synopsys/dwc2/dcd_dwc2.c **** 
 1504              		.loc 1 361 33 is_stmt 0 view .LVU514
 1505 005a 124A     		ldr	r2, .L92+4
 1506 005c 02EB4612 		add	r2, r2, r6, lsl #5
 1507 0060 548B     		ldrh	r4, [r2, #26]
 1508              	.LVL146:
 1509              	.LBB270:
 1510              	.LBI270:
 206:lib/TinyUSB/src/common/tusb_common.h **** TU_ATTR_ALWAYS_INLINE static inline uint32_t tu_min32 (uint32_t x, uint32_t y) { return (x < y) ? x
ARM GAS  C:\Users\krisa\AppData\Local\Temp\ccNljk5K.s 			page 62


 1511              		.loc 4 206 46 is_stmt 1 view .LVU515
 1512              	.LBB271:
 206:lib/TinyUSB/src/common/tusb_common.h **** TU_ATTR_ALWAYS_INLINE static inline uint32_t tu_min32 (uint32_t x, uint32_t y) { return (x < y) ? x
 1513              		.loc 4 206 82 view .LVU516
 206:lib/TinyUSB/src/common/tusb_common.h **** TU_ATTR_ALWAYS_INLINE static inline uint32_t tu_min32 (uint32_t x, uint32_t y) { return (x < y) ? x
 1514              		.loc 4 206 101 is_stmt 0 view .LVU517
 1515 0062 9C42     		cmp	r4, r3
 1516 0064 28BF     		it	cs
 1517 0066 1C46     		movcs	r4, r3
 1518              	.LVL147:
 206:lib/TinyUSB/src/common/tusb_common.h **** TU_ATTR_ALWAYS_INLINE static inline uint32_t tu_min32 (uint32_t x, uint32_t y) { return (x < y) ? x
 1519              		.loc 4 206 101 view .LVU518
 1520              	.LBE271:
 1521              	.LBE270:
 364:lib/TinyUSB/src/portable/synopsys/dwc2/dcd_dwc2.c ****       break;
 1522              		.loc 1 364 5 is_stmt 1 view .LVU519
 364:lib/TinyUSB/src/portable/synopsys/dwc2/dcd_dwc2.c ****       break;
 1523              		.loc 1 364 28 is_stmt 0 view .LVU520
 1524 0068 D1F81829 		ldr	r2, [r1, #2328]
 364:lib/TinyUSB/src/portable/synopsys/dwc2/dcd_dwc2.c ****       break;
 1525              		.loc 1 364 63 view .LVU521
 1526 006c 0E4B     		ldr	r3, .L92+8
 1527              	.LVL148:
 364:lib/TinyUSB/src/portable/synopsys/dwc2/dcd_dwc2.c ****       break;
 1528              		.loc 1 364 63 view .LVU522
 1529 006e 03EA8203 		and	r3, r3, r2, lsl #2
 364:lib/TinyUSB/src/portable/synopsys/dwc2/dcd_dwc2.c ****       break;
 1530              		.loc 1 364 8 view .LVU523
 1531 0072 9C42     		cmp	r4, r3
 1532 0074 10D8     		bhi	.L86
 369:lib/TinyUSB/src/portable/synopsys/dwc2/dcd_dwc2.c ****       volatile uint32_t* tx_fifo = dwc2->fifo[epnum];
 1533              		.loc 1 369 5 is_stmt 1 view .LVU524
 369:lib/TinyUSB/src/portable/synopsys/dwc2/dcd_dwc2.c ****       volatile uint32_t* tx_fifo = dwc2->fifo[epnum];
 1534              		.loc 1 369 13 is_stmt 0 view .LVU525
 1535 0076 0B4B     		ldr	r3, .L92+4
 1536 0078 03EB4613 		add	r3, r3, r6, lsl #5
 1537 007c 5869     		ldr	r0, [r3, #20]
 369:lib/TinyUSB/src/portable/synopsys/dwc2/dcd_dwc2.c ****       volatile uint32_t* tx_fifo = dwc2->fifo[epnum];
 1538              		.loc 1 369 8 view .LVU526
 1539 007e 0028     		cmp	r0, #0
 1540 0080 D0D0     		beq	.L87
 1541              	.LBB272:
 370:lib/TinyUSB/src/portable/synopsys/dwc2/dcd_dwc2.c ****       tu_fifo_read_n_access_mode(xfer->ff, (void *)(uintptr_t)tx_fifo, xact_bytes, TU_FIFO_FIXED_AD
 1542              		.loc 1 370 7 is_stmt 1 view .LVU527
 370:lib/TinyUSB/src/portable/synopsys/dwc2/dcd_dwc2.c ****       tu_fifo_read_n_access_mode(xfer->ff, (void *)(uintptr_t)tx_fifo, xact_bytes, TU_FIFO_FIXED_AD
 1543              		.loc 1 370 26 is_stmt 0 view .LVU528
 1544 0082 711C     		adds	r1, r6, #1
 1545              	.LVL149:
 371:lib/TinyUSB/src/portable/synopsys/dwc2/dcd_dwc2.c ****       total_bytes_written += xact_bytes;
 1546              		.loc 1 371 7 is_stmt 1 view .LVU529
 1547 0084 0123     		movs	r3, #1
 1548 0086 2246     		mov	r2, r4
 1549 0088 07EB0131 		add	r1, r7, r1, lsl #12
 1550 008c FFF7FEFF 		bl	tu_fifo_read_n_access_mode
 1551              	.LVL150:
 372:lib/TinyUSB/src/portable/synopsys/dwc2/dcd_dwc2.c ****     } else {
 1552              		.loc 1 372 7 view .LVU530
ARM GAS  C:\Users\krisa\AppData\Local\Temp\ccNljk5K.s 			page 63


 372:lib/TinyUSB/src/portable/synopsys/dwc2/dcd_dwc2.c ****     } else {
 1553              		.loc 1 372 27 is_stmt 0 view .LVU531
 1554 0090 4C44     		add	r4, r4, r9
 1555              	.LVL151:
 372:lib/TinyUSB/src/portable/synopsys/dwc2/dcd_dwc2.c ****     } else {
 1556              		.loc 1 372 27 view .LVU532
 1557 0092 1FFA84F9 		uxth	r9, r4
 1558              	.LVL152:
 372:lib/TinyUSB/src/portable/synopsys/dwc2/dcd_dwc2.c ****     } else {
 1559              		.loc 1 372 27 view .LVU533
 1560              	.LBE272:
 1561 0096 D7E7     		b	.L88
 1562              	.L86:
 372:lib/TinyUSB/src/portable/synopsys/dwc2/dcd_dwc2.c ****     } else {
 1563              		.loc 1 372 27 view .LVU534
 1564              	.LBE273:
 1565              	.LBE274:
 379:lib/TinyUSB/src/portable/synopsys/dwc2/dcd_dwc2.c **** }
 1566              		.loc 1 379 3 is_stmt 1 view .LVU535
 380:lib/TinyUSB/src/portable/synopsys/dwc2/dcd_dwc2.c **** 
 1567              		.loc 1 380 1 is_stmt 0 view .LVU536
 1568 0098 4846     		mov	r0, r9
 1569 009a BDE8F087 		pop	{r4, r5, r6, r7, r8, r9, r10, pc}
 1570              	.LVL153:
 1571              	.L93:
 380:lib/TinyUSB/src/portable/synopsys/dwc2/dcd_dwc2.c **** 
 1572              		.loc 1 380 1 view .LVU537
 1573 009e 00BF     		.align	2
 1574              	.L92:
 1575 00a0 00000000 		.word	.LANCHOR0
 1576 00a4 00000000 		.word	.LANCHOR3
 1577 00a8 FCFF0300 		.word	262140
 1578              		.cfi_endproc
 1579              	.LFE350:
 1581              		.section	.text.edpt_schedule_packets,"ax",%progbits
 1582              		.align	1
 1583              		.syntax unified
 1584              		.thumb
 1585              		.thumb_func
 1587              	edpt_schedule_packets:
 1588              	.LVL154:
 1589              	.LFB351:
 385:lib/TinyUSB/src/portable/synopsys/dwc2/dcd_dwc2.c ****   dwc2_regs_t* dwc2 = DWC2_REG(rhport);
 1590              		.loc 1 385 91 is_stmt 1 view -0
 1591              		.cfi_startproc
 1592              		@ args = 0, pretend = 0, frame = 0
 1593              		@ frame_needed = 0, uses_anonymous_args = 0
 385:lib/TinyUSB/src/portable/synopsys/dwc2/dcd_dwc2.c ****   dwc2_regs_t* dwc2 = DWC2_REG(rhport);
 1594              		.loc 1 385 91 is_stmt 0 view .LVU539
 1595 0000 F8B5     		push	{r3, r4, r5, r6, r7, lr}
 1596              	.LCFI10:
 1597              		.cfi_def_cfa_offset 24
 1598              		.cfi_offset 3, -24
 1599              		.cfi_offset 4, -20
 1600              		.cfi_offset 5, -16
 1601              		.cfi_offset 6, -12
 1602              		.cfi_offset 7, -8
ARM GAS  C:\Users\krisa\AppData\Local\Temp\ccNljk5K.s 			page 64


 1603              		.cfi_offset 14, -4
 1604 0002 0C46     		mov	r4, r1
 1605 0004 1546     		mov	r5, r2
 386:lib/TinyUSB/src/portable/synopsys/dwc2/dcd_dwc2.c ****   xfer_ctl_t* const xfer = XFER_CTL_BASE(epnum, dir);
 1606              		.loc 1 386 3 is_stmt 1 view .LVU540
 1607              	.LVL155:
 1608              	.LBB275:
 1609              	.LBI275:
  79:lib/TinyUSB/src/portable/synopsys/dwc2/dwc2_common.h ****   if (rhport >= DWC2_CONTROLLER_COUNT) {
 1610              		.loc 2 79 50 view .LVU541
 1611              	.LBB276:
  80:lib/TinyUSB/src/portable/synopsys/dwc2/dwc2_common.h ****     // user mis-configured, ignore and use first controller
 1612              		.loc 2 80 3 view .LVU542
  80:lib/TinyUSB/src/portable/synopsys/dwc2/dwc2_common.h ****     // user mis-configured, ignore and use first controller
 1613              		.loc 2 80 6 is_stmt 0 view .LVU543
 1614 0006 0128     		cmp	r0, #1
 1615 0008 35D9     		bls	.L105
  82:lib/TinyUSB/src/portable/synopsys/dwc2/dwc2_common.h ****   }
 1616              		.loc 2 82 12 view .LVU544
 1617 000a 0023     		movs	r3, #0
 1618              	.L95:
 1619              	.LVL156:
  84:lib/TinyUSB/src/portable/synopsys/dwc2/dwc2_common.h **** }
 1620              		.loc 2 84 3 is_stmt 1 view .LVU545
  84:lib/TinyUSB/src/portable/synopsys/dwc2/dwc2_common.h **** }
 1621              		.loc 2 84 48 is_stmt 0 view .LVU546
 1622 000c 1B01     		lsls	r3, r3, #4
 1623              	.LVL157:
  84:lib/TinyUSB/src/portable/synopsys/dwc2/dwc2_common.h **** }
 1624              		.loc 2 84 48 view .LVU547
 1625 000e 354A     		ldr	r2, .L108
 1626              	.LVL158:
  84:lib/TinyUSB/src/portable/synopsys/dwc2/dwc2_common.h **** }
 1627              		.loc 2 84 48 view .LVU548
 1628 0010 D658     		ldr	r6, [r2, r3]
 1629              	.LVL159:
  84:lib/TinyUSB/src/portable/synopsys/dwc2/dwc2_common.h **** }
 1630              		.loc 2 84 48 view .LVU549
 1631              	.LBE276:
 1632              	.LBE275:
 387:lib/TinyUSB/src/portable/synopsys/dwc2/dcd_dwc2.c ****   dwc2_dep_t* dep = &dwc2->ep[dir == TUSB_DIR_IN ? 0 : 1][epnum];
 1633              		.loc 1 387 3 is_stmt 1 view .LVU550
 388:lib/TinyUSB/src/portable/synopsys/dwc2/dcd_dwc2.c **** 
 1634              		.loc 1 388 3 view .LVU551
 388:lib/TinyUSB/src/portable/synopsys/dwc2/dcd_dwc2.c **** 
 1635              		.loc 1 388 54 is_stmt 0 view .LVU552
 1636 0012 6B1E     		subs	r3, r5, #1
 1637 0014 18BF     		it	ne
 1638 0016 0123     		movne	r3, #1
 1639              	.LVL160:
 390:lib/TinyUSB/src/portable/synopsys/dwc2/dcd_dwc2.c ****   uint16_t total_bytes;
 1640              		.loc 1 390 3 is_stmt 1 view .LVU553
 391:lib/TinyUSB/src/portable/synopsys/dwc2/dcd_dwc2.c **** 
 1641              		.loc 1 391 3 view .LVU554
 394:lib/TinyUSB/src/portable/synopsys/dwc2/dcd_dwc2.c ****     total_bytes = tu_min16(_dcd_data.ep0_pending[dir], CFG_TUD_ENDPOINT0_SIZE);
 1642              		.loc 1 394 3 view .LVU555
 394:lib/TinyUSB/src/portable/synopsys/dwc2/dcd_dwc2.c ****     total_bytes = tu_min16(_dcd_data.ep0_pending[dir], CFG_TUD_ENDPOINT0_SIZE);
ARM GAS  C:\Users\krisa\AppData\Local\Temp\ccNljk5K.s 			page 65


 1643              		.loc 1 394 6 is_stmt 0 view .LVU556
 1644 0018 7CBB     		cbnz	r4, .L96
 395:lib/TinyUSB/src/portable/synopsys/dwc2/dcd_dwc2.c ****     _dcd_data.ep0_pending[dir] -= total_bytes;
 1645              		.loc 1 395 5 is_stmt 1 view .LVU557
 395:lib/TinyUSB/src/portable/synopsys/dwc2/dcd_dwc2.c ****     _dcd_data.ep0_pending[dir] -= total_bytes;
 1646              		.loc 1 395 19 is_stmt 0 view .LVU558
 1647 001a 334F     		ldr	r7, .L108+4
 1648 001c 37F81520 		ldrh	r2, [r7, r5, lsl #1]
 1649              	.LVL161:
 1650              	.LBB278:
 1651              	.LBI278:
 206:lib/TinyUSB/src/common/tusb_common.h **** TU_ATTR_ALWAYS_INLINE static inline uint32_t tu_min32 (uint32_t x, uint32_t y) { return (x < y) ? x
 1652              		.loc 4 206 46 is_stmt 1 view .LVU559
 1653              	.LBB279:
 206:lib/TinyUSB/src/common/tusb_common.h **** TU_ATTR_ALWAYS_INLINE static inline uint32_t tu_min32 (uint32_t x, uint32_t y) { return (x < y) ? x
 1654              		.loc 4 206 82 view .LVU560
 206:lib/TinyUSB/src/common/tusb_common.h **** TU_ATTR_ALWAYS_INLINE static inline uint32_t tu_min32 (uint32_t x, uint32_t y) { return (x < y) ? x
 1655              		.loc 4 206 101 is_stmt 0 view .LVU561
 1656 0020 1146     		mov	r1, r2
 1657              	.LVL162:
 206:lib/TinyUSB/src/common/tusb_common.h **** TU_ATTR_ALWAYS_INLINE static inline uint32_t tu_min32 (uint32_t x, uint32_t y) { return (x < y) ? x
 1658              		.loc 4 206 101 view .LVU562
 1659 0022 402A     		cmp	r2, #64
 1660 0024 28BF     		it	cs
 1661 0026 4021     		movcs	r1, #64
 1662              	.LVL163:
 206:lib/TinyUSB/src/common/tusb_common.h **** TU_ATTR_ALWAYS_INLINE static inline uint32_t tu_min32 (uint32_t x, uint32_t y) { return (x < y) ? x
 1663              		.loc 4 206 101 view .LVU563
 1664              	.LBE279:
 1665              	.LBE278:
 396:lib/TinyUSB/src/portable/synopsys/dwc2/dcd_dwc2.c ****     num_packets = 1;
 1666              		.loc 1 396 5 is_stmt 1 view .LVU564
 396:lib/TinyUSB/src/portable/synopsys/dwc2/dcd_dwc2.c ****     num_packets = 1;
 1667              		.loc 1 396 32 is_stmt 0 view .LVU565
 1668 0028 521A     		subs	r2, r2, r1
 1669 002a 27F81520 		strh	r2, [r7, r5, lsl #1]	@ movhi
 397:lib/TinyUSB/src/portable/synopsys/dwc2/dcd_dwc2.c ****   } else {
 1670              		.loc 1 397 5 is_stmt 1 view .LVU566
 1671              	.LVL164:
 397:lib/TinyUSB/src/portable/synopsys/dwc2/dcd_dwc2.c ****   } else {
 1672              		.loc 1 397 17 is_stmt 0 view .LVU567
 1673 002e 0122     		movs	r2, #1
 1674              	.LVL165:
 1675              	.L97:
 407:lib/TinyUSB/src/portable/synopsys/dwc2/dcd_dwc2.c ****   deptsiz.xfer_size = total_bytes;
 1676              		.loc 1 407 3 is_stmt 1 view .LVU568
 407:lib/TinyUSB/src/portable/synopsys/dwc2/dcd_dwc2.c ****   deptsiz.xfer_size = total_bytes;
 1677              		.loc 1 407 19 is_stmt 0 view .LVU569
 1678 0030 0027     		movs	r7, #0
 1679              	.LVL166:
 408:lib/TinyUSB/src/portable/synopsys/dwc2/dcd_dwc2.c ****   deptsiz.packet_count = num_packets;
 1680              		.loc 1 408 3 is_stmt 1 view .LVU570
 408:lib/TinyUSB/src/portable/synopsys/dwc2/dcd_dwc2.c ****   deptsiz.packet_count = num_packets;
 1681              		.loc 1 408 21 is_stmt 0 view .LVU571
 1682 0032 61F31207 		bfi	r7, r1, #0, #19
 1683              	.LVL167:
 409:lib/TinyUSB/src/portable/synopsys/dwc2/dcd_dwc2.c ****   dep->tsiz = deptsiz.value;
ARM GAS  C:\Users\krisa\AppData\Local\Temp\ccNljk5K.s 			page 66


 1684              		.loc 1 409 3 is_stmt 1 view .LVU572
 409:lib/TinyUSB/src/portable/synopsys/dwc2/dcd_dwc2.c ****   dep->tsiz = deptsiz.value;
 1685              		.loc 1 409 24 is_stmt 0 view .LVU573
 1686 0036 62F3DC47 		bfi	r7, r2, #19, #10
 410:lib/TinyUSB/src/portable/synopsys/dwc2/dcd_dwc2.c **** 
 1687              		.loc 1 410 3 is_stmt 1 view .LVU574
 410:lib/TinyUSB/src/portable/synopsys/dwc2/dcd_dwc2.c **** 
 1688              		.loc 1 410 13 is_stmt 0 view .LVU575
 1689 003a 04EB031C 		add	ip, r4, r3, lsl #4
 1690 003e 06EB4C12 		add	r2, r6, ip, lsl #5
 1691              	.LVL168:
 410:lib/TinyUSB/src/portable/synopsys/dwc2/dcd_dwc2.c **** 
 1692              		.loc 1 410 13 view .LVU576
 1693 0042 C2F81079 		str	r7, [r2, #2320]
 413:lib/TinyUSB/src/portable/synopsys/dwc2/dcd_dwc2.c ****   depctl.clear_nak = 1;
 1694              		.loc 1 413 3 is_stmt 1 view .LVU577
 413:lib/TinyUSB/src/portable/synopsys/dwc2/dcd_dwc2.c ****   depctl.clear_nak = 1;
 1695              		.loc 1 413 39 is_stmt 0 view .LVU578
 1696 0046 0CF1480C 		add	ip, ip, #72
 1697 004a 4FEA4C1C 		lsl	ip, ip, #5
 1698 004e 56F80C70 		ldr	r7, [r6, ip]
 1699              	.LVL169:
 413:lib/TinyUSB/src/portable/synopsys/dwc2/dcd_dwc2.c ****   depctl.clear_nak = 1;
 1700              		.loc 1 413 17 view .LVU579
 1701 0052 3A46     		mov	r2, r7
 414:lib/TinyUSB/src/portable/synopsys/dwc2/dcd_dwc2.c ****   depctl.enable = 1;
 1702              		.loc 1 414 3 is_stmt 1 view .LVU580
 415:lib/TinyUSB/src/portable/synopsys/dwc2/dcd_dwc2.c ****   if (depctl.type == DEPCTL_EPTYPE_ISOCHRONOUS) {
 1703              		.loc 1 415 3 view .LVU581
 415:lib/TinyUSB/src/portable/synopsys/dwc2/dcd_dwc2.c ****   if (depctl.type == DEPCTL_EPTYPE_ISOCHRONOUS) {
 1704              		.loc 1 415 17 is_stmt 0 view .LVU582
 1705 0054 47F00447 		orr	r7, r7, #-2080374784
 1706              	.LVL170:
 416:lib/TinyUSB/src/portable/synopsys/dwc2/dcd_dwc2.c ****     const dwc2_dsts_t dsts = {.value = dwc2->dsts};
 1707              		.loc 1 416 3 is_stmt 1 view .LVU583
 416:lib/TinyUSB/src/portable/synopsys/dwc2/dcd_dwc2.c ****     const dwc2_dsts_t dsts = {.value = dwc2->dsts};
 1708              		.loc 1 416 19 is_stmt 0 view .LVU584
 1709 0058 C2F30742 		ubfx	r2, r2, #16, #8
 1710 005c 02F00C02 		and	r2, r2, #12
 416:lib/TinyUSB/src/portable/synopsys/dwc2/dcd_dwc2.c ****     const dwc2_dsts_t dsts = {.value = dwc2->dsts};
 1711              		.loc 1 416 6 view .LVU585
 1712 0060 042A     		cmp	r2, #4
 1713 0062 1AD0     		beq	.L106
 1714              	.L98:
 426:lib/TinyUSB/src/portable/synopsys/dwc2/dcd_dwc2.c ****   if(is_dma) {
 1715              		.loc 1 426 3 is_stmt 1 view .LVU586
 1716              	.LVL171:
 1717              	.LBB280:
 1718              	.LBI280:
 121:lib/TinyUSB/src/portable/synopsys/dwc2/dcd_dwc2.c ****   (void) dwc2;
 1719              		.loc 1 121 42 view .LVU587
 1720              	.LBB281:
 122:lib/TinyUSB/src/portable/synopsys/dwc2/dcd_dwc2.c ****   // Internal DMA only
 1721              		.loc 1 122 3 view .LVU588
 124:lib/TinyUSB/src/portable/synopsys/dwc2/dcd_dwc2.c ****   return CFG_TUD_DWC2_DMA_ENABLE && ghwcfg2.arch == GHWCFG2_ARCH_INTERNAL_DMA;
 1722              		.loc 1 124 3 view .LVU589
 124:lib/TinyUSB/src/portable/synopsys/dwc2/dcd_dwc2.c ****   return CFG_TUD_DWC2_DMA_ENABLE && ghwcfg2.arch == GHWCFG2_ARCH_INTERNAL_DMA;
ARM GAS  C:\Users\krisa\AppData\Local\Temp\ccNljk5K.s 			page 67


 1723              		.loc 1 124 48 is_stmt 0 view .LVU590
 1724 0064 B26C     		ldr	r2, [r6, #72]
 125:lib/TinyUSB/src/portable/synopsys/dwc2/dcd_dwc2.c **** }
 1725              		.loc 1 125 3 is_stmt 1 view .LVU591
 1726              	.LVL172:
 125:lib/TinyUSB/src/portable/synopsys/dwc2/dcd_dwc2.c **** }
 1727              		.loc 1 125 3 is_stmt 0 view .LVU592
 1728              	.LBE281:
 1729              	.LBE280:
 427:lib/TinyUSB/src/portable/synopsys/dwc2/dcd_dwc2.c ****     if (dir == TUSB_DIR_IN && total_bytes != 0) {
 1730              		.loc 1 427 3 is_stmt 1 view .LVU593
 438:lib/TinyUSB/src/portable/synopsys/dwc2/dcd_dwc2.c **** 
 1731              		.loc 1 438 5 view .LVU594
 438:lib/TinyUSB/src/portable/synopsys/dwc2/dcd_dwc2.c **** 
 1732              		.loc 1 438 18 is_stmt 0 view .LVU595
 1733 0066 04EB0313 		add	r3, r4, r3, lsl #4
 1734              	.LVL173:
 438:lib/TinyUSB/src/portable/synopsys/dwc2/dcd_dwc2.c **** 
 1735              		.loc 1 438 18 view .LVU596
 1736 006a 4833     		adds	r3, r3, #72
 1737 006c 5B01     		lsls	r3, r3, #5
 1738              	.LVL174:
 438:lib/TinyUSB/src/portable/synopsys/dwc2/dcd_dwc2.c **** 
 1739              		.loc 1 438 18 view .LVU597
 1740 006e F750     		str	r7, [r6, r3]
 440:lib/TinyUSB/src/portable/synopsys/dwc2/dcd_dwc2.c ****       const uint16_t xferred_bytes = epin_write_tx_fifo(rhport, epnum);
 1741              		.loc 1 440 5 is_stmt 1 view .LVU598
 440:lib/TinyUSB/src/portable/synopsys/dwc2/dcd_dwc2.c ****       const uint16_t xferred_bytes = epin_write_tx_fifo(rhport, epnum);
 1742              		.loc 1 440 8 is_stmt 0 view .LVU599
 1743 0070 012D     		cmp	r5, #1
 1744 0072 1DD0     		beq	.L107
 1745              	.LVL175:
 1746              	.L94:
 450:lib/TinyUSB/src/portable/synopsys/dwc2/dcd_dwc2.c **** 
 1747              		.loc 1 450 1 view .LVU600
 1748 0074 F8BD     		pop	{r3, r4, r5, r6, r7, pc}
 1749              	.LVL176:
 1750              	.L105:
 1751              	.LBB282:
 1752              	.LBB277:
  80:lib/TinyUSB/src/portable/synopsys/dwc2/dwc2_common.h ****     // user mis-configured, ignore and use first controller
 1753              		.loc 2 80 6 view .LVU601
 1754 0076 0346     		mov	r3, r0
 1755 0078 C8E7     		b	.L95
 1756              	.LVL177:
 1757              	.L96:
  80:lib/TinyUSB/src/portable/synopsys/dwc2/dwc2_common.h ****     // user mis-configured, ignore and use first controller
 1758              		.loc 2 80 6 view .LVU602
 1759              	.LBE277:
 1760              	.LBE282:
 399:lib/TinyUSB/src/portable/synopsys/dwc2/dcd_dwc2.c ****     num_packets = tu_div_ceil(total_bytes, xfer->max_size);
 1761              		.loc 1 399 5 is_stmt 1 view .LVU603
 399:lib/TinyUSB/src/portable/synopsys/dwc2/dcd_dwc2.c ****     num_packets = tu_div_ceil(total_bytes, xfer->max_size);
 1762              		.loc 1 399 17 is_stmt 0 view .LVU604
 1763 007a 05EB4402 		add	r2, r5, r4, lsl #1
 1764 007e 1B49     		ldr	r1, .L108+8
 1765              	.LVL178:
ARM GAS  C:\Users\krisa\AppData\Local\Temp\ccNljk5K.s 			page 68


 399:lib/TinyUSB/src/portable/synopsys/dwc2/dcd_dwc2.c ****     num_packets = tu_div_ceil(total_bytes, xfer->max_size);
 1766              		.loc 1 399 17 view .LVU605
 1767 0080 01EB0212 		add	r2, r1, r2, lsl #4
 1768 0084 1189     		ldrh	r1, [r2, #8]
 1769              	.LVL179:
 400:lib/TinyUSB/src/portable/synopsys/dwc2/dcd_dwc2.c ****     if (num_packets == 0) {
 1770              		.loc 1 400 5 is_stmt 1 view .LVU606
 400:lib/TinyUSB/src/portable/synopsys/dwc2/dcd_dwc2.c ****     if (num_packets == 0) {
 1771              		.loc 1 400 48 is_stmt 0 view .LVU607
 1772 0086 5789     		ldrh	r7, [r2, #10]
 1773              	.LVL180:
 1774              	.LBB283:
 1775              	.LBI283:
 1776              		.loc 4 230 46 is_stmt 1 view .LVU608
 1777              	.LBB284:
 1778              		.loc 4 230 84 view .LVU609
 1779              		.loc 4 230 91 is_stmt 0 view .LVU610
 1780 0088 CA19     		adds	r2, r1, r7
 1781 008a 013A     		subs	r2, r2, #1
 1782 008c B2FBF7F2 		udiv	r2, r2, r7
 1783              	.LVL181:
 1784              		.loc 4 230 91 view .LVU611
 1785              	.LBE284:
 1786              	.LBE283:
 400:lib/TinyUSB/src/portable/synopsys/dwc2/dcd_dwc2.c ****     if (num_packets == 0) {
 1787              		.loc 1 400 17 view .LVU612
 1788 0090 92B2     		uxth	r2, r2
 1789              	.LVL182:
 401:lib/TinyUSB/src/portable/synopsys/dwc2/dcd_dwc2.c ****       num_packets = 1; // zero length packet still count as 1
 1790              		.loc 1 401 5 is_stmt 1 view .LVU613
 401:lib/TinyUSB/src/portable/synopsys/dwc2/dcd_dwc2.c ****       num_packets = 1; // zero length packet still count as 1
 1791              		.loc 1 401 8 is_stmt 0 view .LVU614
 1792 0092 002A     		cmp	r2, #0
 1793 0094 CCD1     		bne	.L97
 402:lib/TinyUSB/src/portable/synopsys/dwc2/dcd_dwc2.c ****     }
 1794              		.loc 1 402 19 view .LVU615
 1795 0096 0122     		movs	r2, #1
 1796              	.LVL183:
 402:lib/TinyUSB/src/portable/synopsys/dwc2/dcd_dwc2.c ****     }
 1797              		.loc 1 402 19 view .LVU616
 1798 0098 CAE7     		b	.L97
 1799              	.LVL184:
 1800              	.L106:
 1801              	.LBB285:
 417:lib/TinyUSB/src/portable/synopsys/dwc2/dcd_dwc2.c ****     const uint32_t odd_now = dsts.frame_number & 1u;
 1802              		.loc 1 417 5 is_stmt 1 view .LVU617
 417:lib/TinyUSB/src/portable/synopsys/dwc2/dcd_dwc2.c ****     const uint32_t odd_now = dsts.frame_number & 1u;
 1803              		.loc 1 417 44 is_stmt 0 view .LVU618
 1804 009a D6F80828 		ldr	r2, [r6, #2056]
 418:lib/TinyUSB/src/portable/synopsys/dwc2/dcd_dwc2.c ****     if (odd_now != 0) {
 1805              		.loc 1 418 5 is_stmt 1 view .LVU619
 1806              	.LVL185:
 419:lib/TinyUSB/src/portable/synopsys/dwc2/dcd_dwc2.c ****       depctl.set_data0_iso_even = 1;
 1807              		.loc 1 419 5 view .LVU620
 419:lib/TinyUSB/src/portable/synopsys/dwc2/dcd_dwc2.c ****       depctl.set_data0_iso_even = 1;
 1808              		.loc 1 419 8 is_stmt 0 view .LVU621
 1809 009e 12F4807F 		tst	r2, #256
ARM GAS  C:\Users\krisa\AppData\Local\Temp\ccNljk5K.s 			page 69


 1810 00a2 02D0     		beq	.L99
 420:lib/TinyUSB/src/portable/synopsys/dwc2/dcd_dwc2.c ****     } else {
 1811              		.loc 1 420 7 is_stmt 1 view .LVU622
 1812              	.LVL186:
 420:lib/TinyUSB/src/portable/synopsys/dwc2/dcd_dwc2.c ****     } else {
 1813              		.loc 1 420 33 is_stmt 0 view .LVU623
 1814 00a4 47F08057 		orr	r7, r7, #268435456
 1815              	.LVL187:
 420:lib/TinyUSB/src/portable/synopsys/dwc2/dcd_dwc2.c ****     } else {
 1816              		.loc 1 420 33 view .LVU624
 1817 00a8 DCE7     		b	.L98
 1818              	.L99:
 422:lib/TinyUSB/src/portable/synopsys/dwc2/dcd_dwc2.c ****     }
 1819              		.loc 1 422 7 is_stmt 1 view .LVU625
 1820              	.LVL188:
 422:lib/TinyUSB/src/portable/synopsys/dwc2/dcd_dwc2.c ****     }
 1821              		.loc 1 422 32 is_stmt 0 view .LVU626
 1822 00aa 47F00057 		orr	r7, r7, #536870912
 1823              	.LVL189:
 422:lib/TinyUSB/src/portable/synopsys/dwc2/dcd_dwc2.c ****     }
 1824              		.loc 1 422 32 view .LVU627
 1825 00ae D9E7     		b	.L98
 1826              	.LVL190:
 1827              	.L107:
 422:lib/TinyUSB/src/portable/synopsys/dwc2/dcd_dwc2.c ****     }
 1828              		.loc 1 422 32 view .LVU628
 1829              	.LBE285:
 440:lib/TinyUSB/src/portable/synopsys/dwc2/dcd_dwc2.c ****       const uint16_t xferred_bytes = epin_write_tx_fifo(rhport, epnum);
 1830              		.loc 1 440 28 discriminator 1 view .LVU629
 1831 00b0 0029     		cmp	r1, #0
 1832 00b2 DFD0     		beq	.L94
 1833              	.LBB286:
 441:lib/TinyUSB/src/portable/synopsys/dwc2/dcd_dwc2.c **** 
 1834              		.loc 1 441 7 is_stmt 1 view .LVU630
 441:lib/TinyUSB/src/portable/synopsys/dwc2/dcd_dwc2.c **** 
 1835              		.loc 1 441 38 is_stmt 0 view .LVU631
 1836 00b4 2146     		mov	r1, r4
 1837              	.LVL191:
 441:lib/TinyUSB/src/portable/synopsys/dwc2/dcd_dwc2.c **** 
 1838              		.loc 1 441 38 view .LVU632
 1839 00b6 FFF7FEFF 		bl	epin_write_tx_fifo
 1840              	.LVL192:
 445:lib/TinyUSB/src/portable/synopsys/dwc2/dcd_dwc2.c ****          dwc2->diepempmsk |= (1u << epnum);
 1841              		.loc 1 445 7 is_stmt 1 view .LVU633
 445:lib/TinyUSB/src/portable/synopsys/dwc2/dcd_dwc2.c ****          dwc2->diepempmsk |= (1u << epnum);
 1842              		.loc 1 445 10 is_stmt 0 view .LVU634
 1843 00ba 002C     		cmp	r4, #0
 1844 00bc DAD0     		beq	.L94
 445:lib/TinyUSB/src/portable/synopsys/dwc2/dcd_dwc2.c ****          dwc2->diepempmsk |= (1u << epnum);
 1845              		.loc 1 445 32 discriminator 1 view .LVU635
 1846 00be 05EB4405 		add	r5, r5, r4, lsl #1
 1847              	.LVL193:
 445:lib/TinyUSB/src/portable/synopsys/dwc2/dcd_dwc2.c ****          dwc2->diepempmsk |= (1u << epnum);
 1848              		.loc 1 445 32 discriminator 1 view .LVU636
 1849 00c2 0A4B     		ldr	r3, .L108+8
 1850 00c4 03EB0515 		add	r5, r3, r5, lsl #4
 1851 00c8 2B89     		ldrh	r3, [r5, #8]
ARM GAS  C:\Users\krisa\AppData\Local\Temp\ccNljk5K.s 			page 70


 445:lib/TinyUSB/src/portable/synopsys/dwc2/dcd_dwc2.c ****          dwc2->diepempmsk |= (1u << epnum);
 1852              		.loc 1 445 44 discriminator 1 view .LVU637
 1853 00ca 181A     		subs	r0, r3, r0
 1854              	.LVL194:
 445:lib/TinyUSB/src/portable/synopsys/dwc2/dcd_dwc2.c ****          dwc2->diepempmsk |= (1u << epnum);
 1855              		.loc 1 445 24 discriminator 1 view .LVU638
 1856 00cc 0028     		cmp	r0, #0
 1857 00ce D1DD     		ble	.L94
 446:lib/TinyUSB/src/portable/synopsys/dwc2/dcd_dwc2.c ****       }
 1858              		.loc 1 446 10 is_stmt 1 view .LVU639
 446:lib/TinyUSB/src/portable/synopsys/dwc2/dcd_dwc2.c ****       }
 1859              		.loc 1 446 27 is_stmt 0 view .LVU640
 1860 00d0 D6F83438 		ldr	r3, [r6, #2100]
 446:lib/TinyUSB/src/portable/synopsys/dwc2/dcd_dwc2.c ****       }
 1861              		.loc 1 446 34 view .LVU641
 1862 00d4 0122     		movs	r2, #1
 1863 00d6 02FA04F4 		lsl	r4, r2, r4
 446:lib/TinyUSB/src/portable/synopsys/dwc2/dcd_dwc2.c ****       }
 1864              		.loc 1 446 27 view .LVU642
 1865 00da 1C43     		orrs	r4, r4, r3
 1866 00dc C6F83448 		str	r4, [r6, #2100]
 1867              	.LBE286:
 450:lib/TinyUSB/src/portable/synopsys/dwc2/dcd_dwc2.c **** 
 1868              		.loc 1 450 1 view .LVU643
 1869 00e0 C8E7     		b	.L94
 1870              	.L109:
 1871 00e2 00BF     		.align	2
 1872              	.L108:
 1873 00e4 00000000 		.word	.LANCHOR0
 1874 00e8 00000000 		.word	.LANCHOR1
 1875 00ec 00000000 		.word	.LANCHOR3
 1876              		.cfi_endproc
 1877              	.LFE351:
 1879              		.section	.text.handle_enum_done,"ax",%progbits
 1880              		.align	1
 1881              		.syntax unified
 1882              		.thumb
 1883              		.thumb_func
 1885              	handle_enum_done:
 1886              	.LVL195:
 1887              	.LFB370:
 813:lib/TinyUSB/src/portable/synopsys/dwc2/dcd_dwc2.c **** 
 814:lib/TinyUSB/src/portable/synopsys/dwc2/dcd_dwc2.c **** static void handle_enum_done(uint8_t rhport) {
 1888              		.loc 1 814 46 is_stmt 1 view -0
 1889              		.cfi_startproc
 1890              		@ args = 0, pretend = 0, frame = 16
 1891              		@ frame_needed = 0, uses_anonymous_args = 0
 1892              		.loc 1 814 46 is_stmt 0 view .LVU645
 1893 0000 00B5     		push	{lr}
 1894              	.LCFI11:
 1895              		.cfi_def_cfa_offset 4
 1896              		.cfi_offset 14, -4
 1897 0002 85B0     		sub	sp, sp, #20
 1898              	.LCFI12:
 1899              		.cfi_def_cfa_offset 24
 815:lib/TinyUSB/src/portable/synopsys/dwc2/dcd_dwc2.c ****   dwc2_regs_t *dwc2 = DWC2_REG(rhport);
 1900              		.loc 1 815 3 is_stmt 1 view .LVU646
ARM GAS  C:\Users\krisa\AppData\Local\Temp\ccNljk5K.s 			page 71


 1901              	.LVL196:
 1902              	.LBB287:
 1903              	.LBI287:
  79:lib/TinyUSB/src/portable/synopsys/dwc2/dwc2_common.h ****   if (rhport >= DWC2_CONTROLLER_COUNT) {
 1904              		.loc 2 79 50 view .LVU647
 1905              	.LBB288:
  80:lib/TinyUSB/src/portable/synopsys/dwc2/dwc2_common.h ****     // user mis-configured, ignore and use first controller
 1906              		.loc 2 80 3 view .LVU648
  80:lib/TinyUSB/src/portable/synopsys/dwc2/dwc2_common.h ****     // user mis-configured, ignore and use first controller
 1907              		.loc 2 80 6 is_stmt 0 view .LVU649
 1908 0004 0128     		cmp	r0, #1
 1909 0006 1AD9     		bls	.L117
  82:lib/TinyUSB/src/portable/synopsys/dwc2/dwc2_common.h ****   }
 1910              		.loc 2 82 12 view .LVU650
 1911 0008 0023     		movs	r3, #0
 1912              	.L111:
 1913              	.LVL197:
  84:lib/TinyUSB/src/portable/synopsys/dwc2/dwc2_common.h **** }
 1914              		.loc 2 84 3 is_stmt 1 view .LVU651
  84:lib/TinyUSB/src/portable/synopsys/dwc2/dwc2_common.h **** }
 1915              		.loc 2 84 48 is_stmt 0 view .LVU652
 1916 000a 1B01     		lsls	r3, r3, #4
 1917              	.LVL198:
  84:lib/TinyUSB/src/portable/synopsys/dwc2/dwc2_common.h **** }
 1918              		.loc 2 84 48 view .LVU653
 1919 000c 0F4A     		ldr	r2, .L118
 1920 000e D358     		ldr	r3, [r2, r3]
 1921              	.LVL199:
  84:lib/TinyUSB/src/portable/synopsys/dwc2/dwc2_common.h **** }
 1922              		.loc 2 84 48 view .LVU654
 1923              	.LBE288:
 1924              	.LBE287:
 816:lib/TinyUSB/src/portable/synopsys/dwc2/dcd_dwc2.c ****   const dwc2_dsts_t dsts = {.value = dwc2->dsts};
 1925              		.loc 1 816 3 is_stmt 1 view .LVU655
 1926              		.loc 1 816 42 is_stmt 0 view .LVU656
 1927 0010 D3F80838 		ldr	r3, [r3, #2056]
 1928              	.LVL200:
 817:lib/TinyUSB/src/portable/synopsys/dwc2/dcd_dwc2.c ****   tusb_speed_t speed;
 1929              		.loc 1 817 3 is_stmt 1 view .LVU657
 818:lib/TinyUSB/src/portable/synopsys/dwc2/dcd_dwc2.c ****   switch (dsts.enum_speed) {
 1930              		.loc 1 818 3 view .LVU658
 1931              		.loc 1 818 15 is_stmt 0 view .LVU659
 1932 0014 C3F34102 		ubfx	r2, r3, #1, #2
 1933              		.loc 1 818 3 view .LVU660
 1934 0018 13F0060F 		tst	r3, #6
 1935 001c 11D0     		beq	.L114
 1936 001e 022A     		cmp	r2, #2
 1937 0020 11D1     		bne	.L115
 819:lib/TinyUSB/src/portable/synopsys/dwc2/dcd_dwc2.c ****     case DCFG_SPEED_HIGH:
 820:lib/TinyUSB/src/portable/synopsys/dwc2/dcd_dwc2.c ****       speed = TUSB_SPEED_HIGH;
 821:lib/TinyUSB/src/portable/synopsys/dwc2/dcd_dwc2.c ****     break;
 822:lib/TinyUSB/src/portable/synopsys/dwc2/dcd_dwc2.c **** 
 823:lib/TinyUSB/src/portable/synopsys/dwc2/dcd_dwc2.c ****     case DCFG_SPEED_LOW:
 824:lib/TinyUSB/src/portable/synopsys/dwc2/dcd_dwc2.c ****       speed = TUSB_SPEED_LOW;
 1938              		.loc 1 824 13 view .LVU661
 1939 0022 0123     		movs	r3, #1
 1940              	.L112:
ARM GAS  C:\Users\krisa\AppData\Local\Temp\ccNljk5K.s 			page 72


 1941              	.LVL201:
 825:lib/TinyUSB/src/portable/synopsys/dwc2/dcd_dwc2.c ****     break;
 826:lib/TinyUSB/src/portable/synopsys/dwc2/dcd_dwc2.c **** 
 827:lib/TinyUSB/src/portable/synopsys/dwc2/dcd_dwc2.c ****     case DCFG_SPEED_FULL_30_60MHZ:
 828:lib/TinyUSB/src/portable/synopsys/dwc2/dcd_dwc2.c ****     case DCFG_SPEED_FULL_48MHZ:
 829:lib/TinyUSB/src/portable/synopsys/dwc2/dcd_dwc2.c ****     default:
 830:lib/TinyUSB/src/portable/synopsys/dwc2/dcd_dwc2.c ****       speed = TUSB_SPEED_FULL;
 831:lib/TinyUSB/src/portable/synopsys/dwc2/dcd_dwc2.c ****     break;
 832:lib/TinyUSB/src/portable/synopsys/dwc2/dcd_dwc2.c ****   }
 833:lib/TinyUSB/src/portable/synopsys/dwc2/dcd_dwc2.c **** 
 834:lib/TinyUSB/src/portable/synopsys/dwc2/dcd_dwc2.c ****   // TODO must update GUSBCFG_TRDT according to link speed
 835:lib/TinyUSB/src/portable/synopsys/dwc2/dcd_dwc2.c ****   dcd_event_bus_reset(rhport, speed, true);
 1942              		.loc 1 835 3 is_stmt 1 view .LVU662
 1943              	.LBB290:
 1944              	.LBI290:
 1945              		.file 5 "lib/TinyUSB/src/device/dcd.h"
   1:lib/TinyUSB/src/device/dcd.h **** /*
   2:lib/TinyUSB/src/device/dcd.h ****  * The MIT License (MIT)
   3:lib/TinyUSB/src/device/dcd.h ****  *
   4:lib/TinyUSB/src/device/dcd.h ****  * Copyright (c) 2019 Ha Thach (tinyusb.org)
   5:lib/TinyUSB/src/device/dcd.h ****  *
   6:lib/TinyUSB/src/device/dcd.h ****  * Permission is hereby granted, free of charge, to any person obtaining a copy
   7:lib/TinyUSB/src/device/dcd.h ****  * of this software and associated documentation files (the "Software"), to deal
   8:lib/TinyUSB/src/device/dcd.h ****  * in the Software without restriction, including without limitation the rights
   9:lib/TinyUSB/src/device/dcd.h ****  * to use, copy, modify, merge, publish, distribute, sublicense, and/or sell
  10:lib/TinyUSB/src/device/dcd.h ****  * copies of the Software, and to permit persons to whom the Software is
  11:lib/TinyUSB/src/device/dcd.h ****  * furnished to do so, subject to the following conditions:
  12:lib/TinyUSB/src/device/dcd.h ****  *
  13:lib/TinyUSB/src/device/dcd.h ****  * The above copyright notice and this permission notice shall be included in
  14:lib/TinyUSB/src/device/dcd.h ****  * all copies or substantial portions of the Software.
  15:lib/TinyUSB/src/device/dcd.h ****  *
  16:lib/TinyUSB/src/device/dcd.h ****  * THE SOFTWARE IS PROVIDED "AS IS", WITHOUT WARRANTY OF ANY KIND, EXPRESS OR
  17:lib/TinyUSB/src/device/dcd.h ****  * IMPLIED, INCLUDING BUT NOT LIMITED TO THE WARRANTIES OF MERCHANTABILITY,
  18:lib/TinyUSB/src/device/dcd.h ****  * FITNESS FOR A PARTICULAR PURPOSE AND NONINFRINGEMENT. IN NO EVENT SHALL THE
  19:lib/TinyUSB/src/device/dcd.h ****  * AUTHORS OR COPYRIGHT HOLDERS BE LIABLE FOR ANY CLAIM, DAMAGES OR OTHER
  20:lib/TinyUSB/src/device/dcd.h ****  * LIABILITY, WHETHER IN AN ACTION OF CONTRACT, TORT OR OTHERWISE, ARISING FROM,
  21:lib/TinyUSB/src/device/dcd.h ****  * OUT OF OR IN CONNECTION WITH THE SOFTWARE OR THE USE OR OTHER DEALINGS IN
  22:lib/TinyUSB/src/device/dcd.h ****  * THE SOFTWARE.
  23:lib/TinyUSB/src/device/dcd.h ****  *
  24:lib/TinyUSB/src/device/dcd.h ****  * This file is part of the TinyUSB stack.
  25:lib/TinyUSB/src/device/dcd.h ****  */
  26:lib/TinyUSB/src/device/dcd.h **** 
  27:lib/TinyUSB/src/device/dcd.h **** #ifndef TUSB_DCD_H_
  28:lib/TinyUSB/src/device/dcd.h **** #define TUSB_DCD_H_
  29:lib/TinyUSB/src/device/dcd.h **** 
  30:lib/TinyUSB/src/device/dcd.h **** #include "common/tusb_common.h"
  31:lib/TinyUSB/src/device/dcd.h **** #include "osal/osal.h"
  32:lib/TinyUSB/src/device/dcd.h **** #include "common/tusb_fifo.h"
  33:lib/TinyUSB/src/device/dcd.h **** 
  34:lib/TinyUSB/src/device/dcd.h **** #ifdef __cplusplus
  35:lib/TinyUSB/src/device/dcd.h ****  extern "C" {
  36:lib/TinyUSB/src/device/dcd.h **** #endif
  37:lib/TinyUSB/src/device/dcd.h **** 
  38:lib/TinyUSB/src/device/dcd.h **** //--------------------------------------------------------------------+
  39:lib/TinyUSB/src/device/dcd.h **** // MACRO CONSTANT TYPEDEF PROTYPES
  40:lib/TinyUSB/src/device/dcd.h **** //--------------------------------------------------------------------+
  41:lib/TinyUSB/src/device/dcd.h **** 
ARM GAS  C:\Users\krisa\AppData\Local\Temp\ccNljk5K.s 			page 73


  42:lib/TinyUSB/src/device/dcd.h **** typedef enum {
  43:lib/TinyUSB/src/device/dcd.h ****   DCD_EVENT_INVALID = 0,    // 0
  44:lib/TinyUSB/src/device/dcd.h ****   DCD_EVENT_BUS_RESET,      // 1
  45:lib/TinyUSB/src/device/dcd.h ****   DCD_EVENT_UNPLUGGED,      // 2
  46:lib/TinyUSB/src/device/dcd.h ****   DCD_EVENT_SOF,            // 3
  47:lib/TinyUSB/src/device/dcd.h ****   DCD_EVENT_SUSPEND,        // 4 TODO LPM Sleep L1 support
  48:lib/TinyUSB/src/device/dcd.h ****   DCD_EVENT_RESUME,         // 5
  49:lib/TinyUSB/src/device/dcd.h ****   DCD_EVENT_SETUP_RECEIVED, // 6
  50:lib/TinyUSB/src/device/dcd.h ****   DCD_EVENT_XFER_COMPLETE,  // 7
  51:lib/TinyUSB/src/device/dcd.h ****   USBD_EVENT_FUNC_CALL,     // 8 Not an DCD event, just a convenient way to defer ISR function
  52:lib/TinyUSB/src/device/dcd.h ****   DCD_EVENT_COUNT
  53:lib/TinyUSB/src/device/dcd.h **** } dcd_eventid_t;
  54:lib/TinyUSB/src/device/dcd.h **** 
  55:lib/TinyUSB/src/device/dcd.h **** typedef struct TU_ATTR_ALIGNED(4) {
  56:lib/TinyUSB/src/device/dcd.h ****   uint8_t rhport;
  57:lib/TinyUSB/src/device/dcd.h ****   uint8_t event_id;
  58:lib/TinyUSB/src/device/dcd.h **** 
  59:lib/TinyUSB/src/device/dcd.h ****   union {
  60:lib/TinyUSB/src/device/dcd.h ****     // BUS RESET
  61:lib/TinyUSB/src/device/dcd.h ****     struct {
  62:lib/TinyUSB/src/device/dcd.h ****       tusb_speed_t speed;
  63:lib/TinyUSB/src/device/dcd.h ****     } bus_reset;
  64:lib/TinyUSB/src/device/dcd.h **** 
  65:lib/TinyUSB/src/device/dcd.h ****     // SOF
  66:lib/TinyUSB/src/device/dcd.h ****     struct {
  67:lib/TinyUSB/src/device/dcd.h ****       uint32_t frame_count;
  68:lib/TinyUSB/src/device/dcd.h ****     }sof;
  69:lib/TinyUSB/src/device/dcd.h **** 
  70:lib/TinyUSB/src/device/dcd.h ****     // SETUP_RECEIVED
  71:lib/TinyUSB/src/device/dcd.h ****     tusb_control_request_t setup_received;
  72:lib/TinyUSB/src/device/dcd.h **** 
  73:lib/TinyUSB/src/device/dcd.h ****     // XFER_COMPLETE
  74:lib/TinyUSB/src/device/dcd.h ****     struct {
  75:lib/TinyUSB/src/device/dcd.h ****       uint8_t  ep_addr;
  76:lib/TinyUSB/src/device/dcd.h ****       uint8_t  result;
  77:lib/TinyUSB/src/device/dcd.h ****       uint32_t len;
  78:lib/TinyUSB/src/device/dcd.h ****     }xfer_complete;
  79:lib/TinyUSB/src/device/dcd.h **** 
  80:lib/TinyUSB/src/device/dcd.h ****     // FUNC_CALL
  81:lib/TinyUSB/src/device/dcd.h ****     struct {
  82:lib/TinyUSB/src/device/dcd.h ****       void (*func) (void* param);
  83:lib/TinyUSB/src/device/dcd.h ****       void* param;
  84:lib/TinyUSB/src/device/dcd.h ****     }func_call;
  85:lib/TinyUSB/src/device/dcd.h ****   };
  86:lib/TinyUSB/src/device/dcd.h **** } dcd_event_t;
  87:lib/TinyUSB/src/device/dcd.h **** 
  88:lib/TinyUSB/src/device/dcd.h **** //TU_VERIFY_STATIC(sizeof(dcd_event_t) <= 12, "size is not correct");
  89:lib/TinyUSB/src/device/dcd.h **** 
  90:lib/TinyUSB/src/device/dcd.h **** //--------------------------------------------------------------------+
  91:lib/TinyUSB/src/device/dcd.h **** // Memory API
  92:lib/TinyUSB/src/device/dcd.h **** //--------------------------------------------------------------------+
  93:lib/TinyUSB/src/device/dcd.h **** 
  94:lib/TinyUSB/src/device/dcd.h **** // clean/flush data cache: write cache -> memory.
  95:lib/TinyUSB/src/device/dcd.h **** // Required before an DMA TX transfer to make sure data is in memory
  96:lib/TinyUSB/src/device/dcd.h **** bool dcd_dcache_clean(const void* addr, uint32_t data_size);
  97:lib/TinyUSB/src/device/dcd.h **** 
  98:lib/TinyUSB/src/device/dcd.h **** // invalidate data cache: mark cache as invalid, next read will read from memory
ARM GAS  C:\Users\krisa\AppData\Local\Temp\ccNljk5K.s 			page 74


  99:lib/TinyUSB/src/device/dcd.h **** // Required BOTH before and after an DMA RX transfer
 100:lib/TinyUSB/src/device/dcd.h **** bool dcd_dcache_invalidate(const void* addr, uint32_t data_size);
 101:lib/TinyUSB/src/device/dcd.h **** 
 102:lib/TinyUSB/src/device/dcd.h **** // clean and invalidate data cache
 103:lib/TinyUSB/src/device/dcd.h **** // Required before an DMA transfer where memory is both read/write by DMA
 104:lib/TinyUSB/src/device/dcd.h **** bool dcd_dcache_clean_invalidate(const void* addr, uint32_t data_size);
 105:lib/TinyUSB/src/device/dcd.h **** 
 106:lib/TinyUSB/src/device/dcd.h **** //--------------------------------------------------------------------+
 107:lib/TinyUSB/src/device/dcd.h **** // Controller API
 108:lib/TinyUSB/src/device/dcd.h **** //--------------------------------------------------------------------+
 109:lib/TinyUSB/src/device/dcd.h **** 
 110:lib/TinyUSB/src/device/dcd.h **** // optional dcd configuration, called by tud_configure()
 111:lib/TinyUSB/src/device/dcd.h **** bool dcd_configure(uint8_t rhport, uint32_t cfg_id, const void* cfg_param);
 112:lib/TinyUSB/src/device/dcd.h **** 
 113:lib/TinyUSB/src/device/dcd.h **** // Initialize controller to device mode
 114:lib/TinyUSB/src/device/dcd.h **** bool dcd_init(uint8_t rhport, const tusb_rhport_init_t* rh_init);
 115:lib/TinyUSB/src/device/dcd.h **** 
 116:lib/TinyUSB/src/device/dcd.h **** // Deinitialize controller, unset device mode.
 117:lib/TinyUSB/src/device/dcd.h **** bool dcd_deinit(uint8_t rhport);
 118:lib/TinyUSB/src/device/dcd.h **** 
 119:lib/TinyUSB/src/device/dcd.h **** // Interrupt Handler
 120:lib/TinyUSB/src/device/dcd.h **** void dcd_int_handler(uint8_t rhport);
 121:lib/TinyUSB/src/device/dcd.h **** 
 122:lib/TinyUSB/src/device/dcd.h **** // Enable device interrupt
 123:lib/TinyUSB/src/device/dcd.h **** void dcd_int_enable (uint8_t rhport);
 124:lib/TinyUSB/src/device/dcd.h **** 
 125:lib/TinyUSB/src/device/dcd.h **** // Disable device interrupt
 126:lib/TinyUSB/src/device/dcd.h **** void dcd_int_disable(uint8_t rhport);
 127:lib/TinyUSB/src/device/dcd.h **** 
 128:lib/TinyUSB/src/device/dcd.h **** // Receive Set Address request, mcu port must also include status IN response
 129:lib/TinyUSB/src/device/dcd.h **** void dcd_set_address(uint8_t rhport, uint8_t dev_addr);
 130:lib/TinyUSB/src/device/dcd.h **** 
 131:lib/TinyUSB/src/device/dcd.h **** // Wake up host
 132:lib/TinyUSB/src/device/dcd.h **** void dcd_remote_wakeup(uint8_t rhport);
 133:lib/TinyUSB/src/device/dcd.h **** 
 134:lib/TinyUSB/src/device/dcd.h **** // Connect by enabling internal pull-up resistor on D+/D-
 135:lib/TinyUSB/src/device/dcd.h **** void dcd_connect(uint8_t rhport);
 136:lib/TinyUSB/src/device/dcd.h **** 
 137:lib/TinyUSB/src/device/dcd.h **** // Disconnect by disabling internal pull-up resistor on D+/D-
 138:lib/TinyUSB/src/device/dcd.h **** void dcd_disconnect(uint8_t rhport);
 139:lib/TinyUSB/src/device/dcd.h **** 
 140:lib/TinyUSB/src/device/dcd.h **** // Enable/Disable Start-of-frame interrupt. Default is disabled
 141:lib/TinyUSB/src/device/dcd.h **** void dcd_sof_enable(uint8_t rhport, bool en);
 142:lib/TinyUSB/src/device/dcd.h **** 
 143:lib/TinyUSB/src/device/dcd.h **** #if CFG_TUD_TEST_MODE
 144:lib/TinyUSB/src/device/dcd.h **** // Put device into a test mode (needs power cycle to quit)
 145:lib/TinyUSB/src/device/dcd.h **** void dcd_enter_test_mode(uint8_t rhport, tusb_feature_test_mode_t test_selector);
 146:lib/TinyUSB/src/device/dcd.h **** #endif
 147:lib/TinyUSB/src/device/dcd.h **** //--------------------------------------------------------------------+
 148:lib/TinyUSB/src/device/dcd.h **** // Endpoint API
 149:lib/TinyUSB/src/device/dcd.h **** //--------------------------------------------------------------------+
 150:lib/TinyUSB/src/device/dcd.h **** 
 151:lib/TinyUSB/src/device/dcd.h **** // Invoked when a control transfer's status stage is complete.
 152:lib/TinyUSB/src/device/dcd.h **** // May help DCD to prepare for next control transfer, this API is optional.
 153:lib/TinyUSB/src/device/dcd.h **** void dcd_edpt0_status_complete(uint8_t rhport, tusb_control_request_t const * request);
 154:lib/TinyUSB/src/device/dcd.h **** 
 155:lib/TinyUSB/src/device/dcd.h **** // Configure endpoint's registers according to descriptor
ARM GAS  C:\Users\krisa\AppData\Local\Temp\ccNljk5K.s 			page 75


 156:lib/TinyUSB/src/device/dcd.h **** bool dcd_edpt_open            (uint8_t rhport, tusb_desc_endpoint_t const * desc_ep);
 157:lib/TinyUSB/src/device/dcd.h **** 
 158:lib/TinyUSB/src/device/dcd.h **** // Close all non-control endpoints, cancel all pending transfers if any.
 159:lib/TinyUSB/src/device/dcd.h **** // Invoked when switching from a non-zero Configuration by SET_CONFIGURE therefore
 160:lib/TinyUSB/src/device/dcd.h **** // required for multiple configuration support.
 161:lib/TinyUSB/src/device/dcd.h **** void dcd_edpt_close_all       (uint8_t rhport);
 162:lib/TinyUSB/src/device/dcd.h **** 
 163:lib/TinyUSB/src/device/dcd.h **** // Submit a transfer, When complete dcd_event_xfer_complete() is invoked to notify the stack
 164:lib/TinyUSB/src/device/dcd.h **** bool dcd_edpt_xfer            (uint8_t rhport, uint8_t ep_addr, uint8_t * buffer, uint16_t total_by
 165:lib/TinyUSB/src/device/dcd.h **** 
 166:lib/TinyUSB/src/device/dcd.h **** // Submit an transfer using fifo, When complete dcd_event_xfer_complete() is invoked to notify the 
 167:lib/TinyUSB/src/device/dcd.h **** // This API is optional, may be useful for register-based for transferring data.
 168:lib/TinyUSB/src/device/dcd.h **** bool dcd_edpt_xfer_fifo       (uint8_t rhport, uint8_t ep_addr, tu_fifo_t * ff, uint16_t total_byte
 169:lib/TinyUSB/src/device/dcd.h **** 
 170:lib/TinyUSB/src/device/dcd.h **** // Stall endpoint, any queuing transfer should be removed from endpoint
 171:lib/TinyUSB/src/device/dcd.h **** void dcd_edpt_stall           (uint8_t rhport, uint8_t ep_addr);
 172:lib/TinyUSB/src/device/dcd.h **** 
 173:lib/TinyUSB/src/device/dcd.h **** // clear stall, data toggle is also reset to DATA0
 174:lib/TinyUSB/src/device/dcd.h **** // This API never calls with control endpoints, since it is auto cleared when receiving setup packe
 175:lib/TinyUSB/src/device/dcd.h **** void dcd_edpt_clear_stall     (uint8_t rhport, uint8_t ep_addr);
 176:lib/TinyUSB/src/device/dcd.h **** 
 177:lib/TinyUSB/src/device/dcd.h **** #ifdef TUP_DCD_EDPT_CLOSE_API
 178:lib/TinyUSB/src/device/dcd.h **** // Close an endpoint.
 179:lib/TinyUSB/src/device/dcd.h **** void dcd_edpt_close(uint8_t rhport, uint8_t ep_addr);
 180:lib/TinyUSB/src/device/dcd.h **** 
 181:lib/TinyUSB/src/device/dcd.h **** #else
 182:lib/TinyUSB/src/device/dcd.h **** 
 183:lib/TinyUSB/src/device/dcd.h **** // Allocate packet buffer used by ISO endpoints
 184:lib/TinyUSB/src/device/dcd.h **** // Some MCU need manual packet buffer allocation, we allocate the largest size to avoid clustering
 185:lib/TinyUSB/src/device/dcd.h **** bool dcd_edpt_iso_alloc(uint8_t rhport, uint8_t ep_addr, uint16_t largest_packet_size);
 186:lib/TinyUSB/src/device/dcd.h **** 
 187:lib/TinyUSB/src/device/dcd.h **** // Configure and enable an ISO endpoint according to descriptor
 188:lib/TinyUSB/src/device/dcd.h **** bool dcd_edpt_iso_activate(uint8_t rhport, tusb_desc_endpoint_t const * desc_ep);
 189:lib/TinyUSB/src/device/dcd.h **** 
 190:lib/TinyUSB/src/device/dcd.h **** #endif
 191:lib/TinyUSB/src/device/dcd.h **** 
 192:lib/TinyUSB/src/device/dcd.h **** //--------------------------------------------------------------------+
 193:lib/TinyUSB/src/device/dcd.h **** // Event API (implemented by stack)
 194:lib/TinyUSB/src/device/dcd.h **** //--------------------------------------------------------------------+
 195:lib/TinyUSB/src/device/dcd.h **** 
 196:lib/TinyUSB/src/device/dcd.h **** // Called by DCD to notify device stack
 197:lib/TinyUSB/src/device/dcd.h **** extern void dcd_event_handler(dcd_event_t const * event, bool in_isr);
 198:lib/TinyUSB/src/device/dcd.h **** 
 199:lib/TinyUSB/src/device/dcd.h **** // helper to send bus signal event
 200:lib/TinyUSB/src/device/dcd.h **** TU_ATTR_ALWAYS_INLINE static inline void dcd_event_bus_signal (uint8_t rhport, dcd_eventid_t eid, b
 201:lib/TinyUSB/src/device/dcd.h ****   dcd_event_t event;
 202:lib/TinyUSB/src/device/dcd.h ****   event.rhport = rhport;
 203:lib/TinyUSB/src/device/dcd.h ****   event.event_id = eid;
 204:lib/TinyUSB/src/device/dcd.h ****   dcd_event_handler(&event, in_isr);
 205:lib/TinyUSB/src/device/dcd.h **** }
 206:lib/TinyUSB/src/device/dcd.h **** 
 207:lib/TinyUSB/src/device/dcd.h **** // helper to send bus reset event
 208:lib/TinyUSB/src/device/dcd.h **** TU_ATTR_ALWAYS_INLINE static inline  void dcd_event_bus_reset (uint8_t rhport, tusb_speed_t speed, 
 1946              		.loc 5 208 43 view .LVU663
 1947              	.LBB291:
 209:lib/TinyUSB/src/device/dcd.h ****   dcd_event_t event;
 1948              		.loc 5 209 3 view .LVU664
ARM GAS  C:\Users\krisa\AppData\Local\Temp\ccNljk5K.s 			page 76


 210:lib/TinyUSB/src/device/dcd.h ****   event.rhport = rhport;
 1949              		.loc 5 210 3 view .LVU665
 1950              		.loc 5 210 16 is_stmt 0 view .LVU666
 1951 0024 8DF80400 		strb	r0, [sp, #4]
 211:lib/TinyUSB/src/device/dcd.h ****   event.event_id = DCD_EVENT_BUS_RESET;
 1952              		.loc 5 211 3 is_stmt 1 view .LVU667
 1953              		.loc 5 211 18 is_stmt 0 view .LVU668
 1954 0028 0121     		movs	r1, #1
 1955 002a 8DF80510 		strb	r1, [sp, #5]
 212:lib/TinyUSB/src/device/dcd.h ****   event.bus_reset.speed = speed;
 1956              		.loc 5 212 3 is_stmt 1 view .LVU669
 1957              		.loc 5 212 25 is_stmt 0 view .LVU670
 1958 002e 8DF80830 		strb	r3, [sp, #8]
 213:lib/TinyUSB/src/device/dcd.h ****   dcd_event_handler(&event, in_isr);
 1959              		.loc 5 213 3 is_stmt 1 view .LVU671
 1960 0032 01A8     		add	r0, sp, #4
 1961              	.LVL202:
 1962              		.loc 5 213 3 is_stmt 0 view .LVU672
 1963 0034 FFF7FEFF 		bl	dcd_event_handler
 1964              	.LVL203:
 1965              		.loc 5 213 3 view .LVU673
 1966              	.LBE291:
 1967              	.LBE290:
 836:lib/TinyUSB/src/portable/synopsys/dwc2/dcd_dwc2.c **** }
 1968              		.loc 1 836 1 view .LVU674
 1969 0038 05B0     		add	sp, sp, #20
 1970              	.LCFI13:
 1971              		.cfi_remember_state
 1972              		.cfi_def_cfa_offset 4
 1973              		@ sp needed
 1974 003a 5DF804FB 		ldr	pc, [sp], #4
 1975              	.LVL204:
 1976              	.L117:
 1977              	.LCFI14:
 1978              		.cfi_restore_state
 1979              	.LBB292:
 1980              	.LBB289:
  80:lib/TinyUSB/src/portable/synopsys/dwc2/dwc2_common.h ****     // user mis-configured, ignore and use first controller
 1981              		.loc 2 80 6 view .LVU675
 1982 003e 0346     		mov	r3, r0
 1983 0040 E3E7     		b	.L111
 1984              	.LVL205:
 1985              	.L114:
  80:lib/TinyUSB/src/portable/synopsys/dwc2/dwc2_common.h ****     // user mis-configured, ignore and use first controller
 1986              		.loc 2 80 6 view .LVU676
 1987              	.LBE289:
 1988              	.LBE292:
 818:lib/TinyUSB/src/portable/synopsys/dwc2/dcd_dwc2.c ****     case DCFG_SPEED_HIGH:
 1989              		.loc 1 818 3 view .LVU677
 1990 0042 0223     		movs	r3, #2
 1991 0044 EEE7     		b	.L112
 1992              	.L115:
 830:lib/TinyUSB/src/portable/synopsys/dwc2/dcd_dwc2.c ****     break;
 1993              		.loc 1 830 13 view .LVU678
 1994 0046 0023     		movs	r3, #0
 1995 0048 ECE7     		b	.L112
 1996              	.L119:
ARM GAS  C:\Users\krisa\AppData\Local\Temp\ccNljk5K.s 			page 77


 1997 004a 00BF     		.align	2
 1998              	.L118:
 1999 004c 00000000 		.word	.LANCHOR0
 2000              		.cfi_endproc
 2001              	.LFE370:
 2003              		.section	.text.handle_incomplete_iso_in,"ax",%progbits
 2004              		.align	1
 2005              		.syntax unified
 2006              		.thumb
 2007              		.thumb_func
 2009              	handle_incomplete_iso_in:
 2010              	.LVL206:
 2011              	.LFB375:
 837:lib/TinyUSB/src/portable/synopsys/dwc2/dcd_dwc2.c **** 
 838:lib/TinyUSB/src/portable/synopsys/dwc2/dcd_dwc2.c **** #if 0
 839:lib/TinyUSB/src/portable/synopsys/dwc2/dcd_dwc2.c **** TU_ATTR_ALWAYS_INLINE static inline void print_doepint(uint32_t doepint) {
 840:lib/TinyUSB/src/portable/synopsys/dwc2/dcd_dwc2.c ****   const char* str[] = {
 841:lib/TinyUSB/src/portable/synopsys/dwc2/dcd_dwc2.c ****     "XFRC", "DIS", "AHBERR", "SETUP_DONE",
 842:lib/TinyUSB/src/portable/synopsys/dwc2/dcd_dwc2.c ****     "ORXED", "STATUS_RX", "SETUP_B2B", "RSV7",
 843:lib/TinyUSB/src/portable/synopsys/dwc2/dcd_dwc2.c ****     "OPERR", "BNA", "RSV10", "ISODROP",
 844:lib/TinyUSB/src/portable/synopsys/dwc2/dcd_dwc2.c ****     "BBLERR", "NAK", "NYET", "SETUP_RX"
 845:lib/TinyUSB/src/portable/synopsys/dwc2/dcd_dwc2.c ****   };
 846:lib/TinyUSB/src/portable/synopsys/dwc2/dcd_dwc2.c **** 
 847:lib/TinyUSB/src/portable/synopsys/dwc2/dcd_dwc2.c ****   for(uint32_t i=0; i<TU_ARRAY_SIZE(str); i++) {
 848:lib/TinyUSB/src/portable/synopsys/dwc2/dcd_dwc2.c ****     if (doepint & TU_BIT(i)) {
 849:lib/TinyUSB/src/portable/synopsys/dwc2/dcd_dwc2.c ****       TU_LOG1("%s ", str[i]);
 850:lib/TinyUSB/src/portable/synopsys/dwc2/dcd_dwc2.c ****     }
 851:lib/TinyUSB/src/portable/synopsys/dwc2/dcd_dwc2.c ****   }
 852:lib/TinyUSB/src/portable/synopsys/dwc2/dcd_dwc2.c ****   TU_LOG1("\r\n");
 853:lib/TinyUSB/src/portable/synopsys/dwc2/dcd_dwc2.c **** }
 854:lib/TinyUSB/src/portable/synopsys/dwc2/dcd_dwc2.c **** #endif
 855:lib/TinyUSB/src/portable/synopsys/dwc2/dcd_dwc2.c **** 
 856:lib/TinyUSB/src/portable/synopsys/dwc2/dcd_dwc2.c **** #if CFG_TUD_DWC2_SLAVE_ENABLE
 857:lib/TinyUSB/src/portable/synopsys/dwc2/dcd_dwc2.c **** // Process shared receive FIFO, this interrupt is only used in Slave mode
 858:lib/TinyUSB/src/portable/synopsys/dwc2/dcd_dwc2.c **** static void handle_rxflvl_irq(uint8_t rhport) {
 859:lib/TinyUSB/src/portable/synopsys/dwc2/dcd_dwc2.c ****   dwc2_regs_t* dwc2 = DWC2_REG(rhport);
 860:lib/TinyUSB/src/portable/synopsys/dwc2/dcd_dwc2.c ****   const volatile uint32_t* rx_fifo = dwc2->fifo[0];
 861:lib/TinyUSB/src/portable/synopsys/dwc2/dcd_dwc2.c **** 
 862:lib/TinyUSB/src/portable/synopsys/dwc2/dcd_dwc2.c ****   // Pop control word off FIFO
 863:lib/TinyUSB/src/portable/synopsys/dwc2/dcd_dwc2.c ****   const dwc2_grxstsp_t grxstsp = {.value = dwc2->grxstsp};
 864:lib/TinyUSB/src/portable/synopsys/dwc2/dcd_dwc2.c ****   const uint8_t epnum = grxstsp.ep_ch_num;
 865:lib/TinyUSB/src/portable/synopsys/dwc2/dcd_dwc2.c **** 
 866:lib/TinyUSB/src/portable/synopsys/dwc2/dcd_dwc2.c ****   dwc2_dep_t* epout = &dwc2->epout[epnum];
 867:lib/TinyUSB/src/portable/synopsys/dwc2/dcd_dwc2.c **** 
 868:lib/TinyUSB/src/portable/synopsys/dwc2/dcd_dwc2.c ****   switch (grxstsp.packet_status) {
 869:lib/TinyUSB/src/portable/synopsys/dwc2/dcd_dwc2.c ****     case GRXSTS_PKTSTS_GLOBAL_OUT_NAK:
 870:lib/TinyUSB/src/portable/synopsys/dwc2/dcd_dwc2.c ****       // Global OUT NAK: do nothing
 871:lib/TinyUSB/src/portable/synopsys/dwc2/dcd_dwc2.c ****       break;
 872:lib/TinyUSB/src/portable/synopsys/dwc2/dcd_dwc2.c **** 
 873:lib/TinyUSB/src/portable/synopsys/dwc2/dcd_dwc2.c ****     case GRXSTS_PKTSTS_SETUP_RX: {
 874:lib/TinyUSB/src/portable/synopsys/dwc2/dcd_dwc2.c ****       // Setup packet received
 875:lib/TinyUSB/src/portable/synopsys/dwc2/dcd_dwc2.c ****       uint32_t* setup = (uint32_t*)(uintptr_t) _dcd_usbbuf.setup_packet;
 876:lib/TinyUSB/src/portable/synopsys/dwc2/dcd_dwc2.c ****       // We can receive up to three setup packets in succession, but only the last one is valid.
 877:lib/TinyUSB/src/portable/synopsys/dwc2/dcd_dwc2.c ****       setup[0] = (*rx_fifo);
 878:lib/TinyUSB/src/portable/synopsys/dwc2/dcd_dwc2.c ****       setup[1] = (*rx_fifo);
 879:lib/TinyUSB/src/portable/synopsys/dwc2/dcd_dwc2.c ****       break;
 880:lib/TinyUSB/src/portable/synopsys/dwc2/dcd_dwc2.c ****     }
ARM GAS  C:\Users\krisa\AppData\Local\Temp\ccNljk5K.s 			page 78


 881:lib/TinyUSB/src/portable/synopsys/dwc2/dcd_dwc2.c **** 
 882:lib/TinyUSB/src/portable/synopsys/dwc2/dcd_dwc2.c ****     case GRXSTS_PKTSTS_SETUP_DONE:
 883:lib/TinyUSB/src/portable/synopsys/dwc2/dcd_dwc2.c ****       // Setup packet done:
 884:lib/TinyUSB/src/portable/synopsys/dwc2/dcd_dwc2.c ****       // After popping this out, dwc2 asserts a DOEPINT_SETUP interrupt which is handled by handle_
 885:lib/TinyUSB/src/portable/synopsys/dwc2/dcd_dwc2.c ****       epout->doeptsiz |= (3 << DOEPTSIZ_STUPCNT_Pos);
 886:lib/TinyUSB/src/portable/synopsys/dwc2/dcd_dwc2.c ****       break;
 887:lib/TinyUSB/src/portable/synopsys/dwc2/dcd_dwc2.c **** 
 888:lib/TinyUSB/src/portable/synopsys/dwc2/dcd_dwc2.c ****     case GRXSTS_PKTSTS_RX_DATA: {
 889:lib/TinyUSB/src/portable/synopsys/dwc2/dcd_dwc2.c ****       // Out packet received
 890:lib/TinyUSB/src/portable/synopsys/dwc2/dcd_dwc2.c ****       const uint16_t byte_count = grxstsp.byte_count;
 891:lib/TinyUSB/src/portable/synopsys/dwc2/dcd_dwc2.c ****       xfer_ctl_t* xfer = XFER_CTL_BASE(epnum, TUSB_DIR_OUT);
 892:lib/TinyUSB/src/portable/synopsys/dwc2/dcd_dwc2.c **** 
 893:lib/TinyUSB/src/portable/synopsys/dwc2/dcd_dwc2.c ****       if (byte_count != 0) {
 894:lib/TinyUSB/src/portable/synopsys/dwc2/dcd_dwc2.c ****         // Read packet off RxFIFO
 895:lib/TinyUSB/src/portable/synopsys/dwc2/dcd_dwc2.c ****         if (xfer->ff != NULL) {
 896:lib/TinyUSB/src/portable/synopsys/dwc2/dcd_dwc2.c ****           tu_fifo_write_n_access_mode(xfer->ff, (const void *)(uintptr_t)rx_fifo, byte_count, TU_FI
 897:lib/TinyUSB/src/portable/synopsys/dwc2/dcd_dwc2.c ****         } else {
 898:lib/TinyUSB/src/portable/synopsys/dwc2/dcd_dwc2.c ****           dfifo_read_packet(dwc2, xfer->buffer, byte_count);
 899:lib/TinyUSB/src/portable/synopsys/dwc2/dcd_dwc2.c ****           xfer->buffer += byte_count;
 900:lib/TinyUSB/src/portable/synopsys/dwc2/dcd_dwc2.c ****         }
 901:lib/TinyUSB/src/portable/synopsys/dwc2/dcd_dwc2.c ****       }
 902:lib/TinyUSB/src/portable/synopsys/dwc2/dcd_dwc2.c **** 
 903:lib/TinyUSB/src/portable/synopsys/dwc2/dcd_dwc2.c ****       // short packet (including ZLP when byte_count == 0), minus remaining bytes (xfer_size)
 904:lib/TinyUSB/src/portable/synopsys/dwc2/dcd_dwc2.c ****       if (byte_count < xfer->max_size) {
 905:lib/TinyUSB/src/portable/synopsys/dwc2/dcd_dwc2.c ****         const dwc2_ep_tsize_t tsiz = {.value = epout->tsiz};
 906:lib/TinyUSB/src/portable/synopsys/dwc2/dcd_dwc2.c ****         xfer->total_len -= tsiz.xfer_size;
 907:lib/TinyUSB/src/portable/synopsys/dwc2/dcd_dwc2.c ****         if (epnum == 0) {
 908:lib/TinyUSB/src/portable/synopsys/dwc2/dcd_dwc2.c ****           _dcd_data.ep0_pending[TUSB_DIR_OUT] = 0;
 909:lib/TinyUSB/src/portable/synopsys/dwc2/dcd_dwc2.c ****         }
 910:lib/TinyUSB/src/portable/synopsys/dwc2/dcd_dwc2.c ****       }
 911:lib/TinyUSB/src/portable/synopsys/dwc2/dcd_dwc2.c ****       break;
 912:lib/TinyUSB/src/portable/synopsys/dwc2/dcd_dwc2.c ****     }
 913:lib/TinyUSB/src/portable/synopsys/dwc2/dcd_dwc2.c **** 
 914:lib/TinyUSB/src/portable/synopsys/dwc2/dcd_dwc2.c ****     case GRXSTS_PKTSTS_RX_COMPLETE:
 915:lib/TinyUSB/src/portable/synopsys/dwc2/dcd_dwc2.c ****       // Out packet done
 916:lib/TinyUSB/src/portable/synopsys/dwc2/dcd_dwc2.c ****       // After this entry is popped from the receive FIFO, dwc2 asserts a Transfer Completed interr
 917:lib/TinyUSB/src/portable/synopsys/dwc2/dcd_dwc2.c ****       // the specified OUT endpoint which will be handled by handle_epout_irq()
 918:lib/TinyUSB/src/portable/synopsys/dwc2/dcd_dwc2.c ****       break;
 919:lib/TinyUSB/src/portable/synopsys/dwc2/dcd_dwc2.c **** 
 920:lib/TinyUSB/src/portable/synopsys/dwc2/dcd_dwc2.c ****     default: break; // nothing to do
 921:lib/TinyUSB/src/portable/synopsys/dwc2/dcd_dwc2.c ****   }
 922:lib/TinyUSB/src/portable/synopsys/dwc2/dcd_dwc2.c **** }
 923:lib/TinyUSB/src/portable/synopsys/dwc2/dcd_dwc2.c **** 
 924:lib/TinyUSB/src/portable/synopsys/dwc2/dcd_dwc2.c **** static void handle_epout_slave(uint8_t rhport, uint8_t epnum, dwc2_doepint_t doepint_bm) {
 925:lib/TinyUSB/src/portable/synopsys/dwc2/dcd_dwc2.c ****   if (doepint_bm.setup_phase_done) {
 926:lib/TinyUSB/src/portable/synopsys/dwc2/dcd_dwc2.c ****     // Cleanup previous pending EP0 IN transfer if any
 927:lib/TinyUSB/src/portable/synopsys/dwc2/dcd_dwc2.c ****     dwc2_dep_t* epin0 = &DWC2_REG(rhport)->epin[0];
 928:lib/TinyUSB/src/portable/synopsys/dwc2/dcd_dwc2.c ****     if (edpt_is_enabled(epin0)) {
 929:lib/TinyUSB/src/portable/synopsys/dwc2/dcd_dwc2.c ****       edpt_disable(rhport, 0x80, false);
 930:lib/TinyUSB/src/portable/synopsys/dwc2/dcd_dwc2.c ****     }
 931:lib/TinyUSB/src/portable/synopsys/dwc2/dcd_dwc2.c ****     dcd_event_setup_received(rhport, _dcd_usbbuf.setup_packet, true);
 932:lib/TinyUSB/src/portable/synopsys/dwc2/dcd_dwc2.c ****     return;
 933:lib/TinyUSB/src/portable/synopsys/dwc2/dcd_dwc2.c ****   }
 934:lib/TinyUSB/src/portable/synopsys/dwc2/dcd_dwc2.c **** 
 935:lib/TinyUSB/src/portable/synopsys/dwc2/dcd_dwc2.c ****   // Normal OUT transfer complete
 936:lib/TinyUSB/src/portable/synopsys/dwc2/dcd_dwc2.c ****   if (doepint_bm.xfer_complete) {
 937:lib/TinyUSB/src/portable/synopsys/dwc2/dcd_dwc2.c ****     // only handle data skip if it is setup or status related
ARM GAS  C:\Users\krisa\AppData\Local\Temp\ccNljk5K.s 			page 79


 938:lib/TinyUSB/src/portable/synopsys/dwc2/dcd_dwc2.c ****     // Note: even though (xfer_complete + status_phase_rx) is for buffered DMA only, for STM32L47x 
 939:lib/TinyUSB/src/portable/synopsys/dwc2/dcd_dwc2.c ****     // can is set when GRXSTS_PKTSTS_SETUP_RX is popped therefore they can bet set before/together 
 940:lib/TinyUSB/src/portable/synopsys/dwc2/dcd_dwc2.c ****     if (!doepint_bm.status_phase_rx && !doepint_bm.setup_packet_rx) {
 941:lib/TinyUSB/src/portable/synopsys/dwc2/dcd_dwc2.c ****       xfer_ctl_t* xfer = XFER_CTL_BASE(epnum, TUSB_DIR_OUT);
 942:lib/TinyUSB/src/portable/synopsys/dwc2/dcd_dwc2.c ****       if ((epnum == 0) && _dcd_data.ep0_pending[TUSB_DIR_OUT]) {
 943:lib/TinyUSB/src/portable/synopsys/dwc2/dcd_dwc2.c ****         // EP0 can only handle one packet, Schedule another packet to be received.
 944:lib/TinyUSB/src/portable/synopsys/dwc2/dcd_dwc2.c ****         edpt_schedule_packets(rhport, epnum, TUSB_DIR_OUT);
 945:lib/TinyUSB/src/portable/synopsys/dwc2/dcd_dwc2.c ****       } else {
 946:lib/TinyUSB/src/portable/synopsys/dwc2/dcd_dwc2.c ****         dcd_event_xfer_complete(rhport, epnum, xfer->total_len, XFER_RESULT_SUCCESS, true);
 947:lib/TinyUSB/src/portable/synopsys/dwc2/dcd_dwc2.c ****       }
 948:lib/TinyUSB/src/portable/synopsys/dwc2/dcd_dwc2.c ****     }
 949:lib/TinyUSB/src/portable/synopsys/dwc2/dcd_dwc2.c ****   }
 950:lib/TinyUSB/src/portable/synopsys/dwc2/dcd_dwc2.c **** }
 951:lib/TinyUSB/src/portable/synopsys/dwc2/dcd_dwc2.c **** 
 952:lib/TinyUSB/src/portable/synopsys/dwc2/dcd_dwc2.c **** static void handle_epin_slave(uint8_t rhport, uint8_t epnum, dwc2_diepint_t diepint_bm) {
 953:lib/TinyUSB/src/portable/synopsys/dwc2/dcd_dwc2.c ****   dwc2_regs_t* dwc2 = DWC2_REG(rhport);
 954:lib/TinyUSB/src/portable/synopsys/dwc2/dcd_dwc2.c ****   dwc2_dep_t* epin = &dwc2->epin[epnum];
 955:lib/TinyUSB/src/portable/synopsys/dwc2/dcd_dwc2.c ****   xfer_ctl_t* xfer = XFER_CTL_BASE(epnum, TUSB_DIR_IN);
 956:lib/TinyUSB/src/portable/synopsys/dwc2/dcd_dwc2.c **** 
 957:lib/TinyUSB/src/portable/synopsys/dwc2/dcd_dwc2.c ****   if (diepint_bm.xfer_complete) {
 958:lib/TinyUSB/src/portable/synopsys/dwc2/dcd_dwc2.c ****     if ((epnum == 0) && (0 != _dcd_data.ep0_pending[TUSB_DIR_IN])) {
 959:lib/TinyUSB/src/portable/synopsys/dwc2/dcd_dwc2.c ****       // EP0 can only handle one packet. Schedule another packet to be transmitted.
 960:lib/TinyUSB/src/portable/synopsys/dwc2/dcd_dwc2.c ****       edpt_schedule_packets(rhport, epnum, TUSB_DIR_IN);
 961:lib/TinyUSB/src/portable/synopsys/dwc2/dcd_dwc2.c ****     } else {
 962:lib/TinyUSB/src/portable/synopsys/dwc2/dcd_dwc2.c ****       dcd_event_xfer_complete(rhport, epnum | TUSB_DIR_IN_MASK, xfer->total_len, XFER_RESULT_SUCCES
 963:lib/TinyUSB/src/portable/synopsys/dwc2/dcd_dwc2.c ****     }
 964:lib/TinyUSB/src/portable/synopsys/dwc2/dcd_dwc2.c ****   }
 965:lib/TinyUSB/src/portable/synopsys/dwc2/dcd_dwc2.c **** 
 966:lib/TinyUSB/src/portable/synopsys/dwc2/dcd_dwc2.c ****   // TX FIFO empty bit is read-only. It will only be cleared by hardware when written bytes is more
 967:lib/TinyUSB/src/portable/synopsys/dwc2/dcd_dwc2.c ****   // - 64 bytes or
 968:lib/TinyUSB/src/portable/synopsys/dwc2/dcd_dwc2.c ****   // - Half/Empty of TX FIFO size (configured by GAHBCFG.TXFELVL)
 969:lib/TinyUSB/src/portable/synopsys/dwc2/dcd_dwc2.c ****   if (diepint_bm.txfifo_empty && tu_bit_test(dwc2->diepempmsk, epnum)) {
 970:lib/TinyUSB/src/portable/synopsys/dwc2/dcd_dwc2.c ****     epin_write_tx_fifo(rhport, epnum);
 971:lib/TinyUSB/src/portable/synopsys/dwc2/dcd_dwc2.c **** 
 972:lib/TinyUSB/src/portable/synopsys/dwc2/dcd_dwc2.c ****     // Turn off TXFE if all bytes are written.
 973:lib/TinyUSB/src/portable/synopsys/dwc2/dcd_dwc2.c ****     dwc2_ep_tsize_t tsiz = {.value = epin->tsiz};
 974:lib/TinyUSB/src/portable/synopsys/dwc2/dcd_dwc2.c ****     if (tsiz.xfer_size == 0) {
 975:lib/TinyUSB/src/portable/synopsys/dwc2/dcd_dwc2.c ****       dwc2->diepempmsk &= ~(1u << epnum);
 976:lib/TinyUSB/src/portable/synopsys/dwc2/dcd_dwc2.c ****     }
 977:lib/TinyUSB/src/portable/synopsys/dwc2/dcd_dwc2.c ****   }
 978:lib/TinyUSB/src/portable/synopsys/dwc2/dcd_dwc2.c **** }
 979:lib/TinyUSB/src/portable/synopsys/dwc2/dcd_dwc2.c **** #endif
 980:lib/TinyUSB/src/portable/synopsys/dwc2/dcd_dwc2.c **** 
 981:lib/TinyUSB/src/portable/synopsys/dwc2/dcd_dwc2.c **** #if CFG_TUD_DWC2_DMA_ENABLE
 982:lib/TinyUSB/src/portable/synopsys/dwc2/dcd_dwc2.c **** static void handle_epout_dma(uint8_t rhport, uint8_t epnum, dwc2_doepint_t doepint_bm) {
 983:lib/TinyUSB/src/portable/synopsys/dwc2/dcd_dwc2.c ****   dwc2_regs_t* dwc2 = DWC2_REG(rhport);
 984:lib/TinyUSB/src/portable/synopsys/dwc2/dcd_dwc2.c **** 
 985:lib/TinyUSB/src/portable/synopsys/dwc2/dcd_dwc2.c ****   if (doepint_bm.setup_phase_done) {
 986:lib/TinyUSB/src/portable/synopsys/dwc2/dcd_dwc2.c ****     // Cleanup previous pending EP0 IN transfer if any
 987:lib/TinyUSB/src/portable/synopsys/dwc2/dcd_dwc2.c ****     dwc2_dep_t* epin0 = &DWC2_REG(rhport)->epin[0];
 988:lib/TinyUSB/src/portable/synopsys/dwc2/dcd_dwc2.c ****     if (edpt_is_enabled(epin0)) {
 989:lib/TinyUSB/src/portable/synopsys/dwc2/dcd_dwc2.c ****       edpt_disable(rhport, 0x80, false);
 990:lib/TinyUSB/src/portable/synopsys/dwc2/dcd_dwc2.c ****     }
 991:lib/TinyUSB/src/portable/synopsys/dwc2/dcd_dwc2.c ****     dma_setup_prepare(rhport);
 992:lib/TinyUSB/src/portable/synopsys/dwc2/dcd_dwc2.c ****     dcd_dcache_invalidate(_dcd_usbbuf.setup_packet, 8);
 993:lib/TinyUSB/src/portable/synopsys/dwc2/dcd_dwc2.c ****     dcd_event_setup_received(rhport, _dcd_usbbuf.setup_packet, true);
 994:lib/TinyUSB/src/portable/synopsys/dwc2/dcd_dwc2.c ****     return;
ARM GAS  C:\Users\krisa\AppData\Local\Temp\ccNljk5K.s 			page 80


 995:lib/TinyUSB/src/portable/synopsys/dwc2/dcd_dwc2.c ****   }
 996:lib/TinyUSB/src/portable/synopsys/dwc2/dcd_dwc2.c **** 
 997:lib/TinyUSB/src/portable/synopsys/dwc2/dcd_dwc2.c ****   // OUT XFER complete
 998:lib/TinyUSB/src/portable/synopsys/dwc2/dcd_dwc2.c ****   if (doepint_bm.xfer_complete) {
 999:lib/TinyUSB/src/portable/synopsys/dwc2/dcd_dwc2.c ****     // only handle data skip if it is setup or status related
1000:lib/TinyUSB/src/portable/synopsys/dwc2/dcd_dwc2.c ****     // Normal OUT transfer complete
1001:lib/TinyUSB/src/portable/synopsys/dwc2/dcd_dwc2.c ****     if (!doepint_bm.status_phase_rx && !doepint_bm.setup_packet_rx) {
1002:lib/TinyUSB/src/portable/synopsys/dwc2/dcd_dwc2.c ****       if ((epnum == 0) && _dcd_data.ep0_pending[TUSB_DIR_OUT]) {
1003:lib/TinyUSB/src/portable/synopsys/dwc2/dcd_dwc2.c ****         // EP0 can only handle one packet Schedule another packet to be received.
1004:lib/TinyUSB/src/portable/synopsys/dwc2/dcd_dwc2.c ****         edpt_schedule_packets(rhport, epnum, TUSB_DIR_OUT);
1005:lib/TinyUSB/src/portable/synopsys/dwc2/dcd_dwc2.c ****       } else {
1006:lib/TinyUSB/src/portable/synopsys/dwc2/dcd_dwc2.c ****         dwc2_dep_t* epout = &dwc2->epout[epnum];
1007:lib/TinyUSB/src/portable/synopsys/dwc2/dcd_dwc2.c ****         xfer_ctl_t* xfer = XFER_CTL_BASE(epnum, TUSB_DIR_OUT);
1008:lib/TinyUSB/src/portable/synopsys/dwc2/dcd_dwc2.c **** 
1009:lib/TinyUSB/src/portable/synopsys/dwc2/dcd_dwc2.c ****         // determine actual received bytes
1010:lib/TinyUSB/src/portable/synopsys/dwc2/dcd_dwc2.c ****         const dwc2_ep_tsize_t tsiz = {.value = epout->tsiz};
1011:lib/TinyUSB/src/portable/synopsys/dwc2/dcd_dwc2.c ****         const uint16_t remain = tsiz.xfer_size;
1012:lib/TinyUSB/src/portable/synopsys/dwc2/dcd_dwc2.c ****         xfer->total_len -= remain;
1013:lib/TinyUSB/src/portable/synopsys/dwc2/dcd_dwc2.c **** 
1014:lib/TinyUSB/src/portable/synopsys/dwc2/dcd_dwc2.c ****         // this is ZLP, so prepare EP0 for next setup
1015:lib/TinyUSB/src/portable/synopsys/dwc2/dcd_dwc2.c ****         // TODO use status phase rx
1016:lib/TinyUSB/src/portable/synopsys/dwc2/dcd_dwc2.c ****         if(epnum == 0 && xfer->total_len == 0) {
1017:lib/TinyUSB/src/portable/synopsys/dwc2/dcd_dwc2.c ****           dma_setup_prepare(rhport);
1018:lib/TinyUSB/src/portable/synopsys/dwc2/dcd_dwc2.c ****         }
1019:lib/TinyUSB/src/portable/synopsys/dwc2/dcd_dwc2.c **** 
1020:lib/TinyUSB/src/portable/synopsys/dwc2/dcd_dwc2.c ****         dcd_dcache_invalidate(xfer->buffer, xfer->total_len);
1021:lib/TinyUSB/src/portable/synopsys/dwc2/dcd_dwc2.c ****         dcd_event_xfer_complete(rhport, epnum, xfer->total_len, XFER_RESULT_SUCCESS, true);
1022:lib/TinyUSB/src/portable/synopsys/dwc2/dcd_dwc2.c ****       }
1023:lib/TinyUSB/src/portable/synopsys/dwc2/dcd_dwc2.c ****     }
1024:lib/TinyUSB/src/portable/synopsys/dwc2/dcd_dwc2.c ****   }
1025:lib/TinyUSB/src/portable/synopsys/dwc2/dcd_dwc2.c **** }
1026:lib/TinyUSB/src/portable/synopsys/dwc2/dcd_dwc2.c **** 
1027:lib/TinyUSB/src/portable/synopsys/dwc2/dcd_dwc2.c **** static void handle_epin_dma(uint8_t rhport, uint8_t epnum, dwc2_diepint_t diepint_bm) {
1028:lib/TinyUSB/src/portable/synopsys/dwc2/dcd_dwc2.c ****   xfer_ctl_t* xfer = XFER_CTL_BASE(epnum, TUSB_DIR_IN);
1029:lib/TinyUSB/src/portable/synopsys/dwc2/dcd_dwc2.c **** 
1030:lib/TinyUSB/src/portable/synopsys/dwc2/dcd_dwc2.c ****   if (diepint_bm.xfer_complete) {
1031:lib/TinyUSB/src/portable/synopsys/dwc2/dcd_dwc2.c ****     if ((epnum == 0) && _dcd_data.ep0_pending[TUSB_DIR_IN]) {
1032:lib/TinyUSB/src/portable/synopsys/dwc2/dcd_dwc2.c ****       // EP0 can only handle one packet. Schedule another packet to be transmitted.
1033:lib/TinyUSB/src/portable/synopsys/dwc2/dcd_dwc2.c ****       edpt_schedule_packets(rhport, epnum, TUSB_DIR_IN);
1034:lib/TinyUSB/src/portable/synopsys/dwc2/dcd_dwc2.c ****     } else {
1035:lib/TinyUSB/src/portable/synopsys/dwc2/dcd_dwc2.c ****       if(epnum == 0) {
1036:lib/TinyUSB/src/portable/synopsys/dwc2/dcd_dwc2.c ****         dma_setup_prepare(rhport);
1037:lib/TinyUSB/src/portable/synopsys/dwc2/dcd_dwc2.c ****       }
1038:lib/TinyUSB/src/portable/synopsys/dwc2/dcd_dwc2.c ****       dcd_event_xfer_complete(rhport, epnum | TUSB_DIR_IN_MASK, xfer->total_len, XFER_RESULT_SUCCES
1039:lib/TinyUSB/src/portable/synopsys/dwc2/dcd_dwc2.c ****     }
1040:lib/TinyUSB/src/portable/synopsys/dwc2/dcd_dwc2.c ****   }
1041:lib/TinyUSB/src/portable/synopsys/dwc2/dcd_dwc2.c **** }
1042:lib/TinyUSB/src/portable/synopsys/dwc2/dcd_dwc2.c **** #endif
1043:lib/TinyUSB/src/portable/synopsys/dwc2/dcd_dwc2.c **** 
1044:lib/TinyUSB/src/portable/synopsys/dwc2/dcd_dwc2.c **** static void handle_ep_irq(uint8_t rhport, uint8_t dir) {
1045:lib/TinyUSB/src/portable/synopsys/dwc2/dcd_dwc2.c ****   dwc2_regs_t* dwc2 = DWC2_REG(rhport);
1046:lib/TinyUSB/src/portable/synopsys/dwc2/dcd_dwc2.c ****   const bool is_dma = dma_device_enabled(dwc2);
1047:lib/TinyUSB/src/portable/synopsys/dwc2/dcd_dwc2.c ****   const uint8_t ep_count = dwc2_ep_count(dwc2);
1048:lib/TinyUSB/src/portable/synopsys/dwc2/dcd_dwc2.c ****   const uint8_t daint_offset = (dir == TUSB_DIR_IN) ? DAINT_IEPINT_Pos : DAINT_OEPINT_Pos;
1049:lib/TinyUSB/src/portable/synopsys/dwc2/dcd_dwc2.c ****   dwc2_dep_t* ep_base = &dwc2->ep[dir == TUSB_DIR_IN ? 0 : 1][0];
1050:lib/TinyUSB/src/portable/synopsys/dwc2/dcd_dwc2.c **** 
1051:lib/TinyUSB/src/portable/synopsys/dwc2/dcd_dwc2.c ****   // DAINT for a given EP clears when DEPINTx is cleared.
ARM GAS  C:\Users\krisa\AppData\Local\Temp\ccNljk5K.s 			page 81


1052:lib/TinyUSB/src/portable/synopsys/dwc2/dcd_dwc2.c ****   // EPINT will be cleared when DAINT bits are cleared.
1053:lib/TinyUSB/src/portable/synopsys/dwc2/dcd_dwc2.c ****   for (uint8_t epnum = 0; epnum < ep_count; epnum++) {
1054:lib/TinyUSB/src/portable/synopsys/dwc2/dcd_dwc2.c ****     if (tu_bit_test(dwc2->daint,daint_offset + epnum)) {
1055:lib/TinyUSB/src/portable/synopsys/dwc2/dcd_dwc2.c ****       dwc2_dep_t* epout = &ep_base[epnum];
1056:lib/TinyUSB/src/portable/synopsys/dwc2/dcd_dwc2.c ****       union {
1057:lib/TinyUSB/src/portable/synopsys/dwc2/dcd_dwc2.c ****         uint32_t value;
1058:lib/TinyUSB/src/portable/synopsys/dwc2/dcd_dwc2.c ****         dwc2_diepint_t diepint_bm;
1059:lib/TinyUSB/src/portable/synopsys/dwc2/dcd_dwc2.c ****         dwc2_doepint_t doepint_bm;
1060:lib/TinyUSB/src/portable/synopsys/dwc2/dcd_dwc2.c ****       } intr;
1061:lib/TinyUSB/src/portable/synopsys/dwc2/dcd_dwc2.c ****       intr.value = epout->intr;
1062:lib/TinyUSB/src/portable/synopsys/dwc2/dcd_dwc2.c **** 
1063:lib/TinyUSB/src/portable/synopsys/dwc2/dcd_dwc2.c ****       epout->intr = intr.value; // Clear interrupt //-V::2584::{otg_int}
1064:lib/TinyUSB/src/portable/synopsys/dwc2/dcd_dwc2.c **** 
1065:lib/TinyUSB/src/portable/synopsys/dwc2/dcd_dwc2.c ****       if (is_dma) {
1066:lib/TinyUSB/src/portable/synopsys/dwc2/dcd_dwc2.c ****         #if CFG_TUD_DWC2_DMA_ENABLE
1067:lib/TinyUSB/src/portable/synopsys/dwc2/dcd_dwc2.c ****         if (dir == TUSB_DIR_IN) {
1068:lib/TinyUSB/src/portable/synopsys/dwc2/dcd_dwc2.c ****           handle_epin_dma(rhport, epnum, intr.diepint_bm);
1069:lib/TinyUSB/src/portable/synopsys/dwc2/dcd_dwc2.c ****         } else {
1070:lib/TinyUSB/src/portable/synopsys/dwc2/dcd_dwc2.c ****           handle_epout_dma(rhport, epnum, intr.doepint_bm);
1071:lib/TinyUSB/src/portable/synopsys/dwc2/dcd_dwc2.c ****         }
1072:lib/TinyUSB/src/portable/synopsys/dwc2/dcd_dwc2.c ****         #endif
1073:lib/TinyUSB/src/portable/synopsys/dwc2/dcd_dwc2.c ****       } else {
1074:lib/TinyUSB/src/portable/synopsys/dwc2/dcd_dwc2.c ****         #if CFG_TUD_DWC2_SLAVE_ENABLE
1075:lib/TinyUSB/src/portable/synopsys/dwc2/dcd_dwc2.c ****         if (dir == TUSB_DIR_IN) {
1076:lib/TinyUSB/src/portable/synopsys/dwc2/dcd_dwc2.c ****           handle_epin_slave(rhport, epnum, intr.diepint_bm);
1077:lib/TinyUSB/src/portable/synopsys/dwc2/dcd_dwc2.c ****         } else {
1078:lib/TinyUSB/src/portable/synopsys/dwc2/dcd_dwc2.c ****           handle_epout_slave(rhport, epnum, intr.doepint_bm);
1079:lib/TinyUSB/src/portable/synopsys/dwc2/dcd_dwc2.c ****         }
1080:lib/TinyUSB/src/portable/synopsys/dwc2/dcd_dwc2.c ****         #endif
1081:lib/TinyUSB/src/portable/synopsys/dwc2/dcd_dwc2.c ****       }
1082:lib/TinyUSB/src/portable/synopsys/dwc2/dcd_dwc2.c ****     }
1083:lib/TinyUSB/src/portable/synopsys/dwc2/dcd_dwc2.c ****   }
1084:lib/TinyUSB/src/portable/synopsys/dwc2/dcd_dwc2.c **** }
1085:lib/TinyUSB/src/portable/synopsys/dwc2/dcd_dwc2.c **** 
1086:lib/TinyUSB/src/portable/synopsys/dwc2/dcd_dwc2.c **** static void handle_incomplete_iso_in(uint8_t rhport) {
 2012              		.loc 1 1086 54 is_stmt 1 view -0
 2013              		.cfi_startproc
 2014              		@ args = 0, pretend = 0, frame = 16
 2015              		@ frame_needed = 0, uses_anonymous_args = 0
 2016              		.loc 1 1086 54 is_stmt 0 view .LVU680
 2017 0000 2DE9F043 		push	{r4, r5, r6, r7, r8, r9, lr}
 2018              	.LCFI15:
 2019              		.cfi_def_cfa_offset 28
 2020              		.cfi_offset 4, -28
 2021              		.cfi_offset 5, -24
 2022              		.cfi_offset 6, -20
 2023              		.cfi_offset 7, -16
 2024              		.cfi_offset 8, -12
 2025              		.cfi_offset 9, -8
 2026              		.cfi_offset 14, -4
 2027 0004 85B0     		sub	sp, sp, #20
 2028              	.LCFI16:
 2029              		.cfi_def_cfa_offset 48
 2030 0006 8046     		mov	r8, r0
1087:lib/TinyUSB/src/portable/synopsys/dwc2/dcd_dwc2.c ****   dwc2_regs_t      *dwc2    = DWC2_REG(rhport);
 2031              		.loc 1 1087 3 is_stmt 1 view .LVU681
 2032              	.LVL207:
ARM GAS  C:\Users\krisa\AppData\Local\Temp\ccNljk5K.s 			page 82


 2033              	.LBB293:
 2034              	.LBI293:
  79:lib/TinyUSB/src/portable/synopsys/dwc2/dwc2_common.h ****   if (rhport >= DWC2_CONTROLLER_COUNT) {
 2035              		.loc 2 79 50 view .LVU682
 2036              	.LBB294:
  80:lib/TinyUSB/src/portable/synopsys/dwc2/dwc2_common.h ****     // user mis-configured, ignore and use first controller
 2037              		.loc 2 80 3 view .LVU683
  80:lib/TinyUSB/src/portable/synopsys/dwc2/dwc2_common.h ****     // user mis-configured, ignore and use first controller
 2038              		.loc 2 80 6 is_stmt 0 view .LVU684
 2039 0008 0128     		cmp	r0, #1
 2040 000a 0DD9     		bls	.L130
  82:lib/TinyUSB/src/portable/synopsys/dwc2/dwc2_common.h ****   }
 2041              		.loc 2 82 12 view .LVU685
 2042 000c 0023     		movs	r3, #0
 2043              	.L121:
 2044              	.LVL208:
  84:lib/TinyUSB/src/portable/synopsys/dwc2/dwc2_common.h **** }
 2045              		.loc 2 84 3 is_stmt 1 view .LVU686
  84:lib/TinyUSB/src/portable/synopsys/dwc2/dwc2_common.h **** }
 2046              		.loc 2 84 48 is_stmt 0 view .LVU687
 2047 000e 1B01     		lsls	r3, r3, #4
 2048              	.LVL209:
  84:lib/TinyUSB/src/portable/synopsys/dwc2/dwc2_common.h **** }
 2049              		.loc 2 84 48 view .LVU688
 2050 0010 314A     		ldr	r2, .L132
 2051 0012 D658     		ldr	r6, [r2, r3]
 2052              	.LVL210:
  84:lib/TinyUSB/src/portable/synopsys/dwc2/dwc2_common.h **** }
 2053              		.loc 2 84 48 view .LVU689
 2054              	.LBE294:
 2055              	.LBE293:
1088:lib/TinyUSB/src/portable/synopsys/dwc2/dcd_dwc2.c ****   const dwc2_dsts_t dsts    = {.value = dwc2->dsts};
 2056              		.loc 1 1088 3 is_stmt 1 view .LVU690
 2057              		.loc 1 1088 45 is_stmt 0 view .LVU691
 2058 0014 D6F80878 		ldr	r7, [r6, #2056]
1089:lib/TinyUSB/src/portable/synopsys/dwc2/dcd_dwc2.c ****   const uint32_t    odd_now = dsts.frame_number & 1u;
 2059              		.loc 1 1089 3 is_stmt 1 view .LVU692
 2060              		.loc 1 1089 21 is_stmt 0 view .LVU693
 2061 0018 C7F30027 		ubfx	r7, r7, #8, #1
 2062              	.LVL211:
1090:lib/TinyUSB/src/portable/synopsys/dwc2/dcd_dwc2.c **** 
1091:lib/TinyUSB/src/portable/synopsys/dwc2/dcd_dwc2.c ****   // Loop over all IN endpoints
1092:lib/TinyUSB/src/portable/synopsys/dwc2/dcd_dwc2.c ****   const uint8_t ep_count = dwc2_ep_count(dwc2);
 2063              		.loc 1 1092 3 is_stmt 1 view .LVU694
 2064              	.LBB296:
 2065              	.LBI296:
  84:lib/TinyUSB/src/portable/synopsys/dwc2/dcd_dwc2.c ****   #if TU_CHECK_MCU(OPT_MCU_GD32VF103)
 2066              		.loc 1 84 45 view .LVU695
 2067              	.LBB297:
  89:lib/TinyUSB/src/portable/synopsys/dwc2/dcd_dwc2.c ****   return ghwcfg2.num_dev_ep + 1;
 2068              		.loc 1 89 3 view .LVU696
  89:lib/TinyUSB/src/portable/synopsys/dwc2/dcd_dwc2.c ****   return ghwcfg2.num_dev_ep + 1;
 2069              		.loc 1 89 48 is_stmt 0 view .LVU697
 2070 001c B56C     		ldr	r5, [r6, #72]
  90:lib/TinyUSB/src/portable/synopsys/dwc2/dcd_dwc2.c ****   #endif
 2071              		.loc 1 90 3 is_stmt 1 view .LVU698
  90:lib/TinyUSB/src/portable/synopsys/dwc2/dcd_dwc2.c ****   #endif
ARM GAS  C:\Users\krisa\AppData\Local\Temp\ccNljk5K.s 			page 83


 2072              		.loc 1 90 17 is_stmt 0 view .LVU699
 2073 001e C5F38325 		ubfx	r5, r5, #10, #4
  90:lib/TinyUSB/src/portable/synopsys/dwc2/dcd_dwc2.c ****   #endif
 2074              		.loc 1 90 29 view .LVU700
 2075 0022 0135     		adds	r5, r5, #1
 2076              	.LVL212:
  90:lib/TinyUSB/src/portable/synopsys/dwc2/dcd_dwc2.c ****   #endif
 2077              		.loc 1 90 29 view .LVU701
 2078              	.LBE297:
 2079              	.LBE296:
1093:lib/TinyUSB/src/portable/synopsys/dwc2/dcd_dwc2.c ****   for (uint8_t epnum = 0; epnum < ep_count; epnum++) {
 2080              		.loc 1 1093 3 is_stmt 1 view .LVU702
 2081              	.LBB298:
 2082              		.loc 1 1093 8 view .LVU703
 2083              		.loc 1 1093 16 is_stmt 0 view .LVU704
 2084 0024 0024     		movs	r4, #0
 2085              		.loc 1 1093 3 view .LVU705
 2086 0026 08E0     		b	.L122
 2087              	.LVL213:
 2088              	.L130:
 2089              		.loc 1 1093 3 view .LVU706
 2090              	.LBE298:
 2091              	.LBB309:
 2092              	.LBB295:
  80:lib/TinyUSB/src/portable/synopsys/dwc2/dwc2_common.h ****     // user mis-configured, ignore and use first controller
 2093              		.loc 2 80 6 view .LVU707
 2094 0028 0346     		mov	r3, r0
 2095 002a F0E7     		b	.L121
 2096              	.LVL214:
 2097              	.L125:
  80:lib/TinyUSB/src/portable/synopsys/dwc2/dwc2_common.h ****     // user mis-configured, ignore and use first controller
 2098              		.loc 2 80 6 view .LVU708
 2099              	.LBE295:
 2100              	.LBE309:
 2101              	.LBB310:
 2102              	.LBB299:
 2103              	.LBB300:
 2104              	.LBB301:
1094:lib/TinyUSB/src/portable/synopsys/dwc2/dcd_dwc2.c ****     dwc2_dep_t   *epin   = &dwc2->epin[epnum];
1095:lib/TinyUSB/src/portable/synopsys/dwc2/dcd_dwc2.c ****     dwc2_depctl_t depctl = {.value = epin->diepctl};
1096:lib/TinyUSB/src/portable/synopsys/dwc2/dcd_dwc2.c ****     // Read DSTS and DIEPCTLn for all isochronous endpoints. If the current EP is enabled and the r
1097:lib/TinyUSB/src/portable/synopsys/dwc2/dcd_dwc2.c ****     // DSTS.SOFFN is the targeted uframe number for this EP, then this EP has an incomplete transfe
1098:lib/TinyUSB/src/portable/synopsys/dwc2/dcd_dwc2.c ****     if (depctl.enable && depctl.type == DEPCTL_EPTYPE_ISOCHRONOUS && depctl.dpid_iso_odd == odd_now
1099:lib/TinyUSB/src/portable/synopsys/dwc2/dcd_dwc2.c ****       xfer_ctl_t *xfer = XFER_CTL_BASE(epnum, TUSB_DIR_IN);
1100:lib/TinyUSB/src/portable/synopsys/dwc2/dcd_dwc2.c ****       if (xfer->iso_retry > 0) {
1101:lib/TinyUSB/src/portable/synopsys/dwc2/dcd_dwc2.c ****         xfer->iso_retry--;
1102:lib/TinyUSB/src/portable/synopsys/dwc2/dcd_dwc2.c ****         // Restart ISO transfe: re-write TSIZ and CTL
1103:lib/TinyUSB/src/portable/synopsys/dwc2/dcd_dwc2.c ****         dwc2_ep_tsize_t deptsiz = {.value = 0};
1104:lib/TinyUSB/src/portable/synopsys/dwc2/dcd_dwc2.c ****         deptsiz.xfer_size       = xfer->total_len;
1105:lib/TinyUSB/src/portable/synopsys/dwc2/dcd_dwc2.c ****         deptsiz.packet_count    = tu_div_ceil(xfer->total_len, xfer->max_size);
1106:lib/TinyUSB/src/portable/synopsys/dwc2/dcd_dwc2.c ****         epin->tsiz              = deptsiz.value;
1107:lib/TinyUSB/src/portable/synopsys/dwc2/dcd_dwc2.c **** 
1108:lib/TinyUSB/src/portable/synopsys/dwc2/dcd_dwc2.c ****         if (odd_now) {
1109:lib/TinyUSB/src/portable/synopsys/dwc2/dcd_dwc2.c ****           depctl.set_data0_iso_even = 1;
1110:lib/TinyUSB/src/portable/synopsys/dwc2/dcd_dwc2.c ****         } else {
1111:lib/TinyUSB/src/portable/synopsys/dwc2/dcd_dwc2.c ****           depctl.set_data1_iso_odd = 1;
 2105              		.loc 1 1111 11 is_stmt 1 view .LVU709
ARM GAS  C:\Users\krisa\AppData\Local\Temp\ccNljk5K.s 			page 84


 2106              		.loc 1 1111 36 is_stmt 0 view .LVU710
 2107 002c 42F00052 		orr	r2, r2, #536870912
 2108              	.LVL215:
 2109              	.L126:
1112:lib/TinyUSB/src/portable/synopsys/dwc2/dcd_dwc2.c ****         }
1113:lib/TinyUSB/src/portable/synopsys/dwc2/dcd_dwc2.c ****         epin->diepctl = depctl.value;
 2110              		.loc 1 1113 9 is_stmt 1 view .LVU711
 2111              		.loc 1 1113 23 is_stmt 0 view .LVU712
 2112 0030 4830     		adds	r0, r0, #72
 2113              	.LVL216:
 2114              		.loc 1 1113 23 view .LVU713
 2115 0032 4001     		lsls	r0, r0, #5
 2116              	.LVL217:
 2117              		.loc 1 1113 23 view .LVU714
 2118 0034 3250     		str	r2, [r6, r0]
 2119              	.LVL218:
 2120              	.L123:
 2121              		.loc 1 1113 23 view .LVU715
 2122              	.LBE301:
 2123              	.LBE300:
 2124              	.LBE299:
1093:lib/TinyUSB/src/portable/synopsys/dwc2/dcd_dwc2.c ****     dwc2_dep_t   *epin   = &dwc2->epin[epnum];
 2125              		.loc 1 1093 45 is_stmt 1 discriminator 1 view .LVU716
1093:lib/TinyUSB/src/portable/synopsys/dwc2/dcd_dwc2.c ****     dwc2_dep_t   *epin   = &dwc2->epin[epnum];
 2126              		.loc 1 1093 50 is_stmt 0 discriminator 1 view .LVU717
 2127 0036 0134     		adds	r4, r4, #1
 2128              	.LVL219:
1093:lib/TinyUSB/src/portable/synopsys/dwc2/dcd_dwc2.c ****     dwc2_dep_t   *epin   = &dwc2->epin[epnum];
 2129              		.loc 1 1093 50 discriminator 1 view .LVU718
 2130 0038 E4B2     		uxtb	r4, r4
 2131              	.LVL220:
 2132              	.L122:
1093:lib/TinyUSB/src/portable/synopsys/dwc2/dcd_dwc2.c ****     dwc2_dep_t   *epin   = &dwc2->epin[epnum];
 2133              		.loc 1 1093 27 is_stmt 1 discriminator 2 view .LVU719
1093:lib/TinyUSB/src/portable/synopsys/dwc2/dcd_dwc2.c ****     dwc2_dep_t   *epin   = &dwc2->epin[epnum];
 2134              		.loc 1 1093 3 is_stmt 0 discriminator 2 view .LVU720
 2135 003a AC42     		cmp	r4, r5
 2136 003c 49D2     		bcs	.L131
 2137              	.LBB308:
1094:lib/TinyUSB/src/portable/synopsys/dwc2/dcd_dwc2.c ****     dwc2_dep_t   *epin   = &dwc2->epin[epnum];
 2138              		.loc 1 1094 5 is_stmt 1 view .LVU721
1094:lib/TinyUSB/src/portable/synopsys/dwc2/dcd_dwc2.c ****     dwc2_dep_t   *epin   = &dwc2->epin[epnum];
 2139              		.loc 1 1094 39 is_stmt 0 view .LVU722
 2140 003e 2046     		mov	r0, r4
 2141              	.LVL221:
1095:lib/TinyUSB/src/portable/synopsys/dwc2/dcd_dwc2.c ****     // Read DSTS and DIEPCTLn for all isochronous endpoints. If the current EP is enabled and the r
 2142              		.loc 1 1095 5 is_stmt 1 view .LVU723
1095:lib/TinyUSB/src/portable/synopsys/dwc2/dcd_dwc2.c ****     // Read DSTS and DIEPCTLn for all isochronous endpoints. If the current EP is enabled and the r
 2143              		.loc 1 1095 42 is_stmt 0 view .LVU724
 2144 0040 04F14803 		add	r3, r4, #72
 2145 0044 5B01     		lsls	r3, r3, #5
 2146 0046 F258     		ldr	r2, [r6, r3]
1098:lib/TinyUSB/src/portable/synopsys/dwc2/dcd_dwc2.c ****       xfer_ctl_t *xfer = XFER_CTL_BASE(epnum, TUSB_DIR_IN);
 2147              		.loc 1 1098 5 is_stmt 1 view .LVU725
1098:lib/TinyUSB/src/portable/synopsys/dwc2/dcd_dwc2.c ****       xfer_ctl_t *xfer = XFER_CTL_BASE(epnum, TUSB_DIR_IN);
 2148              		.loc 1 1098 23 is_stmt 0 view .LVU726
 2149 0048 C2F30F43 		ubfx	r3, r2, #16, #16
ARM GAS  C:\Users\krisa\AppData\Local\Temp\ccNljk5K.s 			page 85


 2150 004c 23F4FF43 		bic	r3, r3, #32640
 2151 0050 23F07303 		bic	r3, r3, #115
 2152 0054 9BB2     		uxth	r3, r3
1098:lib/TinyUSB/src/portable/synopsys/dwc2/dcd_dwc2.c ****       xfer_ctl_t *xfer = XFER_CTL_BASE(epnum, TUSB_DIR_IN);
 2153              		.loc 1 1098 8 view .LVU727
 2154 0056 48F20401 		movw	r1, #32772
 2155 005a 8B42     		cmp	r3, r1
 2156 005c EBD1     		bne	.L123
1098:lib/TinyUSB/src/portable/synopsys/dwc2/dcd_dwc2.c ****       xfer_ctl_t *xfer = XFER_CTL_BASE(epnum, TUSB_DIR_IN);
 2157              		.loc 1 1098 76 discriminator 1 view .LVU728
 2158 005e C2F30043 		ubfx	r3, r2, #16, #1
1098:lib/TinyUSB/src/portable/synopsys/dwc2/dcd_dwc2.c ****       xfer_ctl_t *xfer = XFER_CTL_BASE(epnum, TUSB_DIR_IN);
 2159              		.loc 1 1098 67 discriminator 1 view .LVU729
 2160 0062 BB42     		cmp	r3, r7
 2161 0064 E7D1     		bne	.L123
 2162              	.LBB307:
1099:lib/TinyUSB/src/portable/synopsys/dwc2/dcd_dwc2.c ****       if (xfer->iso_retry > 0) {
 2163              		.loc 1 1099 7 is_stmt 1 view .LVU730
 2164              	.LVL222:
1100:lib/TinyUSB/src/portable/synopsys/dwc2/dcd_dwc2.c ****         xfer->iso_retry--;
 2165              		.loc 1 1100 7 view .LVU731
1100:lib/TinyUSB/src/portable/synopsys/dwc2/dcd_dwc2.c ****         xfer->iso_retry--;
 2166              		.loc 1 1100 15 is_stmt 0 view .LVU732
 2167 0066 1D4B     		ldr	r3, .L132+4
 2168 0068 03EB4413 		add	r3, r3, r4, lsl #5
 2169 006c 5B7F     		ldrb	r3, [r3, #29]	@ zero_extendqisi2
1100:lib/TinyUSB/src/portable/synopsys/dwc2/dcd_dwc2.c ****         xfer->iso_retry--;
 2170              		.loc 1 1100 10 view .LVU733
 2171 006e CBB1     		cbz	r3, .L124
 2172              	.LBB304:
1101:lib/TinyUSB/src/portable/synopsys/dwc2/dcd_dwc2.c ****         // Restart ISO transfe: re-write TSIZ and CTL
 2173              		.loc 1 1101 9 is_stmt 1 view .LVU734
1101:lib/TinyUSB/src/portable/synopsys/dwc2/dcd_dwc2.c ****         // Restart ISO transfe: re-write TSIZ and CTL
 2174              		.loc 1 1101 24 is_stmt 0 view .LVU735
 2175 0070 1A49     		ldr	r1, .L132+4
 2176 0072 01EB4411 		add	r1, r1, r4, lsl #5
 2177 0076 013B     		subs	r3, r3, #1
 2178 0078 4B77     		strb	r3, [r1, #29]
1103:lib/TinyUSB/src/portable/synopsys/dwc2/dcd_dwc2.c ****         deptsiz.xfer_size       = xfer->total_len;
 2179              		.loc 1 1103 9 is_stmt 1 view .LVU736
1103:lib/TinyUSB/src/portable/synopsys/dwc2/dcd_dwc2.c ****         deptsiz.xfer_size       = xfer->total_len;
 2180              		.loc 1 1103 25 is_stmt 0 view .LVU737
 2181 007a 4FF0000C 		mov	ip, #0
 2182              	.LVL223:
1104:lib/TinyUSB/src/portable/synopsys/dwc2/dcd_dwc2.c ****         deptsiz.packet_count    = tu_div_ceil(xfer->total_len, xfer->max_size);
 2183              		.loc 1 1104 9 is_stmt 1 view .LVU738
1104:lib/TinyUSB/src/portable/synopsys/dwc2/dcd_dwc2.c ****         deptsiz.packet_count    = tu_div_ceil(xfer->total_len, xfer->max_size);
 2184              		.loc 1 1104 39 is_stmt 0 view .LVU739
 2185 007e 0B8B     		ldrh	r3, [r1, #24]
1104:lib/TinyUSB/src/portable/synopsys/dwc2/dcd_dwc2.c ****         deptsiz.packet_count    = tu_div_ceil(xfer->total_len, xfer->max_size);
 2186              		.loc 1 1104 33 view .LVU740
 2187 0080 63F3120C 		bfi	ip, r3, #0, #19
 2188              	.LVL224:
1105:lib/TinyUSB/src/portable/synopsys/dwc2/dcd_dwc2.c ****         epin->tsiz              = deptsiz.value;
 2189              		.loc 1 1105 9 is_stmt 1 view .LVU741
1105:lib/TinyUSB/src/portable/synopsys/dwc2/dcd_dwc2.c ****         epin->tsiz              = deptsiz.value;
 2190              		.loc 1 1105 68 is_stmt 0 view .LVU742
ARM GAS  C:\Users\krisa\AppData\Local\Temp\ccNljk5K.s 			page 86


 2191 0084 498B     		ldrh	r1, [r1, #26]
 2192              	.LVL225:
 2193              	.LBB302:
 2194              	.LBI302:
 2195              		.loc 4 230 46 is_stmt 1 view .LVU743
 2196              	.LBB303:
 2197              		.loc 4 230 84 view .LVU744
 2198              		.loc 4 230 91 is_stmt 0 view .LVU745
 2199 0086 0B44     		add	r3, r3, r1
 2200              	.LVL226:
 2201              		.loc 4 230 91 view .LVU746
 2202 0088 013B     		subs	r3, r3, #1
 2203 008a B3FBF1F3 		udiv	r3, r3, r1
 2204              	.LVL227:
 2205              		.loc 4 230 91 view .LVU747
 2206              	.LBE303:
 2207              	.LBE302:
1105:lib/TinyUSB/src/portable/synopsys/dwc2/dcd_dwc2.c ****         epin->tsiz              = deptsiz.value;
 2208              		.loc 1 1105 33 view .LVU748
 2209 008e 63F3DC4C 		bfi	ip, r3, #19, #10
1106:lib/TinyUSB/src/portable/synopsys/dwc2/dcd_dwc2.c **** 
 2210              		.loc 1 1106 9 is_stmt 1 view .LVU749
1106:lib/TinyUSB/src/portable/synopsys/dwc2/dcd_dwc2.c **** 
 2211              		.loc 1 1106 33 is_stmt 0 view .LVU750
 2212 0092 06EB4413 		add	r3, r6, r4, lsl #5
 2213 0096 C3F810C9 		str	ip, [r3, #2320]
1108:lib/TinyUSB/src/portable/synopsys/dwc2/dcd_dwc2.c ****           depctl.set_data0_iso_even = 1;
 2214              		.loc 1 1108 9 is_stmt 1 view .LVU751
1108:lib/TinyUSB/src/portable/synopsys/dwc2/dcd_dwc2.c ****           depctl.set_data0_iso_even = 1;
 2215              		.loc 1 1108 12 is_stmt 0 view .LVU752
 2216 009a 002F     		cmp	r7, #0
 2217 009c C6D0     		beq	.L125
1109:lib/TinyUSB/src/portable/synopsys/dwc2/dcd_dwc2.c ****         } else {
 2218              		.loc 1 1109 11 is_stmt 1 view .LVU753
1109:lib/TinyUSB/src/portable/synopsys/dwc2/dcd_dwc2.c ****         } else {
 2219              		.loc 1 1109 37 is_stmt 0 view .LVU754
 2220 009e 42F08052 		orr	r2, r2, #268435456
 2221              	.LVL228:
1109:lib/TinyUSB/src/portable/synopsys/dwc2/dcd_dwc2.c ****         } else {
 2222              		.loc 1 1109 37 view .LVU755
 2223 00a2 C5E7     		b	.L126
 2224              	.LVL229:
 2225              	.L124:
1109:lib/TinyUSB/src/portable/synopsys/dwc2/dcd_dwc2.c ****         } else {
 2226              		.loc 1 1109 37 view .LVU756
 2227              	.LBE304:
1114:lib/TinyUSB/src/portable/synopsys/dwc2/dcd_dwc2.c ****       } else {
1115:lib/TinyUSB/src/portable/synopsys/dwc2/dcd_dwc2.c ****         // too many retries, give up
1116:lib/TinyUSB/src/portable/synopsys/dwc2/dcd_dwc2.c ****         edpt_disable(rhport, epnum | TUSB_DIR_IN_MASK, false);
 2228              		.loc 1 1116 9 is_stmt 1 view .LVU757
 2229 00a4 44F08009 		orr	r9, r4, #128
 2230 00a8 0022     		movs	r2, #0
 2231              	.LVL230:
 2232              		.loc 1 1116 9 is_stmt 0 view .LVU758
 2233 00aa 4946     		mov	r1, r9
 2234 00ac 4046     		mov	r0, r8
 2235              	.LVL231:
ARM GAS  C:\Users\krisa\AppData\Local\Temp\ccNljk5K.s 			page 87


 2236              		.loc 1 1116 9 view .LVU759
 2237 00ae FFF7FEFF 		bl	edpt_disable
 2238              	.LVL232:
1117:lib/TinyUSB/src/portable/synopsys/dwc2/dcd_dwc2.c ****         dcd_event_xfer_complete(rhport, epnum | TUSB_DIR_IN_MASK, 0, XFER_RESULT_FAILED, true);
 2239              		.loc 1 1117 9 is_stmt 1 view .LVU760
 2240              	.LBB305:
 2241              	.LBI305:
 214:lib/TinyUSB/src/device/dcd.h **** }
 215:lib/TinyUSB/src/device/dcd.h **** 
 216:lib/TinyUSB/src/device/dcd.h **** // helper to send setup received
 217:lib/TinyUSB/src/device/dcd.h **** TU_ATTR_ALWAYS_INLINE static inline void dcd_event_setup_received(uint8_t rhport, uint8_t const * s
 218:lib/TinyUSB/src/device/dcd.h ****   dcd_event_t event;
 219:lib/TinyUSB/src/device/dcd.h ****   event.rhport = rhport;
 220:lib/TinyUSB/src/device/dcd.h ****   event.event_id = DCD_EVENT_SETUP_RECEIVED;
 221:lib/TinyUSB/src/device/dcd.h ****   (void) memcpy(&event.setup_received, setup, sizeof(tusb_control_request_t));
 222:lib/TinyUSB/src/device/dcd.h ****   dcd_event_handler(&event, in_isr);
 223:lib/TinyUSB/src/device/dcd.h **** }
 224:lib/TinyUSB/src/device/dcd.h **** 
 225:lib/TinyUSB/src/device/dcd.h **** // helper to send transfer complete event
 226:lib/TinyUSB/src/device/dcd.h **** TU_ATTR_ALWAYS_INLINE static inline void dcd_event_xfer_complete (uint8_t rhport, uint8_t ep_addr, 
 2242              		.loc 5 226 42 view .LVU761
 2243              	.LBB306:
 227:lib/TinyUSB/src/device/dcd.h ****   dcd_event_t event;
 2244              		.loc 5 227 3 view .LVU762
 228:lib/TinyUSB/src/device/dcd.h ****   event.rhport = rhport;
 2245              		.loc 5 228 3 view .LVU763
 2246              		.loc 5 228 16 is_stmt 0 view .LVU764
 2247 00b2 8DF80480 		strb	r8, [sp, #4]
 229:lib/TinyUSB/src/device/dcd.h ****   event.event_id = DCD_EVENT_XFER_COMPLETE;
 2248              		.loc 5 229 3 is_stmt 1 view .LVU765
 2249              		.loc 5 229 18 is_stmt 0 view .LVU766
 2250 00b6 0723     		movs	r3, #7
 2251 00b8 8DF80530 		strb	r3, [sp, #5]
 230:lib/TinyUSB/src/device/dcd.h ****   event.xfer_complete.ep_addr = ep_addr;
 2252              		.loc 5 230 3 is_stmt 1 view .LVU767
 2253              		.loc 5 230 31 is_stmt 0 view .LVU768
 2254 00bc 8DF80890 		strb	r9, [sp, #8]
 231:lib/TinyUSB/src/device/dcd.h ****   event.xfer_complete.len     = xferred_bytes;
 2255              		.loc 5 231 3 is_stmt 1 view .LVU769
 2256              		.loc 5 231 31 is_stmt 0 view .LVU770
 2257 00c0 0023     		movs	r3, #0
 2258 00c2 0393     		str	r3, [sp, #12]
 232:lib/TinyUSB/src/device/dcd.h ****   event.xfer_complete.result  = result;
 2259              		.loc 5 232 3 is_stmt 1 view .LVU771
 2260              		.loc 5 232 31 is_stmt 0 view .LVU772
 2261 00c4 0121     		movs	r1, #1
 2262 00c6 8DF80910 		strb	r1, [sp, #9]
 233:lib/TinyUSB/src/device/dcd.h ****   dcd_event_handler(&event, in_isr);
 2263              		.loc 5 233 3 is_stmt 1 view .LVU773
 2264 00ca 01A8     		add	r0, sp, #4
 2265 00cc FFF7FEFF 		bl	dcd_event_handler
 2266              	.LVL233:
 234:lib/TinyUSB/src/device/dcd.h **** }
 2267              		.loc 5 234 1 is_stmt 0 view .LVU774
 2268 00d0 B1E7     		b	.L123
 2269              	.LVL234:
 2270              	.L131:
ARM GAS  C:\Users\krisa\AppData\Local\Temp\ccNljk5K.s 			page 88


 2271              		.loc 5 234 1 view .LVU775
 2272              	.LBE306:
 2273              	.LBE305:
 2274              	.LBE307:
 2275              	.LBE308:
 2276              	.LBE310:
1118:lib/TinyUSB/src/portable/synopsys/dwc2/dcd_dwc2.c ****       }
1119:lib/TinyUSB/src/portable/synopsys/dwc2/dcd_dwc2.c ****     }
1120:lib/TinyUSB/src/portable/synopsys/dwc2/dcd_dwc2.c ****   }
1121:lib/TinyUSB/src/portable/synopsys/dwc2/dcd_dwc2.c **** }
 2277              		.loc 1 1121 1 view .LVU776
 2278 00d2 05B0     		add	sp, sp, #20
 2279              	.LCFI17:
 2280              		.cfi_def_cfa_offset 28
 2281              		@ sp needed
 2282 00d4 BDE8F083 		pop	{r4, r5, r6, r7, r8, r9, pc}
 2283              	.LVL235:
 2284              	.L133:
 2285              		.loc 1 1121 1 view .LVU777
 2286              		.align	2
 2287              	.L132:
 2288 00d8 00000000 		.word	.LANCHOR0
 2289 00dc 00000000 		.word	.LANCHOR3
 2290              		.cfi_endproc
 2291              	.LFE375:
 2293              		.section	.text.handle_epout_slave,"ax",%progbits
 2294              		.align	1
 2295              		.syntax unified
 2296              		.thumb
 2297              		.thumb_func
 2299              	handle_epout_slave:
 2300              	.LVL236:
 2301              	.LFB372:
 924:lib/TinyUSB/src/portable/synopsys/dwc2/dcd_dwc2.c ****   if (doepint_bm.setup_phase_done) {
 2302              		.loc 1 924 90 is_stmt 1 view -0
 2303              		.cfi_startproc
 2304              		@ args = 0, pretend = 0, frame = 16
 2305              		@ frame_needed = 0, uses_anonymous_args = 0
 924:lib/TinyUSB/src/portable/synopsys/dwc2/dcd_dwc2.c ****   if (doepint_bm.setup_phase_done) {
 2306              		.loc 1 924 90 is_stmt 0 view .LVU779
 2307 0000 10B5     		push	{r4, lr}
 2308              	.LCFI18:
 2309              		.cfi_def_cfa_offset 8
 2310              		.cfi_offset 4, -8
 2311              		.cfi_offset 14, -4
 2312 0002 84B0     		sub	sp, sp, #16
 2313              	.LCFI19:
 2314              		.cfi_def_cfa_offset 24
 2315 0004 0446     		mov	r4, r0
 925:lib/TinyUSB/src/portable/synopsys/dwc2/dcd_dwc2.c ****     // Cleanup previous pending EP0 IN transfer if any
 2316              		.loc 1 925 3 is_stmt 1 view .LVU780
 925:lib/TinyUSB/src/portable/synopsys/dwc2/dcd_dwc2.c ****     // Cleanup previous pending EP0 IN transfer if any
 2317              		.loc 1 925 6 is_stmt 0 view .LVU781
 2318 0006 12F0080F 		tst	r2, #8
 2319 000a 22D1     		bne	.L142
 2320 000c D3B2     		uxtb	r3, r2
 936:lib/TinyUSB/src/portable/synopsys/dwc2/dcd_dwc2.c ****     // only handle data skip if it is setup or status related
ARM GAS  C:\Users\krisa\AppData\Local\Temp\ccNljk5K.s 			page 89


 2321              		.loc 1 936 3 is_stmt 1 view .LVU782
 936:lib/TinyUSB/src/portable/synopsys/dwc2/dcd_dwc2.c ****     // only handle data skip if it is setup or status related
 2322              		.loc 1 936 6 is_stmt 0 view .LVU783
 2323 000e 13F0010F 		tst	r3, #1
 2324 0012 37D0     		beq	.L134
 940:lib/TinyUSB/src/portable/synopsys/dwc2/dcd_dwc2.c ****       xfer_ctl_t* xfer = XFER_CTL_BASE(epnum, TUSB_DIR_OUT);
 2325              		.loc 1 940 5 is_stmt 1 view .LVU784
 940:lib/TinyUSB/src/portable/synopsys/dwc2/dcd_dwc2.c ****       xfer_ctl_t* xfer = XFER_CTL_BASE(epnum, TUSB_DIR_OUT);
 2326              		.loc 1 940 37 is_stmt 0 view .LVU785
 2327 0014 22F4FF42 		bic	r2, r2, #32640
 2328              	.LVL237:
 940:lib/TinyUSB/src/portable/synopsys/dwc2/dcd_dwc2.c ****       xfer_ctl_t* xfer = XFER_CTL_BASE(epnum, TUSB_DIR_OUT);
 2329              		.loc 1 940 37 view .LVU786
 2330 0018 22F05F02 		bic	r2, r2, #95
 2331 001c 92B2     		uxth	r2, r2
 940:lib/TinyUSB/src/portable/synopsys/dwc2/dcd_dwc2.c ****       xfer_ctl_t* xfer = XFER_CTL_BASE(epnum, TUSB_DIR_OUT);
 2332              		.loc 1 940 8 view .LVU787
 2333 001e 8ABB     		cbnz	r2, .L134
 2334              	.LBB311:
 941:lib/TinyUSB/src/portable/synopsys/dwc2/dcd_dwc2.c ****       if ((epnum == 0) && _dcd_data.ep0_pending[TUSB_DIR_OUT]) {
 2335              		.loc 1 941 7 is_stmt 1 view .LVU788
 2336              	.LVL238:
 942:lib/TinyUSB/src/portable/synopsys/dwc2/dcd_dwc2.c ****         // EP0 can only handle one packet, Schedule another packet to be received.
 2337              		.loc 1 942 7 view .LVU789
 942:lib/TinyUSB/src/portable/synopsys/dwc2/dcd_dwc2.c ****         // EP0 can only handle one packet, Schedule another packet to be received.
 2338              		.loc 1 942 10 is_stmt 0 view .LVU790
 2339 0020 19B9     		cbnz	r1, .L139
 942:lib/TinyUSB/src/portable/synopsys/dwc2/dcd_dwc2.c ****         // EP0 can only handle one packet, Schedule another packet to be received.
 2340              		.loc 1 942 48 discriminator 1 view .LVU791
 2341 0022 1F4B     		ldr	r3, .L146
 2342 0024 1B88     		ldrh	r3, [r3]
 942:lib/TinyUSB/src/portable/synopsys/dwc2/dcd_dwc2.c ****         // EP0 can only handle one packet, Schedule another packet to be received.
 2343              		.loc 1 942 24 discriminator 1 view .LVU792
 2344 0026 002B     		cmp	r3, #0
 2345 0028 36D1     		bne	.L143
 2346              	.L139:
 946:lib/TinyUSB/src/portable/synopsys/dwc2/dcd_dwc2.c ****       }
 2347              		.loc 1 946 9 is_stmt 1 view .LVU793
 946:lib/TinyUSB/src/portable/synopsys/dwc2/dcd_dwc2.c ****       }
 2348              		.loc 1 946 52 is_stmt 0 view .LVU794
 2349 002a 1E4B     		ldr	r3, .L146+4
 2350 002c 03EB4113 		add	r3, r3, r1, lsl #5
 2351 0030 1B89     		ldrh	r3, [r3, #8]
 2352              	.LVL239:
 2353              	.LBB312:
 2354              	.LBI312:
 226:lib/TinyUSB/src/device/dcd.h ****   dcd_event_t event;
 2355              		.loc 5 226 42 is_stmt 1 view .LVU795
 2356              	.LBB313:
 227:lib/TinyUSB/src/device/dcd.h ****   event.rhport = rhport;
 2357              		.loc 5 227 3 view .LVU796
 228:lib/TinyUSB/src/device/dcd.h ****   event.event_id = DCD_EVENT_XFER_COMPLETE;
 2358              		.loc 5 228 3 view .LVU797
 228:lib/TinyUSB/src/device/dcd.h ****   event.event_id = DCD_EVENT_XFER_COMPLETE;
 2359              		.loc 5 228 16 is_stmt 0 view .LVU798
 2360 0032 8DF80440 		strb	r4, [sp, #4]
 229:lib/TinyUSB/src/device/dcd.h ****   event.xfer_complete.ep_addr = ep_addr;
ARM GAS  C:\Users\krisa\AppData\Local\Temp\ccNljk5K.s 			page 90


 2361              		.loc 5 229 3 is_stmt 1 view .LVU799
 229:lib/TinyUSB/src/device/dcd.h ****   event.xfer_complete.ep_addr = ep_addr;
 2362              		.loc 5 229 18 is_stmt 0 view .LVU800
 2363 0036 0722     		movs	r2, #7
 2364 0038 8DF80520 		strb	r2, [sp, #5]
 230:lib/TinyUSB/src/device/dcd.h ****   event.xfer_complete.len     = xferred_bytes;
 2365              		.loc 5 230 3 is_stmt 1 view .LVU801
 230:lib/TinyUSB/src/device/dcd.h ****   event.xfer_complete.len     = xferred_bytes;
 2366              		.loc 5 230 31 is_stmt 0 view .LVU802
 2367 003c 8DF80810 		strb	r1, [sp, #8]
 231:lib/TinyUSB/src/device/dcd.h ****   event.xfer_complete.result  = result;
 2368              		.loc 5 231 3 is_stmt 1 view .LVU803
 231:lib/TinyUSB/src/device/dcd.h ****   event.xfer_complete.result  = result;
 2369              		.loc 5 231 31 is_stmt 0 view .LVU804
 2370 0040 0393     		str	r3, [sp, #12]
 232:lib/TinyUSB/src/device/dcd.h ****   dcd_event_handler(&event, in_isr);
 2371              		.loc 5 232 3 is_stmt 1 view .LVU805
 232:lib/TinyUSB/src/device/dcd.h ****   dcd_event_handler(&event, in_isr);
 2372              		.loc 5 232 31 is_stmt 0 view .LVU806
 2373 0042 0023     		movs	r3, #0
 2374              	.LVL240:
 232:lib/TinyUSB/src/device/dcd.h ****   dcd_event_handler(&event, in_isr);
 2375              		.loc 5 232 31 view .LVU807
 2376 0044 8DF80930 		strb	r3, [sp, #9]
 233:lib/TinyUSB/src/device/dcd.h **** }
 2377              		.loc 5 233 3 is_stmt 1 view .LVU808
 2378 0048 0121     		movs	r1, #1
 2379              	.LVL241:
 233:lib/TinyUSB/src/device/dcd.h **** }
 2380              		.loc 5 233 3 is_stmt 0 view .LVU809
 2381 004a 01A8     		add	r0, sp, #4
 2382              	.LVL242:
 233:lib/TinyUSB/src/device/dcd.h **** }
 2383              		.loc 5 233 3 view .LVU810
 2384 004c FFF7FEFF 		bl	dcd_event_handler
 2385              	.LVL243:
 2386              		.loc 5 234 1 view .LVU811
 2387 0050 18E0     		b	.L134
 2388              	.LVL244:
 2389              	.L142:
 2390              		.loc 5 234 1 view .LVU812
 2391              	.LBE313:
 2392              	.LBE312:
 2393              	.LBE311:
 2394              	.LBB314:
 927:lib/TinyUSB/src/portable/synopsys/dwc2/dcd_dwc2.c ****     if (edpt_is_enabled(epin0)) {
 2395              		.loc 1 927 5 is_stmt 1 view .LVU813
 2396              	.LBB315:
 2397              	.LBI315:
  79:lib/TinyUSB/src/portable/synopsys/dwc2/dwc2_common.h ****   if (rhport >= DWC2_CONTROLLER_COUNT) {
 2398              		.loc 2 79 50 view .LVU814
 2399              	.LBB316:
  80:lib/TinyUSB/src/portable/synopsys/dwc2/dwc2_common.h ****     // user mis-configured, ignore and use first controller
 2400              		.loc 2 80 3 view .LVU815
  80:lib/TinyUSB/src/portable/synopsys/dwc2/dwc2_common.h ****     // user mis-configured, ignore and use first controller
 2401              		.loc 2 80 6 is_stmt 0 view .LVU816
 2402 0052 0128     		cmp	r0, #1
ARM GAS  C:\Users\krisa\AppData\Local\Temp\ccNljk5K.s 			page 91


 2403 0054 18D9     		bls	.L144
  82:lib/TinyUSB/src/portable/synopsys/dwc2/dwc2_common.h ****   }
 2404              		.loc 2 82 12 view .LVU817
 2405 0056 0023     		movs	r3, #0
 2406              	.L136:
 2407              	.LVL245:
  84:lib/TinyUSB/src/portable/synopsys/dwc2/dwc2_common.h **** }
 2408              		.loc 2 84 3 is_stmt 1 view .LVU818
  84:lib/TinyUSB/src/portable/synopsys/dwc2/dwc2_common.h **** }
 2409              		.loc 2 84 48 is_stmt 0 view .LVU819
 2410 0058 1B01     		lsls	r3, r3, #4
 2411              	.LVL246:
  84:lib/TinyUSB/src/portable/synopsys/dwc2/dwc2_common.h **** }
 2412              		.loc 2 84 48 view .LVU820
 2413 005a 134A     		ldr	r2, .L146+8
 2414              	.LVL247:
  84:lib/TinyUSB/src/portable/synopsys/dwc2/dwc2_common.h **** }
 2415              		.loc 2 84 48 view .LVU821
 2416 005c D358     		ldr	r3, [r2, r3]
 2417              	.LVL248:
  84:lib/TinyUSB/src/portable/synopsys/dwc2/dwc2_common.h **** }
 2418              		.loc 2 84 48 view .LVU822
 2419              	.LBE316:
 2420              	.LBE315:
 928:lib/TinyUSB/src/portable/synopsys/dwc2/dcd_dwc2.c ****       edpt_disable(rhport, 0x80, false);
 2421              		.loc 1 928 5 is_stmt 1 view .LVU823
 2422              	.LBB318:
 2423              	.LBI318:
  97:lib/TinyUSB/src/portable/synopsys/dwc2/dcd_dwc2.c ****   return (dep->ctl & EPCTL_EPENA) != 0;
 2424              		.loc 1 97 42 view .LVU824
 2425              	.LBB319:
  98:lib/TinyUSB/src/portable/synopsys/dwc2/dcd_dwc2.c **** }
 2426              		.loc 1 98 3 view .LVU825
  98:lib/TinyUSB/src/portable/synopsys/dwc2/dcd_dwc2.c **** }
 2427              		.loc 1 98 14 is_stmt 0 view .LVU826
 2428 005e D3F80039 		ldr	r3, [r3, #2304]
 2429              	.LVL249:
  98:lib/TinyUSB/src/portable/synopsys/dwc2/dcd_dwc2.c **** }
 2430              		.loc 1 98 14 view .LVU827
 2431              	.LBE319:
 2432              	.LBE318:
 928:lib/TinyUSB/src/portable/synopsys/dwc2/dcd_dwc2.c ****       edpt_disable(rhport, 0x80, false);
 2433              		.loc 1 928 8 view .LVU828
 2434 0062 002B     		cmp	r3, #0
 2435 0064 12DB     		blt	.L145
 2436              	.LVL250:
 2437              	.L137:
 931:lib/TinyUSB/src/portable/synopsys/dwc2/dcd_dwc2.c ****     return;
 2438              		.loc 1 931 5 is_stmt 1 view .LVU829
 2439              	.LBB320:
 2440              	.LBI320:
 217:lib/TinyUSB/src/device/dcd.h ****   dcd_event_t event;
 2441              		.loc 5 217 42 view .LVU830
 2442              	.LBB321:
 218:lib/TinyUSB/src/device/dcd.h ****   event.rhport = rhport;
 2443              		.loc 5 218 3 view .LVU831
 219:lib/TinyUSB/src/device/dcd.h ****   event.event_id = DCD_EVENT_SETUP_RECEIVED;
ARM GAS  C:\Users\krisa\AppData\Local\Temp\ccNljk5K.s 			page 92


 2444              		.loc 5 219 3 view .LVU832
 219:lib/TinyUSB/src/device/dcd.h ****   event.event_id = DCD_EVENT_SETUP_RECEIVED;
 2445              		.loc 5 219 16 is_stmt 0 view .LVU833
 2446 0066 8DF80440 		strb	r4, [sp, #4]
 220:lib/TinyUSB/src/device/dcd.h ****   (void) memcpy(&event.setup_received, setup, sizeof(tusb_control_request_t));
 2447              		.loc 5 220 3 is_stmt 1 view .LVU834
 220:lib/TinyUSB/src/device/dcd.h ****   (void) memcpy(&event.setup_received, setup, sizeof(tusb_control_request_t));
 2448              		.loc 5 220 18 is_stmt 0 view .LVU835
 2449 006a 0623     		movs	r3, #6
 2450 006c 8DF80530 		strb	r3, [sp, #5]
 221:lib/TinyUSB/src/device/dcd.h ****   dcd_event_handler(&event, in_isr);
 2451              		.loc 5 221 3 is_stmt 1 view .LVU836
 221:lib/TinyUSB/src/device/dcd.h ****   dcd_event_handler(&event, in_isr);
 2452              		.loc 5 221 10 is_stmt 0 view .LVU837
 2453 0070 0E4B     		ldr	r3, .L146+12
 2454 0072 93E80300 		ldm	r3, {r0, r1}
 2455 0076 04AB     		add	r3, sp, #16
 2456 0078 03E90300 		stmdb	r3, {r0, r1}
 222:lib/TinyUSB/src/device/dcd.h **** }
 2457              		.loc 5 222 3 is_stmt 1 view .LVU838
 2458 007c 0121     		movs	r1, #1
 2459 007e 01A8     		add	r0, sp, #4
 2460 0080 FFF7FEFF 		bl	dcd_event_handler
 2461              	.LVL251:
 222:lib/TinyUSB/src/device/dcd.h **** }
 2462              		.loc 5 222 3 is_stmt 0 view .LVU839
 2463              	.LBE321:
 2464              	.LBE320:
 932:lib/TinyUSB/src/portable/synopsys/dwc2/dcd_dwc2.c ****   }
 2465              		.loc 1 932 5 is_stmt 1 view .LVU840
 2466              	.L134:
 932:lib/TinyUSB/src/portable/synopsys/dwc2/dcd_dwc2.c ****   }
 2467              		.loc 1 932 5 is_stmt 0 view .LVU841
 2468              	.LBE314:
 950:lib/TinyUSB/src/portable/synopsys/dwc2/dcd_dwc2.c **** 
 2469              		.loc 1 950 1 view .LVU842
 2470 0084 04B0     		add	sp, sp, #16
 2471              	.LCFI20:
 2472              		.cfi_remember_state
 2473              		.cfi_def_cfa_offset 8
 2474              		@ sp needed
 2475 0086 10BD     		pop	{r4, pc}
 2476              	.LVL252:
 2477              	.L144:
 2478              	.LCFI21:
 2479              		.cfi_restore_state
 2480              	.LBB323:
 2481              	.LBB322:
 2482              	.LBB317:
  80:lib/TinyUSB/src/portable/synopsys/dwc2/dwc2_common.h ****     // user mis-configured, ignore and use first controller
 2483              		.loc 2 80 6 view .LVU843
 2484 0088 0346     		mov	r3, r0
 2485 008a E5E7     		b	.L136
 2486              	.LVL253:
 2487              	.L145:
  80:lib/TinyUSB/src/portable/synopsys/dwc2/dwc2_common.h ****     // user mis-configured, ignore and use first controller
 2488              		.loc 2 80 6 view .LVU844
ARM GAS  C:\Users\krisa\AppData\Local\Temp\ccNljk5K.s 			page 93


 2489              	.LBE317:
 2490              	.LBE322:
 929:lib/TinyUSB/src/portable/synopsys/dwc2/dcd_dwc2.c ****     }
 2491              		.loc 1 929 7 is_stmt 1 view .LVU845
 2492 008c 0022     		movs	r2, #0
 929:lib/TinyUSB/src/portable/synopsys/dwc2/dcd_dwc2.c ****     }
 2493              		.loc 1 929 7 is_stmt 0 view .LVU846
 2494 008e 8021     		movs	r1, #128
 2495              	.LVL254:
 929:lib/TinyUSB/src/portable/synopsys/dwc2/dcd_dwc2.c ****     }
 2496              		.loc 1 929 7 view .LVU847
 2497 0090 2046     		mov	r0, r4
 2498              	.LVL255:
 929:lib/TinyUSB/src/portable/synopsys/dwc2/dcd_dwc2.c ****     }
 2499              		.loc 1 929 7 view .LVU848
 2500 0092 FFF7FEFF 		bl	edpt_disable
 2501              	.LVL256:
 2502 0096 E6E7     		b	.L137
 2503              	.LVL257:
 2504              	.L143:
 929:lib/TinyUSB/src/portable/synopsys/dwc2/dcd_dwc2.c ****     }
 2505              		.loc 1 929 7 view .LVU849
 2506              	.LBE323:
 2507              	.LBB324:
 944:lib/TinyUSB/src/portable/synopsys/dwc2/dcd_dwc2.c ****       } else {
 2508              		.loc 1 944 9 is_stmt 1 view .LVU850
 2509 0098 FFF7FEFF 		bl	edpt_schedule_packets
 2510              	.LVL258:
 944:lib/TinyUSB/src/portable/synopsys/dwc2/dcd_dwc2.c ****       } else {
 2511              		.loc 1 944 9 is_stmt 0 view .LVU851
 2512 009c F2E7     		b	.L134
 2513              	.L147:
 2514 009e 00BF     		.align	2
 2515              	.L146:
 2516 00a0 00000000 		.word	.LANCHOR1
 2517 00a4 00000000 		.word	.LANCHOR3
 2518 00a8 00000000 		.word	.LANCHOR0
 2519 00ac 00000000 		.word	.LANCHOR4
 2520              	.LBE324:
 2521              		.cfi_endproc
 2522              	.LFE372:
 2524              		.section	.text.handle_epin_slave,"ax",%progbits
 2525              		.align	1
 2526              		.syntax unified
 2527              		.thumb
 2528              		.thumb_func
 2530              	handle_epin_slave:
 2531              	.LVL259:
 2532              	.LFB373:
 952:lib/TinyUSB/src/portable/synopsys/dwc2/dcd_dwc2.c ****   dwc2_regs_t* dwc2 = DWC2_REG(rhport);
 2533              		.loc 1 952 89 is_stmt 1 view -0
 2534              		.cfi_startproc
 2535              		@ args = 0, pretend = 0, frame = 16
 2536              		@ frame_needed = 0, uses_anonymous_args = 0
 952:lib/TinyUSB/src/portable/synopsys/dwc2/dcd_dwc2.c ****   dwc2_regs_t* dwc2 = DWC2_REG(rhport);
 2537              		.loc 1 952 89 is_stmt 0 view .LVU853
 2538 0000 F0B5     		push	{r4, r5, r6, r7, lr}
ARM GAS  C:\Users\krisa\AppData\Local\Temp\ccNljk5K.s 			page 94


 2539              	.LCFI22:
 2540              		.cfi_def_cfa_offset 20
 2541              		.cfi_offset 4, -20
 2542              		.cfi_offset 5, -16
 2543              		.cfi_offset 6, -12
 2544              		.cfi_offset 7, -8
 2545              		.cfi_offset 14, -4
 2546 0002 85B0     		sub	sp, sp, #20
 2547              	.LCFI23:
 2548              		.cfi_def_cfa_offset 40
 2549 0004 0546     		mov	r5, r0
 2550 0006 0C46     		mov	r4, r1
 953:lib/TinyUSB/src/portable/synopsys/dwc2/dcd_dwc2.c ****   dwc2_dep_t* epin = &dwc2->epin[epnum];
 2551              		.loc 1 953 3 is_stmt 1 view .LVU854
 2552              	.LVL260:
 2553              	.LBB325:
 2554              	.LBI325:
  79:lib/TinyUSB/src/portable/synopsys/dwc2/dwc2_common.h ****   if (rhport >= DWC2_CONTROLLER_COUNT) {
 2555              		.loc 2 79 50 view .LVU855
 2556              	.LBB326:
  80:lib/TinyUSB/src/portable/synopsys/dwc2/dwc2_common.h ****     // user mis-configured, ignore and use first controller
 2557              		.loc 2 80 3 view .LVU856
  80:lib/TinyUSB/src/portable/synopsys/dwc2/dwc2_common.h ****     // user mis-configured, ignore and use first controller
 2558              		.loc 2 80 6 is_stmt 0 view .LVU857
 2559 0008 0128     		cmp	r0, #1
 2560 000a 25D9     		bls	.L156
  82:lib/TinyUSB/src/portable/synopsys/dwc2/dwc2_common.h ****   }
 2561              		.loc 2 82 12 view .LVU858
 2562 000c 0023     		movs	r3, #0
 2563              	.L149:
 2564              	.LVL261:
  84:lib/TinyUSB/src/portable/synopsys/dwc2/dwc2_common.h **** }
 2565              		.loc 2 84 3 is_stmt 1 view .LVU859
  84:lib/TinyUSB/src/portable/synopsys/dwc2/dwc2_common.h **** }
 2566              		.loc 2 84 48 is_stmt 0 view .LVU860
 2567 000e 1B01     		lsls	r3, r3, #4
 2568              	.LVL262:
  84:lib/TinyUSB/src/portable/synopsys/dwc2/dwc2_common.h **** }
 2569              		.loc 2 84 48 view .LVU861
 2570 0010 2349     		ldr	r1, .L159
 2571              	.LVL263:
  84:lib/TinyUSB/src/portable/synopsys/dwc2/dwc2_common.h **** }
 2572              		.loc 2 84 48 view .LVU862
 2573 0012 CF58     		ldr	r7, [r1, r3]
 2574              	.LVL264:
  84:lib/TinyUSB/src/portable/synopsys/dwc2/dwc2_common.h **** }
 2575              		.loc 2 84 48 view .LVU863
 2576              	.LBE326:
 2577              	.LBE325:
 954:lib/TinyUSB/src/portable/synopsys/dwc2/dcd_dwc2.c ****   xfer_ctl_t* xfer = XFER_CTL_BASE(epnum, TUSB_DIR_IN);
 2578              		.loc 1 954 3 is_stmt 1 view .LVU864
 955:lib/TinyUSB/src/portable/synopsys/dwc2/dcd_dwc2.c **** 
 2579              		.loc 1 955 3 view .LVU865
 957:lib/TinyUSB/src/portable/synopsys/dwc2/dcd_dwc2.c ****     if ((epnum == 0) && (0 != _dcd_data.ep0_pending[TUSB_DIR_IN])) {
 2580              		.loc 1 957 3 view .LVU866
 957:lib/TinyUSB/src/portable/synopsys/dwc2/dcd_dwc2.c ****     if ((epnum == 0) && (0 != _dcd_data.ep0_pending[TUSB_DIR_IN])) {
 2581              		.loc 1 957 7 is_stmt 0 view .LVU867
ARM GAS  C:\Users\krisa\AppData\Local\Temp\ccNljk5K.s 			page 95


 2582 0014 D6B2     		uxtb	r6, r2
 957:lib/TinyUSB/src/portable/synopsys/dwc2/dcd_dwc2.c ****     if ((epnum == 0) && (0 != _dcd_data.ep0_pending[TUSB_DIR_IN])) {
 2583              		.loc 1 957 6 view .LVU868
 2584 0016 12F0010F 		tst	r2, #1
 2585 001a 18D0     		beq	.L150
 958:lib/TinyUSB/src/portable/synopsys/dwc2/dcd_dwc2.c ****       // EP0 can only handle one packet. Schedule another packet to be transmitted.
 2586              		.loc 1 958 5 is_stmt 1 view .LVU869
 958:lib/TinyUSB/src/portable/synopsys/dwc2/dcd_dwc2.c ****       // EP0 can only handle one packet. Schedule another packet to be transmitted.
 2587              		.loc 1 958 8 is_stmt 0 view .LVU870
 2588 001c 14B9     		cbnz	r4, .L151
 958:lib/TinyUSB/src/portable/synopsys/dwc2/dcd_dwc2.c ****       // EP0 can only handle one packet. Schedule another packet to be transmitted.
 2589              		.loc 1 958 52 discriminator 1 view .LVU871
 2590 001e 214B     		ldr	r3, .L159+4
 2591 0020 5B88     		ldrh	r3, [r3, #2]
 958:lib/TinyUSB/src/portable/synopsys/dwc2/dcd_dwc2.c ****       // EP0 can only handle one packet. Schedule another packet to be transmitted.
 2592              		.loc 1 958 22 discriminator 1 view .LVU872
 2593 0022 DBB9     		cbnz	r3, .L157
 2594              	.L151:
 962:lib/TinyUSB/src/portable/synopsys/dwc2/dcd_dwc2.c ****     }
 2595              		.loc 1 962 7 is_stmt 1 view .LVU873
 2596 0024 44F08003 		orr	r3, r4, #128
 962:lib/TinyUSB/src/portable/synopsys/dwc2/dcd_dwc2.c ****     }
 2597              		.loc 1 962 69 is_stmt 0 view .LVU874
 2598 0028 1F4A     		ldr	r2, .L159+8
 2599              	.LVL265:
 962:lib/TinyUSB/src/portable/synopsys/dwc2/dcd_dwc2.c ****     }
 2600              		.loc 1 962 69 view .LVU875
 2601 002a 02EB4412 		add	r2, r2, r4, lsl #5
 2602 002e 128B     		ldrh	r2, [r2, #24]
 2603              	.LVL266:
 2604              	.LBB328:
 2605              	.LBI328:
 226:lib/TinyUSB/src/device/dcd.h ****   dcd_event_t event;
 2606              		.loc 5 226 42 is_stmt 1 view .LVU876
 2607              	.LBB329:
 227:lib/TinyUSB/src/device/dcd.h ****   event.rhport = rhport;
 2608              		.loc 5 227 3 view .LVU877
 228:lib/TinyUSB/src/device/dcd.h ****   event.event_id = DCD_EVENT_XFER_COMPLETE;
 2609              		.loc 5 228 3 view .LVU878
 228:lib/TinyUSB/src/device/dcd.h ****   event.event_id = DCD_EVENT_XFER_COMPLETE;
 2610              		.loc 5 228 16 is_stmt 0 view .LVU879
 2611 0030 8DF80450 		strb	r5, [sp, #4]
 229:lib/TinyUSB/src/device/dcd.h ****   event.xfer_complete.ep_addr = ep_addr;
 2612              		.loc 5 229 3 is_stmt 1 view .LVU880
 229:lib/TinyUSB/src/device/dcd.h ****   event.xfer_complete.ep_addr = ep_addr;
 2613              		.loc 5 229 18 is_stmt 0 view .LVU881
 2614 0034 0721     		movs	r1, #7
 2615 0036 8DF80510 		strb	r1, [sp, #5]
 230:lib/TinyUSB/src/device/dcd.h ****   event.xfer_complete.len     = xferred_bytes;
 2616              		.loc 5 230 3 is_stmt 1 view .LVU882
 230:lib/TinyUSB/src/device/dcd.h ****   event.xfer_complete.len     = xferred_bytes;
 2617              		.loc 5 230 31 is_stmt 0 view .LVU883
 2618 003a 8DF80830 		strb	r3, [sp, #8]
 231:lib/TinyUSB/src/device/dcd.h ****   event.xfer_complete.result  = result;
 2619              		.loc 5 231 3 is_stmt 1 view .LVU884
 231:lib/TinyUSB/src/device/dcd.h ****   event.xfer_complete.result  = result;
 2620              		.loc 5 231 31 is_stmt 0 view .LVU885
ARM GAS  C:\Users\krisa\AppData\Local\Temp\ccNljk5K.s 			page 96


 2621 003e 0392     		str	r2, [sp, #12]
 232:lib/TinyUSB/src/device/dcd.h ****   dcd_event_handler(&event, in_isr);
 2622              		.loc 5 232 3 is_stmt 1 view .LVU886
 232:lib/TinyUSB/src/device/dcd.h ****   dcd_event_handler(&event, in_isr);
 2623              		.loc 5 232 31 is_stmt 0 view .LVU887
 2624 0040 0023     		movs	r3, #0
 2625 0042 8DF80930 		strb	r3, [sp, #9]
 233:lib/TinyUSB/src/device/dcd.h **** }
 2626              		.loc 5 233 3 is_stmt 1 view .LVU888
 2627 0046 0121     		movs	r1, #1
 2628 0048 01A8     		add	r0, sp, #4
 2629              	.LVL267:
 233:lib/TinyUSB/src/device/dcd.h **** }
 2630              		.loc 5 233 3 is_stmt 0 view .LVU889
 2631 004a FFF7FEFF 		bl	dcd_event_handler
 2632              	.LVL268:
 2633              	.L150:
 233:lib/TinyUSB/src/device/dcd.h **** }
 2634              		.loc 5 233 3 view .LVU890
 2635              	.LBE329:
 2636              	.LBE328:
 969:lib/TinyUSB/src/portable/synopsys/dwc2/dcd_dwc2.c ****     epin_write_tx_fifo(rhport, epnum);
 2637              		.loc 1 969 3 is_stmt 1 view .LVU891
 969:lib/TinyUSB/src/portable/synopsys/dwc2/dcd_dwc2.c ****     epin_write_tx_fifo(rhport, epnum);
 2638              		.loc 1 969 6 is_stmt 0 view .LVU892
 2639 004e 16F0800F 		tst	r6, #128
 2640 0052 09D1     		bne	.L158
 2641              	.LVL269:
 2642              	.L148:
 978:lib/TinyUSB/src/portable/synopsys/dwc2/dcd_dwc2.c **** #endif
 2643              		.loc 1 978 1 view .LVU893
 2644 0054 05B0     		add	sp, sp, #20
 2645              	.LCFI24:
 2646              		.cfi_remember_state
 2647              		.cfi_def_cfa_offset 20
 2648              		@ sp needed
 2649 0056 F0BD     		pop	{r4, r5, r6, r7, pc}
 2650              	.LVL270:
 2651              	.L156:
 2652              	.LCFI25:
 2653              		.cfi_restore_state
 2654              	.LBB330:
 2655              	.LBB327:
  80:lib/TinyUSB/src/portable/synopsys/dwc2/dwc2_common.h ****     // user mis-configured, ignore and use first controller
 2656              		.loc 2 80 6 view .LVU894
 2657 0058 0346     		mov	r3, r0
 2658 005a D8E7     		b	.L149
 2659              	.LVL271:
 2660              	.L157:
  80:lib/TinyUSB/src/portable/synopsys/dwc2/dwc2_common.h ****     // user mis-configured, ignore and use first controller
 2661              		.loc 2 80 6 view .LVU895
 2662              	.LBE327:
 2663              	.LBE330:
 960:lib/TinyUSB/src/portable/synopsys/dwc2/dcd_dwc2.c ****     } else {
 2664              		.loc 1 960 7 is_stmt 1 view .LVU896
 2665 005c 0122     		movs	r2, #1
 2666              	.LVL272:
ARM GAS  C:\Users\krisa\AppData\Local\Temp\ccNljk5K.s 			page 97


 960:lib/TinyUSB/src/portable/synopsys/dwc2/dcd_dwc2.c ****     } else {
 2667              		.loc 1 960 7 is_stmt 0 view .LVU897
 2668 005e 2146     		mov	r1, r4
 2669 0060 2846     		mov	r0, r5
 2670              	.LVL273:
 960:lib/TinyUSB/src/portable/synopsys/dwc2/dcd_dwc2.c ****     } else {
 2671              		.loc 1 960 7 view .LVU898
 2672 0062 FFF7FEFF 		bl	edpt_schedule_packets
 2673              	.LVL274:
 2674 0066 F2E7     		b	.L150
 2675              	.LVL275:
 2676              	.L158:
 969:lib/TinyUSB/src/portable/synopsys/dwc2/dcd_dwc2.c ****     epin_write_tx_fifo(rhport, epnum);
 2677              		.loc 1 969 34 discriminator 1 view .LVU899
 2678 0068 D7F83438 		ldr	r3, [r7, #2100]
 2679              	.LVL276:
 2680              	.LBB331:
 2681              	.LBI331:
 202:lib/TinyUSB/src/common/tusb_common.h **** 
 2682              		.loc 4 202 46 is_stmt 1 discriminator 1 view .LVU900
 2683              	.LBB332:
 202:lib/TinyUSB/src/common/tusb_common.h **** 
 2684              		.loc 4 202 90 discriminator 1 view .LVU901
 202:lib/TinyUSB/src/common/tusb_common.h **** 
 2685              		.loc 4 202 119 is_stmt 0 discriminator 1 view .LVU902
 2686 006c E340     		lsrs	r3, r3, r4
 2687              	.LVL277:
 202:lib/TinyUSB/src/common/tusb_common.h **** 
 2688              		.loc 4 202 119 discriminator 1 view .LVU903
 2689              	.LBE332:
 2690              	.LBE331:
 969:lib/TinyUSB/src/portable/synopsys/dwc2/dcd_dwc2.c ****     epin_write_tx_fifo(rhport, epnum);
 2691              		.loc 1 969 31 discriminator 1 view .LVU904
 2692 006e 13F0010F 		tst	r3, #1
 2693 0072 EFD0     		beq	.L148
 2694              	.LBB333:
 970:lib/TinyUSB/src/portable/synopsys/dwc2/dcd_dwc2.c **** 
 2695              		.loc 1 970 5 is_stmt 1 view .LVU905
 2696 0074 2146     		mov	r1, r4
 2697 0076 2846     		mov	r0, r5
 2698 0078 FFF7FEFF 		bl	epin_write_tx_fifo
 2699              	.LVL278:
 973:lib/TinyUSB/src/portable/synopsys/dwc2/dcd_dwc2.c ****     if (tsiz.xfer_size == 0) {
 2700              		.loc 1 973 5 view .LVU906
 973:lib/TinyUSB/src/portable/synopsys/dwc2/dcd_dwc2.c ****     if (tsiz.xfer_size == 0) {
 2701              		.loc 1 973 42 is_stmt 0 view .LVU907
 2702 007c 07EB4413 		add	r3, r7, r4, lsl #5
 2703 0080 D3F81039 		ldr	r3, [r3, #2320]
 974:lib/TinyUSB/src/portable/synopsys/dwc2/dcd_dwc2.c ****       dwc2->diepempmsk &= ~(1u << epnum);
 2704              		.loc 1 974 5 is_stmt 1 view .LVU908
 974:lib/TinyUSB/src/portable/synopsys/dwc2/dcd_dwc2.c ****       dwc2->diepempmsk &= ~(1u << epnum);
 2705              		.loc 1 974 24 is_stmt 0 view .LVU909
 2706 0084 C3F31203 		ubfx	r3, r3, #0, #19
 974:lib/TinyUSB/src/portable/synopsys/dwc2/dcd_dwc2.c ****       dwc2->diepempmsk &= ~(1u << epnum);
 2707              		.loc 1 974 8 view .LVU910
 2708 0088 002B     		cmp	r3, #0
 2709 008a E3D1     		bne	.L148
ARM GAS  C:\Users\krisa\AppData\Local\Temp\ccNljk5K.s 			page 98


 975:lib/TinyUSB/src/portable/synopsys/dwc2/dcd_dwc2.c ****     }
 2710              		.loc 1 975 7 is_stmt 1 view .LVU911
 975:lib/TinyUSB/src/portable/synopsys/dwc2/dcd_dwc2.c ****     }
 2711              		.loc 1 975 24 is_stmt 0 view .LVU912
 2712 008c D7F83438 		ldr	r3, [r7, #2100]
 975:lib/TinyUSB/src/portable/synopsys/dwc2/dcd_dwc2.c ****     }
 2713              		.loc 1 975 32 view .LVU913
 2714 0090 0121     		movs	r1, #1
 2715 0092 01FA04F4 		lsl	r4, r1, r4
 2716              	.LVL279:
 975:lib/TinyUSB/src/portable/synopsys/dwc2/dcd_dwc2.c ****     }
 2717              		.loc 1 975 24 view .LVU914
 2718 0096 23EA0404 		bic	r4, r3, r4
 2719 009a C7F83448 		str	r4, [r7, #2100]
 2720              	.LBE333:
 978:lib/TinyUSB/src/portable/synopsys/dwc2/dcd_dwc2.c **** #endif
 2721              		.loc 1 978 1 view .LVU915
 2722 009e D9E7     		b	.L148
 2723              	.L160:
 2724              		.align	2
 2725              	.L159:
 2726 00a0 00000000 		.word	.LANCHOR0
 2727 00a4 00000000 		.word	.LANCHOR1
 2728 00a8 00000000 		.word	.LANCHOR3
 2729              		.cfi_endproc
 2730              	.LFE373:
 2732              		.section	.text.handle_ep_irq,"ax",%progbits
 2733              		.align	1
 2734              		.syntax unified
 2735              		.thumb
 2736              		.thumb_func
 2738              	handle_ep_irq:
 2739              	.LVL280:
 2740              	.LFB374:
1044:lib/TinyUSB/src/portable/synopsys/dwc2/dcd_dwc2.c ****   dwc2_regs_t* dwc2 = DWC2_REG(rhport);
 2741              		.loc 1 1044 56 is_stmt 1 view -0
 2742              		.cfi_startproc
 2743              		@ args = 0, pretend = 0, frame = 0
 2744              		@ frame_needed = 0, uses_anonymous_args = 0
1044:lib/TinyUSB/src/portable/synopsys/dwc2/dcd_dwc2.c ****   dwc2_regs_t* dwc2 = DWC2_REG(rhport);
 2745              		.loc 1 1044 56 is_stmt 0 view .LVU917
 2746 0000 2DE9F047 		push	{r4, r5, r6, r7, r8, r9, r10, lr}
 2747              	.LCFI26:
 2748              		.cfi_def_cfa_offset 32
 2749              		.cfi_offset 4, -32
 2750              		.cfi_offset 5, -28
 2751              		.cfi_offset 6, -24
 2752              		.cfi_offset 7, -20
 2753              		.cfi_offset 8, -16
 2754              		.cfi_offset 9, -12
 2755              		.cfi_offset 10, -8
 2756              		.cfi_offset 14, -4
 2757 0004 8246     		mov	r10, r0
 2758 0006 8946     		mov	r9, r1
1045:lib/TinyUSB/src/portable/synopsys/dwc2/dcd_dwc2.c ****   const bool is_dma = dma_device_enabled(dwc2);
 2759              		.loc 1 1045 3 is_stmt 1 view .LVU918
 2760              	.LVL281:
ARM GAS  C:\Users\krisa\AppData\Local\Temp\ccNljk5K.s 			page 99


 2761              	.LBB334:
 2762              	.LBI334:
  79:lib/TinyUSB/src/portable/synopsys/dwc2/dwc2_common.h ****   if (rhport >= DWC2_CONTROLLER_COUNT) {
 2763              		.loc 2 79 50 view .LVU919
 2764              	.LBB335:
  80:lib/TinyUSB/src/portable/synopsys/dwc2/dwc2_common.h ****     // user mis-configured, ignore and use first controller
 2765              		.loc 2 80 3 view .LVU920
  80:lib/TinyUSB/src/portable/synopsys/dwc2/dwc2_common.h ****     // user mis-configured, ignore and use first controller
 2766              		.loc 2 80 6 is_stmt 0 view .LVU921
 2767 0008 0128     		cmp	r0, #1
 2768 000a 17D9     		bls	.L172
  82:lib/TinyUSB/src/portable/synopsys/dwc2/dwc2_common.h ****   }
 2769              		.loc 2 82 12 view .LVU922
 2770 000c 0023     		movs	r3, #0
 2771              	.L162:
 2772              	.LVL282:
  84:lib/TinyUSB/src/portable/synopsys/dwc2/dwc2_common.h **** }
 2773              		.loc 2 84 3 is_stmt 1 view .LVU923
  84:lib/TinyUSB/src/portable/synopsys/dwc2/dwc2_common.h **** }
 2774              		.loc 2 84 48 is_stmt 0 view .LVU924
 2775 000e 1B01     		lsls	r3, r3, #4
 2776              	.LVL283:
  84:lib/TinyUSB/src/portable/synopsys/dwc2/dwc2_common.h **** }
 2777              		.loc 2 84 48 view .LVU925
 2778 0010 1C4A     		ldr	r2, .L176
 2779 0012 D658     		ldr	r6, [r2, r3]
 2780              	.LVL284:
  84:lib/TinyUSB/src/portable/synopsys/dwc2/dwc2_common.h **** }
 2781              		.loc 2 84 48 view .LVU926
 2782              	.LBE335:
 2783              	.LBE334:
1046:lib/TinyUSB/src/portable/synopsys/dwc2/dcd_dwc2.c ****   const uint8_t ep_count = dwc2_ep_count(dwc2);
 2784              		.loc 1 1046 3 is_stmt 1 view .LVU927
 2785              	.LBB337:
 2786              	.LBI337:
 121:lib/TinyUSB/src/portable/synopsys/dwc2/dcd_dwc2.c ****   (void) dwc2;
 2787              		.loc 1 121 42 view .LVU928
 2788              	.LBB338:
 122:lib/TinyUSB/src/portable/synopsys/dwc2/dcd_dwc2.c ****   // Internal DMA only
 2789              		.loc 1 122 3 view .LVU929
 124:lib/TinyUSB/src/portable/synopsys/dwc2/dcd_dwc2.c ****   return CFG_TUD_DWC2_DMA_ENABLE && ghwcfg2.arch == GHWCFG2_ARCH_INTERNAL_DMA;
 2790              		.loc 1 124 3 view .LVU930
 124:lib/TinyUSB/src/portable/synopsys/dwc2/dcd_dwc2.c ****   return CFG_TUD_DWC2_DMA_ENABLE && ghwcfg2.arch == GHWCFG2_ARCH_INTERNAL_DMA;
 2791              		.loc 1 124 48 is_stmt 0 view .LVU931
 2792 0014 B36C     		ldr	r3, [r6, #72]
 125:lib/TinyUSB/src/portable/synopsys/dwc2/dcd_dwc2.c **** }
 2793              		.loc 1 125 3 is_stmt 1 view .LVU932
 2794              	.LVL285:
 125:lib/TinyUSB/src/portable/synopsys/dwc2/dcd_dwc2.c **** }
 2795              		.loc 1 125 3 is_stmt 0 view .LVU933
 2796              	.LBE338:
 2797              	.LBE337:
1047:lib/TinyUSB/src/portable/synopsys/dwc2/dcd_dwc2.c ****   const uint8_t daint_offset = (dir == TUSB_DIR_IN) ? DAINT_IEPINT_Pos : DAINT_OEPINT_Pos;
 2798              		.loc 1 1047 3 is_stmt 1 view .LVU934
 2799              	.LBB339:
 2800              	.LBI339:
  84:lib/TinyUSB/src/portable/synopsys/dwc2/dcd_dwc2.c ****   #if TU_CHECK_MCU(OPT_MCU_GD32VF103)
ARM GAS  C:\Users\krisa\AppData\Local\Temp\ccNljk5K.s 			page 100


 2801              		.loc 1 84 45 view .LVU935
 2802              	.LBB340:
  89:lib/TinyUSB/src/portable/synopsys/dwc2/dcd_dwc2.c ****   return ghwcfg2.num_dev_ep + 1;
 2803              		.loc 1 89 3 view .LVU936
  89:lib/TinyUSB/src/portable/synopsys/dwc2/dcd_dwc2.c ****   return ghwcfg2.num_dev_ep + 1;
 2804              		.loc 1 89 48 is_stmt 0 view .LVU937
 2805 0016 B56C     		ldr	r5, [r6, #72]
  90:lib/TinyUSB/src/portable/synopsys/dwc2/dcd_dwc2.c ****   #endif
 2806              		.loc 1 90 3 is_stmt 1 view .LVU938
  90:lib/TinyUSB/src/portable/synopsys/dwc2/dcd_dwc2.c ****   #endif
 2807              		.loc 1 90 17 is_stmt 0 view .LVU939
 2808 0018 C5F38325 		ubfx	r5, r5, #10, #4
  90:lib/TinyUSB/src/portable/synopsys/dwc2/dcd_dwc2.c ****   #endif
 2809              		.loc 1 90 29 view .LVU940
 2810 001c 0135     		adds	r5, r5, #1
 2811              	.LVL286:
  90:lib/TinyUSB/src/portable/synopsys/dwc2/dcd_dwc2.c ****   #endif
 2812              		.loc 1 90 29 view .LVU941
 2813              	.LBE340:
 2814              	.LBE339:
1048:lib/TinyUSB/src/portable/synopsys/dwc2/dcd_dwc2.c ****   dwc2_dep_t* ep_base = &dwc2->ep[dir == TUSB_DIR_IN ? 0 : 1][0];
 2815              		.loc 1 1048 3 is_stmt 1 view .LVU942
1048:lib/TinyUSB/src/portable/synopsys/dwc2/dcd_dwc2.c ****   dwc2_dep_t* ep_base = &dwc2->ep[dir == TUSB_DIR_IN ? 0 : 1][0];
 2816              		.loc 1 1048 17 is_stmt 0 view .LVU943
 2817 001e B9F1010F 		cmp	r9, #1
 2818 0022 0DD0     		beq	.L173
 2819 0024 4FF01008 		mov	r8, #16
 2820              	.L163:
 2821              	.LVL287:
1049:lib/TinyUSB/src/portable/synopsys/dwc2/dcd_dwc2.c **** 
 2822              		.loc 1 1049 3 is_stmt 1 discriminator 4 view .LVU944
1049:lib/TinyUSB/src/portable/synopsys/dwc2/dcd_dwc2.c **** 
 2823              		.loc 1 1049 58 is_stmt 0 discriminator 4 view .LVU945
 2824 0028 B9F10107 		subs	r7, r9, #1
 2825 002c 18BF     		it	ne
 2826 002e 0127     		movne	r7, #1
1049:lib/TinyUSB/src/portable/synopsys/dwc2/dcd_dwc2.c **** 
 2827              		.loc 1 1049 15 discriminator 4 view .LVU946
 2828 0030 7F02     		lsls	r7, r7, #9
 2829 0032 07F51067 		add	r7, r7, #2304
 2830 0036 3744     		add	r7, r7, r6
 2831              	.LVL288:
1053:lib/TinyUSB/src/portable/synopsys/dwc2/dcd_dwc2.c ****     if (tu_bit_test(dwc2->daint,daint_offset + epnum)) {
 2832              		.loc 1 1053 3 is_stmt 1 discriminator 4 view .LVU947
 2833              	.LBB341:
1053:lib/TinyUSB/src/portable/synopsys/dwc2/dcd_dwc2.c ****     if (tu_bit_test(dwc2->daint,daint_offset + epnum)) {
 2834              		.loc 1 1053 8 discriminator 4 view .LVU948
1053:lib/TinyUSB/src/portable/synopsys/dwc2/dcd_dwc2.c ****     if (tu_bit_test(dwc2->daint,daint_offset + epnum)) {
 2835              		.loc 1 1053 16 is_stmt 0 discriminator 4 view .LVU949
 2836 0038 0024     		movs	r4, #0
1053:lib/TinyUSB/src/portable/synopsys/dwc2/dcd_dwc2.c ****     if (tu_bit_test(dwc2->daint,daint_offset + epnum)) {
 2837              		.loc 1 1053 3 discriminator 4 view .LVU950
 2838 003a 0AE0     		b	.L164
 2839              	.LVL289:
 2840              	.L172:
1053:lib/TinyUSB/src/portable/synopsys/dwc2/dcd_dwc2.c ****     if (tu_bit_test(dwc2->daint,daint_offset + epnum)) {
 2841              		.loc 1 1053 3 discriminator 4 view .LVU951
ARM GAS  C:\Users\krisa\AppData\Local\Temp\ccNljk5K.s 			page 101


 2842              	.LBE341:
 2843              	.LBB346:
 2844              	.LBB336:
  80:lib/TinyUSB/src/portable/synopsys/dwc2/dwc2_common.h ****     // user mis-configured, ignore and use first controller
 2845              		.loc 2 80 6 view .LVU952
 2846 003c 0346     		mov	r3, r0
 2847 003e E6E7     		b	.L162
 2848              	.LVL290:
 2849              	.L173:
  80:lib/TinyUSB/src/portable/synopsys/dwc2/dwc2_common.h ****     // user mis-configured, ignore and use first controller
 2850              		.loc 2 80 6 view .LVU953
 2851              	.LBE336:
 2852              	.LBE346:
1048:lib/TinyUSB/src/portable/synopsys/dwc2/dcd_dwc2.c ****   dwc2_dep_t* ep_base = &dwc2->ep[dir == TUSB_DIR_IN ? 0 : 1][0];
 2853              		.loc 1 1048 17 view .LVU954
 2854 0040 4FF00008 		mov	r8, #0
 2855 0044 F0E7     		b	.L163
 2856              	.LVL291:
 2857              	.L175:
 2858              	.LBB347:
 2859              	.LBB342:
1076:lib/TinyUSB/src/portable/synopsys/dwc2/dcd_dwc2.c ****         } else {
 2860              		.loc 1 1076 11 is_stmt 1 view .LVU955
 2861 0046 2146     		mov	r1, r4
 2862 0048 5046     		mov	r0, r10
 2863 004a FFF7FEFF 		bl	handle_epin_slave
 2864              	.LVL292:
 2865              	.L165:
1076:lib/TinyUSB/src/portable/synopsys/dwc2/dcd_dwc2.c ****         } else {
 2866              		.loc 1 1076 11 is_stmt 0 view .LVU956
 2867              	.LBE342:
1053:lib/TinyUSB/src/portable/synopsys/dwc2/dcd_dwc2.c ****     if (tu_bit_test(dwc2->daint,daint_offset + epnum)) {
 2868              		.loc 1 1053 45 is_stmt 1 discriminator 2 view .LVU957
1053:lib/TinyUSB/src/portable/synopsys/dwc2/dcd_dwc2.c ****     if (tu_bit_test(dwc2->daint,daint_offset + epnum)) {
 2869              		.loc 1 1053 50 is_stmt 0 discriminator 2 view .LVU958
 2870 004e 0134     		adds	r4, r4, #1
 2871              	.LVL293:
1053:lib/TinyUSB/src/portable/synopsys/dwc2/dcd_dwc2.c ****     if (tu_bit_test(dwc2->daint,daint_offset + epnum)) {
 2872              		.loc 1 1053 50 discriminator 2 view .LVU959
 2873 0050 E4B2     		uxtb	r4, r4
 2874              	.LVL294:
 2875              	.L164:
1053:lib/TinyUSB/src/portable/synopsys/dwc2/dcd_dwc2.c ****     if (tu_bit_test(dwc2->daint,daint_offset + epnum)) {
 2876              		.loc 1 1053 27 is_stmt 1 discriminator 1 view .LVU960
1053:lib/TinyUSB/src/portable/synopsys/dwc2/dcd_dwc2.c ****     if (tu_bit_test(dwc2->daint,daint_offset + epnum)) {
 2877              		.loc 1 1053 3 is_stmt 0 discriminator 1 view .LVU961
 2878 0052 AC42     		cmp	r4, r5
 2879 0054 14D2     		bcs	.L174
1054:lib/TinyUSB/src/portable/synopsys/dwc2/dcd_dwc2.c ****       dwc2_dep_t* epout = &ep_base[epnum];
 2880              		.loc 1 1054 5 is_stmt 1 view .LVU962
1054:lib/TinyUSB/src/portable/synopsys/dwc2/dcd_dwc2.c ****       dwc2_dep_t* epout = &ep_base[epnum];
 2881              		.loc 1 1054 9 is_stmt 0 view .LVU963
 2882 0056 D6F81838 		ldr	r3, [r6, #2072]
 2883 005a 04EB0802 		add	r2, r4, r8
 2884 005e D2B2     		uxtb	r2, r2
 2885              	.LVL295:
 2886              	.LBB343:
ARM GAS  C:\Users\krisa\AppData\Local\Temp\ccNljk5K.s 			page 102


 2887              	.LBI343:
 202:lib/TinyUSB/src/common/tusb_common.h **** 
 2888              		.loc 4 202 46 is_stmt 1 view .LVU964
 2889              	.LBB344:
 202:lib/TinyUSB/src/common/tusb_common.h **** 
 2890              		.loc 4 202 90 view .LVU965
 202:lib/TinyUSB/src/common/tusb_common.h **** 
 2891              		.loc 4 202 119 is_stmt 0 view .LVU966
 2892 0060 D340     		lsrs	r3, r3, r2
 2893              	.LVL296:
 202:lib/TinyUSB/src/common/tusb_common.h **** 
 2894              		.loc 4 202 119 view .LVU967
 2895              	.LBE344:
 2896              	.LBE343:
1054:lib/TinyUSB/src/portable/synopsys/dwc2/dcd_dwc2.c ****       dwc2_dep_t* epout = &ep_base[epnum];
 2897              		.loc 1 1054 8 view .LVU968
 2898 0062 13F0010F 		tst	r3, #1
 2899 0066 F2D0     		beq	.L165
 2900              	.LBB345:
1055:lib/TinyUSB/src/portable/synopsys/dwc2/dcd_dwc2.c ****       union {
 2901              		.loc 1 1055 7 is_stmt 1 view .LVU969
1055:lib/TinyUSB/src/portable/synopsys/dwc2/dcd_dwc2.c ****       union {
 2902              		.loc 1 1055 19 is_stmt 0 view .LVU970
 2903 0068 07EB4413 		add	r3, r7, r4, lsl #5
 2904              	.LVL297:
1056:lib/TinyUSB/src/portable/synopsys/dwc2/dcd_dwc2.c ****         uint32_t value;
 2905              		.loc 1 1056 7 is_stmt 1 view .LVU971
1061:lib/TinyUSB/src/portable/synopsys/dwc2/dcd_dwc2.c **** 
 2906              		.loc 1 1061 7 view .LVU972
1061:lib/TinyUSB/src/portable/synopsys/dwc2/dcd_dwc2.c **** 
 2907              		.loc 1 1061 25 is_stmt 0 view .LVU973
 2908 006c 9A68     		ldr	r2, [r3, #8]
 2909              	.LVL298:
1063:lib/TinyUSB/src/portable/synopsys/dwc2/dcd_dwc2.c **** 
 2910              		.loc 1 1063 7 is_stmt 1 view .LVU974
1063:lib/TinyUSB/src/portable/synopsys/dwc2/dcd_dwc2.c **** 
 2911              		.loc 1 1063 19 is_stmt 0 view .LVU975
 2912 006e 9A60     		str	r2, [r3, #8]
1065:lib/TinyUSB/src/portable/synopsys/dwc2/dcd_dwc2.c ****         #if CFG_TUD_DWC2_DMA_ENABLE
 2913              		.loc 1 1065 7 is_stmt 1 view .LVU976
1075:lib/TinyUSB/src/portable/synopsys/dwc2/dcd_dwc2.c ****           handle_epin_slave(rhport, epnum, intr.diepint_bm);
 2914              		.loc 1 1075 9 view .LVU977
1075:lib/TinyUSB/src/portable/synopsys/dwc2/dcd_dwc2.c ****           handle_epin_slave(rhport, epnum, intr.diepint_bm);
 2915              		.loc 1 1075 12 is_stmt 0 view .LVU978
 2916 0070 B9F1010F 		cmp	r9, #1
 2917 0074 E7D0     		beq	.L175
1078:lib/TinyUSB/src/portable/synopsys/dwc2/dcd_dwc2.c ****         }
 2918              		.loc 1 1078 11 is_stmt 1 view .LVU979
 2919 0076 2146     		mov	r1, r4
 2920 0078 5046     		mov	r0, r10
 2921 007a FFF7FEFF 		bl	handle_epout_slave
 2922              	.LVL299:
1078:lib/TinyUSB/src/portable/synopsys/dwc2/dcd_dwc2.c ****         }
 2923              		.loc 1 1078 11 is_stmt 0 view .LVU980
 2924 007e E6E7     		b	.L165
 2925              	.LVL300:
 2926              	.L174:
ARM GAS  C:\Users\krisa\AppData\Local\Temp\ccNljk5K.s 			page 103


1078:lib/TinyUSB/src/portable/synopsys/dwc2/dcd_dwc2.c ****         }
 2927              		.loc 1 1078 11 view .LVU981
 2928              	.LBE345:
 2929              	.LBE347:
1084:lib/TinyUSB/src/portable/synopsys/dwc2/dcd_dwc2.c **** 
 2930              		.loc 1 1084 1 view .LVU982
 2931 0080 BDE8F087 		pop	{r4, r5, r6, r7, r8, r9, r10, pc}
 2932              	.LVL301:
 2933              	.L177:
1084:lib/TinyUSB/src/portable/synopsys/dwc2/dcd_dwc2.c **** 
 2934              		.loc 1 1084 1 view .LVU983
 2935              		.align	2
 2936              	.L176:
 2937 0084 00000000 		.word	.LANCHOR0
 2938              		.cfi_endproc
 2939              	.LFE374:
 2941              		.section	.text.handle_rxflvl_irq,"ax",%progbits
 2942              		.align	1
 2943              		.syntax unified
 2944              		.thumb
 2945              		.thumb_func
 2947              	handle_rxflvl_irq:
 2948              	.LVL302:
 2949              	.LFB371:
 858:lib/TinyUSB/src/portable/synopsys/dwc2/dcd_dwc2.c ****   dwc2_regs_t* dwc2 = DWC2_REG(rhport);
 2950              		.loc 1 858 47 is_stmt 1 view -0
 2951              		.cfi_startproc
 2952              		@ args = 0, pretend = 0, frame = 0
 2953              		@ frame_needed = 0, uses_anonymous_args = 0
 858:lib/TinyUSB/src/portable/synopsys/dwc2/dcd_dwc2.c ****   dwc2_regs_t* dwc2 = DWC2_REG(rhport);
 2954              		.loc 1 858 47 is_stmt 0 view .LVU985
 2955 0000 2DE9F041 		push	{r4, r5, r6, r7, r8, lr}
 2956              	.LCFI27:
 2957              		.cfi_def_cfa_offset 24
 2958              		.cfi_offset 4, -24
 2959              		.cfi_offset 5, -20
 2960              		.cfi_offset 6, -16
 2961              		.cfi_offset 7, -12
 2962              		.cfi_offset 8, -8
 2963              		.cfi_offset 14, -4
 859:lib/TinyUSB/src/portable/synopsys/dwc2/dcd_dwc2.c ****   const volatile uint32_t* rx_fifo = dwc2->fifo[0];
 2964              		.loc 1 859 3 is_stmt 1 view .LVU986
 2965              	.LVL303:
 2966              	.LBB348:
 2967              	.LBI348:
  79:lib/TinyUSB/src/portable/synopsys/dwc2/dwc2_common.h ****   if (rhport >= DWC2_CONTROLLER_COUNT) {
 2968              		.loc 2 79 50 view .LVU987
 2969              	.LBB349:
  80:lib/TinyUSB/src/portable/synopsys/dwc2/dwc2_common.h ****     // user mis-configured, ignore and use first controller
 2970              		.loc 2 80 3 view .LVU988
  80:lib/TinyUSB/src/portable/synopsys/dwc2/dwc2_common.h ****     // user mis-configured, ignore and use first controller
 2971              		.loc 2 80 6 is_stmt 0 view .LVU989
 2972 0004 0128     		cmp	r0, #1
 2973 0006 00D9     		bls	.L179
  82:lib/TinyUSB/src/portable/synopsys/dwc2/dwc2_common.h ****   }
 2974              		.loc 2 82 12 view .LVU990
 2975 0008 0020     		movs	r0, #0
ARM GAS  C:\Users\krisa\AppData\Local\Temp\ccNljk5K.s 			page 104


 2976              	.LVL304:
 2977              	.L179:
  84:lib/TinyUSB/src/portable/synopsys/dwc2/dwc2_common.h **** }
 2978              		.loc 2 84 3 is_stmt 1 view .LVU991
  84:lib/TinyUSB/src/portable/synopsys/dwc2/dwc2_common.h **** }
 2979              		.loc 2 84 48 is_stmt 0 view .LVU992
 2980 000a 0001     		lsls	r0, r0, #4
 2981              	.LVL305:
  84:lib/TinyUSB/src/portable/synopsys/dwc2/dwc2_common.h **** }
 2982              		.loc 2 84 48 view .LVU993
 2983 000c 2A4B     		ldr	r3, .L190
 2984 000e 1C58     		ldr	r4, [r3, r0]
 2985              	.LVL306:
  84:lib/TinyUSB/src/portable/synopsys/dwc2/dwc2_common.h **** }
 2986              		.loc 2 84 48 view .LVU994
 2987              	.LBE349:
 2988              	.LBE348:
 860:lib/TinyUSB/src/portable/synopsys/dwc2/dcd_dwc2.c **** 
 2989              		.loc 1 860 3 is_stmt 1 view .LVU995
 860:lib/TinyUSB/src/portable/synopsys/dwc2/dcd_dwc2.c **** 
 2990              		.loc 1 860 28 is_stmt 0 view .LVU996
 2991 0010 04F58051 		add	r1, r4, #4096
 2992              	.LVL307:
 863:lib/TinyUSB/src/portable/synopsys/dwc2/dcd_dwc2.c ****   const uint8_t epnum = grxstsp.ep_ch_num;
 2993              		.loc 1 863 3 is_stmt 1 view .LVU997
 863:lib/TinyUSB/src/portable/synopsys/dwc2/dcd_dwc2.c ****   const uint8_t epnum = grxstsp.ep_ch_num;
 2994              		.loc 1 863 48 is_stmt 0 view .LVU998
 2995 0014 256A     		ldr	r5, [r4, #32]
 2996              	.LVL308:
 864:lib/TinyUSB/src/portable/synopsys/dwc2/dcd_dwc2.c **** 
 2997              		.loc 1 864 3 is_stmt 1 view .LVU999
 864:lib/TinyUSB/src/portable/synopsys/dwc2/dcd_dwc2.c **** 
 2998              		.loc 1 864 32 is_stmt 0 view .LVU1000
 2999 0016 05F00F06 		and	r6, r5, #15
 3000              	.LVL309:
 866:lib/TinyUSB/src/portable/synopsys/dwc2/dcd_dwc2.c **** 
 3001              		.loc 1 866 3 is_stmt 1 view .LVU1001
 868:lib/TinyUSB/src/portable/synopsys/dwc2/dcd_dwc2.c ****     case GRXSTS_PKTSTS_GLOBAL_OUT_NAK:
 3002              		.loc 1 868 3 view .LVU1002
 868:lib/TinyUSB/src/portable/synopsys/dwc2/dcd_dwc2.c ****     case GRXSTS_PKTSTS_GLOBAL_OUT_NAK:
 3003              		.loc 1 868 18 is_stmt 0 view .LVU1003
 3004 001a C5F34343 		ubfx	r3, r5, #17, #4
 868:lib/TinyUSB/src/portable/synopsys/dwc2/dcd_dwc2.c ****     case GRXSTS_PKTSTS_GLOBAL_OUT_NAK:
 3005              		.loc 1 868 3 view .LVU1004
 3006 001e 042B     		cmp	r3, #4
 3007 0020 0DD0     		beq	.L180
 3008 0022 062B     		cmp	r3, #6
 3009 0024 03D0     		beq	.L181
 3010 0026 022B     		cmp	r3, #2
 3011 0028 12D0     		beq	.L189
 3012              	.LVL310:
 3013              	.L178:
 922:lib/TinyUSB/src/portable/synopsys/dwc2/dcd_dwc2.c **** 
 3014              		.loc 1 922 1 view .LVU1005
 3015 002a BDE8F081 		pop	{r4, r5, r6, r7, r8, pc}
 3016              	.LVL311:
 3017              	.L181:
ARM GAS  C:\Users\krisa\AppData\Local\Temp\ccNljk5K.s 			page 105


 3018              	.LBB350:
 875:lib/TinyUSB/src/portable/synopsys/dwc2/dcd_dwc2.c ****       // We can receive up to three setup packets in succession, but only the last one is valid.
 3019              		.loc 1 875 7 is_stmt 1 view .LVU1006
 877:lib/TinyUSB/src/portable/synopsys/dwc2/dcd_dwc2.c ****       setup[1] = (*rx_fifo);
 3020              		.loc 1 877 7 view .LVU1007
 877:lib/TinyUSB/src/portable/synopsys/dwc2/dcd_dwc2.c ****       setup[1] = (*rx_fifo);
 3021              		.loc 1 877 19 is_stmt 0 view .LVU1008
 3022 002e 04F58054 		add	r4, r4, #4096
 3023              	.LVL312:
 877:lib/TinyUSB/src/portable/synopsys/dwc2/dcd_dwc2.c ****       setup[1] = (*rx_fifo);
 3024              		.loc 1 877 19 view .LVU1009
 3025 0032 2268     		ldr	r2, [r4]
 877:lib/TinyUSB/src/portable/synopsys/dwc2/dcd_dwc2.c ****       setup[1] = (*rx_fifo);
 3026              		.loc 1 877 16 view .LVU1010
 3027 0034 214B     		ldr	r3, .L190+4
 3028 0036 1A60     		str	r2, [r3]
 878:lib/TinyUSB/src/portable/synopsys/dwc2/dcd_dwc2.c ****       break;
 3029              		.loc 1 878 7 is_stmt 1 view .LVU1011
 878:lib/TinyUSB/src/portable/synopsys/dwc2/dcd_dwc2.c ****       break;
 3030              		.loc 1 878 19 is_stmt 0 view .LVU1012
 3031 0038 2268     		ldr	r2, [r4]
 878:lib/TinyUSB/src/portable/synopsys/dwc2/dcd_dwc2.c ****       break;
 3032              		.loc 1 878 16 view .LVU1013
 3033 003a 5A60     		str	r2, [r3, #4]
 879:lib/TinyUSB/src/portable/synopsys/dwc2/dcd_dwc2.c ****     }
 3034              		.loc 1 879 7 is_stmt 1 view .LVU1014
 3035 003c F5E7     		b	.L178
 3036              	.LVL313:
 3037              	.L180:
 879:lib/TinyUSB/src/portable/synopsys/dwc2/dcd_dwc2.c ****     }
 3038              		.loc 1 879 7 is_stmt 0 view .LVU1015
 3039              	.LBE350:
 885:lib/TinyUSB/src/portable/synopsys/dwc2/dcd_dwc2.c ****       break;
 3040              		.loc 1 885 7 is_stmt 1 view .LVU1016
 885:lib/TinyUSB/src/portable/synopsys/dwc2/dcd_dwc2.c ****       break;
 3041              		.loc 1 885 23 is_stmt 0 view .LVU1017
 3042 003e 04EB4614 		add	r4, r4, r6, lsl #5
 3043              	.LVL314:
 885:lib/TinyUSB/src/portable/synopsys/dwc2/dcd_dwc2.c ****       break;
 3044              		.loc 1 885 23 view .LVU1018
 3045 0042 D4F8103B 		ldr	r3, [r4, #2832]
 3046 0046 43F0C043 		orr	r3, r3, #1610612736
 3047 004a C4F8103B 		str	r3, [r4, #2832]
 886:lib/TinyUSB/src/portable/synopsys/dwc2/dcd_dwc2.c **** 
 3048              		.loc 1 886 7 is_stmt 1 view .LVU1019
 3049 004e ECE7     		b	.L178
 3050              	.LVL315:
 3051              	.L189:
 3052              	.LBB351:
 890:lib/TinyUSB/src/portable/synopsys/dwc2/dcd_dwc2.c ****       xfer_ctl_t* xfer = XFER_CTL_BASE(epnum, TUSB_DIR_OUT);
 3053              		.loc 1 890 7 view .LVU1020
 890:lib/TinyUSB/src/portable/synopsys/dwc2/dcd_dwc2.c ****       xfer_ctl_t* xfer = XFER_CTL_BASE(epnum, TUSB_DIR_OUT);
 3054              		.loc 1 890 42 is_stmt 0 view .LVU1021
 3055 0050 C5F30A15 		ubfx	r5, r5, #4, #11
 3056              	.LVL316:
 891:lib/TinyUSB/src/portable/synopsys/dwc2/dcd_dwc2.c **** 
 3057              		.loc 1 891 7 is_stmt 1 view .LVU1022
ARM GAS  C:\Users\krisa\AppData\Local\Temp\ccNljk5K.s 			page 106


 893:lib/TinyUSB/src/portable/synopsys/dwc2/dcd_dwc2.c ****         // Read packet off RxFIFO
 3058              		.loc 1 893 7 view .LVU1023
 893:lib/TinyUSB/src/portable/synopsys/dwc2/dcd_dwc2.c ****         // Read packet off RxFIFO
 3059              		.loc 1 893 10 is_stmt 0 view .LVU1024
 3060 0054 45B1     		cbz	r5, .L184
 895:lib/TinyUSB/src/portable/synopsys/dwc2/dcd_dwc2.c ****           tu_fifo_write_n_access_mode(xfer->ff, (const void *)(uintptr_t)rx_fifo, byte_count, TU_FI
 3061              		.loc 1 895 9 is_stmt 1 view .LVU1025
 895:lib/TinyUSB/src/portable/synopsys/dwc2/dcd_dwc2.c ****           tu_fifo_write_n_access_mode(xfer->ff, (const void *)(uintptr_t)rx_fifo, byte_count, TU_FI
 3062              		.loc 1 895 17 is_stmt 0 view .LVU1026
 3063 0056 1A4B     		ldr	r3, .L190+8
 3064 0058 03EB4613 		add	r3, r3, r6, lsl #5
 3065 005c 5868     		ldr	r0, [r3, #4]
 895:lib/TinyUSB/src/portable/synopsys/dwc2/dcd_dwc2.c ****           tu_fifo_write_n_access_mode(xfer->ff, (const void *)(uintptr_t)rx_fifo, byte_count, TU_FI
 3066              		.loc 1 895 12 view .LVU1027
 3067 005e D8B1     		cbz	r0, .L185
 896:lib/TinyUSB/src/portable/synopsys/dwc2/dcd_dwc2.c ****         } else {
 3068              		.loc 1 896 11 is_stmt 1 view .LVU1028
 3069 0060 0123     		movs	r3, #1
 3070 0062 2A46     		mov	r2, r5
 3071 0064 FFF7FEFF 		bl	tu_fifo_write_n_access_mode
 3072              	.LVL317:
 3073              	.L184:
 904:lib/TinyUSB/src/portable/synopsys/dwc2/dcd_dwc2.c ****         const dwc2_ep_tsize_t tsiz = {.value = epout->tsiz};
 3074              		.loc 1 904 7 view .LVU1029
 904:lib/TinyUSB/src/portable/synopsys/dwc2/dcd_dwc2.c ****         const dwc2_ep_tsize_t tsiz = {.value = epout->tsiz};
 3075              		.loc 1 904 28 is_stmt 0 view .LVU1030
 3076 0068 154B     		ldr	r3, .L190+8
 3077 006a 03EB4613 		add	r3, r3, r6, lsl #5
 3078 006e 5B89     		ldrh	r3, [r3, #10]
 904:lib/TinyUSB/src/portable/synopsys/dwc2/dcd_dwc2.c ****         const dwc2_ep_tsize_t tsiz = {.value = epout->tsiz};
 3079              		.loc 1 904 10 view .LVU1031
 3080 0070 AB42     		cmp	r3, r5
 3081 0072 DAD9     		bls	.L178
 3082              	.LBB352:
 905:lib/TinyUSB/src/portable/synopsys/dwc2/dcd_dwc2.c ****         xfer->total_len -= tsiz.xfer_size;
 3083              		.loc 1 905 9 is_stmt 1 view .LVU1032
 905:lib/TinyUSB/src/portable/synopsys/dwc2/dcd_dwc2.c ****         xfer->total_len -= tsiz.xfer_size;
 3084              		.loc 1 905 53 is_stmt 0 view .LVU1033
 3085 0074 04EB4614 		add	r4, r4, r6, lsl #5
 3086              	.LVL318:
 905:lib/TinyUSB/src/portable/synopsys/dwc2/dcd_dwc2.c ****         xfer->total_len -= tsiz.xfer_size;
 3087              		.loc 1 905 53 view .LVU1034
 3088 0078 D4F8101B 		ldr	r1, [r4, #2832]
 906:lib/TinyUSB/src/portable/synopsys/dwc2/dcd_dwc2.c ****         if (epnum == 0) {
 3089              		.loc 1 906 9 is_stmt 1 view .LVU1035
 906:lib/TinyUSB/src/portable/synopsys/dwc2/dcd_dwc2.c ****         if (epnum == 0) {
 3090              		.loc 1 906 32 is_stmt 0 view .LVU1036
 3091 007c C1F31201 		ubfx	r1, r1, #0, #19
 906:lib/TinyUSB/src/portable/synopsys/dwc2/dcd_dwc2.c ****         if (epnum == 0) {
 3092              		.loc 1 906 25 view .LVU1037
 3093 0080 0F4B     		ldr	r3, .L190+8
 3094 0082 03EB4613 		add	r3, r3, r6, lsl #5
 3095 0086 1A89     		ldrh	r2, [r3, #8]
 3096 0088 521A     		subs	r2, r2, r1
 3097 008a 1A81     		strh	r2, [r3, #8]	@ movhi
 907:lib/TinyUSB/src/portable/synopsys/dwc2/dcd_dwc2.c ****           _dcd_data.ep0_pending[TUSB_DIR_OUT] = 0;
 3098              		.loc 1 907 9 is_stmt 1 view .LVU1038
ARM GAS  C:\Users\krisa\AppData\Local\Temp\ccNljk5K.s 			page 107


 907:lib/TinyUSB/src/portable/synopsys/dwc2/dcd_dwc2.c ****           _dcd_data.ep0_pending[TUSB_DIR_OUT] = 0;
 3099              		.loc 1 907 12 is_stmt 0 view .LVU1039
 3100 008c 002E     		cmp	r6, #0
 3101 008e CCD1     		bne	.L178
 908:lib/TinyUSB/src/portable/synopsys/dwc2/dcd_dwc2.c ****         }
 3102              		.loc 1 908 11 is_stmt 1 view .LVU1040
 908:lib/TinyUSB/src/portable/synopsys/dwc2/dcd_dwc2.c ****         }
 3103              		.loc 1 908 47 is_stmt 0 view .LVU1041
 3104 0090 0C4B     		ldr	r3, .L190+12
 3105 0092 0022     		movs	r2, #0
 3106 0094 1A80     		strh	r2, [r3]	@ movhi
 3107              	.LBE352:
 3108              	.LBE351:
 922:lib/TinyUSB/src/portable/synopsys/dwc2/dcd_dwc2.c **** 
 3109              		.loc 1 922 1 view .LVU1042
 3110 0096 C8E7     		b	.L178
 3111              	.LVL319:
 3112              	.L185:
 3113              	.LBB353:
 898:lib/TinyUSB/src/portable/synopsys/dwc2/dcd_dwc2.c ****           xfer->buffer += byte_count;
 3114              		.loc 1 898 11 is_stmt 1 view .LVU1043
 3115 0098 DFF82480 		ldr	r8, .L190+8
 3116 009c 7701     		lsls	r7, r6, #5
 3117 009e 2A46     		mov	r2, r5
 3118 00a0 58F80710 		ldr	r1, [r8, r7]
 3119              	.LVL320:
 898:lib/TinyUSB/src/portable/synopsys/dwc2/dcd_dwc2.c ****           xfer->buffer += byte_count;
 3120              		.loc 1 898 11 is_stmt 0 view .LVU1044
 3121 00a4 2046     		mov	r0, r4
 3122 00a6 FFF7FEFF 		bl	dfifo_read_packet
 3123              	.LVL321:
 899:lib/TinyUSB/src/portable/synopsys/dwc2/dcd_dwc2.c ****         }
 3124              		.loc 1 899 11 is_stmt 1 view .LVU1045
 899:lib/TinyUSB/src/portable/synopsys/dwc2/dcd_dwc2.c ****         }
 3125              		.loc 1 899 24 is_stmt 0 view .LVU1046
 3126 00aa 58F80730 		ldr	r3, [r8, r7]
 3127 00ae 2B44     		add	r3, r3, r5
 3128 00b0 48F80730 		str	r3, [r8, r7]
 3129 00b4 D8E7     		b	.L184
 3130              	.L191:
 3131 00b6 00BF     		.align	2
 3132              	.L190:
 3133 00b8 00000000 		.word	.LANCHOR0
 3134 00bc 00000000 		.word	.LANCHOR4
 3135 00c0 00000000 		.word	.LANCHOR3
 3136 00c4 00000000 		.word	.LANCHOR1
 3137              	.LBE353:
 3138              		.cfi_endproc
 3139              	.LFE371:
 3141              		.section	.text.dcd_configure,"ax",%progbits
 3142              		.align	1
 3143              		.global	dcd_configure
 3144              		.syntax unified
 3145              		.thumb
 3146              		.thumb_func
 3148              	dcd_configure:
 3149              	.LVL322:
ARM GAS  C:\Users\krisa\AppData\Local\Temp\ccNljk5K.s 			page 108


 3150              	.LFB352:
 456:lib/TinyUSB/src/portable/synopsys/dwc2/dcd_dwc2.c ****   (void) rhport;
 3151              		.loc 1 456 76 is_stmt 1 view -0
 3152              		.cfi_startproc
 3153              		@ args = 0, pretend = 0, frame = 0
 3154              		@ frame_needed = 0, uses_anonymous_args = 0
 3155              		@ link register save eliminated.
 457:lib/TinyUSB/src/portable/synopsys/dwc2/dcd_dwc2.c ****   TU_VERIFY(cfg_id == TUD_CFGID_DWC2 && cfg_param != NULL);
 3156              		.loc 1 457 3 view .LVU1048
 458:lib/TinyUSB/src/portable/synopsys/dwc2/dcd_dwc2.c **** 
 3157              		.loc 1 458 3 view .LVU1049
 458:lib/TinyUSB/src/portable/synopsys/dwc2/dcd_dwc2.c **** 
 3158              		.loc 1 458 3 view .LVU1050
 3159 0000 6429     		cmp	r1, #100
 3160 0002 05D1     		bne	.L194
 458:lib/TinyUSB/src/portable/synopsys/dwc2/dcd_dwc2.c **** 
 3161              		.loc 1 458 3 is_stmt 0 discriminator 2 view .LVU1051
 3162 0004 32B1     		cbz	r2, .L195
 458:lib/TinyUSB/src/portable/synopsys/dwc2/dcd_dwc2.c **** 
 3163              		.loc 1 458 3 is_stmt 1 discriminator 4 view .LVU1052
 460:lib/TinyUSB/src/portable/synopsys/dwc2/dcd_dwc2.c ****   _tud_cfg = cfg->dwc2;
 3164              		.loc 1 460 3 discriminator 4 view .LVU1053
 3165              	.LVL323:
 461:lib/TinyUSB/src/portable/synopsys/dwc2/dcd_dwc2.c ****   return true;
 3166              		.loc 1 461 3 discriminator 4 view .LVU1054
 461:lib/TinyUSB/src/portable/synopsys/dwc2/dcd_dwc2.c ****   return true;
 3167              		.loc 1 461 12 is_stmt 0 discriminator 4 view .LVU1055
 3168 0006 1288     		ldrh	r2, [r2]
 3169              	.LVL324:
 461:lib/TinyUSB/src/portable/synopsys/dwc2/dcd_dwc2.c ****   return true;
 3170              		.loc 1 461 12 discriminator 4 view .LVU1056
 3171 0008 034B     		ldr	r3, .L196
 3172 000a 1A80     		strh	r2, [r3]	@ movhi
 462:lib/TinyUSB/src/portable/synopsys/dwc2/dcd_dwc2.c **** }
 3173              		.loc 1 462 3 is_stmt 1 discriminator 4 view .LVU1057
 462:lib/TinyUSB/src/portable/synopsys/dwc2/dcd_dwc2.c **** }
 3174              		.loc 1 462 10 is_stmt 0 discriminator 4 view .LVU1058
 3175 000c 0120     		movs	r0, #1
 3176              	.LVL325:
 462:lib/TinyUSB/src/portable/synopsys/dwc2/dcd_dwc2.c **** }
 3177              		.loc 1 462 10 discriminator 4 view .LVU1059
 3178 000e 7047     		bx	lr
 3179              	.LVL326:
 3180              	.L194:
 458:lib/TinyUSB/src/portable/synopsys/dwc2/dcd_dwc2.c **** 
 3181              		.loc 1 458 3 view .LVU1060
 3182 0010 0020     		movs	r0, #0
 3183              	.LVL327:
 458:lib/TinyUSB/src/portable/synopsys/dwc2/dcd_dwc2.c **** 
 3184              		.loc 1 458 3 view .LVU1061
 3185 0012 7047     		bx	lr
 3186              	.LVL328:
 3187              	.L195:
 458:lib/TinyUSB/src/portable/synopsys/dwc2/dcd_dwc2.c **** 
 3188              		.loc 1 458 3 view .LVU1062
 3189 0014 0020     		movs	r0, #0
 3190              	.LVL329:
ARM GAS  C:\Users\krisa\AppData\Local\Temp\ccNljk5K.s 			page 109


 463:lib/TinyUSB/src/portable/synopsys/dwc2/dcd_dwc2.c **** 
 3191              		.loc 1 463 1 view .LVU1063
 3192 0016 7047     		bx	lr
 3193              	.L197:
 3194              		.align	2
 3195              	.L196:
 3196 0018 00000000 		.word	.LANCHOR2
 3197              		.cfi_endproc
 3198              	.LFE352:
 3200              		.section	.text.dcd_int_enable,"ax",%progbits
 3201              		.align	1
 3202              		.global	dcd_int_enable
 3203              		.syntax unified
 3204              		.thumb
 3205              		.thumb_func
 3207              	dcd_int_enable:
 3208              	.LVL330:
 3209              	.LFB354:
 519:lib/TinyUSB/src/portable/synopsys/dwc2/dcd_dwc2.c ****   dwc2_dcd_int_enable(rhport);
 3210              		.loc 1 519 37 is_stmt 1 view -0
 3211              		.cfi_startproc
 3212              		@ args = 0, pretend = 0, frame = 0
 3213              		@ frame_needed = 0, uses_anonymous_args = 0
 3214              		@ link register save eliminated.
 520:lib/TinyUSB/src/portable/synopsys/dwc2/dcd_dwc2.c **** }
 3215              		.loc 1 520 3 view .LVU1065
 3216              	.LBB358:
 3217              	.LBI358:
 3218              		.file 6 "lib/TinyUSB/src/portable/synopsys/dwc2/dwc2_stm32.h"
   1:lib/TinyUSB/src/portable/synopsys/dwc2/dwc2_stm32.h **** /*
   2:lib/TinyUSB/src/portable/synopsys/dwc2/dwc2_stm32.h ****  * The MIT License (MIT)
   3:lib/TinyUSB/src/portable/synopsys/dwc2/dwc2_stm32.h ****  *
   4:lib/TinyUSB/src/portable/synopsys/dwc2/dwc2_stm32.h ****  * Copyright (c) 2021, Ha Thach (tinyusb.org)
   5:lib/TinyUSB/src/portable/synopsys/dwc2/dwc2_stm32.h ****  *
   6:lib/TinyUSB/src/portable/synopsys/dwc2/dwc2_stm32.h ****  * Permission is hereby granted, free of charge, to any person obtaining a copy
   7:lib/TinyUSB/src/portable/synopsys/dwc2/dwc2_stm32.h ****  * of this software and associated documentation files (the "Software"), to deal
   8:lib/TinyUSB/src/portable/synopsys/dwc2/dwc2_stm32.h ****  * in the Software without restriction, including without limitation the rights
   9:lib/TinyUSB/src/portable/synopsys/dwc2/dwc2_stm32.h ****  * to use, copy, modify, merge, publish, distribute, sublicense, and/or sell
  10:lib/TinyUSB/src/portable/synopsys/dwc2/dwc2_stm32.h ****  * copies of the Software, and to permit persons to whom the Software is
  11:lib/TinyUSB/src/portable/synopsys/dwc2/dwc2_stm32.h ****  * furnished to do so, subject to the following conditions:
  12:lib/TinyUSB/src/portable/synopsys/dwc2/dwc2_stm32.h ****  *
  13:lib/TinyUSB/src/portable/synopsys/dwc2/dwc2_stm32.h ****  * The above copyright notice and this permission notice shall be included in
  14:lib/TinyUSB/src/portable/synopsys/dwc2/dwc2_stm32.h ****  * all copies or substantial portions of the Software.
  15:lib/TinyUSB/src/portable/synopsys/dwc2/dwc2_stm32.h ****  *
  16:lib/TinyUSB/src/portable/synopsys/dwc2/dwc2_stm32.h ****  * THE SOFTWARE IS PROVIDED "AS IS", WITHOUT WARRANTY OF ANY KIND, EXPRESS OR
  17:lib/TinyUSB/src/portable/synopsys/dwc2/dwc2_stm32.h ****  * IMPLIED, INCLUDING BUT NOT LIMITED TO THE WARRANTIES OF MERCHANTABILITY,
  18:lib/TinyUSB/src/portable/synopsys/dwc2/dwc2_stm32.h ****  * FITNESS FOR A PARTICULAR PURPOSE AND NONINFRINGEMENT. IN NO EVENT SHALL THE
  19:lib/TinyUSB/src/portable/synopsys/dwc2/dwc2_stm32.h ****  * AUTHORS OR COPYRIGHT HOLDERS BE LIABLE FOR ANY CLAIM, DAMAGES OR OTHER
  20:lib/TinyUSB/src/portable/synopsys/dwc2/dwc2_stm32.h ****  * LIABILITY, WHETHER IN AN ACTION OF CONTRACT, TORT OR OTHERWISE, ARISING FROM,
  21:lib/TinyUSB/src/portable/synopsys/dwc2/dwc2_stm32.h ****  * OUT OF OR IN CONNECTION WITH THE SOFTWARE OR THE USE OR OTHER DEALINGS IN
  22:lib/TinyUSB/src/portable/synopsys/dwc2/dwc2_stm32.h ****  * THE SOFTWARE.
  23:lib/TinyUSB/src/portable/synopsys/dwc2/dwc2_stm32.h ****  *
  24:lib/TinyUSB/src/portable/synopsys/dwc2/dwc2_stm32.h ****  * This file is part of the TinyUSB stack.
  25:lib/TinyUSB/src/portable/synopsys/dwc2/dwc2_stm32.h ****  */
  26:lib/TinyUSB/src/portable/synopsys/dwc2/dwc2_stm32.h **** 
  27:lib/TinyUSB/src/portable/synopsys/dwc2/dwc2_stm32.h **** #ifndef DWC2_STM32_H_
  28:lib/TinyUSB/src/portable/synopsys/dwc2/dwc2_stm32.h **** #define DWC2_STM32_H_
ARM GAS  C:\Users\krisa\AppData\Local\Temp\ccNljk5K.s 			page 110


  29:lib/TinyUSB/src/portable/synopsys/dwc2/dwc2_stm32.h **** 
  30:lib/TinyUSB/src/portable/synopsys/dwc2/dwc2_stm32.h **** #ifdef __cplusplus
  31:lib/TinyUSB/src/portable/synopsys/dwc2/dwc2_stm32.h **** extern "C" {
  32:lib/TinyUSB/src/portable/synopsys/dwc2/dwc2_stm32.h **** #endif
  33:lib/TinyUSB/src/portable/synopsys/dwc2/dwc2_stm32.h **** 
  34:lib/TinyUSB/src/portable/synopsys/dwc2/dwc2_stm32.h **** // EP_MAX       : Max number of bi-directional endpoints including EP0
  35:lib/TinyUSB/src/portable/synopsys/dwc2/dwc2_stm32.h **** // EP_FIFO_SIZE : Size of dedicated USB SRAM
  36:lib/TinyUSB/src/portable/synopsys/dwc2/dwc2_stm32.h **** #if CFG_TUSB_MCU == OPT_MCU_STM32F1
  37:lib/TinyUSB/src/portable/synopsys/dwc2/dwc2_stm32.h ****   #include "stm32f1xx.h"
  38:lib/TinyUSB/src/portable/synopsys/dwc2/dwc2_stm32.h ****   #define EP_MAX_FS       4
  39:lib/TinyUSB/src/portable/synopsys/dwc2/dwc2_stm32.h ****   #define EP_FIFO_SIZE_FS 1280
  40:lib/TinyUSB/src/portable/synopsys/dwc2/dwc2_stm32.h **** 
  41:lib/TinyUSB/src/portable/synopsys/dwc2/dwc2_stm32.h **** #elif CFG_TUSB_MCU == OPT_MCU_STM32F2
  42:lib/TinyUSB/src/portable/synopsys/dwc2/dwc2_stm32.h ****   #include "stm32f2xx.h"
  43:lib/TinyUSB/src/portable/synopsys/dwc2/dwc2_stm32.h ****   #define EP_MAX_FS       USB_OTG_FS_MAX_IN_ENDPOINTS
  44:lib/TinyUSB/src/portable/synopsys/dwc2/dwc2_stm32.h ****   #define EP_FIFO_SIZE_FS USB_OTG_FS_TOTAL_FIFO_SIZE
  45:lib/TinyUSB/src/portable/synopsys/dwc2/dwc2_stm32.h **** 
  46:lib/TinyUSB/src/portable/synopsys/dwc2/dwc2_stm32.h ****   #define EP_MAX_HS       USB_OTG_HS_MAX_IN_ENDPOINTS
  47:lib/TinyUSB/src/portable/synopsys/dwc2/dwc2_stm32.h ****   #define EP_FIFO_SIZE_HS USB_OTG_HS_TOTAL_FIFO_SIZE
  48:lib/TinyUSB/src/portable/synopsys/dwc2/dwc2_stm32.h **** 
  49:lib/TinyUSB/src/portable/synopsys/dwc2/dwc2_stm32.h **** #elif CFG_TUSB_MCU == OPT_MCU_STM32F4
  50:lib/TinyUSB/src/portable/synopsys/dwc2/dwc2_stm32.h ****   #include "stm32f4xx.h"
  51:lib/TinyUSB/src/portable/synopsys/dwc2/dwc2_stm32.h ****   #define EP_MAX_FS       USB_OTG_FS_MAX_IN_ENDPOINTS
  52:lib/TinyUSB/src/portable/synopsys/dwc2/dwc2_stm32.h ****   #define EP_FIFO_SIZE_FS USB_OTG_FS_TOTAL_FIFO_SIZE
  53:lib/TinyUSB/src/portable/synopsys/dwc2/dwc2_stm32.h **** 
  54:lib/TinyUSB/src/portable/synopsys/dwc2/dwc2_stm32.h ****   #define EP_MAX_HS       USB_OTG_HS_MAX_IN_ENDPOINTS
  55:lib/TinyUSB/src/portable/synopsys/dwc2/dwc2_stm32.h ****   #define EP_FIFO_SIZE_HS USB_OTG_HS_TOTAL_FIFO_SIZE
  56:lib/TinyUSB/src/portable/synopsys/dwc2/dwc2_stm32.h **** 
  57:lib/TinyUSB/src/portable/synopsys/dwc2/dwc2_stm32.h **** #elif CFG_TUSB_MCU == OPT_MCU_STM32H7
  58:lib/TinyUSB/src/portable/synopsys/dwc2/dwc2_stm32.h ****   #include "stm32h7xx.h"
  59:lib/TinyUSB/src/portable/synopsys/dwc2/dwc2_stm32.h ****   #define EP_MAX_FS       9
  60:lib/TinyUSB/src/portable/synopsys/dwc2/dwc2_stm32.h ****   #define EP_FIFO_SIZE_FS 4096
  61:lib/TinyUSB/src/portable/synopsys/dwc2/dwc2_stm32.h **** 
  62:lib/TinyUSB/src/portable/synopsys/dwc2/dwc2_stm32.h ****   #define EP_MAX_HS       9
  63:lib/TinyUSB/src/portable/synopsys/dwc2/dwc2_stm32.h ****   #define EP_FIFO_SIZE_HS 4096
  64:lib/TinyUSB/src/portable/synopsys/dwc2/dwc2_stm32.h **** 
  65:lib/TinyUSB/src/portable/synopsys/dwc2/dwc2_stm32.h ****   // NOTE: H7 with only 1 USB port: H72x / H73x / H7Ax / H7Bx
  66:lib/TinyUSB/src/portable/synopsys/dwc2/dwc2_stm32.h ****   // USB_OTG_FS_PERIPH_BASE and OTG_FS_IRQn not defined
  67:lib/TinyUSB/src/portable/synopsys/dwc2/dwc2_stm32.h ****   #if (! defined USB2_OTG_FS)
  68:lib/TinyUSB/src/portable/synopsys/dwc2/dwc2_stm32.h ****     #define USB_OTG_FS_PERIPH_BASE  USB1_OTG_HS_PERIPH_BASE
  69:lib/TinyUSB/src/portable/synopsys/dwc2/dwc2_stm32.h ****     #define OTG_FS_IRQn             OTG_HS_IRQn
  70:lib/TinyUSB/src/portable/synopsys/dwc2/dwc2_stm32.h ****   #endif
  71:lib/TinyUSB/src/portable/synopsys/dwc2/dwc2_stm32.h **** 
  72:lib/TinyUSB/src/portable/synopsys/dwc2/dwc2_stm32.h **** #elif CFG_TUSB_MCU == OPT_MCU_STM32H7RS
  73:lib/TinyUSB/src/portable/synopsys/dwc2/dwc2_stm32.h ****   #include "stm32h7rsxx.h"
  74:lib/TinyUSB/src/portable/synopsys/dwc2/dwc2_stm32.h ****   #define EP_MAX_FS       6
  75:lib/TinyUSB/src/portable/synopsys/dwc2/dwc2_stm32.h ****   #define EP_FIFO_SIZE_FS 1280
  76:lib/TinyUSB/src/portable/synopsys/dwc2/dwc2_stm32.h **** 
  77:lib/TinyUSB/src/portable/synopsys/dwc2/dwc2_stm32.h ****   #define EP_MAX_HS       9
  78:lib/TinyUSB/src/portable/synopsys/dwc2/dwc2_stm32.h ****   #define EP_FIFO_SIZE_HS 4096
  79:lib/TinyUSB/src/portable/synopsys/dwc2/dwc2_stm32.h **** 
  80:lib/TinyUSB/src/portable/synopsys/dwc2/dwc2_stm32.h **** #elif CFG_TUSB_MCU == OPT_MCU_STM32N6
  81:lib/TinyUSB/src/portable/synopsys/dwc2/dwc2_stm32.h ****   #include "stm32n6xx.h"
  82:lib/TinyUSB/src/portable/synopsys/dwc2/dwc2_stm32.h ****   #define EP_MAX_FS       9
  83:lib/TinyUSB/src/portable/synopsys/dwc2/dwc2_stm32.h ****   #define EP_FIFO_SIZE_FS 4096
  84:lib/TinyUSB/src/portable/synopsys/dwc2/dwc2_stm32.h **** 
  85:lib/TinyUSB/src/portable/synopsys/dwc2/dwc2_stm32.h ****   #define EP_MAX_HS       9
ARM GAS  C:\Users\krisa\AppData\Local\Temp\ccNljk5K.s 			page 111


  86:lib/TinyUSB/src/portable/synopsys/dwc2/dwc2_stm32.h ****   #define EP_FIFO_SIZE_HS 4096
  87:lib/TinyUSB/src/portable/synopsys/dwc2/dwc2_stm32.h **** 
  88:lib/TinyUSB/src/portable/synopsys/dwc2/dwc2_stm32.h ****   #define USB_OTG_HS_PERIPH_BASE    USB1_OTG_HS_BASE
  89:lib/TinyUSB/src/portable/synopsys/dwc2/dwc2_stm32.h ****   #define OTG_HS_IRQn               USB1_OTG_HS_IRQn
  90:lib/TinyUSB/src/portable/synopsys/dwc2/dwc2_stm32.h **** 
  91:lib/TinyUSB/src/portable/synopsys/dwc2/dwc2_stm32.h **** #elif CFG_TUSB_MCU == OPT_MCU_STM32F7
  92:lib/TinyUSB/src/portable/synopsys/dwc2/dwc2_stm32.h ****   #include "stm32f7xx.h"
  93:lib/TinyUSB/src/portable/synopsys/dwc2/dwc2_stm32.h ****   #define EP_MAX_FS       6
  94:lib/TinyUSB/src/portable/synopsys/dwc2/dwc2_stm32.h ****   #define EP_FIFO_SIZE_FS 1280
  95:lib/TinyUSB/src/portable/synopsys/dwc2/dwc2_stm32.h **** 
  96:lib/TinyUSB/src/portable/synopsys/dwc2/dwc2_stm32.h ****   #define EP_MAX_HS       9
  97:lib/TinyUSB/src/portable/synopsys/dwc2/dwc2_stm32.h ****   #define EP_FIFO_SIZE_HS 4096
  98:lib/TinyUSB/src/portable/synopsys/dwc2/dwc2_stm32.h **** 
  99:lib/TinyUSB/src/portable/synopsys/dwc2/dwc2_stm32.h **** #elif CFG_TUSB_MCU == OPT_MCU_STM32L4
 100:lib/TinyUSB/src/portable/synopsys/dwc2/dwc2_stm32.h ****   #include "stm32l4xx.h"
 101:lib/TinyUSB/src/portable/synopsys/dwc2/dwc2_stm32.h ****   #define EP_MAX_FS       6
 102:lib/TinyUSB/src/portable/synopsys/dwc2/dwc2_stm32.h ****   #define EP_FIFO_SIZE_FS 1280
 103:lib/TinyUSB/src/portable/synopsys/dwc2/dwc2_stm32.h **** 
 104:lib/TinyUSB/src/portable/synopsys/dwc2/dwc2_stm32.h **** #elif CFG_TUSB_MCU == OPT_MCU_STM32U5
 105:lib/TinyUSB/src/portable/synopsys/dwc2/dwc2_stm32.h ****   #include "stm32u5xx.h"
 106:lib/TinyUSB/src/portable/synopsys/dwc2/dwc2_stm32.h ****   // U59x/5Ax/5Fx/5Gx are highspeed with built-in HS PHY
 107:lib/TinyUSB/src/portable/synopsys/dwc2/dwc2_stm32.h ****   #ifdef USB_OTG_FS
 108:lib/TinyUSB/src/portable/synopsys/dwc2/dwc2_stm32.h ****     #define USB_OTG_FS_PERIPH_BASE    USB_OTG_FS_BASE
 109:lib/TinyUSB/src/portable/synopsys/dwc2/dwc2_stm32.h ****     #define EP_MAX_FS                 6
 110:lib/TinyUSB/src/portable/synopsys/dwc2/dwc2_stm32.h ****     #define EP_FIFO_SIZE_FS           1280
 111:lib/TinyUSB/src/portable/synopsys/dwc2/dwc2_stm32.h ****   #else
 112:lib/TinyUSB/src/portable/synopsys/dwc2/dwc2_stm32.h ****     #define USB_OTG_HS_PERIPH_BASE    USB_OTG_HS_BASE
 113:lib/TinyUSB/src/portable/synopsys/dwc2/dwc2_stm32.h ****     #define EP_MAX_HS                 9
 114:lib/TinyUSB/src/portable/synopsys/dwc2/dwc2_stm32.h ****     #define EP_FIFO_SIZE_HS           4096
 115:lib/TinyUSB/src/portable/synopsys/dwc2/dwc2_stm32.h ****   #endif
 116:lib/TinyUSB/src/portable/synopsys/dwc2/dwc2_stm32.h **** 
 117:lib/TinyUSB/src/portable/synopsys/dwc2/dwc2_stm32.h **** #elif CFG_TUSB_MCU == OPT_MCU_STM32WBA
 118:lib/TinyUSB/src/portable/synopsys/dwc2/dwc2_stm32.h ****   #if defined(STM32WBA62xx)
 119:lib/TinyUSB/src/portable/synopsys/dwc2/dwc2_stm32.h ****     #include "stm32wba62xx.h"
 120:lib/TinyUSB/src/portable/synopsys/dwc2/dwc2_stm32.h ****   #elif defined(STM32WBA64xx)
 121:lib/TinyUSB/src/portable/synopsys/dwc2/dwc2_stm32.h ****     #include "stm32wba64xx.h"
 122:lib/TinyUSB/src/portable/synopsys/dwc2/dwc2_stm32.h ****   #elif defined(STM32WBA65xx)
 123:lib/TinyUSB/src/portable/synopsys/dwc2/dwc2_stm32.h ****     #include "stm32wba65xx.h"
 124:lib/TinyUSB/src/portable/synopsys/dwc2/dwc2_stm32.h ****   #else
 125:lib/TinyUSB/src/portable/synopsys/dwc2/dwc2_stm32.h ****     #error "The selected STM32WBA series chip does not support OTG USB HS"
 126:lib/TinyUSB/src/portable/synopsys/dwc2/dwc2_stm32.h ****   #endif
 127:lib/TinyUSB/src/portable/synopsys/dwc2/dwc2_stm32.h **** 
 128:lib/TinyUSB/src/portable/synopsys/dwc2/dwc2_stm32.h ****   #define USB_OTG_HS_PERIPH_BASE    USB_OTG_HS_BASE_NS
 129:lib/TinyUSB/src/portable/synopsys/dwc2/dwc2_stm32.h ****   #define OTG_HS_IRQn               USB_OTG_HS_IRQn
 130:lib/TinyUSB/src/portable/synopsys/dwc2/dwc2_stm32.h ****   #define EP_MAX_HS                 9
 131:lib/TinyUSB/src/portable/synopsys/dwc2/dwc2_stm32.h ****   #define EP_FIFO_SIZE_HS           4096
 132:lib/TinyUSB/src/portable/synopsys/dwc2/dwc2_stm32.h **** #else
 133:lib/TinyUSB/src/portable/synopsys/dwc2/dwc2_stm32.h ****   #error "Unsupported MCUs"
 134:lib/TinyUSB/src/portable/synopsys/dwc2/dwc2_stm32.h **** #endif
 135:lib/TinyUSB/src/portable/synopsys/dwc2/dwc2_stm32.h **** 
 136:lib/TinyUSB/src/portable/synopsys/dwc2/dwc2_stm32.h **** // OTG HS always has higher number of endpoints than FS
 137:lib/TinyUSB/src/portable/synopsys/dwc2/dwc2_stm32.h **** #ifdef USB_OTG_HS_PERIPH_BASE
 138:lib/TinyUSB/src/portable/synopsys/dwc2/dwc2_stm32.h ****   #define DWC2_EP_MAX   EP_MAX_HS
 139:lib/TinyUSB/src/portable/synopsys/dwc2/dwc2_stm32.h **** #else
 140:lib/TinyUSB/src/portable/synopsys/dwc2/dwc2_stm32.h ****   #define DWC2_EP_MAX   EP_MAX_FS
 141:lib/TinyUSB/src/portable/synopsys/dwc2/dwc2_stm32.h **** #endif
 142:lib/TinyUSB/src/portable/synopsys/dwc2/dwc2_stm32.h **** 
ARM GAS  C:\Users\krisa\AppData\Local\Temp\ccNljk5K.s 			page 112


 143:lib/TinyUSB/src/portable/synopsys/dwc2/dwc2_stm32.h **** // On STM32 for consistency we associate
 144:lib/TinyUSB/src/portable/synopsys/dwc2/dwc2_stm32.h **** // - Port0 to OTG_FS, and Port1 to OTG_HS
 145:lib/TinyUSB/src/portable/synopsys/dwc2/dwc2_stm32.h **** static const dwc2_controller_t _dwc2_controller[] = {
 146:lib/TinyUSB/src/portable/synopsys/dwc2/dwc2_stm32.h ****     #ifdef USB_OTG_FS_PERIPH_BASE
 147:lib/TinyUSB/src/portable/synopsys/dwc2/dwc2_stm32.h ****     { .reg_base = USB_OTG_FS_PERIPH_BASE, .irqnum = OTG_FS_IRQn, .ep_count = EP_MAX_FS, .ep_fifo_si
 148:lib/TinyUSB/src/portable/synopsys/dwc2/dwc2_stm32.h ****     #endif
 149:lib/TinyUSB/src/portable/synopsys/dwc2/dwc2_stm32.h **** 
 150:lib/TinyUSB/src/portable/synopsys/dwc2/dwc2_stm32.h ****     #ifdef USB_OTG_HS_PERIPH_BASE
 151:lib/TinyUSB/src/portable/synopsys/dwc2/dwc2_stm32.h ****     { .reg_base = USB_OTG_HS_PERIPH_BASE, .irqnum = OTG_HS_IRQn, .ep_count = EP_MAX_HS, .ep_fifo_si
 152:lib/TinyUSB/src/portable/synopsys/dwc2/dwc2_stm32.h ****     #endif
 153:lib/TinyUSB/src/portable/synopsys/dwc2/dwc2_stm32.h **** };
 154:lib/TinyUSB/src/portable/synopsys/dwc2/dwc2_stm32.h **** 
 155:lib/TinyUSB/src/portable/synopsys/dwc2/dwc2_stm32.h **** //--------------------------------------------------------------------+
 156:lib/TinyUSB/src/portable/synopsys/dwc2/dwc2_stm32.h **** //
 157:lib/TinyUSB/src/portable/synopsys/dwc2/dwc2_stm32.h **** //--------------------------------------------------------------------+
 158:lib/TinyUSB/src/portable/synopsys/dwc2/dwc2_stm32.h **** 
 159:lib/TinyUSB/src/portable/synopsys/dwc2/dwc2_stm32.h **** // SystemCoreClock is already included by family header
 160:lib/TinyUSB/src/portable/synopsys/dwc2/dwc2_stm32.h **** // extern uint32_t SystemCoreClock;
 161:lib/TinyUSB/src/portable/synopsys/dwc2/dwc2_stm32.h **** 
 162:lib/TinyUSB/src/portable/synopsys/dwc2/dwc2_stm32.h **** TU_ATTR_ALWAYS_INLINE static inline void dwc2_int_set(uint8_t rhport, tusb_role_t role, bool enable
 3219              		.loc 6 162 42 view .LVU1066
 3220              	.LBB359:
 163:lib/TinyUSB/src/portable/synopsys/dwc2/dwc2_stm32.h ****   (void) role;
 3221              		.loc 6 163 3 view .LVU1067
 164:lib/TinyUSB/src/portable/synopsys/dwc2/dwc2_stm32.h ****   const IRQn_Type irqn = (IRQn_Type) _dwc2_controller[rhport].irqnum;
 3222              		.loc 6 164 3 view .LVU1068
 3223              		.loc 6 164 62 is_stmt 0 view .LVU1069
 3224 0000 074B     		ldr	r3, .L200
 3225 0002 03EB0013 		add	r3, r3, r0, lsl #4
 3226              		.loc 6 164 19 view .LVU1070
 3227 0006 93F90430 		ldrsb	r3, [r3, #4]
 3228              	.LVL331:
 165:lib/TinyUSB/src/portable/synopsys/dwc2/dwc2_stm32.h ****   if (enabled) {
 3229              		.loc 6 165 3 is_stmt 1 view .LVU1071
 166:lib/TinyUSB/src/portable/synopsys/dwc2/dwc2_stm32.h ****     NVIC_EnableIRQ(irqn);
 3230              		.loc 6 166 5 view .LVU1072
 3231              	.LBB360:
 3232              	.LBI360:
 3233              		.file 7 "Drivers/CMSIS/Include/core_cm4.h"
   1:Drivers/CMSIS/Include/core_cm4.h **** /**************************************************************************//**
   2:Drivers/CMSIS/Include/core_cm4.h ****  * @file     core_cm4.h
   3:Drivers/CMSIS/Include/core_cm4.h ****  * @brief    CMSIS Cortex-M4 Core Peripheral Access Layer Header File
   4:Drivers/CMSIS/Include/core_cm4.h ****  * @version  V5.1.2
   5:Drivers/CMSIS/Include/core_cm4.h ****  * @date     04. June 2021
   6:Drivers/CMSIS/Include/core_cm4.h ****  ******************************************************************************/
   7:Drivers/CMSIS/Include/core_cm4.h **** /*
   8:Drivers/CMSIS/Include/core_cm4.h ****  * Copyright (c) 2009-2020 Arm Limited. All rights reserved.
   9:Drivers/CMSIS/Include/core_cm4.h ****  *
  10:Drivers/CMSIS/Include/core_cm4.h ****  * SPDX-License-Identifier: Apache-2.0
  11:Drivers/CMSIS/Include/core_cm4.h ****  *
  12:Drivers/CMSIS/Include/core_cm4.h ****  * Licensed under the Apache License, Version 2.0 (the License); you may
  13:Drivers/CMSIS/Include/core_cm4.h ****  * not use this file except in compliance with the License.
  14:Drivers/CMSIS/Include/core_cm4.h ****  * You may obtain a copy of the License at
  15:Drivers/CMSIS/Include/core_cm4.h ****  *
  16:Drivers/CMSIS/Include/core_cm4.h ****  * www.apache.org/licenses/LICENSE-2.0
  17:Drivers/CMSIS/Include/core_cm4.h ****  *
  18:Drivers/CMSIS/Include/core_cm4.h ****  * Unless required by applicable law or agreed to in writing, software
ARM GAS  C:\Users\krisa\AppData\Local\Temp\ccNljk5K.s 			page 113


  19:Drivers/CMSIS/Include/core_cm4.h ****  * distributed under the License is distributed on an AS IS BASIS, WITHOUT
  20:Drivers/CMSIS/Include/core_cm4.h ****  * WARRANTIES OR CONDITIONS OF ANY KIND, either express or implied.
  21:Drivers/CMSIS/Include/core_cm4.h ****  * See the License for the specific language governing permissions and
  22:Drivers/CMSIS/Include/core_cm4.h ****  * limitations under the License.
  23:Drivers/CMSIS/Include/core_cm4.h ****  */
  24:Drivers/CMSIS/Include/core_cm4.h **** 
  25:Drivers/CMSIS/Include/core_cm4.h **** #if   defined ( __ICCARM__ )
  26:Drivers/CMSIS/Include/core_cm4.h ****   #pragma system_include         /* treat file as system include file for MISRA check */
  27:Drivers/CMSIS/Include/core_cm4.h **** #elif defined (__clang__)
  28:Drivers/CMSIS/Include/core_cm4.h ****   #pragma clang system_header   /* treat file as system include file */
  29:Drivers/CMSIS/Include/core_cm4.h **** #endif
  30:Drivers/CMSIS/Include/core_cm4.h **** 
  31:Drivers/CMSIS/Include/core_cm4.h **** #ifndef __CORE_CM4_H_GENERIC
  32:Drivers/CMSIS/Include/core_cm4.h **** #define __CORE_CM4_H_GENERIC
  33:Drivers/CMSIS/Include/core_cm4.h **** 
  34:Drivers/CMSIS/Include/core_cm4.h **** #include <stdint.h>
  35:Drivers/CMSIS/Include/core_cm4.h **** 
  36:Drivers/CMSIS/Include/core_cm4.h **** #ifdef __cplusplus
  37:Drivers/CMSIS/Include/core_cm4.h ****  extern "C" {
  38:Drivers/CMSIS/Include/core_cm4.h **** #endif
  39:Drivers/CMSIS/Include/core_cm4.h **** 
  40:Drivers/CMSIS/Include/core_cm4.h **** /**
  41:Drivers/CMSIS/Include/core_cm4.h ****   \page CMSIS_MISRA_Exceptions  MISRA-C:2004 Compliance Exceptions
  42:Drivers/CMSIS/Include/core_cm4.h ****   CMSIS violates the following MISRA-C:2004 rules:
  43:Drivers/CMSIS/Include/core_cm4.h **** 
  44:Drivers/CMSIS/Include/core_cm4.h ****    \li Required Rule 8.5, object/function definition in header file.<br>
  45:Drivers/CMSIS/Include/core_cm4.h ****      Function definitions in header files are used to allow 'inlining'.
  46:Drivers/CMSIS/Include/core_cm4.h **** 
  47:Drivers/CMSIS/Include/core_cm4.h ****    \li Required Rule 18.4, declaration of union type or object of union type: '{...}'.<br>
  48:Drivers/CMSIS/Include/core_cm4.h ****      Unions are used for effective representation of core registers.
  49:Drivers/CMSIS/Include/core_cm4.h **** 
  50:Drivers/CMSIS/Include/core_cm4.h ****    \li Advisory Rule 19.7, Function-like macro defined.<br>
  51:Drivers/CMSIS/Include/core_cm4.h ****      Function-like macros are used to allow more efficient code.
  52:Drivers/CMSIS/Include/core_cm4.h ****  */
  53:Drivers/CMSIS/Include/core_cm4.h **** 
  54:Drivers/CMSIS/Include/core_cm4.h **** 
  55:Drivers/CMSIS/Include/core_cm4.h **** /*******************************************************************************
  56:Drivers/CMSIS/Include/core_cm4.h ****  *                 CMSIS definitions
  57:Drivers/CMSIS/Include/core_cm4.h ****  ******************************************************************************/
  58:Drivers/CMSIS/Include/core_cm4.h **** /**
  59:Drivers/CMSIS/Include/core_cm4.h ****   \ingroup Cortex_M4
  60:Drivers/CMSIS/Include/core_cm4.h ****   @{
  61:Drivers/CMSIS/Include/core_cm4.h ****  */
  62:Drivers/CMSIS/Include/core_cm4.h **** 
  63:Drivers/CMSIS/Include/core_cm4.h **** #include "cmsis_version.h"
  64:Drivers/CMSIS/Include/core_cm4.h **** 
  65:Drivers/CMSIS/Include/core_cm4.h **** /* CMSIS CM4 definitions */
  66:Drivers/CMSIS/Include/core_cm4.h **** #define __CM4_CMSIS_VERSION_MAIN  (__CM_CMSIS_VERSION_MAIN)              /*!< \deprecated [31:16] C
  67:Drivers/CMSIS/Include/core_cm4.h **** #define __CM4_CMSIS_VERSION_SUB   (__CM_CMSIS_VERSION_SUB)               /*!< \deprecated [15:0]  C
  68:Drivers/CMSIS/Include/core_cm4.h **** #define __CM4_CMSIS_VERSION       ((__CM4_CMSIS_VERSION_MAIN << 16U) | \
  69:Drivers/CMSIS/Include/core_cm4.h ****                                     __CM4_CMSIS_VERSION_SUB           )  /*!< \deprecated CMSIS HAL
  70:Drivers/CMSIS/Include/core_cm4.h **** 
  71:Drivers/CMSIS/Include/core_cm4.h **** #define __CORTEX_M                (4U)                                   /*!< Cortex-M Core */
  72:Drivers/CMSIS/Include/core_cm4.h **** 
  73:Drivers/CMSIS/Include/core_cm4.h **** /** __FPU_USED indicates whether an FPU is used or not.
  74:Drivers/CMSIS/Include/core_cm4.h ****     For this, __FPU_PRESENT has to be checked prior to making use of FPU specific registers and fun
  75:Drivers/CMSIS/Include/core_cm4.h **** */
ARM GAS  C:\Users\krisa\AppData\Local\Temp\ccNljk5K.s 			page 114


  76:Drivers/CMSIS/Include/core_cm4.h **** #if defined ( __CC_ARM )
  77:Drivers/CMSIS/Include/core_cm4.h ****   #if defined __TARGET_FPU_VFP
  78:Drivers/CMSIS/Include/core_cm4.h ****     #if defined (__FPU_PRESENT) && (__FPU_PRESENT == 1U)
  79:Drivers/CMSIS/Include/core_cm4.h ****       #define __FPU_USED       1U
  80:Drivers/CMSIS/Include/core_cm4.h ****     #else
  81:Drivers/CMSIS/Include/core_cm4.h ****       #error "Compiler generates FPU instructions for a device without an FPU (check __FPU_PRESENT)
  82:Drivers/CMSIS/Include/core_cm4.h ****       #define __FPU_USED       0U
  83:Drivers/CMSIS/Include/core_cm4.h ****     #endif
  84:Drivers/CMSIS/Include/core_cm4.h ****   #else
  85:Drivers/CMSIS/Include/core_cm4.h ****     #define __FPU_USED         0U
  86:Drivers/CMSIS/Include/core_cm4.h ****   #endif
  87:Drivers/CMSIS/Include/core_cm4.h **** 
  88:Drivers/CMSIS/Include/core_cm4.h **** #elif defined (__ARMCC_VERSION) && (__ARMCC_VERSION >= 6010050)
  89:Drivers/CMSIS/Include/core_cm4.h ****   #if defined __ARM_FP
  90:Drivers/CMSIS/Include/core_cm4.h ****     #if defined (__FPU_PRESENT) && (__FPU_PRESENT == 1U)
  91:Drivers/CMSIS/Include/core_cm4.h ****       #define __FPU_USED       1U
  92:Drivers/CMSIS/Include/core_cm4.h ****     #else
  93:Drivers/CMSIS/Include/core_cm4.h ****       #warning "Compiler generates FPU instructions for a device without an FPU (check __FPU_PRESEN
  94:Drivers/CMSIS/Include/core_cm4.h ****       #define __FPU_USED       0U
  95:Drivers/CMSIS/Include/core_cm4.h ****     #endif
  96:Drivers/CMSIS/Include/core_cm4.h ****   #else
  97:Drivers/CMSIS/Include/core_cm4.h ****     #define __FPU_USED         0U
  98:Drivers/CMSIS/Include/core_cm4.h ****   #endif
  99:Drivers/CMSIS/Include/core_cm4.h **** 
 100:Drivers/CMSIS/Include/core_cm4.h **** #elif defined ( __GNUC__ )
 101:Drivers/CMSIS/Include/core_cm4.h ****   #if defined (__VFP_FP__) && !defined(__SOFTFP__)
 102:Drivers/CMSIS/Include/core_cm4.h ****     #if defined (__FPU_PRESENT) && (__FPU_PRESENT == 1U)
 103:Drivers/CMSIS/Include/core_cm4.h ****       #define __FPU_USED       1U
 104:Drivers/CMSIS/Include/core_cm4.h ****     #else
 105:Drivers/CMSIS/Include/core_cm4.h ****       #error "Compiler generates FPU instructions for a device without an FPU (check __FPU_PRESENT)
 106:Drivers/CMSIS/Include/core_cm4.h ****       #define __FPU_USED       0U
 107:Drivers/CMSIS/Include/core_cm4.h ****     #endif
 108:Drivers/CMSIS/Include/core_cm4.h ****   #else
 109:Drivers/CMSIS/Include/core_cm4.h ****     #define __FPU_USED         0U
 110:Drivers/CMSIS/Include/core_cm4.h ****   #endif
 111:Drivers/CMSIS/Include/core_cm4.h **** 
 112:Drivers/CMSIS/Include/core_cm4.h **** #elif defined ( __ICCARM__ )
 113:Drivers/CMSIS/Include/core_cm4.h ****   #if defined __ARMVFP__
 114:Drivers/CMSIS/Include/core_cm4.h ****     #if defined (__FPU_PRESENT) && (__FPU_PRESENT == 1U)
 115:Drivers/CMSIS/Include/core_cm4.h ****       #define __FPU_USED       1U
 116:Drivers/CMSIS/Include/core_cm4.h ****     #else
 117:Drivers/CMSIS/Include/core_cm4.h ****       #error "Compiler generates FPU instructions for a device without an FPU (check __FPU_PRESENT)
 118:Drivers/CMSIS/Include/core_cm4.h ****       #define __FPU_USED       0U
 119:Drivers/CMSIS/Include/core_cm4.h ****     #endif
 120:Drivers/CMSIS/Include/core_cm4.h ****   #else
 121:Drivers/CMSIS/Include/core_cm4.h ****     #define __FPU_USED         0U
 122:Drivers/CMSIS/Include/core_cm4.h ****   #endif
 123:Drivers/CMSIS/Include/core_cm4.h **** 
 124:Drivers/CMSIS/Include/core_cm4.h **** #elif defined ( __TI_ARM__ )
 125:Drivers/CMSIS/Include/core_cm4.h ****   #if defined __TI_VFP_SUPPORT__
 126:Drivers/CMSIS/Include/core_cm4.h ****     #if defined (__FPU_PRESENT) && (__FPU_PRESENT == 1U)
 127:Drivers/CMSIS/Include/core_cm4.h ****       #define __FPU_USED       1U
 128:Drivers/CMSIS/Include/core_cm4.h ****     #else
 129:Drivers/CMSIS/Include/core_cm4.h ****       #error "Compiler generates FPU instructions for a device without an FPU (check __FPU_PRESENT)
 130:Drivers/CMSIS/Include/core_cm4.h ****       #define __FPU_USED       0U
 131:Drivers/CMSIS/Include/core_cm4.h ****     #endif
 132:Drivers/CMSIS/Include/core_cm4.h ****   #else
ARM GAS  C:\Users\krisa\AppData\Local\Temp\ccNljk5K.s 			page 115


 133:Drivers/CMSIS/Include/core_cm4.h ****     #define __FPU_USED         0U
 134:Drivers/CMSIS/Include/core_cm4.h ****   #endif
 135:Drivers/CMSIS/Include/core_cm4.h **** 
 136:Drivers/CMSIS/Include/core_cm4.h **** #elif defined ( __TASKING__ )
 137:Drivers/CMSIS/Include/core_cm4.h ****   #if defined __FPU_VFP__
 138:Drivers/CMSIS/Include/core_cm4.h ****     #if defined (__FPU_PRESENT) && (__FPU_PRESENT == 1U)
 139:Drivers/CMSIS/Include/core_cm4.h ****       #define __FPU_USED       1U
 140:Drivers/CMSIS/Include/core_cm4.h ****     #else
 141:Drivers/CMSIS/Include/core_cm4.h ****       #error "Compiler generates FPU instructions for a device without an FPU (check __FPU_PRESENT)
 142:Drivers/CMSIS/Include/core_cm4.h ****       #define __FPU_USED       0U
 143:Drivers/CMSIS/Include/core_cm4.h ****     #endif
 144:Drivers/CMSIS/Include/core_cm4.h ****   #else
 145:Drivers/CMSIS/Include/core_cm4.h ****     #define __FPU_USED         0U
 146:Drivers/CMSIS/Include/core_cm4.h ****   #endif
 147:Drivers/CMSIS/Include/core_cm4.h **** 
 148:Drivers/CMSIS/Include/core_cm4.h **** #elif defined ( __CSMC__ )
 149:Drivers/CMSIS/Include/core_cm4.h ****   #if ( __CSMC__ & 0x400U)
 150:Drivers/CMSIS/Include/core_cm4.h ****     #if defined (__FPU_PRESENT) && (__FPU_PRESENT == 1U)
 151:Drivers/CMSIS/Include/core_cm4.h ****       #define __FPU_USED       1U
 152:Drivers/CMSIS/Include/core_cm4.h ****     #else
 153:Drivers/CMSIS/Include/core_cm4.h ****       #error "Compiler generates FPU instructions for a device without an FPU (check __FPU_PRESENT)
 154:Drivers/CMSIS/Include/core_cm4.h ****       #define __FPU_USED       0U
 155:Drivers/CMSIS/Include/core_cm4.h ****     #endif
 156:Drivers/CMSIS/Include/core_cm4.h ****   #else
 157:Drivers/CMSIS/Include/core_cm4.h ****     #define __FPU_USED         0U
 158:Drivers/CMSIS/Include/core_cm4.h ****   #endif
 159:Drivers/CMSIS/Include/core_cm4.h **** 
 160:Drivers/CMSIS/Include/core_cm4.h **** #endif
 161:Drivers/CMSIS/Include/core_cm4.h **** 
 162:Drivers/CMSIS/Include/core_cm4.h **** #include "cmsis_compiler.h"               /* CMSIS compiler specific defines */
 163:Drivers/CMSIS/Include/core_cm4.h **** 
 164:Drivers/CMSIS/Include/core_cm4.h **** 
 165:Drivers/CMSIS/Include/core_cm4.h **** #ifdef __cplusplus
 166:Drivers/CMSIS/Include/core_cm4.h **** }
 167:Drivers/CMSIS/Include/core_cm4.h **** #endif
 168:Drivers/CMSIS/Include/core_cm4.h **** 
 169:Drivers/CMSIS/Include/core_cm4.h **** #endif /* __CORE_CM4_H_GENERIC */
 170:Drivers/CMSIS/Include/core_cm4.h **** 
 171:Drivers/CMSIS/Include/core_cm4.h **** #ifndef __CMSIS_GENERIC
 172:Drivers/CMSIS/Include/core_cm4.h **** 
 173:Drivers/CMSIS/Include/core_cm4.h **** #ifndef __CORE_CM4_H_DEPENDANT
 174:Drivers/CMSIS/Include/core_cm4.h **** #define __CORE_CM4_H_DEPENDANT
 175:Drivers/CMSIS/Include/core_cm4.h **** 
 176:Drivers/CMSIS/Include/core_cm4.h **** #ifdef __cplusplus
 177:Drivers/CMSIS/Include/core_cm4.h ****  extern "C" {
 178:Drivers/CMSIS/Include/core_cm4.h **** #endif
 179:Drivers/CMSIS/Include/core_cm4.h **** 
 180:Drivers/CMSIS/Include/core_cm4.h **** /* check device defines and use defaults */
 181:Drivers/CMSIS/Include/core_cm4.h **** #if defined __CHECK_DEVICE_DEFINES
 182:Drivers/CMSIS/Include/core_cm4.h ****   #ifndef __CM4_REV
 183:Drivers/CMSIS/Include/core_cm4.h ****     #define __CM4_REV               0x0000U
 184:Drivers/CMSIS/Include/core_cm4.h ****     #warning "__CM4_REV not defined in device header file; using default!"
 185:Drivers/CMSIS/Include/core_cm4.h ****   #endif
 186:Drivers/CMSIS/Include/core_cm4.h **** 
 187:Drivers/CMSIS/Include/core_cm4.h ****   #ifndef __FPU_PRESENT
 188:Drivers/CMSIS/Include/core_cm4.h ****     #define __FPU_PRESENT             0U
 189:Drivers/CMSIS/Include/core_cm4.h ****     #warning "__FPU_PRESENT not defined in device header file; using default!"
ARM GAS  C:\Users\krisa\AppData\Local\Temp\ccNljk5K.s 			page 116


 190:Drivers/CMSIS/Include/core_cm4.h ****   #endif
 191:Drivers/CMSIS/Include/core_cm4.h **** 
 192:Drivers/CMSIS/Include/core_cm4.h ****   #ifndef __MPU_PRESENT
 193:Drivers/CMSIS/Include/core_cm4.h ****     #define __MPU_PRESENT             0U
 194:Drivers/CMSIS/Include/core_cm4.h ****     #warning "__MPU_PRESENT not defined in device header file; using default!"
 195:Drivers/CMSIS/Include/core_cm4.h ****   #endif
 196:Drivers/CMSIS/Include/core_cm4.h **** 
 197:Drivers/CMSIS/Include/core_cm4.h ****   #ifndef __VTOR_PRESENT
 198:Drivers/CMSIS/Include/core_cm4.h ****     #define __VTOR_PRESENT             1U
 199:Drivers/CMSIS/Include/core_cm4.h ****     #warning "__VTOR_PRESENT not defined in device header file; using default!"
 200:Drivers/CMSIS/Include/core_cm4.h ****   #endif
 201:Drivers/CMSIS/Include/core_cm4.h **** 
 202:Drivers/CMSIS/Include/core_cm4.h ****   #ifndef __NVIC_PRIO_BITS
 203:Drivers/CMSIS/Include/core_cm4.h ****     #define __NVIC_PRIO_BITS          3U
 204:Drivers/CMSIS/Include/core_cm4.h ****     #warning "__NVIC_PRIO_BITS not defined in device header file; using default!"
 205:Drivers/CMSIS/Include/core_cm4.h ****   #endif
 206:Drivers/CMSIS/Include/core_cm4.h **** 
 207:Drivers/CMSIS/Include/core_cm4.h ****   #ifndef __Vendor_SysTickConfig
 208:Drivers/CMSIS/Include/core_cm4.h ****     #define __Vendor_SysTickConfig    0U
 209:Drivers/CMSIS/Include/core_cm4.h ****     #warning "__Vendor_SysTickConfig not defined in device header file; using default!"
 210:Drivers/CMSIS/Include/core_cm4.h ****   #endif
 211:Drivers/CMSIS/Include/core_cm4.h **** #endif
 212:Drivers/CMSIS/Include/core_cm4.h **** 
 213:Drivers/CMSIS/Include/core_cm4.h **** /* IO definitions (access restrictions to peripheral registers) */
 214:Drivers/CMSIS/Include/core_cm4.h **** /**
 215:Drivers/CMSIS/Include/core_cm4.h ****     \defgroup CMSIS_glob_defs CMSIS Global Defines
 216:Drivers/CMSIS/Include/core_cm4.h **** 
 217:Drivers/CMSIS/Include/core_cm4.h ****     <strong>IO Type Qualifiers</strong> are used
 218:Drivers/CMSIS/Include/core_cm4.h ****     \li to specify the access to peripheral variables.
 219:Drivers/CMSIS/Include/core_cm4.h ****     \li for automatic generation of peripheral register debug information.
 220:Drivers/CMSIS/Include/core_cm4.h **** */
 221:Drivers/CMSIS/Include/core_cm4.h **** #ifdef __cplusplus
 222:Drivers/CMSIS/Include/core_cm4.h ****   #define   __I     volatile             /*!< Defines 'read only' permissions */
 223:Drivers/CMSIS/Include/core_cm4.h **** #else
 224:Drivers/CMSIS/Include/core_cm4.h ****   #define   __I     volatile const       /*!< Defines 'read only' permissions */
 225:Drivers/CMSIS/Include/core_cm4.h **** #endif
 226:Drivers/CMSIS/Include/core_cm4.h **** #define     __O     volatile             /*!< Defines 'write only' permissions */
 227:Drivers/CMSIS/Include/core_cm4.h **** #define     __IO    volatile             /*!< Defines 'read / write' permissions */
 228:Drivers/CMSIS/Include/core_cm4.h **** 
 229:Drivers/CMSIS/Include/core_cm4.h **** /* following defines should be used for structure members */
 230:Drivers/CMSIS/Include/core_cm4.h **** #define     __IM     volatile const      /*! Defines 'read only' structure member permissions */
 231:Drivers/CMSIS/Include/core_cm4.h **** #define     __OM     volatile            /*! Defines 'write only' structure member permissions */
 232:Drivers/CMSIS/Include/core_cm4.h **** #define     __IOM    volatile            /*! Defines 'read / write' structure member permissions */
 233:Drivers/CMSIS/Include/core_cm4.h **** 
 234:Drivers/CMSIS/Include/core_cm4.h **** /*@} end of group Cortex_M4 */
 235:Drivers/CMSIS/Include/core_cm4.h **** 
 236:Drivers/CMSIS/Include/core_cm4.h **** 
 237:Drivers/CMSIS/Include/core_cm4.h **** 
 238:Drivers/CMSIS/Include/core_cm4.h **** /*******************************************************************************
 239:Drivers/CMSIS/Include/core_cm4.h ****  *                 Register Abstraction
 240:Drivers/CMSIS/Include/core_cm4.h ****   Core Register contain:
 241:Drivers/CMSIS/Include/core_cm4.h ****   - Core Register
 242:Drivers/CMSIS/Include/core_cm4.h ****   - Core NVIC Register
 243:Drivers/CMSIS/Include/core_cm4.h ****   - Core SCB Register
 244:Drivers/CMSIS/Include/core_cm4.h ****   - Core SysTick Register
 245:Drivers/CMSIS/Include/core_cm4.h ****   - Core Debug Register
 246:Drivers/CMSIS/Include/core_cm4.h ****   - Core MPU Register
ARM GAS  C:\Users\krisa\AppData\Local\Temp\ccNljk5K.s 			page 117


 247:Drivers/CMSIS/Include/core_cm4.h ****   - Core FPU Register
 248:Drivers/CMSIS/Include/core_cm4.h ****  ******************************************************************************/
 249:Drivers/CMSIS/Include/core_cm4.h **** /**
 250:Drivers/CMSIS/Include/core_cm4.h ****   \defgroup CMSIS_core_register Defines and Type Definitions
 251:Drivers/CMSIS/Include/core_cm4.h ****   \brief Type definitions and defines for Cortex-M processor based devices.
 252:Drivers/CMSIS/Include/core_cm4.h **** */
 253:Drivers/CMSIS/Include/core_cm4.h **** 
 254:Drivers/CMSIS/Include/core_cm4.h **** /**
 255:Drivers/CMSIS/Include/core_cm4.h ****   \ingroup    CMSIS_core_register
 256:Drivers/CMSIS/Include/core_cm4.h ****   \defgroup   CMSIS_CORE  Status and Control Registers
 257:Drivers/CMSIS/Include/core_cm4.h ****   \brief      Core Register type definitions.
 258:Drivers/CMSIS/Include/core_cm4.h ****   @{
 259:Drivers/CMSIS/Include/core_cm4.h ****  */
 260:Drivers/CMSIS/Include/core_cm4.h **** 
 261:Drivers/CMSIS/Include/core_cm4.h **** /**
 262:Drivers/CMSIS/Include/core_cm4.h ****   \brief  Union type to access the Application Program Status Register (APSR).
 263:Drivers/CMSIS/Include/core_cm4.h ****  */
 264:Drivers/CMSIS/Include/core_cm4.h **** typedef union
 265:Drivers/CMSIS/Include/core_cm4.h **** {
 266:Drivers/CMSIS/Include/core_cm4.h ****   struct
 267:Drivers/CMSIS/Include/core_cm4.h ****   {
 268:Drivers/CMSIS/Include/core_cm4.h ****     uint32_t _reserved0:16;              /*!< bit:  0..15  Reserved */
 269:Drivers/CMSIS/Include/core_cm4.h ****     uint32_t GE:4;                       /*!< bit: 16..19  Greater than or Equal flags */
 270:Drivers/CMSIS/Include/core_cm4.h ****     uint32_t _reserved1:7;               /*!< bit: 20..26  Reserved */
 271:Drivers/CMSIS/Include/core_cm4.h ****     uint32_t Q:1;                        /*!< bit:     27  Saturation condition flag */
 272:Drivers/CMSIS/Include/core_cm4.h ****     uint32_t V:1;                        /*!< bit:     28  Overflow condition code flag */
 273:Drivers/CMSIS/Include/core_cm4.h ****     uint32_t C:1;                        /*!< bit:     29  Carry condition code flag */
 274:Drivers/CMSIS/Include/core_cm4.h ****     uint32_t Z:1;                        /*!< bit:     30  Zero condition code flag */
 275:Drivers/CMSIS/Include/core_cm4.h ****     uint32_t N:1;                        /*!< bit:     31  Negative condition code flag */
 276:Drivers/CMSIS/Include/core_cm4.h ****   } b;                                   /*!< Structure used for bit  access */
 277:Drivers/CMSIS/Include/core_cm4.h ****   uint32_t w;                            /*!< Type      used for word access */
 278:Drivers/CMSIS/Include/core_cm4.h **** } APSR_Type;
 279:Drivers/CMSIS/Include/core_cm4.h **** 
 280:Drivers/CMSIS/Include/core_cm4.h **** /* APSR Register Definitions */
 281:Drivers/CMSIS/Include/core_cm4.h **** #define APSR_N_Pos                         31U                                            /*!< APSR
 282:Drivers/CMSIS/Include/core_cm4.h **** #define APSR_N_Msk                         (1UL << APSR_N_Pos)                            /*!< APSR
 283:Drivers/CMSIS/Include/core_cm4.h **** 
 284:Drivers/CMSIS/Include/core_cm4.h **** #define APSR_Z_Pos                         30U                                            /*!< APSR
 285:Drivers/CMSIS/Include/core_cm4.h **** #define APSR_Z_Msk                         (1UL << APSR_Z_Pos)                            /*!< APSR
 286:Drivers/CMSIS/Include/core_cm4.h **** 
 287:Drivers/CMSIS/Include/core_cm4.h **** #define APSR_C_Pos                         29U                                            /*!< APSR
 288:Drivers/CMSIS/Include/core_cm4.h **** #define APSR_C_Msk                         (1UL << APSR_C_Pos)                            /*!< APSR
 289:Drivers/CMSIS/Include/core_cm4.h **** 
 290:Drivers/CMSIS/Include/core_cm4.h **** #define APSR_V_Pos                         28U                                            /*!< APSR
 291:Drivers/CMSIS/Include/core_cm4.h **** #define APSR_V_Msk                         (1UL << APSR_V_Pos)                            /*!< APSR
 292:Drivers/CMSIS/Include/core_cm4.h **** 
 293:Drivers/CMSIS/Include/core_cm4.h **** #define APSR_Q_Pos                         27U                                            /*!< APSR
 294:Drivers/CMSIS/Include/core_cm4.h **** #define APSR_Q_Msk                         (1UL << APSR_Q_Pos)                            /*!< APSR
 295:Drivers/CMSIS/Include/core_cm4.h **** 
 296:Drivers/CMSIS/Include/core_cm4.h **** #define APSR_GE_Pos                        16U                                            /*!< APSR
 297:Drivers/CMSIS/Include/core_cm4.h **** #define APSR_GE_Msk                        (0xFUL << APSR_GE_Pos)                         /*!< APSR
 298:Drivers/CMSIS/Include/core_cm4.h **** 
 299:Drivers/CMSIS/Include/core_cm4.h **** 
 300:Drivers/CMSIS/Include/core_cm4.h **** /**
 301:Drivers/CMSIS/Include/core_cm4.h ****   \brief  Union type to access the Interrupt Program Status Register (IPSR).
 302:Drivers/CMSIS/Include/core_cm4.h ****  */
 303:Drivers/CMSIS/Include/core_cm4.h **** typedef union
ARM GAS  C:\Users\krisa\AppData\Local\Temp\ccNljk5K.s 			page 118


 304:Drivers/CMSIS/Include/core_cm4.h **** {
 305:Drivers/CMSIS/Include/core_cm4.h ****   struct
 306:Drivers/CMSIS/Include/core_cm4.h ****   {
 307:Drivers/CMSIS/Include/core_cm4.h ****     uint32_t ISR:9;                      /*!< bit:  0.. 8  Exception number */
 308:Drivers/CMSIS/Include/core_cm4.h ****     uint32_t _reserved0:23;              /*!< bit:  9..31  Reserved */
 309:Drivers/CMSIS/Include/core_cm4.h ****   } b;                                   /*!< Structure used for bit  access */
 310:Drivers/CMSIS/Include/core_cm4.h ****   uint32_t w;                            /*!< Type      used for word access */
 311:Drivers/CMSIS/Include/core_cm4.h **** } IPSR_Type;
 312:Drivers/CMSIS/Include/core_cm4.h **** 
 313:Drivers/CMSIS/Include/core_cm4.h **** /* IPSR Register Definitions */
 314:Drivers/CMSIS/Include/core_cm4.h **** #define IPSR_ISR_Pos                        0U                                            /*!< IPSR
 315:Drivers/CMSIS/Include/core_cm4.h **** #define IPSR_ISR_Msk                       (0x1FFUL /*<< IPSR_ISR_Pos*/)                  /*!< IPSR
 316:Drivers/CMSIS/Include/core_cm4.h **** 
 317:Drivers/CMSIS/Include/core_cm4.h **** 
 318:Drivers/CMSIS/Include/core_cm4.h **** /**
 319:Drivers/CMSIS/Include/core_cm4.h ****   \brief  Union type to access the Special-Purpose Program Status Registers (xPSR).
 320:Drivers/CMSIS/Include/core_cm4.h ****  */
 321:Drivers/CMSIS/Include/core_cm4.h **** typedef union
 322:Drivers/CMSIS/Include/core_cm4.h **** {
 323:Drivers/CMSIS/Include/core_cm4.h ****   struct
 324:Drivers/CMSIS/Include/core_cm4.h ****   {
 325:Drivers/CMSIS/Include/core_cm4.h ****     uint32_t ISR:9;                      /*!< bit:  0.. 8  Exception number */
 326:Drivers/CMSIS/Include/core_cm4.h ****     uint32_t _reserved0:1;               /*!< bit:      9  Reserved */
 327:Drivers/CMSIS/Include/core_cm4.h ****     uint32_t ICI_IT_1:6;                 /*!< bit: 10..15  ICI/IT part 1 */
 328:Drivers/CMSIS/Include/core_cm4.h ****     uint32_t GE:4;                       /*!< bit: 16..19  Greater than or Equal flags */
 329:Drivers/CMSIS/Include/core_cm4.h ****     uint32_t _reserved1:4;               /*!< bit: 20..23  Reserved */
 330:Drivers/CMSIS/Include/core_cm4.h ****     uint32_t T:1;                        /*!< bit:     24  Thumb bit */
 331:Drivers/CMSIS/Include/core_cm4.h ****     uint32_t ICI_IT_2:2;                 /*!< bit: 25..26  ICI/IT part 2 */
 332:Drivers/CMSIS/Include/core_cm4.h ****     uint32_t Q:1;                        /*!< bit:     27  Saturation condition flag */
 333:Drivers/CMSIS/Include/core_cm4.h ****     uint32_t V:1;                        /*!< bit:     28  Overflow condition code flag */
 334:Drivers/CMSIS/Include/core_cm4.h ****     uint32_t C:1;                        /*!< bit:     29  Carry condition code flag */
 335:Drivers/CMSIS/Include/core_cm4.h ****     uint32_t Z:1;                        /*!< bit:     30  Zero condition code flag */
 336:Drivers/CMSIS/Include/core_cm4.h ****     uint32_t N:1;                        /*!< bit:     31  Negative condition code flag */
 337:Drivers/CMSIS/Include/core_cm4.h ****   } b;                                   /*!< Structure used for bit  access */
 338:Drivers/CMSIS/Include/core_cm4.h ****   uint32_t w;                            /*!< Type      used for word access */
 339:Drivers/CMSIS/Include/core_cm4.h **** } xPSR_Type;
 340:Drivers/CMSIS/Include/core_cm4.h **** 
 341:Drivers/CMSIS/Include/core_cm4.h **** /* xPSR Register Definitions */
 342:Drivers/CMSIS/Include/core_cm4.h **** #define xPSR_N_Pos                         31U                                            /*!< xPSR
 343:Drivers/CMSIS/Include/core_cm4.h **** #define xPSR_N_Msk                         (1UL << xPSR_N_Pos)                            /*!< xPSR
 344:Drivers/CMSIS/Include/core_cm4.h **** 
 345:Drivers/CMSIS/Include/core_cm4.h **** #define xPSR_Z_Pos                         30U                                            /*!< xPSR
 346:Drivers/CMSIS/Include/core_cm4.h **** #define xPSR_Z_Msk                         (1UL << xPSR_Z_Pos)                            /*!< xPSR
 347:Drivers/CMSIS/Include/core_cm4.h **** 
 348:Drivers/CMSIS/Include/core_cm4.h **** #define xPSR_C_Pos                         29U                                            /*!< xPSR
 349:Drivers/CMSIS/Include/core_cm4.h **** #define xPSR_C_Msk                         (1UL << xPSR_C_Pos)                            /*!< xPSR
 350:Drivers/CMSIS/Include/core_cm4.h **** 
 351:Drivers/CMSIS/Include/core_cm4.h **** #define xPSR_V_Pos                         28U                                            /*!< xPSR
 352:Drivers/CMSIS/Include/core_cm4.h **** #define xPSR_V_Msk                         (1UL << xPSR_V_Pos)                            /*!< xPSR
 353:Drivers/CMSIS/Include/core_cm4.h **** 
 354:Drivers/CMSIS/Include/core_cm4.h **** #define xPSR_Q_Pos                         27U                                            /*!< xPSR
 355:Drivers/CMSIS/Include/core_cm4.h **** #define xPSR_Q_Msk                         (1UL << xPSR_Q_Pos)                            /*!< xPSR
 356:Drivers/CMSIS/Include/core_cm4.h **** 
 357:Drivers/CMSIS/Include/core_cm4.h **** #define xPSR_ICI_IT_2_Pos                  25U                                            /*!< xPSR
 358:Drivers/CMSIS/Include/core_cm4.h **** #define xPSR_ICI_IT_2_Msk                  (3UL << xPSR_ICI_IT_2_Pos)                     /*!< xPSR
 359:Drivers/CMSIS/Include/core_cm4.h **** 
 360:Drivers/CMSIS/Include/core_cm4.h **** #define xPSR_T_Pos                         24U                                            /*!< xPSR
ARM GAS  C:\Users\krisa\AppData\Local\Temp\ccNljk5K.s 			page 119


 361:Drivers/CMSIS/Include/core_cm4.h **** #define xPSR_T_Msk                         (1UL << xPSR_T_Pos)                            /*!< xPSR
 362:Drivers/CMSIS/Include/core_cm4.h **** 
 363:Drivers/CMSIS/Include/core_cm4.h **** #define xPSR_GE_Pos                        16U                                            /*!< xPSR
 364:Drivers/CMSIS/Include/core_cm4.h **** #define xPSR_GE_Msk                        (0xFUL << xPSR_GE_Pos)                         /*!< xPSR
 365:Drivers/CMSIS/Include/core_cm4.h **** 
 366:Drivers/CMSIS/Include/core_cm4.h **** #define xPSR_ICI_IT_1_Pos                  10U                                            /*!< xPSR
 367:Drivers/CMSIS/Include/core_cm4.h **** #define xPSR_ICI_IT_1_Msk                  (0x3FUL << xPSR_ICI_IT_1_Pos)                  /*!< xPSR
 368:Drivers/CMSIS/Include/core_cm4.h **** 
 369:Drivers/CMSIS/Include/core_cm4.h **** #define xPSR_ISR_Pos                        0U                                            /*!< xPSR
 370:Drivers/CMSIS/Include/core_cm4.h **** #define xPSR_ISR_Msk                       (0x1FFUL /*<< xPSR_ISR_Pos*/)                  /*!< xPSR
 371:Drivers/CMSIS/Include/core_cm4.h **** 
 372:Drivers/CMSIS/Include/core_cm4.h **** 
 373:Drivers/CMSIS/Include/core_cm4.h **** /**
 374:Drivers/CMSIS/Include/core_cm4.h ****   \brief  Union type to access the Control Registers (CONTROL).
 375:Drivers/CMSIS/Include/core_cm4.h ****  */
 376:Drivers/CMSIS/Include/core_cm4.h **** typedef union
 377:Drivers/CMSIS/Include/core_cm4.h **** {
 378:Drivers/CMSIS/Include/core_cm4.h ****   struct
 379:Drivers/CMSIS/Include/core_cm4.h ****   {
 380:Drivers/CMSIS/Include/core_cm4.h ****     uint32_t nPRIV:1;                    /*!< bit:      0  Execution privilege in Thread mode */
 381:Drivers/CMSIS/Include/core_cm4.h ****     uint32_t SPSEL:1;                    /*!< bit:      1  Stack to be used */
 382:Drivers/CMSIS/Include/core_cm4.h ****     uint32_t FPCA:1;                     /*!< bit:      2  FP extension active flag */
 383:Drivers/CMSIS/Include/core_cm4.h ****     uint32_t _reserved0:29;              /*!< bit:  3..31  Reserved */
 384:Drivers/CMSIS/Include/core_cm4.h ****   } b;                                   /*!< Structure used for bit  access */
 385:Drivers/CMSIS/Include/core_cm4.h ****   uint32_t w;                            /*!< Type      used for word access */
 386:Drivers/CMSIS/Include/core_cm4.h **** } CONTROL_Type;
 387:Drivers/CMSIS/Include/core_cm4.h **** 
 388:Drivers/CMSIS/Include/core_cm4.h **** /* CONTROL Register Definitions */
 389:Drivers/CMSIS/Include/core_cm4.h **** #define CONTROL_FPCA_Pos                    2U                                            /*!< CONT
 390:Drivers/CMSIS/Include/core_cm4.h **** #define CONTROL_FPCA_Msk                   (1UL << CONTROL_FPCA_Pos)                      /*!< CONT
 391:Drivers/CMSIS/Include/core_cm4.h **** 
 392:Drivers/CMSIS/Include/core_cm4.h **** #define CONTROL_SPSEL_Pos                   1U                                            /*!< CONT
 393:Drivers/CMSIS/Include/core_cm4.h **** #define CONTROL_SPSEL_Msk                  (1UL << CONTROL_SPSEL_Pos)                     /*!< CONT
 394:Drivers/CMSIS/Include/core_cm4.h **** 
 395:Drivers/CMSIS/Include/core_cm4.h **** #define CONTROL_nPRIV_Pos                   0U                                            /*!< CONT
 396:Drivers/CMSIS/Include/core_cm4.h **** #define CONTROL_nPRIV_Msk                  (1UL /*<< CONTROL_nPRIV_Pos*/)                 /*!< CONT
 397:Drivers/CMSIS/Include/core_cm4.h **** 
 398:Drivers/CMSIS/Include/core_cm4.h **** /*@} end of group CMSIS_CORE */
 399:Drivers/CMSIS/Include/core_cm4.h **** 
 400:Drivers/CMSIS/Include/core_cm4.h **** 
 401:Drivers/CMSIS/Include/core_cm4.h **** /**
 402:Drivers/CMSIS/Include/core_cm4.h ****   \ingroup    CMSIS_core_register
 403:Drivers/CMSIS/Include/core_cm4.h ****   \defgroup   CMSIS_NVIC  Nested Vectored Interrupt Controller (NVIC)
 404:Drivers/CMSIS/Include/core_cm4.h ****   \brief      Type definitions for the NVIC Registers
 405:Drivers/CMSIS/Include/core_cm4.h ****   @{
 406:Drivers/CMSIS/Include/core_cm4.h ****  */
 407:Drivers/CMSIS/Include/core_cm4.h **** 
 408:Drivers/CMSIS/Include/core_cm4.h **** /**
 409:Drivers/CMSIS/Include/core_cm4.h ****   \brief  Structure type to access the Nested Vectored Interrupt Controller (NVIC).
 410:Drivers/CMSIS/Include/core_cm4.h ****  */
 411:Drivers/CMSIS/Include/core_cm4.h **** typedef struct
 412:Drivers/CMSIS/Include/core_cm4.h **** {
 413:Drivers/CMSIS/Include/core_cm4.h ****   __IOM uint32_t ISER[8U];               /*!< Offset: 0x000 (R/W)  Interrupt Set Enable Register */
 414:Drivers/CMSIS/Include/core_cm4.h ****         uint32_t RESERVED0[24U];
 415:Drivers/CMSIS/Include/core_cm4.h ****   __IOM uint32_t ICER[8U];               /*!< Offset: 0x080 (R/W)  Interrupt Clear Enable Register 
 416:Drivers/CMSIS/Include/core_cm4.h ****         uint32_t RESERVED1[24U];
 417:Drivers/CMSIS/Include/core_cm4.h ****   __IOM uint32_t ISPR[8U];               /*!< Offset: 0x100 (R/W)  Interrupt Set Pending Register *
ARM GAS  C:\Users\krisa\AppData\Local\Temp\ccNljk5K.s 			page 120


 418:Drivers/CMSIS/Include/core_cm4.h ****         uint32_t RESERVED2[24U];
 419:Drivers/CMSIS/Include/core_cm4.h ****   __IOM uint32_t ICPR[8U];               /*!< Offset: 0x180 (R/W)  Interrupt Clear Pending Register
 420:Drivers/CMSIS/Include/core_cm4.h ****         uint32_t RESERVED3[24U];
 421:Drivers/CMSIS/Include/core_cm4.h ****   __IOM uint32_t IABR[8U];               /*!< Offset: 0x200 (R/W)  Interrupt Active bit Register */
 422:Drivers/CMSIS/Include/core_cm4.h ****         uint32_t RESERVED4[56U];
 423:Drivers/CMSIS/Include/core_cm4.h ****   __IOM uint8_t  IP[240U];               /*!< Offset: 0x300 (R/W)  Interrupt Priority Register (8Bi
 424:Drivers/CMSIS/Include/core_cm4.h ****         uint32_t RESERVED5[644U];
 425:Drivers/CMSIS/Include/core_cm4.h ****   __OM  uint32_t STIR;                   /*!< Offset: 0xE00 ( /W)  Software Trigger Interrupt Regis
 426:Drivers/CMSIS/Include/core_cm4.h **** }  NVIC_Type;
 427:Drivers/CMSIS/Include/core_cm4.h **** 
 428:Drivers/CMSIS/Include/core_cm4.h **** /* Software Triggered Interrupt Register Definitions */
 429:Drivers/CMSIS/Include/core_cm4.h **** #define NVIC_STIR_INTID_Pos                 0U                                         /*!< STIR: I
 430:Drivers/CMSIS/Include/core_cm4.h **** #define NVIC_STIR_INTID_Msk                (0x1FFUL /*<< NVIC_STIR_INTID_Pos*/)        /*!< STIR: I
 431:Drivers/CMSIS/Include/core_cm4.h **** 
 432:Drivers/CMSIS/Include/core_cm4.h **** /*@} end of group CMSIS_NVIC */
 433:Drivers/CMSIS/Include/core_cm4.h **** 
 434:Drivers/CMSIS/Include/core_cm4.h **** 
 435:Drivers/CMSIS/Include/core_cm4.h **** /**
 436:Drivers/CMSIS/Include/core_cm4.h ****   \ingroup  CMSIS_core_register
 437:Drivers/CMSIS/Include/core_cm4.h ****   \defgroup CMSIS_SCB     System Control Block (SCB)
 438:Drivers/CMSIS/Include/core_cm4.h ****   \brief    Type definitions for the System Control Block Registers
 439:Drivers/CMSIS/Include/core_cm4.h ****   @{
 440:Drivers/CMSIS/Include/core_cm4.h ****  */
 441:Drivers/CMSIS/Include/core_cm4.h **** 
 442:Drivers/CMSIS/Include/core_cm4.h **** /**
 443:Drivers/CMSIS/Include/core_cm4.h ****   \brief  Structure type to access the System Control Block (SCB).
 444:Drivers/CMSIS/Include/core_cm4.h ****  */
 445:Drivers/CMSIS/Include/core_cm4.h **** typedef struct
 446:Drivers/CMSIS/Include/core_cm4.h **** {
 447:Drivers/CMSIS/Include/core_cm4.h ****   __IM  uint32_t CPUID;                  /*!< Offset: 0x000 (R/ )  CPUID Base Register */
 448:Drivers/CMSIS/Include/core_cm4.h ****   __IOM uint32_t ICSR;                   /*!< Offset: 0x004 (R/W)  Interrupt Control and State Regi
 449:Drivers/CMSIS/Include/core_cm4.h ****   __IOM uint32_t VTOR;                   /*!< Offset: 0x008 (R/W)  Vector Table Offset Register */
 450:Drivers/CMSIS/Include/core_cm4.h ****   __IOM uint32_t AIRCR;                  /*!< Offset: 0x00C (R/W)  Application Interrupt and Reset 
 451:Drivers/CMSIS/Include/core_cm4.h ****   __IOM uint32_t SCR;                    /*!< Offset: 0x010 (R/W)  System Control Register */
 452:Drivers/CMSIS/Include/core_cm4.h ****   __IOM uint32_t CCR;                    /*!< Offset: 0x014 (R/W)  Configuration Control Register *
 453:Drivers/CMSIS/Include/core_cm4.h ****   __IOM uint8_t  SHP[12U];               /*!< Offset: 0x018 (R/W)  System Handlers Priority Registe
 454:Drivers/CMSIS/Include/core_cm4.h ****   __IOM uint32_t SHCSR;                  /*!< Offset: 0x024 (R/W)  System Handler Control and State
 455:Drivers/CMSIS/Include/core_cm4.h ****   __IOM uint32_t CFSR;                   /*!< Offset: 0x028 (R/W)  Configurable Fault Status Regist
 456:Drivers/CMSIS/Include/core_cm4.h ****   __IOM uint32_t HFSR;                   /*!< Offset: 0x02C (R/W)  HardFault Status Register */
 457:Drivers/CMSIS/Include/core_cm4.h ****   __IOM uint32_t DFSR;                   /*!< Offset: 0x030 (R/W)  Debug Fault Status Register */
 458:Drivers/CMSIS/Include/core_cm4.h ****   __IOM uint32_t MMFAR;                  /*!< Offset: 0x034 (R/W)  MemManage Fault Address Register
 459:Drivers/CMSIS/Include/core_cm4.h ****   __IOM uint32_t BFAR;                   /*!< Offset: 0x038 (R/W)  BusFault Address Register */
 460:Drivers/CMSIS/Include/core_cm4.h ****   __IOM uint32_t AFSR;                   /*!< Offset: 0x03C (R/W)  Auxiliary Fault Status Register 
 461:Drivers/CMSIS/Include/core_cm4.h ****   __IM  uint32_t PFR[2U];                /*!< Offset: 0x040 (R/ )  Processor Feature Register */
 462:Drivers/CMSIS/Include/core_cm4.h ****   __IM  uint32_t DFR;                    /*!< Offset: 0x048 (R/ )  Debug Feature Register */
 463:Drivers/CMSIS/Include/core_cm4.h ****   __IM  uint32_t ADR;                    /*!< Offset: 0x04C (R/ )  Auxiliary Feature Register */
 464:Drivers/CMSIS/Include/core_cm4.h ****   __IM  uint32_t MMFR[4U];               /*!< Offset: 0x050 (R/ )  Memory Model Feature Register */
 465:Drivers/CMSIS/Include/core_cm4.h ****   __IM  uint32_t ISAR[5U];               /*!< Offset: 0x060 (R/ )  Instruction Set Attributes Regis
 466:Drivers/CMSIS/Include/core_cm4.h ****         uint32_t RESERVED0[5U];
 467:Drivers/CMSIS/Include/core_cm4.h ****   __IOM uint32_t CPACR;                  /*!< Offset: 0x088 (R/W)  Coprocessor Access Control Regis
 468:Drivers/CMSIS/Include/core_cm4.h **** } SCB_Type;
 469:Drivers/CMSIS/Include/core_cm4.h **** 
 470:Drivers/CMSIS/Include/core_cm4.h **** /* SCB CPUID Register Definitions */
 471:Drivers/CMSIS/Include/core_cm4.h **** #define SCB_CPUID_IMPLEMENTER_Pos          24U                                            /*!< SCB 
 472:Drivers/CMSIS/Include/core_cm4.h **** #define SCB_CPUID_IMPLEMENTER_Msk          (0xFFUL << SCB_CPUID_IMPLEMENTER_Pos)          /*!< SCB 
 473:Drivers/CMSIS/Include/core_cm4.h **** 
 474:Drivers/CMSIS/Include/core_cm4.h **** #define SCB_CPUID_VARIANT_Pos              20U                                            /*!< SCB 
ARM GAS  C:\Users\krisa\AppData\Local\Temp\ccNljk5K.s 			page 121


 475:Drivers/CMSIS/Include/core_cm4.h **** #define SCB_CPUID_VARIANT_Msk              (0xFUL << SCB_CPUID_VARIANT_Pos)               /*!< SCB 
 476:Drivers/CMSIS/Include/core_cm4.h **** 
 477:Drivers/CMSIS/Include/core_cm4.h **** #define SCB_CPUID_ARCHITECTURE_Pos         16U                                            /*!< SCB 
 478:Drivers/CMSIS/Include/core_cm4.h **** #define SCB_CPUID_ARCHITECTURE_Msk         (0xFUL << SCB_CPUID_ARCHITECTURE_Pos)          /*!< SCB 
 479:Drivers/CMSIS/Include/core_cm4.h **** 
 480:Drivers/CMSIS/Include/core_cm4.h **** #define SCB_CPUID_PARTNO_Pos                4U                                            /*!< SCB 
 481:Drivers/CMSIS/Include/core_cm4.h **** #define SCB_CPUID_PARTNO_Msk               (0xFFFUL << SCB_CPUID_PARTNO_Pos)              /*!< SCB 
 482:Drivers/CMSIS/Include/core_cm4.h **** 
 483:Drivers/CMSIS/Include/core_cm4.h **** #define SCB_CPUID_REVISION_Pos              0U                                            /*!< SCB 
 484:Drivers/CMSIS/Include/core_cm4.h **** #define SCB_CPUID_REVISION_Msk             (0xFUL /*<< SCB_CPUID_REVISION_Pos*/)          /*!< SCB 
 485:Drivers/CMSIS/Include/core_cm4.h **** 
 486:Drivers/CMSIS/Include/core_cm4.h **** /* SCB Interrupt Control State Register Definitions */
 487:Drivers/CMSIS/Include/core_cm4.h **** #define SCB_ICSR_NMIPENDSET_Pos            31U                                            /*!< SCB 
 488:Drivers/CMSIS/Include/core_cm4.h **** #define SCB_ICSR_NMIPENDSET_Msk            (1UL << SCB_ICSR_NMIPENDSET_Pos)               /*!< SCB 
 489:Drivers/CMSIS/Include/core_cm4.h **** 
 490:Drivers/CMSIS/Include/core_cm4.h **** #define SCB_ICSR_PENDSVSET_Pos             28U                                            /*!< SCB 
 491:Drivers/CMSIS/Include/core_cm4.h **** #define SCB_ICSR_PENDSVSET_Msk             (1UL << SCB_ICSR_PENDSVSET_Pos)                /*!< SCB 
 492:Drivers/CMSIS/Include/core_cm4.h **** 
 493:Drivers/CMSIS/Include/core_cm4.h **** #define SCB_ICSR_PENDSVCLR_Pos             27U                                            /*!< SCB 
 494:Drivers/CMSIS/Include/core_cm4.h **** #define SCB_ICSR_PENDSVCLR_Msk             (1UL << SCB_ICSR_PENDSVCLR_Pos)                /*!< SCB 
 495:Drivers/CMSIS/Include/core_cm4.h **** 
 496:Drivers/CMSIS/Include/core_cm4.h **** #define SCB_ICSR_PENDSTSET_Pos             26U                                            /*!< SCB 
 497:Drivers/CMSIS/Include/core_cm4.h **** #define SCB_ICSR_PENDSTSET_Msk             (1UL << SCB_ICSR_PENDSTSET_Pos)                /*!< SCB 
 498:Drivers/CMSIS/Include/core_cm4.h **** 
 499:Drivers/CMSIS/Include/core_cm4.h **** #define SCB_ICSR_PENDSTCLR_Pos             25U                                            /*!< SCB 
 500:Drivers/CMSIS/Include/core_cm4.h **** #define SCB_ICSR_PENDSTCLR_Msk             (1UL << SCB_ICSR_PENDSTCLR_Pos)                /*!< SCB 
 501:Drivers/CMSIS/Include/core_cm4.h **** 
 502:Drivers/CMSIS/Include/core_cm4.h **** #define SCB_ICSR_ISRPREEMPT_Pos            23U                                            /*!< SCB 
 503:Drivers/CMSIS/Include/core_cm4.h **** #define SCB_ICSR_ISRPREEMPT_Msk            (1UL << SCB_ICSR_ISRPREEMPT_Pos)               /*!< SCB 
 504:Drivers/CMSIS/Include/core_cm4.h **** 
 505:Drivers/CMSIS/Include/core_cm4.h **** #define SCB_ICSR_ISRPENDING_Pos            22U                                            /*!< SCB 
 506:Drivers/CMSIS/Include/core_cm4.h **** #define SCB_ICSR_ISRPENDING_Msk            (1UL << SCB_ICSR_ISRPENDING_Pos)               /*!< SCB 
 507:Drivers/CMSIS/Include/core_cm4.h **** 
 508:Drivers/CMSIS/Include/core_cm4.h **** #define SCB_ICSR_VECTPENDING_Pos           12U                                            /*!< SCB 
 509:Drivers/CMSIS/Include/core_cm4.h **** #define SCB_ICSR_VECTPENDING_Msk           (0x1FFUL << SCB_ICSR_VECTPENDING_Pos)          /*!< SCB 
 510:Drivers/CMSIS/Include/core_cm4.h **** 
 511:Drivers/CMSIS/Include/core_cm4.h **** #define SCB_ICSR_RETTOBASE_Pos             11U                                            /*!< SCB 
 512:Drivers/CMSIS/Include/core_cm4.h **** #define SCB_ICSR_RETTOBASE_Msk             (1UL << SCB_ICSR_RETTOBASE_Pos)                /*!< SCB 
 513:Drivers/CMSIS/Include/core_cm4.h **** 
 514:Drivers/CMSIS/Include/core_cm4.h **** #define SCB_ICSR_VECTACTIVE_Pos             0U                                            /*!< SCB 
 515:Drivers/CMSIS/Include/core_cm4.h **** #define SCB_ICSR_VECTACTIVE_Msk            (0x1FFUL /*<< SCB_ICSR_VECTACTIVE_Pos*/)       /*!< SCB 
 516:Drivers/CMSIS/Include/core_cm4.h **** 
 517:Drivers/CMSIS/Include/core_cm4.h **** /* SCB Vector Table Offset Register Definitions */
 518:Drivers/CMSIS/Include/core_cm4.h **** #define SCB_VTOR_TBLOFF_Pos                 7U                                            /*!< SCB 
 519:Drivers/CMSIS/Include/core_cm4.h **** #define SCB_VTOR_TBLOFF_Msk                (0x1FFFFFFUL << SCB_VTOR_TBLOFF_Pos)           /*!< SCB 
 520:Drivers/CMSIS/Include/core_cm4.h **** 
 521:Drivers/CMSIS/Include/core_cm4.h **** /* SCB Application Interrupt and Reset Control Register Definitions */
 522:Drivers/CMSIS/Include/core_cm4.h **** #define SCB_AIRCR_VECTKEY_Pos              16U                                            /*!< SCB 
 523:Drivers/CMSIS/Include/core_cm4.h **** #define SCB_AIRCR_VECTKEY_Msk              (0xFFFFUL << SCB_AIRCR_VECTKEY_Pos)            /*!< SCB 
 524:Drivers/CMSIS/Include/core_cm4.h **** 
 525:Drivers/CMSIS/Include/core_cm4.h **** #define SCB_AIRCR_VECTKEYSTAT_Pos          16U                                            /*!< SCB 
 526:Drivers/CMSIS/Include/core_cm4.h **** #define SCB_AIRCR_VECTKEYSTAT_Msk          (0xFFFFUL << SCB_AIRCR_VECTKEYSTAT_Pos)        /*!< SCB 
 527:Drivers/CMSIS/Include/core_cm4.h **** 
 528:Drivers/CMSIS/Include/core_cm4.h **** #define SCB_AIRCR_ENDIANESS_Pos            15U                                            /*!< SCB 
 529:Drivers/CMSIS/Include/core_cm4.h **** #define SCB_AIRCR_ENDIANESS_Msk            (1UL << SCB_AIRCR_ENDIANESS_Pos)               /*!< SCB 
 530:Drivers/CMSIS/Include/core_cm4.h **** 
 531:Drivers/CMSIS/Include/core_cm4.h **** #define SCB_AIRCR_PRIGROUP_Pos              8U                                            /*!< SCB 
ARM GAS  C:\Users\krisa\AppData\Local\Temp\ccNljk5K.s 			page 122


 532:Drivers/CMSIS/Include/core_cm4.h **** #define SCB_AIRCR_PRIGROUP_Msk             (7UL << SCB_AIRCR_PRIGROUP_Pos)                /*!< SCB 
 533:Drivers/CMSIS/Include/core_cm4.h **** 
 534:Drivers/CMSIS/Include/core_cm4.h **** #define SCB_AIRCR_SYSRESETREQ_Pos           2U                                            /*!< SCB 
 535:Drivers/CMSIS/Include/core_cm4.h **** #define SCB_AIRCR_SYSRESETREQ_Msk          (1UL << SCB_AIRCR_SYSRESETREQ_Pos)             /*!< SCB 
 536:Drivers/CMSIS/Include/core_cm4.h **** 
 537:Drivers/CMSIS/Include/core_cm4.h **** #define SCB_AIRCR_VECTCLRACTIVE_Pos         1U                                            /*!< SCB 
 538:Drivers/CMSIS/Include/core_cm4.h **** #define SCB_AIRCR_VECTCLRACTIVE_Msk        (1UL << SCB_AIRCR_VECTCLRACTIVE_Pos)           /*!< SCB 
 539:Drivers/CMSIS/Include/core_cm4.h **** 
 540:Drivers/CMSIS/Include/core_cm4.h **** #define SCB_AIRCR_VECTRESET_Pos             0U                                            /*!< SCB 
 541:Drivers/CMSIS/Include/core_cm4.h **** #define SCB_AIRCR_VECTRESET_Msk            (1UL /*<< SCB_AIRCR_VECTRESET_Pos*/)           /*!< SCB 
 542:Drivers/CMSIS/Include/core_cm4.h **** 
 543:Drivers/CMSIS/Include/core_cm4.h **** /* SCB System Control Register Definitions */
 544:Drivers/CMSIS/Include/core_cm4.h **** #define SCB_SCR_SEVONPEND_Pos               4U                                            /*!< SCB 
 545:Drivers/CMSIS/Include/core_cm4.h **** #define SCB_SCR_SEVONPEND_Msk              (1UL << SCB_SCR_SEVONPEND_Pos)                 /*!< SCB 
 546:Drivers/CMSIS/Include/core_cm4.h **** 
 547:Drivers/CMSIS/Include/core_cm4.h **** #define SCB_SCR_SLEEPDEEP_Pos               2U                                            /*!< SCB 
 548:Drivers/CMSIS/Include/core_cm4.h **** #define SCB_SCR_SLEEPDEEP_Msk              (1UL << SCB_SCR_SLEEPDEEP_Pos)                 /*!< SCB 
 549:Drivers/CMSIS/Include/core_cm4.h **** 
 550:Drivers/CMSIS/Include/core_cm4.h **** #define SCB_SCR_SLEEPONEXIT_Pos             1U                                            /*!< SCB 
 551:Drivers/CMSIS/Include/core_cm4.h **** #define SCB_SCR_SLEEPONEXIT_Msk            (1UL << SCB_SCR_SLEEPONEXIT_Pos)               /*!< SCB 
 552:Drivers/CMSIS/Include/core_cm4.h **** 
 553:Drivers/CMSIS/Include/core_cm4.h **** /* SCB Configuration Control Register Definitions */
 554:Drivers/CMSIS/Include/core_cm4.h **** #define SCB_CCR_STKALIGN_Pos                9U                                            /*!< SCB 
 555:Drivers/CMSIS/Include/core_cm4.h **** #define SCB_CCR_STKALIGN_Msk               (1UL << SCB_CCR_STKALIGN_Pos)                  /*!< SCB 
 556:Drivers/CMSIS/Include/core_cm4.h **** 
 557:Drivers/CMSIS/Include/core_cm4.h **** #define SCB_CCR_BFHFNMIGN_Pos               8U                                            /*!< SCB 
 558:Drivers/CMSIS/Include/core_cm4.h **** #define SCB_CCR_BFHFNMIGN_Msk              (1UL << SCB_CCR_BFHFNMIGN_Pos)                 /*!< SCB 
 559:Drivers/CMSIS/Include/core_cm4.h **** 
 560:Drivers/CMSIS/Include/core_cm4.h **** #define SCB_CCR_DIV_0_TRP_Pos               4U                                            /*!< SCB 
 561:Drivers/CMSIS/Include/core_cm4.h **** #define SCB_CCR_DIV_0_TRP_Msk              (1UL << SCB_CCR_DIV_0_TRP_Pos)                 /*!< SCB 
 562:Drivers/CMSIS/Include/core_cm4.h **** 
 563:Drivers/CMSIS/Include/core_cm4.h **** #define SCB_CCR_UNALIGN_TRP_Pos             3U                                            /*!< SCB 
 564:Drivers/CMSIS/Include/core_cm4.h **** #define SCB_CCR_UNALIGN_TRP_Msk            (1UL << SCB_CCR_UNALIGN_TRP_Pos)               /*!< SCB 
 565:Drivers/CMSIS/Include/core_cm4.h **** 
 566:Drivers/CMSIS/Include/core_cm4.h **** #define SCB_CCR_USERSETMPEND_Pos            1U                                            /*!< SCB 
 567:Drivers/CMSIS/Include/core_cm4.h **** #define SCB_CCR_USERSETMPEND_Msk           (1UL << SCB_CCR_USERSETMPEND_Pos)              /*!< SCB 
 568:Drivers/CMSIS/Include/core_cm4.h **** 
 569:Drivers/CMSIS/Include/core_cm4.h **** #define SCB_CCR_NONBASETHRDENA_Pos          0U                                            /*!< SCB 
 570:Drivers/CMSIS/Include/core_cm4.h **** #define SCB_CCR_NONBASETHRDENA_Msk         (1UL /*<< SCB_CCR_NONBASETHRDENA_Pos*/)        /*!< SCB 
 571:Drivers/CMSIS/Include/core_cm4.h **** 
 572:Drivers/CMSIS/Include/core_cm4.h **** /* SCB System Handler Control and State Register Definitions */
 573:Drivers/CMSIS/Include/core_cm4.h **** #define SCB_SHCSR_USGFAULTENA_Pos          18U                                            /*!< SCB 
 574:Drivers/CMSIS/Include/core_cm4.h **** #define SCB_SHCSR_USGFAULTENA_Msk          (1UL << SCB_SHCSR_USGFAULTENA_Pos)             /*!< SCB 
 575:Drivers/CMSIS/Include/core_cm4.h **** 
 576:Drivers/CMSIS/Include/core_cm4.h **** #define SCB_SHCSR_BUSFAULTENA_Pos          17U                                            /*!< SCB 
 577:Drivers/CMSIS/Include/core_cm4.h **** #define SCB_SHCSR_BUSFAULTENA_Msk          (1UL << SCB_SHCSR_BUSFAULTENA_Pos)             /*!< SCB 
 578:Drivers/CMSIS/Include/core_cm4.h **** 
 579:Drivers/CMSIS/Include/core_cm4.h **** #define SCB_SHCSR_MEMFAULTENA_Pos          16U                                            /*!< SCB 
 580:Drivers/CMSIS/Include/core_cm4.h **** #define SCB_SHCSR_MEMFAULTENA_Msk          (1UL << SCB_SHCSR_MEMFAULTENA_Pos)             /*!< SCB 
 581:Drivers/CMSIS/Include/core_cm4.h **** 
 582:Drivers/CMSIS/Include/core_cm4.h **** #define SCB_SHCSR_SVCALLPENDED_Pos         15U                                            /*!< SCB 
 583:Drivers/CMSIS/Include/core_cm4.h **** #define SCB_SHCSR_SVCALLPENDED_Msk         (1UL << SCB_SHCSR_SVCALLPENDED_Pos)            /*!< SCB 
 584:Drivers/CMSIS/Include/core_cm4.h **** 
 585:Drivers/CMSIS/Include/core_cm4.h **** #define SCB_SHCSR_BUSFAULTPENDED_Pos       14U                                            /*!< SCB 
 586:Drivers/CMSIS/Include/core_cm4.h **** #define SCB_SHCSR_BUSFAULTPENDED_Msk       (1UL << SCB_SHCSR_BUSFAULTPENDED_Pos)          /*!< SCB 
 587:Drivers/CMSIS/Include/core_cm4.h **** 
 588:Drivers/CMSIS/Include/core_cm4.h **** #define SCB_SHCSR_MEMFAULTPENDED_Pos       13U                                            /*!< SCB 
ARM GAS  C:\Users\krisa\AppData\Local\Temp\ccNljk5K.s 			page 123


 589:Drivers/CMSIS/Include/core_cm4.h **** #define SCB_SHCSR_MEMFAULTPENDED_Msk       (1UL << SCB_SHCSR_MEMFAULTPENDED_Pos)          /*!< SCB 
 590:Drivers/CMSIS/Include/core_cm4.h **** 
 591:Drivers/CMSIS/Include/core_cm4.h **** #define SCB_SHCSR_USGFAULTPENDED_Pos       12U                                            /*!< SCB 
 592:Drivers/CMSIS/Include/core_cm4.h **** #define SCB_SHCSR_USGFAULTPENDED_Msk       (1UL << SCB_SHCSR_USGFAULTPENDED_Pos)          /*!< SCB 
 593:Drivers/CMSIS/Include/core_cm4.h **** 
 594:Drivers/CMSIS/Include/core_cm4.h **** #define SCB_SHCSR_SYSTICKACT_Pos           11U                                            /*!< SCB 
 595:Drivers/CMSIS/Include/core_cm4.h **** #define SCB_SHCSR_SYSTICKACT_Msk           (1UL << SCB_SHCSR_SYSTICKACT_Pos)              /*!< SCB 
 596:Drivers/CMSIS/Include/core_cm4.h **** 
 597:Drivers/CMSIS/Include/core_cm4.h **** #define SCB_SHCSR_PENDSVACT_Pos            10U                                            /*!< SCB 
 598:Drivers/CMSIS/Include/core_cm4.h **** #define SCB_SHCSR_PENDSVACT_Msk            (1UL << SCB_SHCSR_PENDSVACT_Pos)               /*!< SCB 
 599:Drivers/CMSIS/Include/core_cm4.h **** 
 600:Drivers/CMSIS/Include/core_cm4.h **** #define SCB_SHCSR_MONITORACT_Pos            8U                                            /*!< SCB 
 601:Drivers/CMSIS/Include/core_cm4.h **** #define SCB_SHCSR_MONITORACT_Msk           (1UL << SCB_SHCSR_MONITORACT_Pos)              /*!< SCB 
 602:Drivers/CMSIS/Include/core_cm4.h **** 
 603:Drivers/CMSIS/Include/core_cm4.h **** #define SCB_SHCSR_SVCALLACT_Pos             7U                                            /*!< SCB 
 604:Drivers/CMSIS/Include/core_cm4.h **** #define SCB_SHCSR_SVCALLACT_Msk            (1UL << SCB_SHCSR_SVCALLACT_Pos)               /*!< SCB 
 605:Drivers/CMSIS/Include/core_cm4.h **** 
 606:Drivers/CMSIS/Include/core_cm4.h **** #define SCB_SHCSR_USGFAULTACT_Pos           3U                                            /*!< SCB 
 607:Drivers/CMSIS/Include/core_cm4.h **** #define SCB_SHCSR_USGFAULTACT_Msk          (1UL << SCB_SHCSR_USGFAULTACT_Pos)             /*!< SCB 
 608:Drivers/CMSIS/Include/core_cm4.h **** 
 609:Drivers/CMSIS/Include/core_cm4.h **** #define SCB_SHCSR_BUSFAULTACT_Pos           1U                                            /*!< SCB 
 610:Drivers/CMSIS/Include/core_cm4.h **** #define SCB_SHCSR_BUSFAULTACT_Msk          (1UL << SCB_SHCSR_BUSFAULTACT_Pos)             /*!< SCB 
 611:Drivers/CMSIS/Include/core_cm4.h **** 
 612:Drivers/CMSIS/Include/core_cm4.h **** #define SCB_SHCSR_MEMFAULTACT_Pos           0U                                            /*!< SCB 
 613:Drivers/CMSIS/Include/core_cm4.h **** #define SCB_SHCSR_MEMFAULTACT_Msk          (1UL /*<< SCB_SHCSR_MEMFAULTACT_Pos*/)         /*!< SCB 
 614:Drivers/CMSIS/Include/core_cm4.h **** 
 615:Drivers/CMSIS/Include/core_cm4.h **** /* SCB Configurable Fault Status Register Definitions */
 616:Drivers/CMSIS/Include/core_cm4.h **** #define SCB_CFSR_USGFAULTSR_Pos            16U                                            /*!< SCB 
 617:Drivers/CMSIS/Include/core_cm4.h **** #define SCB_CFSR_USGFAULTSR_Msk            (0xFFFFUL << SCB_CFSR_USGFAULTSR_Pos)          /*!< SCB 
 618:Drivers/CMSIS/Include/core_cm4.h **** 
 619:Drivers/CMSIS/Include/core_cm4.h **** #define SCB_CFSR_BUSFAULTSR_Pos             8U                                            /*!< SCB 
 620:Drivers/CMSIS/Include/core_cm4.h **** #define SCB_CFSR_BUSFAULTSR_Msk            (0xFFUL << SCB_CFSR_BUSFAULTSR_Pos)            /*!< SCB 
 621:Drivers/CMSIS/Include/core_cm4.h **** 
 622:Drivers/CMSIS/Include/core_cm4.h **** #define SCB_CFSR_MEMFAULTSR_Pos             0U                                            /*!< SCB 
 623:Drivers/CMSIS/Include/core_cm4.h **** #define SCB_CFSR_MEMFAULTSR_Msk            (0xFFUL /*<< SCB_CFSR_MEMFAULTSR_Pos*/)        /*!< SCB 
 624:Drivers/CMSIS/Include/core_cm4.h **** 
 625:Drivers/CMSIS/Include/core_cm4.h **** /* MemManage Fault Status Register (part of SCB Configurable Fault Status Register) */
 626:Drivers/CMSIS/Include/core_cm4.h **** #define SCB_CFSR_MMARVALID_Pos             (SCB_CFSR_MEMFAULTSR_Pos + 7U)                 /*!< SCB 
 627:Drivers/CMSIS/Include/core_cm4.h **** #define SCB_CFSR_MMARVALID_Msk             (1UL << SCB_CFSR_MMARVALID_Pos)                /*!< SCB 
 628:Drivers/CMSIS/Include/core_cm4.h **** 
 629:Drivers/CMSIS/Include/core_cm4.h **** #define SCB_CFSR_MLSPERR_Pos               (SCB_CFSR_MEMFAULTSR_Pos + 5U)                 /*!< SCB 
 630:Drivers/CMSIS/Include/core_cm4.h **** #define SCB_CFSR_MLSPERR_Msk               (1UL << SCB_CFSR_MLSPERR_Pos)                  /*!< SCB 
 631:Drivers/CMSIS/Include/core_cm4.h **** 
 632:Drivers/CMSIS/Include/core_cm4.h **** #define SCB_CFSR_MSTKERR_Pos               (SCB_CFSR_MEMFAULTSR_Pos + 4U)                 /*!< SCB 
 633:Drivers/CMSIS/Include/core_cm4.h **** #define SCB_CFSR_MSTKERR_Msk               (1UL << SCB_CFSR_MSTKERR_Pos)                  /*!< SCB 
 634:Drivers/CMSIS/Include/core_cm4.h **** 
 635:Drivers/CMSIS/Include/core_cm4.h **** #define SCB_CFSR_MUNSTKERR_Pos             (SCB_CFSR_MEMFAULTSR_Pos + 3U)                 /*!< SCB 
 636:Drivers/CMSIS/Include/core_cm4.h **** #define SCB_CFSR_MUNSTKERR_Msk             (1UL << SCB_CFSR_MUNSTKERR_Pos)                /*!< SCB 
 637:Drivers/CMSIS/Include/core_cm4.h **** 
 638:Drivers/CMSIS/Include/core_cm4.h **** #define SCB_CFSR_DACCVIOL_Pos              (SCB_CFSR_MEMFAULTSR_Pos + 1U)                 /*!< SCB 
 639:Drivers/CMSIS/Include/core_cm4.h **** #define SCB_CFSR_DACCVIOL_Msk              (1UL << SCB_CFSR_DACCVIOL_Pos)                 /*!< SCB 
 640:Drivers/CMSIS/Include/core_cm4.h **** 
 641:Drivers/CMSIS/Include/core_cm4.h **** #define SCB_CFSR_IACCVIOL_Pos              (SCB_CFSR_MEMFAULTSR_Pos + 0U)                 /*!< SCB 
 642:Drivers/CMSIS/Include/core_cm4.h **** #define SCB_CFSR_IACCVIOL_Msk              (1UL /*<< SCB_CFSR_IACCVIOL_Pos*/)             /*!< SCB 
 643:Drivers/CMSIS/Include/core_cm4.h **** 
 644:Drivers/CMSIS/Include/core_cm4.h **** /* BusFault Status Register (part of SCB Configurable Fault Status Register) */
 645:Drivers/CMSIS/Include/core_cm4.h **** #define SCB_CFSR_BFARVALID_Pos            (SCB_CFSR_BUSFAULTSR_Pos + 7U)                  /*!< SCB 
ARM GAS  C:\Users\krisa\AppData\Local\Temp\ccNljk5K.s 			page 124


 646:Drivers/CMSIS/Include/core_cm4.h **** #define SCB_CFSR_BFARVALID_Msk            (1UL << SCB_CFSR_BFARVALID_Pos)                 /*!< SCB 
 647:Drivers/CMSIS/Include/core_cm4.h **** 
 648:Drivers/CMSIS/Include/core_cm4.h **** #define SCB_CFSR_LSPERR_Pos               (SCB_CFSR_BUSFAULTSR_Pos + 5U)                  /*!< SCB 
 649:Drivers/CMSIS/Include/core_cm4.h **** #define SCB_CFSR_LSPERR_Msk               (1UL << SCB_CFSR_LSPERR_Pos)                    /*!< SCB 
 650:Drivers/CMSIS/Include/core_cm4.h **** 
 651:Drivers/CMSIS/Include/core_cm4.h **** #define SCB_CFSR_STKERR_Pos               (SCB_CFSR_BUSFAULTSR_Pos + 4U)                  /*!< SCB 
 652:Drivers/CMSIS/Include/core_cm4.h **** #define SCB_CFSR_STKERR_Msk               (1UL << SCB_CFSR_STKERR_Pos)                    /*!< SCB 
 653:Drivers/CMSIS/Include/core_cm4.h **** 
 654:Drivers/CMSIS/Include/core_cm4.h **** #define SCB_CFSR_UNSTKERR_Pos             (SCB_CFSR_BUSFAULTSR_Pos + 3U)                  /*!< SCB 
 655:Drivers/CMSIS/Include/core_cm4.h **** #define SCB_CFSR_UNSTKERR_Msk             (1UL << SCB_CFSR_UNSTKERR_Pos)                  /*!< SCB 
 656:Drivers/CMSIS/Include/core_cm4.h **** 
 657:Drivers/CMSIS/Include/core_cm4.h **** #define SCB_CFSR_IMPRECISERR_Pos          (SCB_CFSR_BUSFAULTSR_Pos + 2U)                  /*!< SCB 
 658:Drivers/CMSIS/Include/core_cm4.h **** #define SCB_CFSR_IMPRECISERR_Msk          (1UL << SCB_CFSR_IMPRECISERR_Pos)               /*!< SCB 
 659:Drivers/CMSIS/Include/core_cm4.h **** 
 660:Drivers/CMSIS/Include/core_cm4.h **** #define SCB_CFSR_PRECISERR_Pos            (SCB_CFSR_BUSFAULTSR_Pos + 1U)                  /*!< SCB 
 661:Drivers/CMSIS/Include/core_cm4.h **** #define SCB_CFSR_PRECISERR_Msk            (1UL << SCB_CFSR_PRECISERR_Pos)                 /*!< SCB 
 662:Drivers/CMSIS/Include/core_cm4.h **** 
 663:Drivers/CMSIS/Include/core_cm4.h **** #define SCB_CFSR_IBUSERR_Pos              (SCB_CFSR_BUSFAULTSR_Pos + 0U)                  /*!< SCB 
 664:Drivers/CMSIS/Include/core_cm4.h **** #define SCB_CFSR_IBUSERR_Msk              (1UL << SCB_CFSR_IBUSERR_Pos)                   /*!< SCB 
 665:Drivers/CMSIS/Include/core_cm4.h **** 
 666:Drivers/CMSIS/Include/core_cm4.h **** /* UsageFault Status Register (part of SCB Configurable Fault Status Register) */
 667:Drivers/CMSIS/Include/core_cm4.h **** #define SCB_CFSR_DIVBYZERO_Pos            (SCB_CFSR_USGFAULTSR_Pos + 9U)                  /*!< SCB 
 668:Drivers/CMSIS/Include/core_cm4.h **** #define SCB_CFSR_DIVBYZERO_Msk            (1UL << SCB_CFSR_DIVBYZERO_Pos)                 /*!< SCB 
 669:Drivers/CMSIS/Include/core_cm4.h **** 
 670:Drivers/CMSIS/Include/core_cm4.h **** #define SCB_CFSR_UNALIGNED_Pos            (SCB_CFSR_USGFAULTSR_Pos + 8U)                  /*!< SCB 
 671:Drivers/CMSIS/Include/core_cm4.h **** #define SCB_CFSR_UNALIGNED_Msk            (1UL << SCB_CFSR_UNALIGNED_Pos)                 /*!< SCB 
 672:Drivers/CMSIS/Include/core_cm4.h **** 
 673:Drivers/CMSIS/Include/core_cm4.h **** #define SCB_CFSR_NOCP_Pos                 (SCB_CFSR_USGFAULTSR_Pos + 3U)                  /*!< SCB 
 674:Drivers/CMSIS/Include/core_cm4.h **** #define SCB_CFSR_NOCP_Msk                 (1UL << SCB_CFSR_NOCP_Pos)                      /*!< SCB 
 675:Drivers/CMSIS/Include/core_cm4.h **** 
 676:Drivers/CMSIS/Include/core_cm4.h **** #define SCB_CFSR_INVPC_Pos                (SCB_CFSR_USGFAULTSR_Pos + 2U)                  /*!< SCB 
 677:Drivers/CMSIS/Include/core_cm4.h **** #define SCB_CFSR_INVPC_Msk                (1UL << SCB_CFSR_INVPC_Pos)                     /*!< SCB 
 678:Drivers/CMSIS/Include/core_cm4.h **** 
 679:Drivers/CMSIS/Include/core_cm4.h **** #define SCB_CFSR_INVSTATE_Pos             (SCB_CFSR_USGFAULTSR_Pos + 1U)                  /*!< SCB 
 680:Drivers/CMSIS/Include/core_cm4.h **** #define SCB_CFSR_INVSTATE_Msk             (1UL << SCB_CFSR_INVSTATE_Pos)                  /*!< SCB 
 681:Drivers/CMSIS/Include/core_cm4.h **** 
 682:Drivers/CMSIS/Include/core_cm4.h **** #define SCB_CFSR_UNDEFINSTR_Pos           (SCB_CFSR_USGFAULTSR_Pos + 0U)                  /*!< SCB 
 683:Drivers/CMSIS/Include/core_cm4.h **** #define SCB_CFSR_UNDEFINSTR_Msk           (1UL << SCB_CFSR_UNDEFINSTR_Pos)                /*!< SCB 
 684:Drivers/CMSIS/Include/core_cm4.h **** 
 685:Drivers/CMSIS/Include/core_cm4.h **** /* SCB Hard Fault Status Register Definitions */
 686:Drivers/CMSIS/Include/core_cm4.h **** #define SCB_HFSR_DEBUGEVT_Pos              31U                                            /*!< SCB 
 687:Drivers/CMSIS/Include/core_cm4.h **** #define SCB_HFSR_DEBUGEVT_Msk              (1UL << SCB_HFSR_DEBUGEVT_Pos)                 /*!< SCB 
 688:Drivers/CMSIS/Include/core_cm4.h **** 
 689:Drivers/CMSIS/Include/core_cm4.h **** #define SCB_HFSR_FORCED_Pos                30U                                            /*!< SCB 
 690:Drivers/CMSIS/Include/core_cm4.h **** #define SCB_HFSR_FORCED_Msk                (1UL << SCB_HFSR_FORCED_Pos)                   /*!< SCB 
 691:Drivers/CMSIS/Include/core_cm4.h **** 
 692:Drivers/CMSIS/Include/core_cm4.h **** #define SCB_HFSR_VECTTBL_Pos                1U                                            /*!< SCB 
 693:Drivers/CMSIS/Include/core_cm4.h **** #define SCB_HFSR_VECTTBL_Msk               (1UL << SCB_HFSR_VECTTBL_Pos)                  /*!< SCB 
 694:Drivers/CMSIS/Include/core_cm4.h **** 
 695:Drivers/CMSIS/Include/core_cm4.h **** /* SCB Debug Fault Status Register Definitions */
 696:Drivers/CMSIS/Include/core_cm4.h **** #define SCB_DFSR_EXTERNAL_Pos               4U                                            /*!< SCB 
 697:Drivers/CMSIS/Include/core_cm4.h **** #define SCB_DFSR_EXTERNAL_Msk              (1UL << SCB_DFSR_EXTERNAL_Pos)                 /*!< SCB 
 698:Drivers/CMSIS/Include/core_cm4.h **** 
 699:Drivers/CMSIS/Include/core_cm4.h **** #define SCB_DFSR_VCATCH_Pos                 3U                                            /*!< SCB 
 700:Drivers/CMSIS/Include/core_cm4.h **** #define SCB_DFSR_VCATCH_Msk                (1UL << SCB_DFSR_VCATCH_Pos)                   /*!< SCB 
 701:Drivers/CMSIS/Include/core_cm4.h **** 
 702:Drivers/CMSIS/Include/core_cm4.h **** #define SCB_DFSR_DWTTRAP_Pos                2U                                            /*!< SCB 
ARM GAS  C:\Users\krisa\AppData\Local\Temp\ccNljk5K.s 			page 125


 703:Drivers/CMSIS/Include/core_cm4.h **** #define SCB_DFSR_DWTTRAP_Msk               (1UL << SCB_DFSR_DWTTRAP_Pos)                  /*!< SCB 
 704:Drivers/CMSIS/Include/core_cm4.h **** 
 705:Drivers/CMSIS/Include/core_cm4.h **** #define SCB_DFSR_BKPT_Pos                   1U                                            /*!< SCB 
 706:Drivers/CMSIS/Include/core_cm4.h **** #define SCB_DFSR_BKPT_Msk                  (1UL << SCB_DFSR_BKPT_Pos)                     /*!< SCB 
 707:Drivers/CMSIS/Include/core_cm4.h **** 
 708:Drivers/CMSIS/Include/core_cm4.h **** #define SCB_DFSR_HALTED_Pos                 0U                                            /*!< SCB 
 709:Drivers/CMSIS/Include/core_cm4.h **** #define SCB_DFSR_HALTED_Msk                (1UL /*<< SCB_DFSR_HALTED_Pos*/)               /*!< SCB 
 710:Drivers/CMSIS/Include/core_cm4.h **** 
 711:Drivers/CMSIS/Include/core_cm4.h **** /*@} end of group CMSIS_SCB */
 712:Drivers/CMSIS/Include/core_cm4.h **** 
 713:Drivers/CMSIS/Include/core_cm4.h **** 
 714:Drivers/CMSIS/Include/core_cm4.h **** /**
 715:Drivers/CMSIS/Include/core_cm4.h ****   \ingroup  CMSIS_core_register
 716:Drivers/CMSIS/Include/core_cm4.h ****   \defgroup CMSIS_SCnSCB System Controls not in SCB (SCnSCB)
 717:Drivers/CMSIS/Include/core_cm4.h ****   \brief    Type definitions for the System Control and ID Register not in the SCB
 718:Drivers/CMSIS/Include/core_cm4.h ****   @{
 719:Drivers/CMSIS/Include/core_cm4.h ****  */
 720:Drivers/CMSIS/Include/core_cm4.h **** 
 721:Drivers/CMSIS/Include/core_cm4.h **** /**
 722:Drivers/CMSIS/Include/core_cm4.h ****   \brief  Structure type to access the System Control and ID Register not in the SCB.
 723:Drivers/CMSIS/Include/core_cm4.h ****  */
 724:Drivers/CMSIS/Include/core_cm4.h **** typedef struct
 725:Drivers/CMSIS/Include/core_cm4.h **** {
 726:Drivers/CMSIS/Include/core_cm4.h ****         uint32_t RESERVED0[1U];
 727:Drivers/CMSIS/Include/core_cm4.h ****   __IM  uint32_t ICTR;                   /*!< Offset: 0x004 (R/ )  Interrupt Controller Type Regist
 728:Drivers/CMSIS/Include/core_cm4.h ****   __IOM uint32_t ACTLR;                  /*!< Offset: 0x008 (R/W)  Auxiliary Control Register */
 729:Drivers/CMSIS/Include/core_cm4.h **** } SCnSCB_Type;
 730:Drivers/CMSIS/Include/core_cm4.h **** 
 731:Drivers/CMSIS/Include/core_cm4.h **** /* Interrupt Controller Type Register Definitions */
 732:Drivers/CMSIS/Include/core_cm4.h **** #define SCnSCB_ICTR_INTLINESNUM_Pos         0U                                         /*!< ICTR: I
 733:Drivers/CMSIS/Include/core_cm4.h **** #define SCnSCB_ICTR_INTLINESNUM_Msk        (0xFUL /*<< SCnSCB_ICTR_INTLINESNUM_Pos*/)  /*!< ICTR: I
 734:Drivers/CMSIS/Include/core_cm4.h **** 
 735:Drivers/CMSIS/Include/core_cm4.h **** /* Auxiliary Control Register Definitions */
 736:Drivers/CMSIS/Include/core_cm4.h **** #define SCnSCB_ACTLR_DISOOFP_Pos            9U                                         /*!< ACTLR: 
 737:Drivers/CMSIS/Include/core_cm4.h **** #define SCnSCB_ACTLR_DISOOFP_Msk           (1UL << SCnSCB_ACTLR_DISOOFP_Pos)           /*!< ACTLR: 
 738:Drivers/CMSIS/Include/core_cm4.h **** 
 739:Drivers/CMSIS/Include/core_cm4.h **** #define SCnSCB_ACTLR_DISFPCA_Pos            8U                                         /*!< ACTLR: 
 740:Drivers/CMSIS/Include/core_cm4.h **** #define SCnSCB_ACTLR_DISFPCA_Msk           (1UL << SCnSCB_ACTLR_DISFPCA_Pos)           /*!< ACTLR: 
 741:Drivers/CMSIS/Include/core_cm4.h **** 
 742:Drivers/CMSIS/Include/core_cm4.h **** #define SCnSCB_ACTLR_DISFOLD_Pos            2U                                         /*!< ACTLR: 
 743:Drivers/CMSIS/Include/core_cm4.h **** #define SCnSCB_ACTLR_DISFOLD_Msk           (1UL << SCnSCB_ACTLR_DISFOLD_Pos)           /*!< ACTLR: 
 744:Drivers/CMSIS/Include/core_cm4.h **** 
 745:Drivers/CMSIS/Include/core_cm4.h **** #define SCnSCB_ACTLR_DISDEFWBUF_Pos         1U                                         /*!< ACTLR: 
 746:Drivers/CMSIS/Include/core_cm4.h **** #define SCnSCB_ACTLR_DISDEFWBUF_Msk        (1UL << SCnSCB_ACTLR_DISDEFWBUF_Pos)        /*!< ACTLR: 
 747:Drivers/CMSIS/Include/core_cm4.h **** 
 748:Drivers/CMSIS/Include/core_cm4.h **** #define SCnSCB_ACTLR_DISMCYCINT_Pos         0U                                         /*!< ACTLR: 
 749:Drivers/CMSIS/Include/core_cm4.h **** #define SCnSCB_ACTLR_DISMCYCINT_Msk        (1UL /*<< SCnSCB_ACTLR_DISMCYCINT_Pos*/)    /*!< ACTLR: 
 750:Drivers/CMSIS/Include/core_cm4.h **** 
 751:Drivers/CMSIS/Include/core_cm4.h **** /*@} end of group CMSIS_SCnotSCB */
 752:Drivers/CMSIS/Include/core_cm4.h **** 
 753:Drivers/CMSIS/Include/core_cm4.h **** 
 754:Drivers/CMSIS/Include/core_cm4.h **** /**
 755:Drivers/CMSIS/Include/core_cm4.h ****   \ingroup  CMSIS_core_register
 756:Drivers/CMSIS/Include/core_cm4.h ****   \defgroup CMSIS_SysTick     System Tick Timer (SysTick)
 757:Drivers/CMSIS/Include/core_cm4.h ****   \brief    Type definitions for the System Timer Registers.
 758:Drivers/CMSIS/Include/core_cm4.h ****   @{
 759:Drivers/CMSIS/Include/core_cm4.h ****  */
ARM GAS  C:\Users\krisa\AppData\Local\Temp\ccNljk5K.s 			page 126


 760:Drivers/CMSIS/Include/core_cm4.h **** 
 761:Drivers/CMSIS/Include/core_cm4.h **** /**
 762:Drivers/CMSIS/Include/core_cm4.h ****   \brief  Structure type to access the System Timer (SysTick).
 763:Drivers/CMSIS/Include/core_cm4.h ****  */
 764:Drivers/CMSIS/Include/core_cm4.h **** typedef struct
 765:Drivers/CMSIS/Include/core_cm4.h **** {
 766:Drivers/CMSIS/Include/core_cm4.h ****   __IOM uint32_t CTRL;                   /*!< Offset: 0x000 (R/W)  SysTick Control and Status Regis
 767:Drivers/CMSIS/Include/core_cm4.h ****   __IOM uint32_t LOAD;                   /*!< Offset: 0x004 (R/W)  SysTick Reload Value Register */
 768:Drivers/CMSIS/Include/core_cm4.h ****   __IOM uint32_t VAL;                    /*!< Offset: 0x008 (R/W)  SysTick Current Value Register *
 769:Drivers/CMSIS/Include/core_cm4.h ****   __IM  uint32_t CALIB;                  /*!< Offset: 0x00C (R/ )  SysTick Calibration Register */
 770:Drivers/CMSIS/Include/core_cm4.h **** } SysTick_Type;
 771:Drivers/CMSIS/Include/core_cm4.h **** 
 772:Drivers/CMSIS/Include/core_cm4.h **** /* SysTick Control / Status Register Definitions */
 773:Drivers/CMSIS/Include/core_cm4.h **** #define SysTick_CTRL_COUNTFLAG_Pos         16U                                            /*!< SysT
 774:Drivers/CMSIS/Include/core_cm4.h **** #define SysTick_CTRL_COUNTFLAG_Msk         (1UL << SysTick_CTRL_COUNTFLAG_Pos)            /*!< SysT
 775:Drivers/CMSIS/Include/core_cm4.h **** 
 776:Drivers/CMSIS/Include/core_cm4.h **** #define SysTick_CTRL_CLKSOURCE_Pos          2U                                            /*!< SysT
 777:Drivers/CMSIS/Include/core_cm4.h **** #define SysTick_CTRL_CLKSOURCE_Msk         (1UL << SysTick_CTRL_CLKSOURCE_Pos)            /*!< SysT
 778:Drivers/CMSIS/Include/core_cm4.h **** 
 779:Drivers/CMSIS/Include/core_cm4.h **** #define SysTick_CTRL_TICKINT_Pos            1U                                            /*!< SysT
 780:Drivers/CMSIS/Include/core_cm4.h **** #define SysTick_CTRL_TICKINT_Msk           (1UL << SysTick_CTRL_TICKINT_Pos)              /*!< SysT
 781:Drivers/CMSIS/Include/core_cm4.h **** 
 782:Drivers/CMSIS/Include/core_cm4.h **** #define SysTick_CTRL_ENABLE_Pos             0U                                            /*!< SysT
 783:Drivers/CMSIS/Include/core_cm4.h **** #define SysTick_CTRL_ENABLE_Msk            (1UL /*<< SysTick_CTRL_ENABLE_Pos*/)           /*!< SysT
 784:Drivers/CMSIS/Include/core_cm4.h **** 
 785:Drivers/CMSIS/Include/core_cm4.h **** /* SysTick Reload Register Definitions */
 786:Drivers/CMSIS/Include/core_cm4.h **** #define SysTick_LOAD_RELOAD_Pos             0U                                            /*!< SysT
 787:Drivers/CMSIS/Include/core_cm4.h **** #define SysTick_LOAD_RELOAD_Msk            (0xFFFFFFUL /*<< SysTick_LOAD_RELOAD_Pos*/)    /*!< SysT
 788:Drivers/CMSIS/Include/core_cm4.h **** 
 789:Drivers/CMSIS/Include/core_cm4.h **** /* SysTick Current Register Definitions */
 790:Drivers/CMSIS/Include/core_cm4.h **** #define SysTick_VAL_CURRENT_Pos             0U                                            /*!< SysT
 791:Drivers/CMSIS/Include/core_cm4.h **** #define SysTick_VAL_CURRENT_Msk            (0xFFFFFFUL /*<< SysTick_VAL_CURRENT_Pos*/)    /*!< SysT
 792:Drivers/CMSIS/Include/core_cm4.h **** 
 793:Drivers/CMSIS/Include/core_cm4.h **** /* SysTick Calibration Register Definitions */
 794:Drivers/CMSIS/Include/core_cm4.h **** #define SysTick_CALIB_NOREF_Pos            31U                                            /*!< SysT
 795:Drivers/CMSIS/Include/core_cm4.h **** #define SysTick_CALIB_NOREF_Msk            (1UL << SysTick_CALIB_NOREF_Pos)               /*!< SysT
 796:Drivers/CMSIS/Include/core_cm4.h **** 
 797:Drivers/CMSIS/Include/core_cm4.h **** #define SysTick_CALIB_SKEW_Pos             30U                                            /*!< SysT
 798:Drivers/CMSIS/Include/core_cm4.h **** #define SysTick_CALIB_SKEW_Msk             (1UL << SysTick_CALIB_SKEW_Pos)                /*!< SysT
 799:Drivers/CMSIS/Include/core_cm4.h **** 
 800:Drivers/CMSIS/Include/core_cm4.h **** #define SysTick_CALIB_TENMS_Pos             0U                                            /*!< SysT
 801:Drivers/CMSIS/Include/core_cm4.h **** #define SysTick_CALIB_TENMS_Msk            (0xFFFFFFUL /*<< SysTick_CALIB_TENMS_Pos*/)    /*!< SysT
 802:Drivers/CMSIS/Include/core_cm4.h **** 
 803:Drivers/CMSIS/Include/core_cm4.h **** /*@} end of group CMSIS_SysTick */
 804:Drivers/CMSIS/Include/core_cm4.h **** 
 805:Drivers/CMSIS/Include/core_cm4.h **** 
 806:Drivers/CMSIS/Include/core_cm4.h **** /**
 807:Drivers/CMSIS/Include/core_cm4.h ****   \ingroup  CMSIS_core_register
 808:Drivers/CMSIS/Include/core_cm4.h ****   \defgroup CMSIS_ITM     Instrumentation Trace Macrocell (ITM)
 809:Drivers/CMSIS/Include/core_cm4.h ****   \brief    Type definitions for the Instrumentation Trace Macrocell (ITM)
 810:Drivers/CMSIS/Include/core_cm4.h ****   @{
 811:Drivers/CMSIS/Include/core_cm4.h ****  */
 812:Drivers/CMSIS/Include/core_cm4.h **** 
 813:Drivers/CMSIS/Include/core_cm4.h **** /**
 814:Drivers/CMSIS/Include/core_cm4.h ****   \brief  Structure type to access the Instrumentation Trace Macrocell Register (ITM).
 815:Drivers/CMSIS/Include/core_cm4.h ****  */
 816:Drivers/CMSIS/Include/core_cm4.h **** typedef struct
ARM GAS  C:\Users\krisa\AppData\Local\Temp\ccNljk5K.s 			page 127


 817:Drivers/CMSIS/Include/core_cm4.h **** {
 818:Drivers/CMSIS/Include/core_cm4.h ****   __OM  union
 819:Drivers/CMSIS/Include/core_cm4.h ****   {
 820:Drivers/CMSIS/Include/core_cm4.h ****     __OM  uint8_t    u8;                 /*!< Offset: 0x000 ( /W)  ITM Stimulus Port 8-bit */
 821:Drivers/CMSIS/Include/core_cm4.h ****     __OM  uint16_t   u16;                /*!< Offset: 0x000 ( /W)  ITM Stimulus Port 16-bit */
 822:Drivers/CMSIS/Include/core_cm4.h ****     __OM  uint32_t   u32;                /*!< Offset: 0x000 ( /W)  ITM Stimulus Port 32-bit */
 823:Drivers/CMSIS/Include/core_cm4.h ****   }  PORT [32U];                         /*!< Offset: 0x000 ( /W)  ITM Stimulus Port Registers */
 824:Drivers/CMSIS/Include/core_cm4.h ****         uint32_t RESERVED0[864U];
 825:Drivers/CMSIS/Include/core_cm4.h ****   __IOM uint32_t TER;                    /*!< Offset: 0xE00 (R/W)  ITM Trace Enable Register */
 826:Drivers/CMSIS/Include/core_cm4.h ****         uint32_t RESERVED1[15U];
 827:Drivers/CMSIS/Include/core_cm4.h ****   __IOM uint32_t TPR;                    /*!< Offset: 0xE40 (R/W)  ITM Trace Privilege Register */
 828:Drivers/CMSIS/Include/core_cm4.h ****         uint32_t RESERVED2[15U];
 829:Drivers/CMSIS/Include/core_cm4.h ****   __IOM uint32_t TCR;                    /*!< Offset: 0xE80 (R/W)  ITM Trace Control Register */
 830:Drivers/CMSIS/Include/core_cm4.h ****         uint32_t RESERVED3[32U];
 831:Drivers/CMSIS/Include/core_cm4.h ****         uint32_t RESERVED4[43U];
 832:Drivers/CMSIS/Include/core_cm4.h ****   __OM  uint32_t LAR;                    /*!< Offset: 0xFB0 ( /W)  ITM Lock Access Register */
 833:Drivers/CMSIS/Include/core_cm4.h ****   __IM  uint32_t LSR;                    /*!< Offset: 0xFB4 (R/ )  ITM Lock Status Register */
 834:Drivers/CMSIS/Include/core_cm4.h ****         uint32_t RESERVED5[6U];
 835:Drivers/CMSIS/Include/core_cm4.h ****   __IM  uint32_t PID4;                   /*!< Offset: 0xFD0 (R/ )  ITM Peripheral Identification Re
 836:Drivers/CMSIS/Include/core_cm4.h ****   __IM  uint32_t PID5;                   /*!< Offset: 0xFD4 (R/ )  ITM Peripheral Identification Re
 837:Drivers/CMSIS/Include/core_cm4.h ****   __IM  uint32_t PID6;                   /*!< Offset: 0xFD8 (R/ )  ITM Peripheral Identification Re
 838:Drivers/CMSIS/Include/core_cm4.h ****   __IM  uint32_t PID7;                   /*!< Offset: 0xFDC (R/ )  ITM Peripheral Identification Re
 839:Drivers/CMSIS/Include/core_cm4.h ****   __IM  uint32_t PID0;                   /*!< Offset: 0xFE0 (R/ )  ITM Peripheral Identification Re
 840:Drivers/CMSIS/Include/core_cm4.h ****   __IM  uint32_t PID1;                   /*!< Offset: 0xFE4 (R/ )  ITM Peripheral Identification Re
 841:Drivers/CMSIS/Include/core_cm4.h ****   __IM  uint32_t PID2;                   /*!< Offset: 0xFE8 (R/ )  ITM Peripheral Identification Re
 842:Drivers/CMSIS/Include/core_cm4.h ****   __IM  uint32_t PID3;                   /*!< Offset: 0xFEC (R/ )  ITM Peripheral Identification Re
 843:Drivers/CMSIS/Include/core_cm4.h ****   __IM  uint32_t CID0;                   /*!< Offset: 0xFF0 (R/ )  ITM Component  Identification Re
 844:Drivers/CMSIS/Include/core_cm4.h ****   __IM  uint32_t CID1;                   /*!< Offset: 0xFF4 (R/ )  ITM Component  Identification Re
 845:Drivers/CMSIS/Include/core_cm4.h ****   __IM  uint32_t CID2;                   /*!< Offset: 0xFF8 (R/ )  ITM Component  Identification Re
 846:Drivers/CMSIS/Include/core_cm4.h ****   __IM  uint32_t CID3;                   /*!< Offset: 0xFFC (R/ )  ITM Component  Identification Re
 847:Drivers/CMSIS/Include/core_cm4.h **** } ITM_Type;
 848:Drivers/CMSIS/Include/core_cm4.h **** 
 849:Drivers/CMSIS/Include/core_cm4.h **** /* ITM Trace Privilege Register Definitions */
 850:Drivers/CMSIS/Include/core_cm4.h **** #define ITM_TPR_PRIVMASK_Pos                0U                                            /*!< ITM 
 851:Drivers/CMSIS/Include/core_cm4.h **** #define ITM_TPR_PRIVMASK_Msk               (0xFFFFFFFFUL /*<< ITM_TPR_PRIVMASK_Pos*/)     /*!< ITM 
 852:Drivers/CMSIS/Include/core_cm4.h **** 
 853:Drivers/CMSIS/Include/core_cm4.h **** /* ITM Trace Control Register Definitions */
 854:Drivers/CMSIS/Include/core_cm4.h **** #define ITM_TCR_BUSY_Pos                   23U                                            /*!< ITM 
 855:Drivers/CMSIS/Include/core_cm4.h **** #define ITM_TCR_BUSY_Msk                   (1UL << ITM_TCR_BUSY_Pos)                      /*!< ITM 
 856:Drivers/CMSIS/Include/core_cm4.h **** 
 857:Drivers/CMSIS/Include/core_cm4.h **** #define ITM_TCR_TraceBusID_Pos             16U                                            /*!< ITM 
 858:Drivers/CMSIS/Include/core_cm4.h **** #define ITM_TCR_TraceBusID_Msk             (0x7FUL << ITM_TCR_TraceBusID_Pos)             /*!< ITM 
 859:Drivers/CMSIS/Include/core_cm4.h **** 
 860:Drivers/CMSIS/Include/core_cm4.h **** #define ITM_TCR_GTSFREQ_Pos                10U                                            /*!< ITM 
 861:Drivers/CMSIS/Include/core_cm4.h **** #define ITM_TCR_GTSFREQ_Msk                (3UL << ITM_TCR_GTSFREQ_Pos)                   /*!< ITM 
 862:Drivers/CMSIS/Include/core_cm4.h **** 
 863:Drivers/CMSIS/Include/core_cm4.h **** #define ITM_TCR_TSPrescale_Pos              8U                                            /*!< ITM 
 864:Drivers/CMSIS/Include/core_cm4.h **** #define ITM_TCR_TSPrescale_Msk             (3UL << ITM_TCR_TSPrescale_Pos)                /*!< ITM 
 865:Drivers/CMSIS/Include/core_cm4.h **** 
 866:Drivers/CMSIS/Include/core_cm4.h **** #define ITM_TCR_SWOENA_Pos                  4U                                            /*!< ITM 
 867:Drivers/CMSIS/Include/core_cm4.h **** #define ITM_TCR_SWOENA_Msk                 (1UL << ITM_TCR_SWOENA_Pos)                    /*!< ITM 
 868:Drivers/CMSIS/Include/core_cm4.h **** 
 869:Drivers/CMSIS/Include/core_cm4.h **** #define ITM_TCR_DWTENA_Pos                  3U                                            /*!< ITM 
 870:Drivers/CMSIS/Include/core_cm4.h **** #define ITM_TCR_DWTENA_Msk                 (1UL << ITM_TCR_DWTENA_Pos)                    /*!< ITM 
 871:Drivers/CMSIS/Include/core_cm4.h **** 
 872:Drivers/CMSIS/Include/core_cm4.h **** #define ITM_TCR_SYNCENA_Pos                 2U                                            /*!< ITM 
 873:Drivers/CMSIS/Include/core_cm4.h **** #define ITM_TCR_SYNCENA_Msk                (1UL << ITM_TCR_SYNCENA_Pos)                   /*!< ITM 
ARM GAS  C:\Users\krisa\AppData\Local\Temp\ccNljk5K.s 			page 128


 874:Drivers/CMSIS/Include/core_cm4.h **** 
 875:Drivers/CMSIS/Include/core_cm4.h **** #define ITM_TCR_TSENA_Pos                   1U                                            /*!< ITM 
 876:Drivers/CMSIS/Include/core_cm4.h **** #define ITM_TCR_TSENA_Msk                  (1UL << ITM_TCR_TSENA_Pos)                     /*!< ITM 
 877:Drivers/CMSIS/Include/core_cm4.h **** 
 878:Drivers/CMSIS/Include/core_cm4.h **** #define ITM_TCR_ITMENA_Pos                  0U                                            /*!< ITM 
 879:Drivers/CMSIS/Include/core_cm4.h **** #define ITM_TCR_ITMENA_Msk                 (1UL /*<< ITM_TCR_ITMENA_Pos*/)                /*!< ITM 
 880:Drivers/CMSIS/Include/core_cm4.h **** 
 881:Drivers/CMSIS/Include/core_cm4.h **** /* ITM Lock Status Register Definitions */
 882:Drivers/CMSIS/Include/core_cm4.h **** #define ITM_LSR_ByteAcc_Pos                 2U                                            /*!< ITM 
 883:Drivers/CMSIS/Include/core_cm4.h **** #define ITM_LSR_ByteAcc_Msk                (1UL << ITM_LSR_ByteAcc_Pos)                   /*!< ITM 
 884:Drivers/CMSIS/Include/core_cm4.h **** 
 885:Drivers/CMSIS/Include/core_cm4.h **** #define ITM_LSR_Access_Pos                  1U                                            /*!< ITM 
 886:Drivers/CMSIS/Include/core_cm4.h **** #define ITM_LSR_Access_Msk                 (1UL << ITM_LSR_Access_Pos)                    /*!< ITM 
 887:Drivers/CMSIS/Include/core_cm4.h **** 
 888:Drivers/CMSIS/Include/core_cm4.h **** #define ITM_LSR_Present_Pos                 0U                                            /*!< ITM 
 889:Drivers/CMSIS/Include/core_cm4.h **** #define ITM_LSR_Present_Msk                (1UL /*<< ITM_LSR_Present_Pos*/)               /*!< ITM 
 890:Drivers/CMSIS/Include/core_cm4.h **** 
 891:Drivers/CMSIS/Include/core_cm4.h **** /*@}*/ /* end of group CMSIS_ITM */
 892:Drivers/CMSIS/Include/core_cm4.h **** 
 893:Drivers/CMSIS/Include/core_cm4.h **** 
 894:Drivers/CMSIS/Include/core_cm4.h **** /**
 895:Drivers/CMSIS/Include/core_cm4.h ****   \ingroup  CMSIS_core_register
 896:Drivers/CMSIS/Include/core_cm4.h ****   \defgroup CMSIS_DWT     Data Watchpoint and Trace (DWT)
 897:Drivers/CMSIS/Include/core_cm4.h ****   \brief    Type definitions for the Data Watchpoint and Trace (DWT)
 898:Drivers/CMSIS/Include/core_cm4.h ****   @{
 899:Drivers/CMSIS/Include/core_cm4.h ****  */
 900:Drivers/CMSIS/Include/core_cm4.h **** 
 901:Drivers/CMSIS/Include/core_cm4.h **** /**
 902:Drivers/CMSIS/Include/core_cm4.h ****   \brief  Structure type to access the Data Watchpoint and Trace Register (DWT).
 903:Drivers/CMSIS/Include/core_cm4.h ****  */
 904:Drivers/CMSIS/Include/core_cm4.h **** typedef struct
 905:Drivers/CMSIS/Include/core_cm4.h **** {
 906:Drivers/CMSIS/Include/core_cm4.h ****   __IOM uint32_t CTRL;                   /*!< Offset: 0x000 (R/W)  Control Register */
 907:Drivers/CMSIS/Include/core_cm4.h ****   __IOM uint32_t CYCCNT;                 /*!< Offset: 0x004 (R/W)  Cycle Count Register */
 908:Drivers/CMSIS/Include/core_cm4.h ****   __IOM uint32_t CPICNT;                 /*!< Offset: 0x008 (R/W)  CPI Count Register */
 909:Drivers/CMSIS/Include/core_cm4.h ****   __IOM uint32_t EXCCNT;                 /*!< Offset: 0x00C (R/W)  Exception Overhead Count Registe
 910:Drivers/CMSIS/Include/core_cm4.h ****   __IOM uint32_t SLEEPCNT;               /*!< Offset: 0x010 (R/W)  Sleep Count Register */
 911:Drivers/CMSIS/Include/core_cm4.h ****   __IOM uint32_t LSUCNT;                 /*!< Offset: 0x014 (R/W)  LSU Count Register */
 912:Drivers/CMSIS/Include/core_cm4.h ****   __IOM uint32_t FOLDCNT;                /*!< Offset: 0x018 (R/W)  Folded-instruction Count Registe
 913:Drivers/CMSIS/Include/core_cm4.h ****   __IM  uint32_t PCSR;                   /*!< Offset: 0x01C (R/ )  Program Counter Sample Register 
 914:Drivers/CMSIS/Include/core_cm4.h ****   __IOM uint32_t COMP0;                  /*!< Offset: 0x020 (R/W)  Comparator Register 0 */
 915:Drivers/CMSIS/Include/core_cm4.h ****   __IOM uint32_t MASK0;                  /*!< Offset: 0x024 (R/W)  Mask Register 0 */
 916:Drivers/CMSIS/Include/core_cm4.h ****   __IOM uint32_t FUNCTION0;              /*!< Offset: 0x028 (R/W)  Function Register 0 */
 917:Drivers/CMSIS/Include/core_cm4.h ****         uint32_t RESERVED0[1U];
 918:Drivers/CMSIS/Include/core_cm4.h ****   __IOM uint32_t COMP1;                  /*!< Offset: 0x030 (R/W)  Comparator Register 1 */
 919:Drivers/CMSIS/Include/core_cm4.h ****   __IOM uint32_t MASK1;                  /*!< Offset: 0x034 (R/W)  Mask Register 1 */
 920:Drivers/CMSIS/Include/core_cm4.h ****   __IOM uint32_t FUNCTION1;              /*!< Offset: 0x038 (R/W)  Function Register 1 */
 921:Drivers/CMSIS/Include/core_cm4.h ****         uint32_t RESERVED1[1U];
 922:Drivers/CMSIS/Include/core_cm4.h ****   __IOM uint32_t COMP2;                  /*!< Offset: 0x040 (R/W)  Comparator Register 2 */
 923:Drivers/CMSIS/Include/core_cm4.h ****   __IOM uint32_t MASK2;                  /*!< Offset: 0x044 (R/W)  Mask Register 2 */
 924:Drivers/CMSIS/Include/core_cm4.h ****   __IOM uint32_t FUNCTION2;              /*!< Offset: 0x048 (R/W)  Function Register 2 */
 925:Drivers/CMSIS/Include/core_cm4.h ****         uint32_t RESERVED2[1U];
 926:Drivers/CMSIS/Include/core_cm4.h ****   __IOM uint32_t COMP3;                  /*!< Offset: 0x050 (R/W)  Comparator Register 3 */
 927:Drivers/CMSIS/Include/core_cm4.h ****   __IOM uint32_t MASK3;                  /*!< Offset: 0x054 (R/W)  Mask Register 3 */
 928:Drivers/CMSIS/Include/core_cm4.h ****   __IOM uint32_t FUNCTION3;              /*!< Offset: 0x058 (R/W)  Function Register 3 */
 929:Drivers/CMSIS/Include/core_cm4.h **** } DWT_Type;
 930:Drivers/CMSIS/Include/core_cm4.h **** 
ARM GAS  C:\Users\krisa\AppData\Local\Temp\ccNljk5K.s 			page 129


 931:Drivers/CMSIS/Include/core_cm4.h **** /* DWT Control Register Definitions */
 932:Drivers/CMSIS/Include/core_cm4.h **** #define DWT_CTRL_NUMCOMP_Pos               28U                                         /*!< DWT CTR
 933:Drivers/CMSIS/Include/core_cm4.h **** #define DWT_CTRL_NUMCOMP_Msk               (0xFUL << DWT_CTRL_NUMCOMP_Pos)             /*!< DWT CTR
 934:Drivers/CMSIS/Include/core_cm4.h **** 
 935:Drivers/CMSIS/Include/core_cm4.h **** #define DWT_CTRL_NOTRCPKT_Pos              27U                                         /*!< DWT CTR
 936:Drivers/CMSIS/Include/core_cm4.h **** #define DWT_CTRL_NOTRCPKT_Msk              (0x1UL << DWT_CTRL_NOTRCPKT_Pos)            /*!< DWT CTR
 937:Drivers/CMSIS/Include/core_cm4.h **** 
 938:Drivers/CMSIS/Include/core_cm4.h **** #define DWT_CTRL_NOEXTTRIG_Pos             26U                                         /*!< DWT CTR
 939:Drivers/CMSIS/Include/core_cm4.h **** #define DWT_CTRL_NOEXTTRIG_Msk             (0x1UL << DWT_CTRL_NOEXTTRIG_Pos)           /*!< DWT CTR
 940:Drivers/CMSIS/Include/core_cm4.h **** 
 941:Drivers/CMSIS/Include/core_cm4.h **** #define DWT_CTRL_NOCYCCNT_Pos              25U                                         /*!< DWT CTR
 942:Drivers/CMSIS/Include/core_cm4.h **** #define DWT_CTRL_NOCYCCNT_Msk              (0x1UL << DWT_CTRL_NOCYCCNT_Pos)            /*!< DWT CTR
 943:Drivers/CMSIS/Include/core_cm4.h **** 
 944:Drivers/CMSIS/Include/core_cm4.h **** #define DWT_CTRL_NOPRFCNT_Pos              24U                                         /*!< DWT CTR
 945:Drivers/CMSIS/Include/core_cm4.h **** #define DWT_CTRL_NOPRFCNT_Msk              (0x1UL << DWT_CTRL_NOPRFCNT_Pos)            /*!< DWT CTR
 946:Drivers/CMSIS/Include/core_cm4.h **** 
 947:Drivers/CMSIS/Include/core_cm4.h **** #define DWT_CTRL_CYCEVTENA_Pos             22U                                         /*!< DWT CTR
 948:Drivers/CMSIS/Include/core_cm4.h **** #define DWT_CTRL_CYCEVTENA_Msk             (0x1UL << DWT_CTRL_CYCEVTENA_Pos)           /*!< DWT CTR
 949:Drivers/CMSIS/Include/core_cm4.h **** 
 950:Drivers/CMSIS/Include/core_cm4.h **** #define DWT_CTRL_FOLDEVTENA_Pos            21U                                         /*!< DWT CTR
 951:Drivers/CMSIS/Include/core_cm4.h **** #define DWT_CTRL_FOLDEVTENA_Msk            (0x1UL << DWT_CTRL_FOLDEVTENA_Pos)          /*!< DWT CTR
 952:Drivers/CMSIS/Include/core_cm4.h **** 
 953:Drivers/CMSIS/Include/core_cm4.h **** #define DWT_CTRL_LSUEVTENA_Pos             20U                                         /*!< DWT CTR
 954:Drivers/CMSIS/Include/core_cm4.h **** #define DWT_CTRL_LSUEVTENA_Msk             (0x1UL << DWT_CTRL_LSUEVTENA_Pos)           /*!< DWT CTR
 955:Drivers/CMSIS/Include/core_cm4.h **** 
 956:Drivers/CMSIS/Include/core_cm4.h **** #define DWT_CTRL_SLEEPEVTENA_Pos           19U                                         /*!< DWT CTR
 957:Drivers/CMSIS/Include/core_cm4.h **** #define DWT_CTRL_SLEEPEVTENA_Msk           (0x1UL << DWT_CTRL_SLEEPEVTENA_Pos)         /*!< DWT CTR
 958:Drivers/CMSIS/Include/core_cm4.h **** 
 959:Drivers/CMSIS/Include/core_cm4.h **** #define DWT_CTRL_EXCEVTENA_Pos             18U                                         /*!< DWT CTR
 960:Drivers/CMSIS/Include/core_cm4.h **** #define DWT_CTRL_EXCEVTENA_Msk             (0x1UL << DWT_CTRL_EXCEVTENA_Pos)           /*!< DWT CTR
 961:Drivers/CMSIS/Include/core_cm4.h **** 
 962:Drivers/CMSIS/Include/core_cm4.h **** #define DWT_CTRL_CPIEVTENA_Pos             17U                                         /*!< DWT CTR
 963:Drivers/CMSIS/Include/core_cm4.h **** #define DWT_CTRL_CPIEVTENA_Msk             (0x1UL << DWT_CTRL_CPIEVTENA_Pos)           /*!< DWT CTR
 964:Drivers/CMSIS/Include/core_cm4.h **** 
 965:Drivers/CMSIS/Include/core_cm4.h **** #define DWT_CTRL_EXCTRCENA_Pos             16U                                         /*!< DWT CTR
 966:Drivers/CMSIS/Include/core_cm4.h **** #define DWT_CTRL_EXCTRCENA_Msk             (0x1UL << DWT_CTRL_EXCTRCENA_Pos)           /*!< DWT CTR
 967:Drivers/CMSIS/Include/core_cm4.h **** 
 968:Drivers/CMSIS/Include/core_cm4.h **** #define DWT_CTRL_PCSAMPLENA_Pos            12U                                         /*!< DWT CTR
 969:Drivers/CMSIS/Include/core_cm4.h **** #define DWT_CTRL_PCSAMPLENA_Msk            (0x1UL << DWT_CTRL_PCSAMPLENA_Pos)          /*!< DWT CTR
 970:Drivers/CMSIS/Include/core_cm4.h **** 
 971:Drivers/CMSIS/Include/core_cm4.h **** #define DWT_CTRL_SYNCTAP_Pos               10U                                         /*!< DWT CTR
 972:Drivers/CMSIS/Include/core_cm4.h **** #define DWT_CTRL_SYNCTAP_Msk               (0x3UL << DWT_CTRL_SYNCTAP_Pos)             /*!< DWT CTR
 973:Drivers/CMSIS/Include/core_cm4.h **** 
 974:Drivers/CMSIS/Include/core_cm4.h **** #define DWT_CTRL_CYCTAP_Pos                 9U                                         /*!< DWT CTR
 975:Drivers/CMSIS/Include/core_cm4.h **** #define DWT_CTRL_CYCTAP_Msk                (0x1UL << DWT_CTRL_CYCTAP_Pos)              /*!< DWT CTR
 976:Drivers/CMSIS/Include/core_cm4.h **** 
 977:Drivers/CMSIS/Include/core_cm4.h **** #define DWT_CTRL_POSTINIT_Pos               5U                                         /*!< DWT CTR
 978:Drivers/CMSIS/Include/core_cm4.h **** #define DWT_CTRL_POSTINIT_Msk              (0xFUL << DWT_CTRL_POSTINIT_Pos)            /*!< DWT CTR
 979:Drivers/CMSIS/Include/core_cm4.h **** 
 980:Drivers/CMSIS/Include/core_cm4.h **** #define DWT_CTRL_POSTPRESET_Pos             1U                                         /*!< DWT CTR
 981:Drivers/CMSIS/Include/core_cm4.h **** #define DWT_CTRL_POSTPRESET_Msk            (0xFUL << DWT_CTRL_POSTPRESET_Pos)          /*!< DWT CTR
 982:Drivers/CMSIS/Include/core_cm4.h **** 
 983:Drivers/CMSIS/Include/core_cm4.h **** #define DWT_CTRL_CYCCNTENA_Pos              0U                                         /*!< DWT CTR
 984:Drivers/CMSIS/Include/core_cm4.h **** #define DWT_CTRL_CYCCNTENA_Msk             (0x1UL /*<< DWT_CTRL_CYCCNTENA_Pos*/)       /*!< DWT CTR
 985:Drivers/CMSIS/Include/core_cm4.h **** 
 986:Drivers/CMSIS/Include/core_cm4.h **** /* DWT CPI Count Register Definitions */
 987:Drivers/CMSIS/Include/core_cm4.h **** #define DWT_CPICNT_CPICNT_Pos               0U                                         /*!< DWT CPI
ARM GAS  C:\Users\krisa\AppData\Local\Temp\ccNljk5K.s 			page 130


 988:Drivers/CMSIS/Include/core_cm4.h **** #define DWT_CPICNT_CPICNT_Msk              (0xFFUL /*<< DWT_CPICNT_CPICNT_Pos*/)       /*!< DWT CPI
 989:Drivers/CMSIS/Include/core_cm4.h **** 
 990:Drivers/CMSIS/Include/core_cm4.h **** /* DWT Exception Overhead Count Register Definitions */
 991:Drivers/CMSIS/Include/core_cm4.h **** #define DWT_EXCCNT_EXCCNT_Pos               0U                                         /*!< DWT EXC
 992:Drivers/CMSIS/Include/core_cm4.h **** #define DWT_EXCCNT_EXCCNT_Msk              (0xFFUL /*<< DWT_EXCCNT_EXCCNT_Pos*/)       /*!< DWT EXC
 993:Drivers/CMSIS/Include/core_cm4.h **** 
 994:Drivers/CMSIS/Include/core_cm4.h **** /* DWT Sleep Count Register Definitions */
 995:Drivers/CMSIS/Include/core_cm4.h **** #define DWT_SLEEPCNT_SLEEPCNT_Pos           0U                                         /*!< DWT SLE
 996:Drivers/CMSIS/Include/core_cm4.h **** #define DWT_SLEEPCNT_SLEEPCNT_Msk          (0xFFUL /*<< DWT_SLEEPCNT_SLEEPCNT_Pos*/)   /*!< DWT SLE
 997:Drivers/CMSIS/Include/core_cm4.h **** 
 998:Drivers/CMSIS/Include/core_cm4.h **** /* DWT LSU Count Register Definitions */
 999:Drivers/CMSIS/Include/core_cm4.h **** #define DWT_LSUCNT_LSUCNT_Pos               0U                                         /*!< DWT LSU
1000:Drivers/CMSIS/Include/core_cm4.h **** #define DWT_LSUCNT_LSUCNT_Msk              (0xFFUL /*<< DWT_LSUCNT_LSUCNT_Pos*/)       /*!< DWT LSU
1001:Drivers/CMSIS/Include/core_cm4.h **** 
1002:Drivers/CMSIS/Include/core_cm4.h **** /* DWT Folded-instruction Count Register Definitions */
1003:Drivers/CMSIS/Include/core_cm4.h **** #define DWT_FOLDCNT_FOLDCNT_Pos             0U                                         /*!< DWT FOL
1004:Drivers/CMSIS/Include/core_cm4.h **** #define DWT_FOLDCNT_FOLDCNT_Msk            (0xFFUL /*<< DWT_FOLDCNT_FOLDCNT_Pos*/)     /*!< DWT FOL
1005:Drivers/CMSIS/Include/core_cm4.h **** 
1006:Drivers/CMSIS/Include/core_cm4.h **** /* DWT Comparator Mask Register Definitions */
1007:Drivers/CMSIS/Include/core_cm4.h **** #define DWT_MASK_MASK_Pos                   0U                                         /*!< DWT MAS
1008:Drivers/CMSIS/Include/core_cm4.h **** #define DWT_MASK_MASK_Msk                  (0x1FUL /*<< DWT_MASK_MASK_Pos*/)           /*!< DWT MAS
1009:Drivers/CMSIS/Include/core_cm4.h **** 
1010:Drivers/CMSIS/Include/core_cm4.h **** /* DWT Comparator Function Register Definitions */
1011:Drivers/CMSIS/Include/core_cm4.h **** #define DWT_FUNCTION_MATCHED_Pos           24U                                         /*!< DWT FUN
1012:Drivers/CMSIS/Include/core_cm4.h **** #define DWT_FUNCTION_MATCHED_Msk           (0x1UL << DWT_FUNCTION_MATCHED_Pos)         /*!< DWT FUN
1013:Drivers/CMSIS/Include/core_cm4.h **** 
1014:Drivers/CMSIS/Include/core_cm4.h **** #define DWT_FUNCTION_DATAVADDR1_Pos        16U                                         /*!< DWT FUN
1015:Drivers/CMSIS/Include/core_cm4.h **** #define DWT_FUNCTION_DATAVADDR1_Msk        (0xFUL << DWT_FUNCTION_DATAVADDR1_Pos)      /*!< DWT FUN
1016:Drivers/CMSIS/Include/core_cm4.h **** 
1017:Drivers/CMSIS/Include/core_cm4.h **** #define DWT_FUNCTION_DATAVADDR0_Pos        12U                                         /*!< DWT FUN
1018:Drivers/CMSIS/Include/core_cm4.h **** #define DWT_FUNCTION_DATAVADDR0_Msk        (0xFUL << DWT_FUNCTION_DATAVADDR0_Pos)      /*!< DWT FUN
1019:Drivers/CMSIS/Include/core_cm4.h **** 
1020:Drivers/CMSIS/Include/core_cm4.h **** #define DWT_FUNCTION_DATAVSIZE_Pos         10U                                         /*!< DWT FUN
1021:Drivers/CMSIS/Include/core_cm4.h **** #define DWT_FUNCTION_DATAVSIZE_Msk         (0x3UL << DWT_FUNCTION_DATAVSIZE_Pos)       /*!< DWT FUN
1022:Drivers/CMSIS/Include/core_cm4.h **** 
1023:Drivers/CMSIS/Include/core_cm4.h **** #define DWT_FUNCTION_LNK1ENA_Pos            9U                                         /*!< DWT FUN
1024:Drivers/CMSIS/Include/core_cm4.h **** #define DWT_FUNCTION_LNK1ENA_Msk           (0x1UL << DWT_FUNCTION_LNK1ENA_Pos)         /*!< DWT FUN
1025:Drivers/CMSIS/Include/core_cm4.h **** 
1026:Drivers/CMSIS/Include/core_cm4.h **** #define DWT_FUNCTION_DATAVMATCH_Pos         8U                                         /*!< DWT FUN
1027:Drivers/CMSIS/Include/core_cm4.h **** #define DWT_FUNCTION_DATAVMATCH_Msk        (0x1UL << DWT_FUNCTION_DATAVMATCH_Pos)      /*!< DWT FUN
1028:Drivers/CMSIS/Include/core_cm4.h **** 
1029:Drivers/CMSIS/Include/core_cm4.h **** #define DWT_FUNCTION_CYCMATCH_Pos           7U                                         /*!< DWT FUN
1030:Drivers/CMSIS/Include/core_cm4.h **** #define DWT_FUNCTION_CYCMATCH_Msk          (0x1UL << DWT_FUNCTION_CYCMATCH_Pos)        /*!< DWT FUN
1031:Drivers/CMSIS/Include/core_cm4.h **** 
1032:Drivers/CMSIS/Include/core_cm4.h **** #define DWT_FUNCTION_EMITRANGE_Pos          5U                                         /*!< DWT FUN
1033:Drivers/CMSIS/Include/core_cm4.h **** #define DWT_FUNCTION_EMITRANGE_Msk         (0x1UL << DWT_FUNCTION_EMITRANGE_Pos)       /*!< DWT FUN
1034:Drivers/CMSIS/Include/core_cm4.h **** 
1035:Drivers/CMSIS/Include/core_cm4.h **** #define DWT_FUNCTION_FUNCTION_Pos           0U                                         /*!< DWT FUN
1036:Drivers/CMSIS/Include/core_cm4.h **** #define DWT_FUNCTION_FUNCTION_Msk          (0xFUL /*<< DWT_FUNCTION_FUNCTION_Pos*/)    /*!< DWT FUN
1037:Drivers/CMSIS/Include/core_cm4.h **** 
1038:Drivers/CMSIS/Include/core_cm4.h **** /*@}*/ /* end of group CMSIS_DWT */
1039:Drivers/CMSIS/Include/core_cm4.h **** 
1040:Drivers/CMSIS/Include/core_cm4.h **** 
1041:Drivers/CMSIS/Include/core_cm4.h **** /**
1042:Drivers/CMSIS/Include/core_cm4.h ****   \ingroup  CMSIS_core_register
1043:Drivers/CMSIS/Include/core_cm4.h ****   \defgroup CMSIS_TPI     Trace Port Interface (TPI)
1044:Drivers/CMSIS/Include/core_cm4.h ****   \brief    Type definitions for the Trace Port Interface (TPI)
ARM GAS  C:\Users\krisa\AppData\Local\Temp\ccNljk5K.s 			page 131


1045:Drivers/CMSIS/Include/core_cm4.h ****   @{
1046:Drivers/CMSIS/Include/core_cm4.h ****  */
1047:Drivers/CMSIS/Include/core_cm4.h **** 
1048:Drivers/CMSIS/Include/core_cm4.h **** /**
1049:Drivers/CMSIS/Include/core_cm4.h ****   \brief  Structure type to access the Trace Port Interface Register (TPI).
1050:Drivers/CMSIS/Include/core_cm4.h ****  */
1051:Drivers/CMSIS/Include/core_cm4.h **** typedef struct
1052:Drivers/CMSIS/Include/core_cm4.h **** {
1053:Drivers/CMSIS/Include/core_cm4.h ****   __IM  uint32_t SSPSR;                  /*!< Offset: 0x000 (R/ )  Supported Parallel Port Size Reg
1054:Drivers/CMSIS/Include/core_cm4.h ****   __IOM uint32_t CSPSR;                  /*!< Offset: 0x004 (R/W)  Current Parallel Port Size Regis
1055:Drivers/CMSIS/Include/core_cm4.h ****         uint32_t RESERVED0[2U];
1056:Drivers/CMSIS/Include/core_cm4.h ****   __IOM uint32_t ACPR;                   /*!< Offset: 0x010 (R/W)  Asynchronous Clock Prescaler Reg
1057:Drivers/CMSIS/Include/core_cm4.h ****         uint32_t RESERVED1[55U];
1058:Drivers/CMSIS/Include/core_cm4.h ****   __IOM uint32_t SPPR;                   /*!< Offset: 0x0F0 (R/W)  Selected Pin Protocol Register *
1059:Drivers/CMSIS/Include/core_cm4.h ****         uint32_t RESERVED2[131U];
1060:Drivers/CMSIS/Include/core_cm4.h ****   __IM  uint32_t FFSR;                   /*!< Offset: 0x300 (R/ )  Formatter and Flush Status Regis
1061:Drivers/CMSIS/Include/core_cm4.h ****   __IOM uint32_t FFCR;                   /*!< Offset: 0x304 (R/W)  Formatter and Flush Control Regi
1062:Drivers/CMSIS/Include/core_cm4.h ****   __IM  uint32_t FSCR;                   /*!< Offset: 0x308 (R/ )  Formatter Synchronization Counte
1063:Drivers/CMSIS/Include/core_cm4.h ****         uint32_t RESERVED3[759U];
1064:Drivers/CMSIS/Include/core_cm4.h ****   __IM  uint32_t TRIGGER;                /*!< Offset: 0xEE8 (R/ )  TRIGGER Register */
1065:Drivers/CMSIS/Include/core_cm4.h ****   __IM  uint32_t FIFO0;                  /*!< Offset: 0xEEC (R/ )  Integration ETM Data */
1066:Drivers/CMSIS/Include/core_cm4.h ****   __IM  uint32_t ITATBCTR2;              /*!< Offset: 0xEF0 (R/ )  ITATBCTR2 */
1067:Drivers/CMSIS/Include/core_cm4.h ****         uint32_t RESERVED4[1U];
1068:Drivers/CMSIS/Include/core_cm4.h ****   __IM  uint32_t ITATBCTR0;              /*!< Offset: 0xEF8 (R/ )  ITATBCTR0 */
1069:Drivers/CMSIS/Include/core_cm4.h ****   __IM  uint32_t FIFO1;                  /*!< Offset: 0xEFC (R/ )  Integration ITM Data */
1070:Drivers/CMSIS/Include/core_cm4.h ****   __IOM uint32_t ITCTRL;                 /*!< Offset: 0xF00 (R/W)  Integration Mode Control */
1071:Drivers/CMSIS/Include/core_cm4.h ****         uint32_t RESERVED5[39U];
1072:Drivers/CMSIS/Include/core_cm4.h ****   __IOM uint32_t CLAIMSET;               /*!< Offset: 0xFA0 (R/W)  Claim tag set */
1073:Drivers/CMSIS/Include/core_cm4.h ****   __IOM uint32_t CLAIMCLR;               /*!< Offset: 0xFA4 (R/W)  Claim tag clear */
1074:Drivers/CMSIS/Include/core_cm4.h ****         uint32_t RESERVED7[8U];
1075:Drivers/CMSIS/Include/core_cm4.h ****   __IM  uint32_t DEVID;                  /*!< Offset: 0xFC8 (R/ )  TPIU_DEVID */
1076:Drivers/CMSIS/Include/core_cm4.h ****   __IM  uint32_t DEVTYPE;                /*!< Offset: 0xFCC (R/ )  TPIU_DEVTYPE */
1077:Drivers/CMSIS/Include/core_cm4.h **** } TPI_Type;
1078:Drivers/CMSIS/Include/core_cm4.h **** 
1079:Drivers/CMSIS/Include/core_cm4.h **** /* TPI Asynchronous Clock Prescaler Register Definitions */
1080:Drivers/CMSIS/Include/core_cm4.h **** #define TPI_ACPR_PRESCALER_Pos              0U                                         /*!< TPI ACP
1081:Drivers/CMSIS/Include/core_cm4.h **** #define TPI_ACPR_PRESCALER_Msk             (0x1FFFUL /*<< TPI_ACPR_PRESCALER_Pos*/)    /*!< TPI ACP
1082:Drivers/CMSIS/Include/core_cm4.h **** 
1083:Drivers/CMSIS/Include/core_cm4.h **** /* TPI Selected Pin Protocol Register Definitions */
1084:Drivers/CMSIS/Include/core_cm4.h **** #define TPI_SPPR_TXMODE_Pos                 0U                                         /*!< TPI SPP
1085:Drivers/CMSIS/Include/core_cm4.h **** #define TPI_SPPR_TXMODE_Msk                (0x3UL /*<< TPI_SPPR_TXMODE_Pos*/)          /*!< TPI SPP
1086:Drivers/CMSIS/Include/core_cm4.h **** 
1087:Drivers/CMSIS/Include/core_cm4.h **** /* TPI Formatter and Flush Status Register Definitions */
1088:Drivers/CMSIS/Include/core_cm4.h **** #define TPI_FFSR_FtNonStop_Pos              3U                                         /*!< TPI FFS
1089:Drivers/CMSIS/Include/core_cm4.h **** #define TPI_FFSR_FtNonStop_Msk             (0x1UL << TPI_FFSR_FtNonStop_Pos)           /*!< TPI FFS
1090:Drivers/CMSIS/Include/core_cm4.h **** 
1091:Drivers/CMSIS/Include/core_cm4.h **** #define TPI_FFSR_TCPresent_Pos              2U                                         /*!< TPI FFS
1092:Drivers/CMSIS/Include/core_cm4.h **** #define TPI_FFSR_TCPresent_Msk             (0x1UL << TPI_FFSR_TCPresent_Pos)           /*!< TPI FFS
1093:Drivers/CMSIS/Include/core_cm4.h **** 
1094:Drivers/CMSIS/Include/core_cm4.h **** #define TPI_FFSR_FtStopped_Pos              1U                                         /*!< TPI FFS
1095:Drivers/CMSIS/Include/core_cm4.h **** #define TPI_FFSR_FtStopped_Msk             (0x1UL << TPI_FFSR_FtStopped_Pos)           /*!< TPI FFS
1096:Drivers/CMSIS/Include/core_cm4.h **** 
1097:Drivers/CMSIS/Include/core_cm4.h **** #define TPI_FFSR_FlInProg_Pos               0U                                         /*!< TPI FFS
1098:Drivers/CMSIS/Include/core_cm4.h **** #define TPI_FFSR_FlInProg_Msk              (0x1UL /*<< TPI_FFSR_FlInProg_Pos*/)        /*!< TPI FFS
1099:Drivers/CMSIS/Include/core_cm4.h **** 
1100:Drivers/CMSIS/Include/core_cm4.h **** /* TPI Formatter and Flush Control Register Definitions */
1101:Drivers/CMSIS/Include/core_cm4.h **** #define TPI_FFCR_TrigIn_Pos                 8U                                         /*!< TPI FFC
ARM GAS  C:\Users\krisa\AppData\Local\Temp\ccNljk5K.s 			page 132


1102:Drivers/CMSIS/Include/core_cm4.h **** #define TPI_FFCR_TrigIn_Msk                (0x1UL << TPI_FFCR_TrigIn_Pos)              /*!< TPI FFC
1103:Drivers/CMSIS/Include/core_cm4.h **** 
1104:Drivers/CMSIS/Include/core_cm4.h **** #define TPI_FFCR_EnFCont_Pos                1U                                         /*!< TPI FFC
1105:Drivers/CMSIS/Include/core_cm4.h **** #define TPI_FFCR_EnFCont_Msk               (0x1UL << TPI_FFCR_EnFCont_Pos)             /*!< TPI FFC
1106:Drivers/CMSIS/Include/core_cm4.h **** 
1107:Drivers/CMSIS/Include/core_cm4.h **** /* TPI TRIGGER Register Definitions */
1108:Drivers/CMSIS/Include/core_cm4.h **** #define TPI_TRIGGER_TRIGGER_Pos             0U                                         /*!< TPI TRI
1109:Drivers/CMSIS/Include/core_cm4.h **** #define TPI_TRIGGER_TRIGGER_Msk            (0x1UL /*<< TPI_TRIGGER_TRIGGER_Pos*/)      /*!< TPI TRI
1110:Drivers/CMSIS/Include/core_cm4.h **** 
1111:Drivers/CMSIS/Include/core_cm4.h **** /* TPI Integration ETM Data Register Definitions (FIFO0) */
1112:Drivers/CMSIS/Include/core_cm4.h **** #define TPI_FIFO0_ITM_ATVALID_Pos          29U                                         /*!< TPI FIF
1113:Drivers/CMSIS/Include/core_cm4.h **** #define TPI_FIFO0_ITM_ATVALID_Msk          (0x1UL << TPI_FIFO0_ITM_ATVALID_Pos)        /*!< TPI FIF
1114:Drivers/CMSIS/Include/core_cm4.h **** 
1115:Drivers/CMSIS/Include/core_cm4.h **** #define TPI_FIFO0_ITM_bytecount_Pos        27U                                         /*!< TPI FIF
1116:Drivers/CMSIS/Include/core_cm4.h **** #define TPI_FIFO0_ITM_bytecount_Msk        (0x3UL << TPI_FIFO0_ITM_bytecount_Pos)      /*!< TPI FIF
1117:Drivers/CMSIS/Include/core_cm4.h **** 
1118:Drivers/CMSIS/Include/core_cm4.h **** #define TPI_FIFO0_ETM_ATVALID_Pos          26U                                         /*!< TPI FIF
1119:Drivers/CMSIS/Include/core_cm4.h **** #define TPI_FIFO0_ETM_ATVALID_Msk          (0x1UL << TPI_FIFO0_ETM_ATVALID_Pos)        /*!< TPI FIF
1120:Drivers/CMSIS/Include/core_cm4.h **** 
1121:Drivers/CMSIS/Include/core_cm4.h **** #define TPI_FIFO0_ETM_bytecount_Pos        24U                                         /*!< TPI FIF
1122:Drivers/CMSIS/Include/core_cm4.h **** #define TPI_FIFO0_ETM_bytecount_Msk        (0x3UL << TPI_FIFO0_ETM_bytecount_Pos)      /*!< TPI FIF
1123:Drivers/CMSIS/Include/core_cm4.h **** 
1124:Drivers/CMSIS/Include/core_cm4.h **** #define TPI_FIFO0_ETM2_Pos                 16U                                         /*!< TPI FIF
1125:Drivers/CMSIS/Include/core_cm4.h **** #define TPI_FIFO0_ETM2_Msk                 (0xFFUL << TPI_FIFO0_ETM2_Pos)              /*!< TPI FIF
1126:Drivers/CMSIS/Include/core_cm4.h **** 
1127:Drivers/CMSIS/Include/core_cm4.h **** #define TPI_FIFO0_ETM1_Pos                  8U                                         /*!< TPI FIF
1128:Drivers/CMSIS/Include/core_cm4.h **** #define TPI_FIFO0_ETM1_Msk                 (0xFFUL << TPI_FIFO0_ETM1_Pos)              /*!< TPI FIF
1129:Drivers/CMSIS/Include/core_cm4.h **** 
1130:Drivers/CMSIS/Include/core_cm4.h **** #define TPI_FIFO0_ETM0_Pos                  0U                                         /*!< TPI FIF
1131:Drivers/CMSIS/Include/core_cm4.h **** #define TPI_FIFO0_ETM0_Msk                 (0xFFUL /*<< TPI_FIFO0_ETM0_Pos*/)          /*!< TPI FIF
1132:Drivers/CMSIS/Include/core_cm4.h **** 
1133:Drivers/CMSIS/Include/core_cm4.h **** /* TPI ITATBCTR2 Register Definitions */
1134:Drivers/CMSIS/Include/core_cm4.h **** #define TPI_ITATBCTR2_ATREADY2_Pos          0U                                         /*!< TPI ITA
1135:Drivers/CMSIS/Include/core_cm4.h **** #define TPI_ITATBCTR2_ATREADY2_Msk         (0x1UL /*<< TPI_ITATBCTR2_ATREADY2_Pos*/)   /*!< TPI ITA
1136:Drivers/CMSIS/Include/core_cm4.h **** 
1137:Drivers/CMSIS/Include/core_cm4.h **** #define TPI_ITATBCTR2_ATREADY1_Pos          0U                                         /*!< TPI ITA
1138:Drivers/CMSIS/Include/core_cm4.h **** #define TPI_ITATBCTR2_ATREADY1_Msk         (0x1UL /*<< TPI_ITATBCTR2_ATREADY1_Pos*/)   /*!< TPI ITA
1139:Drivers/CMSIS/Include/core_cm4.h **** 
1140:Drivers/CMSIS/Include/core_cm4.h **** /* TPI Integration ITM Data Register Definitions (FIFO1) */
1141:Drivers/CMSIS/Include/core_cm4.h **** #define TPI_FIFO1_ITM_ATVALID_Pos          29U                                         /*!< TPI FIF
1142:Drivers/CMSIS/Include/core_cm4.h **** #define TPI_FIFO1_ITM_ATVALID_Msk          (0x1UL << TPI_FIFO1_ITM_ATVALID_Pos)        /*!< TPI FIF
1143:Drivers/CMSIS/Include/core_cm4.h **** 
1144:Drivers/CMSIS/Include/core_cm4.h **** #define TPI_FIFO1_ITM_bytecount_Pos        27U                                         /*!< TPI FIF
1145:Drivers/CMSIS/Include/core_cm4.h **** #define TPI_FIFO1_ITM_bytecount_Msk        (0x3UL << TPI_FIFO1_ITM_bytecount_Pos)      /*!< TPI FIF
1146:Drivers/CMSIS/Include/core_cm4.h **** 
1147:Drivers/CMSIS/Include/core_cm4.h **** #define TPI_FIFO1_ETM_ATVALID_Pos          26U                                         /*!< TPI FIF
1148:Drivers/CMSIS/Include/core_cm4.h **** #define TPI_FIFO1_ETM_ATVALID_Msk          (0x1UL << TPI_FIFO1_ETM_ATVALID_Pos)        /*!< TPI FIF
1149:Drivers/CMSIS/Include/core_cm4.h **** 
1150:Drivers/CMSIS/Include/core_cm4.h **** #define TPI_FIFO1_ETM_bytecount_Pos        24U                                         /*!< TPI FIF
1151:Drivers/CMSIS/Include/core_cm4.h **** #define TPI_FIFO1_ETM_bytecount_Msk        (0x3UL << TPI_FIFO1_ETM_bytecount_Pos)      /*!< TPI FIF
1152:Drivers/CMSIS/Include/core_cm4.h **** 
1153:Drivers/CMSIS/Include/core_cm4.h **** #define TPI_FIFO1_ITM2_Pos                 16U                                         /*!< TPI FIF
1154:Drivers/CMSIS/Include/core_cm4.h **** #define TPI_FIFO1_ITM2_Msk                 (0xFFUL << TPI_FIFO1_ITM2_Pos)              /*!< TPI FIF
1155:Drivers/CMSIS/Include/core_cm4.h **** 
1156:Drivers/CMSIS/Include/core_cm4.h **** #define TPI_FIFO1_ITM1_Pos                  8U                                         /*!< TPI FIF
1157:Drivers/CMSIS/Include/core_cm4.h **** #define TPI_FIFO1_ITM1_Msk                 (0xFFUL << TPI_FIFO1_ITM1_Pos)              /*!< TPI FIF
1158:Drivers/CMSIS/Include/core_cm4.h **** 
ARM GAS  C:\Users\krisa\AppData\Local\Temp\ccNljk5K.s 			page 133


1159:Drivers/CMSIS/Include/core_cm4.h **** #define TPI_FIFO1_ITM0_Pos                  0U                                         /*!< TPI FIF
1160:Drivers/CMSIS/Include/core_cm4.h **** #define TPI_FIFO1_ITM0_Msk                 (0xFFUL /*<< TPI_FIFO1_ITM0_Pos*/)          /*!< TPI FIF
1161:Drivers/CMSIS/Include/core_cm4.h **** 
1162:Drivers/CMSIS/Include/core_cm4.h **** /* TPI ITATBCTR0 Register Definitions */
1163:Drivers/CMSIS/Include/core_cm4.h **** #define TPI_ITATBCTR0_ATREADY2_Pos          0U                                         /*!< TPI ITA
1164:Drivers/CMSIS/Include/core_cm4.h **** #define TPI_ITATBCTR0_ATREADY2_Msk         (0x1UL /*<< TPI_ITATBCTR0_ATREADY2_Pos*/)   /*!< TPI ITA
1165:Drivers/CMSIS/Include/core_cm4.h **** 
1166:Drivers/CMSIS/Include/core_cm4.h **** #define TPI_ITATBCTR0_ATREADY1_Pos          0U                                         /*!< TPI ITA
1167:Drivers/CMSIS/Include/core_cm4.h **** #define TPI_ITATBCTR0_ATREADY1_Msk         (0x1UL /*<< TPI_ITATBCTR0_ATREADY1_Pos*/)   /*!< TPI ITA
1168:Drivers/CMSIS/Include/core_cm4.h **** 
1169:Drivers/CMSIS/Include/core_cm4.h **** /* TPI Integration Mode Control Register Definitions */
1170:Drivers/CMSIS/Include/core_cm4.h **** #define TPI_ITCTRL_Mode_Pos                 0U                                         /*!< TPI ITC
1171:Drivers/CMSIS/Include/core_cm4.h **** #define TPI_ITCTRL_Mode_Msk                (0x3UL /*<< TPI_ITCTRL_Mode_Pos*/)          /*!< TPI ITC
1172:Drivers/CMSIS/Include/core_cm4.h **** 
1173:Drivers/CMSIS/Include/core_cm4.h **** /* TPI DEVID Register Definitions */
1174:Drivers/CMSIS/Include/core_cm4.h **** #define TPI_DEVID_NRZVALID_Pos             11U                                         /*!< TPI DEV
1175:Drivers/CMSIS/Include/core_cm4.h **** #define TPI_DEVID_NRZVALID_Msk             (0x1UL << TPI_DEVID_NRZVALID_Pos)           /*!< TPI DEV
1176:Drivers/CMSIS/Include/core_cm4.h **** 
1177:Drivers/CMSIS/Include/core_cm4.h **** #define TPI_DEVID_MANCVALID_Pos            10U                                         /*!< TPI DEV
1178:Drivers/CMSIS/Include/core_cm4.h **** #define TPI_DEVID_MANCVALID_Msk            (0x1UL << TPI_DEVID_MANCVALID_Pos)          /*!< TPI DEV
1179:Drivers/CMSIS/Include/core_cm4.h **** 
1180:Drivers/CMSIS/Include/core_cm4.h **** #define TPI_DEVID_PTINVALID_Pos             9U                                         /*!< TPI DEV
1181:Drivers/CMSIS/Include/core_cm4.h **** #define TPI_DEVID_PTINVALID_Msk            (0x1UL << TPI_DEVID_PTINVALID_Pos)          /*!< TPI DEV
1182:Drivers/CMSIS/Include/core_cm4.h **** 
1183:Drivers/CMSIS/Include/core_cm4.h **** #define TPI_DEVID_MinBufSz_Pos              6U                                         /*!< TPI DEV
1184:Drivers/CMSIS/Include/core_cm4.h **** #define TPI_DEVID_MinBufSz_Msk             (0x7UL << TPI_DEVID_MinBufSz_Pos)           /*!< TPI DEV
1185:Drivers/CMSIS/Include/core_cm4.h **** 
1186:Drivers/CMSIS/Include/core_cm4.h **** #define TPI_DEVID_AsynClkIn_Pos             5U                                         /*!< TPI DEV
1187:Drivers/CMSIS/Include/core_cm4.h **** #define TPI_DEVID_AsynClkIn_Msk            (0x1UL << TPI_DEVID_AsynClkIn_Pos)          /*!< TPI DEV
1188:Drivers/CMSIS/Include/core_cm4.h **** 
1189:Drivers/CMSIS/Include/core_cm4.h **** #define TPI_DEVID_NrTraceInput_Pos          0U                                         /*!< TPI DEV
1190:Drivers/CMSIS/Include/core_cm4.h **** #define TPI_DEVID_NrTraceInput_Msk         (0x1FUL /*<< TPI_DEVID_NrTraceInput_Pos*/)  /*!< TPI DEV
1191:Drivers/CMSIS/Include/core_cm4.h **** 
1192:Drivers/CMSIS/Include/core_cm4.h **** /* TPI DEVTYPE Register Definitions */
1193:Drivers/CMSIS/Include/core_cm4.h **** #define TPI_DEVTYPE_SubType_Pos             4U                                         /*!< TPI DEV
1194:Drivers/CMSIS/Include/core_cm4.h **** #define TPI_DEVTYPE_SubType_Msk            (0xFUL /*<< TPI_DEVTYPE_SubType_Pos*/)      /*!< TPI DEV
1195:Drivers/CMSIS/Include/core_cm4.h **** 
1196:Drivers/CMSIS/Include/core_cm4.h **** #define TPI_DEVTYPE_MajorType_Pos           0U                                         /*!< TPI DEV
1197:Drivers/CMSIS/Include/core_cm4.h **** #define TPI_DEVTYPE_MajorType_Msk          (0xFUL << TPI_DEVTYPE_MajorType_Pos)        /*!< TPI DEV
1198:Drivers/CMSIS/Include/core_cm4.h **** 
1199:Drivers/CMSIS/Include/core_cm4.h **** /*@}*/ /* end of group CMSIS_TPI */
1200:Drivers/CMSIS/Include/core_cm4.h **** 
1201:Drivers/CMSIS/Include/core_cm4.h **** 
1202:Drivers/CMSIS/Include/core_cm4.h **** #if defined (__MPU_PRESENT) && (__MPU_PRESENT == 1U)
1203:Drivers/CMSIS/Include/core_cm4.h **** /**
1204:Drivers/CMSIS/Include/core_cm4.h ****   \ingroup  CMSIS_core_register
1205:Drivers/CMSIS/Include/core_cm4.h ****   \defgroup CMSIS_MPU     Memory Protection Unit (MPU)
1206:Drivers/CMSIS/Include/core_cm4.h ****   \brief    Type definitions for the Memory Protection Unit (MPU)
1207:Drivers/CMSIS/Include/core_cm4.h ****   @{
1208:Drivers/CMSIS/Include/core_cm4.h ****  */
1209:Drivers/CMSIS/Include/core_cm4.h **** 
1210:Drivers/CMSIS/Include/core_cm4.h **** /**
1211:Drivers/CMSIS/Include/core_cm4.h ****   \brief  Structure type to access the Memory Protection Unit (MPU).
1212:Drivers/CMSIS/Include/core_cm4.h ****  */
1213:Drivers/CMSIS/Include/core_cm4.h **** typedef struct
1214:Drivers/CMSIS/Include/core_cm4.h **** {
1215:Drivers/CMSIS/Include/core_cm4.h ****   __IM  uint32_t TYPE;                   /*!< Offset: 0x000 (R/ )  MPU Type Register */
ARM GAS  C:\Users\krisa\AppData\Local\Temp\ccNljk5K.s 			page 134


1216:Drivers/CMSIS/Include/core_cm4.h ****   __IOM uint32_t CTRL;                   /*!< Offset: 0x004 (R/W)  MPU Control Register */
1217:Drivers/CMSIS/Include/core_cm4.h ****   __IOM uint32_t RNR;                    /*!< Offset: 0x008 (R/W)  MPU Region RNRber Register */
1218:Drivers/CMSIS/Include/core_cm4.h ****   __IOM uint32_t RBAR;                   /*!< Offset: 0x00C (R/W)  MPU Region Base Address Register
1219:Drivers/CMSIS/Include/core_cm4.h ****   __IOM uint32_t RASR;                   /*!< Offset: 0x010 (R/W)  MPU Region Attribute and Size Re
1220:Drivers/CMSIS/Include/core_cm4.h ****   __IOM uint32_t RBAR_A1;                /*!< Offset: 0x014 (R/W)  MPU Alias 1 Region Base Address 
1221:Drivers/CMSIS/Include/core_cm4.h ****   __IOM uint32_t RASR_A1;                /*!< Offset: 0x018 (R/W)  MPU Alias 1 Region Attribute and
1222:Drivers/CMSIS/Include/core_cm4.h ****   __IOM uint32_t RBAR_A2;                /*!< Offset: 0x01C (R/W)  MPU Alias 2 Region Base Address 
1223:Drivers/CMSIS/Include/core_cm4.h ****   __IOM uint32_t RASR_A2;                /*!< Offset: 0x020 (R/W)  MPU Alias 2 Region Attribute and
1224:Drivers/CMSIS/Include/core_cm4.h ****   __IOM uint32_t RBAR_A3;                /*!< Offset: 0x024 (R/W)  MPU Alias 3 Region Base Address 
1225:Drivers/CMSIS/Include/core_cm4.h ****   __IOM uint32_t RASR_A3;                /*!< Offset: 0x028 (R/W)  MPU Alias 3 Region Attribute and
1226:Drivers/CMSIS/Include/core_cm4.h **** } MPU_Type;
1227:Drivers/CMSIS/Include/core_cm4.h **** 
1228:Drivers/CMSIS/Include/core_cm4.h **** #define MPU_TYPE_RALIASES                  4U
1229:Drivers/CMSIS/Include/core_cm4.h **** 
1230:Drivers/CMSIS/Include/core_cm4.h **** /* MPU Type Register Definitions */
1231:Drivers/CMSIS/Include/core_cm4.h **** #define MPU_TYPE_IREGION_Pos               16U                                            /*!< MPU 
1232:Drivers/CMSIS/Include/core_cm4.h **** #define MPU_TYPE_IREGION_Msk               (0xFFUL << MPU_TYPE_IREGION_Pos)               /*!< MPU 
1233:Drivers/CMSIS/Include/core_cm4.h **** 
1234:Drivers/CMSIS/Include/core_cm4.h **** #define MPU_TYPE_DREGION_Pos                8U                                            /*!< MPU 
1235:Drivers/CMSIS/Include/core_cm4.h **** #define MPU_TYPE_DREGION_Msk               (0xFFUL << MPU_TYPE_DREGION_Pos)               /*!< MPU 
1236:Drivers/CMSIS/Include/core_cm4.h **** 
1237:Drivers/CMSIS/Include/core_cm4.h **** #define MPU_TYPE_SEPARATE_Pos               0U                                            /*!< MPU 
1238:Drivers/CMSIS/Include/core_cm4.h **** #define MPU_TYPE_SEPARATE_Msk              (1UL /*<< MPU_TYPE_SEPARATE_Pos*/)             /*!< MPU 
1239:Drivers/CMSIS/Include/core_cm4.h **** 
1240:Drivers/CMSIS/Include/core_cm4.h **** /* MPU Control Register Definitions */
1241:Drivers/CMSIS/Include/core_cm4.h **** #define MPU_CTRL_PRIVDEFENA_Pos             2U                                            /*!< MPU 
1242:Drivers/CMSIS/Include/core_cm4.h **** #define MPU_CTRL_PRIVDEFENA_Msk            (1UL << MPU_CTRL_PRIVDEFENA_Pos)               /*!< MPU 
1243:Drivers/CMSIS/Include/core_cm4.h **** 
1244:Drivers/CMSIS/Include/core_cm4.h **** #define MPU_CTRL_HFNMIENA_Pos               1U                                            /*!< MPU 
1245:Drivers/CMSIS/Include/core_cm4.h **** #define MPU_CTRL_HFNMIENA_Msk              (1UL << MPU_CTRL_HFNMIENA_Pos)                 /*!< MPU 
1246:Drivers/CMSIS/Include/core_cm4.h **** 
1247:Drivers/CMSIS/Include/core_cm4.h **** #define MPU_CTRL_ENABLE_Pos                 0U                                            /*!< MPU 
1248:Drivers/CMSIS/Include/core_cm4.h **** #define MPU_CTRL_ENABLE_Msk                (1UL /*<< MPU_CTRL_ENABLE_Pos*/)               /*!< MPU 
1249:Drivers/CMSIS/Include/core_cm4.h **** 
1250:Drivers/CMSIS/Include/core_cm4.h **** /* MPU Region Number Register Definitions */
1251:Drivers/CMSIS/Include/core_cm4.h **** #define MPU_RNR_REGION_Pos                  0U                                            /*!< MPU 
1252:Drivers/CMSIS/Include/core_cm4.h **** #define MPU_RNR_REGION_Msk                 (0xFFUL /*<< MPU_RNR_REGION_Pos*/)             /*!< MPU 
1253:Drivers/CMSIS/Include/core_cm4.h **** 
1254:Drivers/CMSIS/Include/core_cm4.h **** /* MPU Region Base Address Register Definitions */
1255:Drivers/CMSIS/Include/core_cm4.h **** #define MPU_RBAR_ADDR_Pos                   5U                                            /*!< MPU 
1256:Drivers/CMSIS/Include/core_cm4.h **** #define MPU_RBAR_ADDR_Msk                  (0x7FFFFFFUL << MPU_RBAR_ADDR_Pos)             /*!< MPU 
1257:Drivers/CMSIS/Include/core_cm4.h **** 
1258:Drivers/CMSIS/Include/core_cm4.h **** #define MPU_RBAR_VALID_Pos                  4U                                            /*!< MPU 
1259:Drivers/CMSIS/Include/core_cm4.h **** #define MPU_RBAR_VALID_Msk                 (1UL << MPU_RBAR_VALID_Pos)                    /*!< MPU 
1260:Drivers/CMSIS/Include/core_cm4.h **** 
1261:Drivers/CMSIS/Include/core_cm4.h **** #define MPU_RBAR_REGION_Pos                 0U                                            /*!< MPU 
1262:Drivers/CMSIS/Include/core_cm4.h **** #define MPU_RBAR_REGION_Msk                (0xFUL /*<< MPU_RBAR_REGION_Pos*/)             /*!< MPU 
1263:Drivers/CMSIS/Include/core_cm4.h **** 
1264:Drivers/CMSIS/Include/core_cm4.h **** /* MPU Region Attribute and Size Register Definitions */
1265:Drivers/CMSIS/Include/core_cm4.h **** #define MPU_RASR_ATTRS_Pos                 16U                                            /*!< MPU 
1266:Drivers/CMSIS/Include/core_cm4.h **** #define MPU_RASR_ATTRS_Msk                 (0xFFFFUL << MPU_RASR_ATTRS_Pos)               /*!< MPU 
1267:Drivers/CMSIS/Include/core_cm4.h **** 
1268:Drivers/CMSIS/Include/core_cm4.h **** #define MPU_RASR_XN_Pos                    28U                                            /*!< MPU 
1269:Drivers/CMSIS/Include/core_cm4.h **** #define MPU_RASR_XN_Msk                    (1UL << MPU_RASR_XN_Pos)                       /*!< MPU 
1270:Drivers/CMSIS/Include/core_cm4.h **** 
1271:Drivers/CMSIS/Include/core_cm4.h **** #define MPU_RASR_AP_Pos                    24U                                            /*!< MPU 
1272:Drivers/CMSIS/Include/core_cm4.h **** #define MPU_RASR_AP_Msk                    (0x7UL << MPU_RASR_AP_Pos)                     /*!< MPU 
ARM GAS  C:\Users\krisa\AppData\Local\Temp\ccNljk5K.s 			page 135


1273:Drivers/CMSIS/Include/core_cm4.h **** 
1274:Drivers/CMSIS/Include/core_cm4.h **** #define MPU_RASR_TEX_Pos                   19U                                            /*!< MPU 
1275:Drivers/CMSIS/Include/core_cm4.h **** #define MPU_RASR_TEX_Msk                   (0x7UL << MPU_RASR_TEX_Pos)                    /*!< MPU 
1276:Drivers/CMSIS/Include/core_cm4.h **** 
1277:Drivers/CMSIS/Include/core_cm4.h **** #define MPU_RASR_S_Pos                     18U                                            /*!< MPU 
1278:Drivers/CMSIS/Include/core_cm4.h **** #define MPU_RASR_S_Msk                     (1UL << MPU_RASR_S_Pos)                        /*!< MPU 
1279:Drivers/CMSIS/Include/core_cm4.h **** 
1280:Drivers/CMSIS/Include/core_cm4.h **** #define MPU_RASR_C_Pos                     17U                                            /*!< MPU 
1281:Drivers/CMSIS/Include/core_cm4.h **** #define MPU_RASR_C_Msk                     (1UL << MPU_RASR_C_Pos)                        /*!< MPU 
1282:Drivers/CMSIS/Include/core_cm4.h **** 
1283:Drivers/CMSIS/Include/core_cm4.h **** #define MPU_RASR_B_Pos                     16U                                            /*!< MPU 
1284:Drivers/CMSIS/Include/core_cm4.h **** #define MPU_RASR_B_Msk                     (1UL << MPU_RASR_B_Pos)                        /*!< MPU 
1285:Drivers/CMSIS/Include/core_cm4.h **** 
1286:Drivers/CMSIS/Include/core_cm4.h **** #define MPU_RASR_SRD_Pos                    8U                                            /*!< MPU 
1287:Drivers/CMSIS/Include/core_cm4.h **** #define MPU_RASR_SRD_Msk                   (0xFFUL << MPU_RASR_SRD_Pos)                   /*!< MPU 
1288:Drivers/CMSIS/Include/core_cm4.h **** 
1289:Drivers/CMSIS/Include/core_cm4.h **** #define MPU_RASR_SIZE_Pos                   1U                                            /*!< MPU 
1290:Drivers/CMSIS/Include/core_cm4.h **** #define MPU_RASR_SIZE_Msk                  (0x1FUL << MPU_RASR_SIZE_Pos)                  /*!< MPU 
1291:Drivers/CMSIS/Include/core_cm4.h **** 
1292:Drivers/CMSIS/Include/core_cm4.h **** #define MPU_RASR_ENABLE_Pos                 0U                                            /*!< MPU 
1293:Drivers/CMSIS/Include/core_cm4.h **** #define MPU_RASR_ENABLE_Msk                (1UL /*<< MPU_RASR_ENABLE_Pos*/)               /*!< MPU 
1294:Drivers/CMSIS/Include/core_cm4.h **** 
1295:Drivers/CMSIS/Include/core_cm4.h **** /*@} end of group CMSIS_MPU */
1296:Drivers/CMSIS/Include/core_cm4.h **** #endif /* defined (__MPU_PRESENT) && (__MPU_PRESENT == 1U) */
1297:Drivers/CMSIS/Include/core_cm4.h **** 
1298:Drivers/CMSIS/Include/core_cm4.h **** 
1299:Drivers/CMSIS/Include/core_cm4.h **** /**
1300:Drivers/CMSIS/Include/core_cm4.h ****   \ingroup  CMSIS_core_register
1301:Drivers/CMSIS/Include/core_cm4.h ****   \defgroup CMSIS_FPU     Floating Point Unit (FPU)
1302:Drivers/CMSIS/Include/core_cm4.h ****   \brief    Type definitions for the Floating Point Unit (FPU)
1303:Drivers/CMSIS/Include/core_cm4.h ****   @{
1304:Drivers/CMSIS/Include/core_cm4.h ****  */
1305:Drivers/CMSIS/Include/core_cm4.h **** 
1306:Drivers/CMSIS/Include/core_cm4.h **** /**
1307:Drivers/CMSIS/Include/core_cm4.h ****   \brief  Structure type to access the Floating Point Unit (FPU).
1308:Drivers/CMSIS/Include/core_cm4.h ****  */
1309:Drivers/CMSIS/Include/core_cm4.h **** typedef struct
1310:Drivers/CMSIS/Include/core_cm4.h **** {
1311:Drivers/CMSIS/Include/core_cm4.h ****         uint32_t RESERVED0[1U];
1312:Drivers/CMSIS/Include/core_cm4.h ****   __IOM uint32_t FPCCR;                  /*!< Offset: 0x004 (R/W)  Floating-Point Context Control R
1313:Drivers/CMSIS/Include/core_cm4.h ****   __IOM uint32_t FPCAR;                  /*!< Offset: 0x008 (R/W)  Floating-Point Context Address R
1314:Drivers/CMSIS/Include/core_cm4.h ****   __IOM uint32_t FPDSCR;                 /*!< Offset: 0x00C (R/W)  Floating-Point Default Status Co
1315:Drivers/CMSIS/Include/core_cm4.h ****   __IM  uint32_t MVFR0;                  /*!< Offset: 0x010 (R/ )  Media and FP Feature Register 0 
1316:Drivers/CMSIS/Include/core_cm4.h ****   __IM  uint32_t MVFR1;                  /*!< Offset: 0x014 (R/ )  Media and FP Feature Register 1 
1317:Drivers/CMSIS/Include/core_cm4.h ****   __IM  uint32_t MVFR2;                  /*!< Offset: 0x018 (R/ )  Media and FP Feature Register 2 
1318:Drivers/CMSIS/Include/core_cm4.h **** } FPU_Type;
1319:Drivers/CMSIS/Include/core_cm4.h **** 
1320:Drivers/CMSIS/Include/core_cm4.h **** /* Floating-Point Context Control Register Definitions */
1321:Drivers/CMSIS/Include/core_cm4.h **** #define FPU_FPCCR_ASPEN_Pos                31U                                            /*!< FPCC
1322:Drivers/CMSIS/Include/core_cm4.h **** #define FPU_FPCCR_ASPEN_Msk                (1UL << FPU_FPCCR_ASPEN_Pos)                   /*!< FPCC
1323:Drivers/CMSIS/Include/core_cm4.h **** 
1324:Drivers/CMSIS/Include/core_cm4.h **** #define FPU_FPCCR_LSPEN_Pos                30U                                            /*!< FPCC
1325:Drivers/CMSIS/Include/core_cm4.h **** #define FPU_FPCCR_LSPEN_Msk                (1UL << FPU_FPCCR_LSPEN_Pos)                   /*!< FPCC
1326:Drivers/CMSIS/Include/core_cm4.h **** 
1327:Drivers/CMSIS/Include/core_cm4.h **** #define FPU_FPCCR_MONRDY_Pos                8U                                            /*!< FPCC
1328:Drivers/CMSIS/Include/core_cm4.h **** #define FPU_FPCCR_MONRDY_Msk               (1UL << FPU_FPCCR_MONRDY_Pos)                  /*!< FPCC
1329:Drivers/CMSIS/Include/core_cm4.h **** 
ARM GAS  C:\Users\krisa\AppData\Local\Temp\ccNljk5K.s 			page 136


1330:Drivers/CMSIS/Include/core_cm4.h **** #define FPU_FPCCR_BFRDY_Pos                 6U                                            /*!< FPCC
1331:Drivers/CMSIS/Include/core_cm4.h **** #define FPU_FPCCR_BFRDY_Msk                (1UL << FPU_FPCCR_BFRDY_Pos)                   /*!< FPCC
1332:Drivers/CMSIS/Include/core_cm4.h **** 
1333:Drivers/CMSIS/Include/core_cm4.h **** #define FPU_FPCCR_MMRDY_Pos                 5U                                            /*!< FPCC
1334:Drivers/CMSIS/Include/core_cm4.h **** #define FPU_FPCCR_MMRDY_Msk                (1UL << FPU_FPCCR_MMRDY_Pos)                   /*!< FPCC
1335:Drivers/CMSIS/Include/core_cm4.h **** 
1336:Drivers/CMSIS/Include/core_cm4.h **** #define FPU_FPCCR_HFRDY_Pos                 4U                                            /*!< FPCC
1337:Drivers/CMSIS/Include/core_cm4.h **** #define FPU_FPCCR_HFRDY_Msk                (1UL << FPU_FPCCR_HFRDY_Pos)                   /*!< FPCC
1338:Drivers/CMSIS/Include/core_cm4.h **** 
1339:Drivers/CMSIS/Include/core_cm4.h **** #define FPU_FPCCR_THREAD_Pos                3U                                            /*!< FPCC
1340:Drivers/CMSIS/Include/core_cm4.h **** #define FPU_FPCCR_THREAD_Msk               (1UL << FPU_FPCCR_THREAD_Pos)                  /*!< FPCC
1341:Drivers/CMSIS/Include/core_cm4.h **** 
1342:Drivers/CMSIS/Include/core_cm4.h **** #define FPU_FPCCR_USER_Pos                  1U                                            /*!< FPCC
1343:Drivers/CMSIS/Include/core_cm4.h **** #define FPU_FPCCR_USER_Msk                 (1UL << FPU_FPCCR_USER_Pos)                    /*!< FPCC
1344:Drivers/CMSIS/Include/core_cm4.h **** 
1345:Drivers/CMSIS/Include/core_cm4.h **** #define FPU_FPCCR_LSPACT_Pos                0U                                            /*!< FPCC
1346:Drivers/CMSIS/Include/core_cm4.h **** #define FPU_FPCCR_LSPACT_Msk               (1UL /*<< FPU_FPCCR_LSPACT_Pos*/)              /*!< FPCC
1347:Drivers/CMSIS/Include/core_cm4.h **** 
1348:Drivers/CMSIS/Include/core_cm4.h **** /* Floating-Point Context Address Register Definitions */
1349:Drivers/CMSIS/Include/core_cm4.h **** #define FPU_FPCAR_ADDRESS_Pos               3U                                            /*!< FPCA
1350:Drivers/CMSIS/Include/core_cm4.h **** #define FPU_FPCAR_ADDRESS_Msk              (0x1FFFFFFFUL << FPU_FPCAR_ADDRESS_Pos)        /*!< FPCA
1351:Drivers/CMSIS/Include/core_cm4.h **** 
1352:Drivers/CMSIS/Include/core_cm4.h **** /* Floating-Point Default Status Control Register Definitions */
1353:Drivers/CMSIS/Include/core_cm4.h **** #define FPU_FPDSCR_AHP_Pos                 26U                                            /*!< FPDS
1354:Drivers/CMSIS/Include/core_cm4.h **** #define FPU_FPDSCR_AHP_Msk                 (1UL << FPU_FPDSCR_AHP_Pos)                    /*!< FPDS
1355:Drivers/CMSIS/Include/core_cm4.h **** 
1356:Drivers/CMSIS/Include/core_cm4.h **** #define FPU_FPDSCR_DN_Pos                  25U                                            /*!< FPDS
1357:Drivers/CMSIS/Include/core_cm4.h **** #define FPU_FPDSCR_DN_Msk                  (1UL << FPU_FPDSCR_DN_Pos)                     /*!< FPDS
1358:Drivers/CMSIS/Include/core_cm4.h **** 
1359:Drivers/CMSIS/Include/core_cm4.h **** #define FPU_FPDSCR_FZ_Pos                  24U                                            /*!< FPDS
1360:Drivers/CMSIS/Include/core_cm4.h **** #define FPU_FPDSCR_FZ_Msk                  (1UL << FPU_FPDSCR_FZ_Pos)                     /*!< FPDS
1361:Drivers/CMSIS/Include/core_cm4.h **** 
1362:Drivers/CMSIS/Include/core_cm4.h **** #define FPU_FPDSCR_RMode_Pos               22U                                            /*!< FPDS
1363:Drivers/CMSIS/Include/core_cm4.h **** #define FPU_FPDSCR_RMode_Msk               (3UL << FPU_FPDSCR_RMode_Pos)                  /*!< FPDS
1364:Drivers/CMSIS/Include/core_cm4.h **** 
1365:Drivers/CMSIS/Include/core_cm4.h **** /* Media and FP Feature Register 0 Definitions */
1366:Drivers/CMSIS/Include/core_cm4.h **** #define FPU_MVFR0_FP_rounding_modes_Pos    28U                                            /*!< MVFR
1367:Drivers/CMSIS/Include/core_cm4.h **** #define FPU_MVFR0_FP_rounding_modes_Msk    (0xFUL << FPU_MVFR0_FP_rounding_modes_Pos)     /*!< MVFR
1368:Drivers/CMSIS/Include/core_cm4.h **** 
1369:Drivers/CMSIS/Include/core_cm4.h **** #define FPU_MVFR0_Short_vectors_Pos        24U                                            /*!< MVFR
1370:Drivers/CMSIS/Include/core_cm4.h **** #define FPU_MVFR0_Short_vectors_Msk        (0xFUL << FPU_MVFR0_Short_vectors_Pos)         /*!< MVFR
1371:Drivers/CMSIS/Include/core_cm4.h **** 
1372:Drivers/CMSIS/Include/core_cm4.h **** #define FPU_MVFR0_Square_root_Pos          20U                                            /*!< MVFR
1373:Drivers/CMSIS/Include/core_cm4.h **** #define FPU_MVFR0_Square_root_Msk          (0xFUL << FPU_MVFR0_Square_root_Pos)           /*!< MVFR
1374:Drivers/CMSIS/Include/core_cm4.h **** 
1375:Drivers/CMSIS/Include/core_cm4.h **** #define FPU_MVFR0_Divide_Pos               16U                                            /*!< MVFR
1376:Drivers/CMSIS/Include/core_cm4.h **** #define FPU_MVFR0_Divide_Msk               (0xFUL << FPU_MVFR0_Divide_Pos)                /*!< MVFR
1377:Drivers/CMSIS/Include/core_cm4.h **** 
1378:Drivers/CMSIS/Include/core_cm4.h **** #define FPU_MVFR0_FP_excep_trapping_Pos    12U                                            /*!< MVFR
1379:Drivers/CMSIS/Include/core_cm4.h **** #define FPU_MVFR0_FP_excep_trapping_Msk    (0xFUL << FPU_MVFR0_FP_excep_trapping_Pos)     /*!< MVFR
1380:Drivers/CMSIS/Include/core_cm4.h **** 
1381:Drivers/CMSIS/Include/core_cm4.h **** #define FPU_MVFR0_Double_precision_Pos      8U                                            /*!< MVFR
1382:Drivers/CMSIS/Include/core_cm4.h **** #define FPU_MVFR0_Double_precision_Msk     (0xFUL << FPU_MVFR0_Double_precision_Pos)      /*!< MVFR
1383:Drivers/CMSIS/Include/core_cm4.h **** 
1384:Drivers/CMSIS/Include/core_cm4.h **** #define FPU_MVFR0_Single_precision_Pos      4U                                            /*!< MVFR
1385:Drivers/CMSIS/Include/core_cm4.h **** #define FPU_MVFR0_Single_precision_Msk     (0xFUL << FPU_MVFR0_Single_precision_Pos)      /*!< MVFR
1386:Drivers/CMSIS/Include/core_cm4.h **** 
ARM GAS  C:\Users\krisa\AppData\Local\Temp\ccNljk5K.s 			page 137


1387:Drivers/CMSIS/Include/core_cm4.h **** #define FPU_MVFR0_A_SIMD_registers_Pos      0U                                            /*!< MVFR
1388:Drivers/CMSIS/Include/core_cm4.h **** #define FPU_MVFR0_A_SIMD_registers_Msk     (0xFUL /*<< FPU_MVFR0_A_SIMD_registers_Pos*/)  /*!< MVFR
1389:Drivers/CMSIS/Include/core_cm4.h **** 
1390:Drivers/CMSIS/Include/core_cm4.h **** /* Media and FP Feature Register 1 Definitions */
1391:Drivers/CMSIS/Include/core_cm4.h **** #define FPU_MVFR1_FP_fused_MAC_Pos         28U                                            /*!< MVFR
1392:Drivers/CMSIS/Include/core_cm4.h **** #define FPU_MVFR1_FP_fused_MAC_Msk         (0xFUL << FPU_MVFR1_FP_fused_MAC_Pos)          /*!< MVFR
1393:Drivers/CMSIS/Include/core_cm4.h **** 
1394:Drivers/CMSIS/Include/core_cm4.h **** #define FPU_MVFR1_FP_HPFP_Pos              24U                                            /*!< MVFR
1395:Drivers/CMSIS/Include/core_cm4.h **** #define FPU_MVFR1_FP_HPFP_Msk              (0xFUL << FPU_MVFR1_FP_HPFP_Pos)               /*!< MVFR
1396:Drivers/CMSIS/Include/core_cm4.h **** 
1397:Drivers/CMSIS/Include/core_cm4.h **** #define FPU_MVFR1_D_NaN_mode_Pos            4U                                            /*!< MVFR
1398:Drivers/CMSIS/Include/core_cm4.h **** #define FPU_MVFR1_D_NaN_mode_Msk           (0xFUL << FPU_MVFR1_D_NaN_mode_Pos)            /*!< MVFR
1399:Drivers/CMSIS/Include/core_cm4.h **** 
1400:Drivers/CMSIS/Include/core_cm4.h **** #define FPU_MVFR1_FtZ_mode_Pos              0U                                            /*!< MVFR
1401:Drivers/CMSIS/Include/core_cm4.h **** #define FPU_MVFR1_FtZ_mode_Msk             (0xFUL /*<< FPU_MVFR1_FtZ_mode_Pos*/)          /*!< MVFR
1402:Drivers/CMSIS/Include/core_cm4.h **** 
1403:Drivers/CMSIS/Include/core_cm4.h **** /* Media and FP Feature Register 2 Definitions */
1404:Drivers/CMSIS/Include/core_cm4.h **** 
1405:Drivers/CMSIS/Include/core_cm4.h **** #define FPU_MVFR2_VFP_Misc_Pos              4U                                            /*!< MVFR
1406:Drivers/CMSIS/Include/core_cm4.h **** #define FPU_MVFR2_VFP_Misc_Msk             (0xFUL << FPU_MVFR2_VFP_Misc_Pos)              /*!< MVFR
1407:Drivers/CMSIS/Include/core_cm4.h **** 
1408:Drivers/CMSIS/Include/core_cm4.h **** /*@} end of group CMSIS_FPU */
1409:Drivers/CMSIS/Include/core_cm4.h **** 
1410:Drivers/CMSIS/Include/core_cm4.h **** 
1411:Drivers/CMSIS/Include/core_cm4.h **** /**
1412:Drivers/CMSIS/Include/core_cm4.h ****   \ingroup  CMSIS_core_register
1413:Drivers/CMSIS/Include/core_cm4.h ****   \defgroup CMSIS_CoreDebug       Core Debug Registers (CoreDebug)
1414:Drivers/CMSIS/Include/core_cm4.h ****   \brief    Type definitions for the Core Debug Registers
1415:Drivers/CMSIS/Include/core_cm4.h ****   @{
1416:Drivers/CMSIS/Include/core_cm4.h ****  */
1417:Drivers/CMSIS/Include/core_cm4.h **** 
1418:Drivers/CMSIS/Include/core_cm4.h **** /**
1419:Drivers/CMSIS/Include/core_cm4.h ****   \brief  Structure type to access the Core Debug Register (CoreDebug).
1420:Drivers/CMSIS/Include/core_cm4.h ****  */
1421:Drivers/CMSIS/Include/core_cm4.h **** typedef struct
1422:Drivers/CMSIS/Include/core_cm4.h **** {
1423:Drivers/CMSIS/Include/core_cm4.h ****   __IOM uint32_t DHCSR;                  /*!< Offset: 0x000 (R/W)  Debug Halting Control and Status
1424:Drivers/CMSIS/Include/core_cm4.h ****   __OM  uint32_t DCRSR;                  /*!< Offset: 0x004 ( /W)  Debug Core Register Selector Reg
1425:Drivers/CMSIS/Include/core_cm4.h ****   __IOM uint32_t DCRDR;                  /*!< Offset: 0x008 (R/W)  Debug Core Register Data Registe
1426:Drivers/CMSIS/Include/core_cm4.h ****   __IOM uint32_t DEMCR;                  /*!< Offset: 0x00C (R/W)  Debug Exception and Monitor Cont
1427:Drivers/CMSIS/Include/core_cm4.h **** } CoreDebug_Type;
1428:Drivers/CMSIS/Include/core_cm4.h **** 
1429:Drivers/CMSIS/Include/core_cm4.h **** /* Debug Halting Control and Status Register Definitions */
1430:Drivers/CMSIS/Include/core_cm4.h **** #define CoreDebug_DHCSR_DBGKEY_Pos         16U                                            /*!< Core
1431:Drivers/CMSIS/Include/core_cm4.h **** #define CoreDebug_DHCSR_DBGKEY_Msk         (0xFFFFUL << CoreDebug_DHCSR_DBGKEY_Pos)       /*!< Core
1432:Drivers/CMSIS/Include/core_cm4.h **** 
1433:Drivers/CMSIS/Include/core_cm4.h **** #define CoreDebug_DHCSR_S_RESET_ST_Pos     25U                                            /*!< Core
1434:Drivers/CMSIS/Include/core_cm4.h **** #define CoreDebug_DHCSR_S_RESET_ST_Msk     (1UL << CoreDebug_DHCSR_S_RESET_ST_Pos)        /*!< Core
1435:Drivers/CMSIS/Include/core_cm4.h **** 
1436:Drivers/CMSIS/Include/core_cm4.h **** #define CoreDebug_DHCSR_S_RETIRE_ST_Pos    24U                                            /*!< Core
1437:Drivers/CMSIS/Include/core_cm4.h **** #define CoreDebug_DHCSR_S_RETIRE_ST_Msk    (1UL << CoreDebug_DHCSR_S_RETIRE_ST_Pos)       /*!< Core
1438:Drivers/CMSIS/Include/core_cm4.h **** 
1439:Drivers/CMSIS/Include/core_cm4.h **** #define CoreDebug_DHCSR_S_LOCKUP_Pos       19U                                            /*!< Core
1440:Drivers/CMSIS/Include/core_cm4.h **** #define CoreDebug_DHCSR_S_LOCKUP_Msk       (1UL << CoreDebug_DHCSR_S_LOCKUP_Pos)          /*!< Core
1441:Drivers/CMSIS/Include/core_cm4.h **** 
1442:Drivers/CMSIS/Include/core_cm4.h **** #define CoreDebug_DHCSR_S_SLEEP_Pos        18U                                            /*!< Core
1443:Drivers/CMSIS/Include/core_cm4.h **** #define CoreDebug_DHCSR_S_SLEEP_Msk        (1UL << CoreDebug_DHCSR_S_SLEEP_Pos)           /*!< Core
ARM GAS  C:\Users\krisa\AppData\Local\Temp\ccNljk5K.s 			page 138


1444:Drivers/CMSIS/Include/core_cm4.h **** 
1445:Drivers/CMSIS/Include/core_cm4.h **** #define CoreDebug_DHCSR_S_HALT_Pos         17U                                            /*!< Core
1446:Drivers/CMSIS/Include/core_cm4.h **** #define CoreDebug_DHCSR_S_HALT_Msk         (1UL << CoreDebug_DHCSR_S_HALT_Pos)            /*!< Core
1447:Drivers/CMSIS/Include/core_cm4.h **** 
1448:Drivers/CMSIS/Include/core_cm4.h **** #define CoreDebug_DHCSR_S_REGRDY_Pos       16U                                            /*!< Core
1449:Drivers/CMSIS/Include/core_cm4.h **** #define CoreDebug_DHCSR_S_REGRDY_Msk       (1UL << CoreDebug_DHCSR_S_REGRDY_Pos)          /*!< Core
1450:Drivers/CMSIS/Include/core_cm4.h **** 
1451:Drivers/CMSIS/Include/core_cm4.h **** #define CoreDebug_DHCSR_C_SNAPSTALL_Pos     5U                                            /*!< Core
1452:Drivers/CMSIS/Include/core_cm4.h **** #define CoreDebug_DHCSR_C_SNAPSTALL_Msk    (1UL << CoreDebug_DHCSR_C_SNAPSTALL_Pos)       /*!< Core
1453:Drivers/CMSIS/Include/core_cm4.h **** 
1454:Drivers/CMSIS/Include/core_cm4.h **** #define CoreDebug_DHCSR_C_MASKINTS_Pos      3U                                            /*!< Core
1455:Drivers/CMSIS/Include/core_cm4.h **** #define CoreDebug_DHCSR_C_MASKINTS_Msk     (1UL << CoreDebug_DHCSR_C_MASKINTS_Pos)        /*!< Core
1456:Drivers/CMSIS/Include/core_cm4.h **** 
1457:Drivers/CMSIS/Include/core_cm4.h **** #define CoreDebug_DHCSR_C_STEP_Pos          2U                                            /*!< Core
1458:Drivers/CMSIS/Include/core_cm4.h **** #define CoreDebug_DHCSR_C_STEP_Msk         (1UL << CoreDebug_DHCSR_C_STEP_Pos)            /*!< Core
1459:Drivers/CMSIS/Include/core_cm4.h **** 
1460:Drivers/CMSIS/Include/core_cm4.h **** #define CoreDebug_DHCSR_C_HALT_Pos          1U                                            /*!< Core
1461:Drivers/CMSIS/Include/core_cm4.h **** #define CoreDebug_DHCSR_C_HALT_Msk         (1UL << CoreDebug_DHCSR_C_HALT_Pos)            /*!< Core
1462:Drivers/CMSIS/Include/core_cm4.h **** 
1463:Drivers/CMSIS/Include/core_cm4.h **** #define CoreDebug_DHCSR_C_DEBUGEN_Pos       0U                                            /*!< Core
1464:Drivers/CMSIS/Include/core_cm4.h **** #define CoreDebug_DHCSR_C_DEBUGEN_Msk      (1UL /*<< CoreDebug_DHCSR_C_DEBUGEN_Pos*/)     /*!< Core
1465:Drivers/CMSIS/Include/core_cm4.h **** 
1466:Drivers/CMSIS/Include/core_cm4.h **** /* Debug Core Register Selector Register Definitions */
1467:Drivers/CMSIS/Include/core_cm4.h **** #define CoreDebug_DCRSR_REGWnR_Pos         16U                                            /*!< Core
1468:Drivers/CMSIS/Include/core_cm4.h **** #define CoreDebug_DCRSR_REGWnR_Msk         (1UL << CoreDebug_DCRSR_REGWnR_Pos)            /*!< Core
1469:Drivers/CMSIS/Include/core_cm4.h **** 
1470:Drivers/CMSIS/Include/core_cm4.h **** #define CoreDebug_DCRSR_REGSEL_Pos          0U                                            /*!< Core
1471:Drivers/CMSIS/Include/core_cm4.h **** #define CoreDebug_DCRSR_REGSEL_Msk         (0x1FUL /*<< CoreDebug_DCRSR_REGSEL_Pos*/)     /*!< Core
1472:Drivers/CMSIS/Include/core_cm4.h **** 
1473:Drivers/CMSIS/Include/core_cm4.h **** /* Debug Exception and Monitor Control Register Definitions */
1474:Drivers/CMSIS/Include/core_cm4.h **** #define CoreDebug_DEMCR_TRCENA_Pos         24U                                            /*!< Core
1475:Drivers/CMSIS/Include/core_cm4.h **** #define CoreDebug_DEMCR_TRCENA_Msk         (1UL << CoreDebug_DEMCR_TRCENA_Pos)            /*!< Core
1476:Drivers/CMSIS/Include/core_cm4.h **** 
1477:Drivers/CMSIS/Include/core_cm4.h **** #define CoreDebug_DEMCR_MON_REQ_Pos        19U                                            /*!< Core
1478:Drivers/CMSIS/Include/core_cm4.h **** #define CoreDebug_DEMCR_MON_REQ_Msk        (1UL << CoreDebug_DEMCR_MON_REQ_Pos)           /*!< Core
1479:Drivers/CMSIS/Include/core_cm4.h **** 
1480:Drivers/CMSIS/Include/core_cm4.h **** #define CoreDebug_DEMCR_MON_STEP_Pos       18U                                            /*!< Core
1481:Drivers/CMSIS/Include/core_cm4.h **** #define CoreDebug_DEMCR_MON_STEP_Msk       (1UL << CoreDebug_DEMCR_MON_STEP_Pos)          /*!< Core
1482:Drivers/CMSIS/Include/core_cm4.h **** 
1483:Drivers/CMSIS/Include/core_cm4.h **** #define CoreDebug_DEMCR_MON_PEND_Pos       17U                                            /*!< Core
1484:Drivers/CMSIS/Include/core_cm4.h **** #define CoreDebug_DEMCR_MON_PEND_Msk       (1UL << CoreDebug_DEMCR_MON_PEND_Pos)          /*!< Core
1485:Drivers/CMSIS/Include/core_cm4.h **** 
1486:Drivers/CMSIS/Include/core_cm4.h **** #define CoreDebug_DEMCR_MON_EN_Pos         16U                                            /*!< Core
1487:Drivers/CMSIS/Include/core_cm4.h **** #define CoreDebug_DEMCR_MON_EN_Msk         (1UL << CoreDebug_DEMCR_MON_EN_Pos)            /*!< Core
1488:Drivers/CMSIS/Include/core_cm4.h **** 
1489:Drivers/CMSIS/Include/core_cm4.h **** #define CoreDebug_DEMCR_VC_HARDERR_Pos     10U                                            /*!< Core
1490:Drivers/CMSIS/Include/core_cm4.h **** #define CoreDebug_DEMCR_VC_HARDERR_Msk     (1UL << CoreDebug_DEMCR_VC_HARDERR_Pos)        /*!< Core
1491:Drivers/CMSIS/Include/core_cm4.h **** 
1492:Drivers/CMSIS/Include/core_cm4.h **** #define CoreDebug_DEMCR_VC_INTERR_Pos       9U                                            /*!< Core
1493:Drivers/CMSIS/Include/core_cm4.h **** #define CoreDebug_DEMCR_VC_INTERR_Msk      (1UL << CoreDebug_DEMCR_VC_INTERR_Pos)         /*!< Core
1494:Drivers/CMSIS/Include/core_cm4.h **** 
1495:Drivers/CMSIS/Include/core_cm4.h **** #define CoreDebug_DEMCR_VC_BUSERR_Pos       8U                                            /*!< Core
1496:Drivers/CMSIS/Include/core_cm4.h **** #define CoreDebug_DEMCR_VC_BUSERR_Msk      (1UL << CoreDebug_DEMCR_VC_BUSERR_Pos)         /*!< Core
1497:Drivers/CMSIS/Include/core_cm4.h **** 
1498:Drivers/CMSIS/Include/core_cm4.h **** #define CoreDebug_DEMCR_VC_STATERR_Pos      7U                                            /*!< Core
1499:Drivers/CMSIS/Include/core_cm4.h **** #define CoreDebug_DEMCR_VC_STATERR_Msk     (1UL << CoreDebug_DEMCR_VC_STATERR_Pos)        /*!< Core
1500:Drivers/CMSIS/Include/core_cm4.h **** 
ARM GAS  C:\Users\krisa\AppData\Local\Temp\ccNljk5K.s 			page 139


1501:Drivers/CMSIS/Include/core_cm4.h **** #define CoreDebug_DEMCR_VC_CHKERR_Pos       6U                                            /*!< Core
1502:Drivers/CMSIS/Include/core_cm4.h **** #define CoreDebug_DEMCR_VC_CHKERR_Msk      (1UL << CoreDebug_DEMCR_VC_CHKERR_Pos)         /*!< Core
1503:Drivers/CMSIS/Include/core_cm4.h **** 
1504:Drivers/CMSIS/Include/core_cm4.h **** #define CoreDebug_DEMCR_VC_NOCPERR_Pos      5U                                            /*!< Core
1505:Drivers/CMSIS/Include/core_cm4.h **** #define CoreDebug_DEMCR_VC_NOCPERR_Msk     (1UL << CoreDebug_DEMCR_VC_NOCPERR_Pos)        /*!< Core
1506:Drivers/CMSIS/Include/core_cm4.h **** 
1507:Drivers/CMSIS/Include/core_cm4.h **** #define CoreDebug_DEMCR_VC_MMERR_Pos        4U                                            /*!< Core
1508:Drivers/CMSIS/Include/core_cm4.h **** #define CoreDebug_DEMCR_VC_MMERR_Msk       (1UL << CoreDebug_DEMCR_VC_MMERR_Pos)          /*!< Core
1509:Drivers/CMSIS/Include/core_cm4.h **** 
1510:Drivers/CMSIS/Include/core_cm4.h **** #define CoreDebug_DEMCR_VC_CORERESET_Pos    0U                                            /*!< Core
1511:Drivers/CMSIS/Include/core_cm4.h **** #define CoreDebug_DEMCR_VC_CORERESET_Msk   (1UL /*<< CoreDebug_DEMCR_VC_CORERESET_Pos*/)  /*!< Core
1512:Drivers/CMSIS/Include/core_cm4.h **** 
1513:Drivers/CMSIS/Include/core_cm4.h **** /*@} end of group CMSIS_CoreDebug */
1514:Drivers/CMSIS/Include/core_cm4.h **** 
1515:Drivers/CMSIS/Include/core_cm4.h **** 
1516:Drivers/CMSIS/Include/core_cm4.h **** /**
1517:Drivers/CMSIS/Include/core_cm4.h ****   \ingroup    CMSIS_core_register
1518:Drivers/CMSIS/Include/core_cm4.h ****   \defgroup   CMSIS_core_bitfield     Core register bit field macros
1519:Drivers/CMSIS/Include/core_cm4.h ****   \brief      Macros for use with bit field definitions (xxx_Pos, xxx_Msk).
1520:Drivers/CMSIS/Include/core_cm4.h ****   @{
1521:Drivers/CMSIS/Include/core_cm4.h ****  */
1522:Drivers/CMSIS/Include/core_cm4.h **** 
1523:Drivers/CMSIS/Include/core_cm4.h **** /**
1524:Drivers/CMSIS/Include/core_cm4.h ****   \brief   Mask and shift a bit field value for use in a register bit range.
1525:Drivers/CMSIS/Include/core_cm4.h ****   \param[in] field  Name of the register bit field.
1526:Drivers/CMSIS/Include/core_cm4.h ****   \param[in] value  Value of the bit field. This parameter is interpreted as an uint32_t type.
1527:Drivers/CMSIS/Include/core_cm4.h ****   \return           Masked and shifted value.
1528:Drivers/CMSIS/Include/core_cm4.h **** */
1529:Drivers/CMSIS/Include/core_cm4.h **** #define _VAL2FLD(field, value)    (((uint32_t)(value) << field ## _Pos) & field ## _Msk)
1530:Drivers/CMSIS/Include/core_cm4.h **** 
1531:Drivers/CMSIS/Include/core_cm4.h **** /**
1532:Drivers/CMSIS/Include/core_cm4.h ****   \brief     Mask and shift a register value to extract a bit filed value.
1533:Drivers/CMSIS/Include/core_cm4.h ****   \param[in] field  Name of the register bit field.
1534:Drivers/CMSIS/Include/core_cm4.h ****   \param[in] value  Value of register. This parameter is interpreted as an uint32_t type.
1535:Drivers/CMSIS/Include/core_cm4.h ****   \return           Masked and shifted bit field value.
1536:Drivers/CMSIS/Include/core_cm4.h **** */
1537:Drivers/CMSIS/Include/core_cm4.h **** #define _FLD2VAL(field, value)    (((uint32_t)(value) & field ## _Msk) >> field ## _Pos)
1538:Drivers/CMSIS/Include/core_cm4.h **** 
1539:Drivers/CMSIS/Include/core_cm4.h **** /*@} end of group CMSIS_core_bitfield */
1540:Drivers/CMSIS/Include/core_cm4.h **** 
1541:Drivers/CMSIS/Include/core_cm4.h **** 
1542:Drivers/CMSIS/Include/core_cm4.h **** /**
1543:Drivers/CMSIS/Include/core_cm4.h ****   \ingroup    CMSIS_core_register
1544:Drivers/CMSIS/Include/core_cm4.h ****   \defgroup   CMSIS_core_base     Core Definitions
1545:Drivers/CMSIS/Include/core_cm4.h ****   \brief      Definitions for base addresses, unions, and structures.
1546:Drivers/CMSIS/Include/core_cm4.h ****   @{
1547:Drivers/CMSIS/Include/core_cm4.h ****  */
1548:Drivers/CMSIS/Include/core_cm4.h **** 
1549:Drivers/CMSIS/Include/core_cm4.h **** /* Memory mapping of Core Hardware */
1550:Drivers/CMSIS/Include/core_cm4.h **** #define SCS_BASE            (0xE000E000UL)                            /*!< System Control Space Bas
1551:Drivers/CMSIS/Include/core_cm4.h **** #define ITM_BASE            (0xE0000000UL)                            /*!< ITM Base Address */
1552:Drivers/CMSIS/Include/core_cm4.h **** #define DWT_BASE            (0xE0001000UL)                            /*!< DWT Base Address */
1553:Drivers/CMSIS/Include/core_cm4.h **** #define TPI_BASE            (0xE0040000UL)                            /*!< TPI Base Address */
1554:Drivers/CMSIS/Include/core_cm4.h **** #define CoreDebug_BASE      (0xE000EDF0UL)                            /*!< Core Debug Base Address 
1555:Drivers/CMSIS/Include/core_cm4.h **** #define SysTick_BASE        (SCS_BASE +  0x0010UL)                    /*!< SysTick Base Address */
1556:Drivers/CMSIS/Include/core_cm4.h **** #define NVIC_BASE           (SCS_BASE +  0x0100UL)                    /*!< NVIC Base Address */
1557:Drivers/CMSIS/Include/core_cm4.h **** #define SCB_BASE            (SCS_BASE +  0x0D00UL)                    /*!< System Control Block Bas
ARM GAS  C:\Users\krisa\AppData\Local\Temp\ccNljk5K.s 			page 140


1558:Drivers/CMSIS/Include/core_cm4.h **** 
1559:Drivers/CMSIS/Include/core_cm4.h **** #define SCnSCB              ((SCnSCB_Type    *)     SCS_BASE      )   /*!< System control Register 
1560:Drivers/CMSIS/Include/core_cm4.h **** #define SCB                 ((SCB_Type       *)     SCB_BASE      )   /*!< SCB configuration struct
1561:Drivers/CMSIS/Include/core_cm4.h **** #define SysTick             ((SysTick_Type   *)     SysTick_BASE  )   /*!< SysTick configuration st
1562:Drivers/CMSIS/Include/core_cm4.h **** #define NVIC                ((NVIC_Type      *)     NVIC_BASE     )   /*!< NVIC configuration struc
1563:Drivers/CMSIS/Include/core_cm4.h **** #define ITM                 ((ITM_Type       *)     ITM_BASE      )   /*!< ITM configuration struct
1564:Drivers/CMSIS/Include/core_cm4.h **** #define DWT                 ((DWT_Type       *)     DWT_BASE      )   /*!< DWT configuration struct
1565:Drivers/CMSIS/Include/core_cm4.h **** #define TPI                 ((TPI_Type       *)     TPI_BASE      )   /*!< TPI configuration struct
1566:Drivers/CMSIS/Include/core_cm4.h **** #define CoreDebug           ((CoreDebug_Type *)     CoreDebug_BASE)   /*!< Core Debug configuration
1567:Drivers/CMSIS/Include/core_cm4.h **** 
1568:Drivers/CMSIS/Include/core_cm4.h **** #if defined (__MPU_PRESENT) && (__MPU_PRESENT == 1U)
1569:Drivers/CMSIS/Include/core_cm4.h ****   #define MPU_BASE          (SCS_BASE +  0x0D90UL)                    /*!< Memory Protection Unit *
1570:Drivers/CMSIS/Include/core_cm4.h ****   #define MPU               ((MPU_Type       *)     MPU_BASE      )   /*!< Memory Protection Unit *
1571:Drivers/CMSIS/Include/core_cm4.h **** #endif
1572:Drivers/CMSIS/Include/core_cm4.h **** 
1573:Drivers/CMSIS/Include/core_cm4.h **** #define FPU_BASE            (SCS_BASE +  0x0F30UL)                    /*!< Floating Point Unit */
1574:Drivers/CMSIS/Include/core_cm4.h **** #define FPU                 ((FPU_Type       *)     FPU_BASE      )   /*!< Floating Point Unit */
1575:Drivers/CMSIS/Include/core_cm4.h **** 
1576:Drivers/CMSIS/Include/core_cm4.h **** /*@} */
1577:Drivers/CMSIS/Include/core_cm4.h **** 
1578:Drivers/CMSIS/Include/core_cm4.h **** 
1579:Drivers/CMSIS/Include/core_cm4.h **** 
1580:Drivers/CMSIS/Include/core_cm4.h **** /*******************************************************************************
1581:Drivers/CMSIS/Include/core_cm4.h ****  *                Hardware Abstraction Layer
1582:Drivers/CMSIS/Include/core_cm4.h ****   Core Function Interface contains:
1583:Drivers/CMSIS/Include/core_cm4.h ****   - Core NVIC Functions
1584:Drivers/CMSIS/Include/core_cm4.h ****   - Core SysTick Functions
1585:Drivers/CMSIS/Include/core_cm4.h ****   - Core Debug Functions
1586:Drivers/CMSIS/Include/core_cm4.h ****   - Core Register Access Functions
1587:Drivers/CMSIS/Include/core_cm4.h ****  ******************************************************************************/
1588:Drivers/CMSIS/Include/core_cm4.h **** /**
1589:Drivers/CMSIS/Include/core_cm4.h ****   \defgroup CMSIS_Core_FunctionInterface Functions and Instructions Reference
1590:Drivers/CMSIS/Include/core_cm4.h **** */
1591:Drivers/CMSIS/Include/core_cm4.h **** 
1592:Drivers/CMSIS/Include/core_cm4.h **** 
1593:Drivers/CMSIS/Include/core_cm4.h **** 
1594:Drivers/CMSIS/Include/core_cm4.h **** /* ##########################   NVIC functions  #################################### */
1595:Drivers/CMSIS/Include/core_cm4.h **** /**
1596:Drivers/CMSIS/Include/core_cm4.h ****   \ingroup  CMSIS_Core_FunctionInterface
1597:Drivers/CMSIS/Include/core_cm4.h ****   \defgroup CMSIS_Core_NVICFunctions NVIC Functions
1598:Drivers/CMSIS/Include/core_cm4.h ****   \brief    Functions that manage interrupts and exceptions via the NVIC.
1599:Drivers/CMSIS/Include/core_cm4.h ****   @{
1600:Drivers/CMSIS/Include/core_cm4.h ****  */
1601:Drivers/CMSIS/Include/core_cm4.h **** 
1602:Drivers/CMSIS/Include/core_cm4.h **** #ifdef CMSIS_NVIC_VIRTUAL
1603:Drivers/CMSIS/Include/core_cm4.h ****   #ifndef CMSIS_NVIC_VIRTUAL_HEADER_FILE
1604:Drivers/CMSIS/Include/core_cm4.h ****     #define CMSIS_NVIC_VIRTUAL_HEADER_FILE "cmsis_nvic_virtual.h"
1605:Drivers/CMSIS/Include/core_cm4.h ****   #endif
1606:Drivers/CMSIS/Include/core_cm4.h ****   #include CMSIS_NVIC_VIRTUAL_HEADER_FILE
1607:Drivers/CMSIS/Include/core_cm4.h **** #else
1608:Drivers/CMSIS/Include/core_cm4.h ****   #define NVIC_SetPriorityGrouping    __NVIC_SetPriorityGrouping
1609:Drivers/CMSIS/Include/core_cm4.h ****   #define NVIC_GetPriorityGrouping    __NVIC_GetPriorityGrouping
1610:Drivers/CMSIS/Include/core_cm4.h ****   #define NVIC_EnableIRQ              __NVIC_EnableIRQ
1611:Drivers/CMSIS/Include/core_cm4.h ****   #define NVIC_GetEnableIRQ           __NVIC_GetEnableIRQ
1612:Drivers/CMSIS/Include/core_cm4.h ****   #define NVIC_DisableIRQ             __NVIC_DisableIRQ
1613:Drivers/CMSIS/Include/core_cm4.h ****   #define NVIC_GetPendingIRQ          __NVIC_GetPendingIRQ
1614:Drivers/CMSIS/Include/core_cm4.h ****   #define NVIC_SetPendingIRQ          __NVIC_SetPendingIRQ
ARM GAS  C:\Users\krisa\AppData\Local\Temp\ccNljk5K.s 			page 141


1615:Drivers/CMSIS/Include/core_cm4.h ****   #define NVIC_ClearPendingIRQ        __NVIC_ClearPendingIRQ
1616:Drivers/CMSIS/Include/core_cm4.h ****   #define NVIC_GetActive              __NVIC_GetActive
1617:Drivers/CMSIS/Include/core_cm4.h ****   #define NVIC_SetPriority            __NVIC_SetPriority
1618:Drivers/CMSIS/Include/core_cm4.h ****   #define NVIC_GetPriority            __NVIC_GetPriority
1619:Drivers/CMSIS/Include/core_cm4.h ****   #define NVIC_SystemReset            __NVIC_SystemReset
1620:Drivers/CMSIS/Include/core_cm4.h **** #endif /* CMSIS_NVIC_VIRTUAL */
1621:Drivers/CMSIS/Include/core_cm4.h **** 
1622:Drivers/CMSIS/Include/core_cm4.h **** #ifdef CMSIS_VECTAB_VIRTUAL
1623:Drivers/CMSIS/Include/core_cm4.h ****   #ifndef CMSIS_VECTAB_VIRTUAL_HEADER_FILE
1624:Drivers/CMSIS/Include/core_cm4.h ****     #define CMSIS_VECTAB_VIRTUAL_HEADER_FILE "cmsis_vectab_virtual.h"
1625:Drivers/CMSIS/Include/core_cm4.h ****   #endif
1626:Drivers/CMSIS/Include/core_cm4.h ****   #include CMSIS_VECTAB_VIRTUAL_HEADER_FILE
1627:Drivers/CMSIS/Include/core_cm4.h **** #else
1628:Drivers/CMSIS/Include/core_cm4.h ****   #define NVIC_SetVector              __NVIC_SetVector
1629:Drivers/CMSIS/Include/core_cm4.h ****   #define NVIC_GetVector              __NVIC_GetVector
1630:Drivers/CMSIS/Include/core_cm4.h **** #endif  /* (CMSIS_VECTAB_VIRTUAL) */
1631:Drivers/CMSIS/Include/core_cm4.h **** 
1632:Drivers/CMSIS/Include/core_cm4.h **** #define NVIC_USER_IRQ_OFFSET          16
1633:Drivers/CMSIS/Include/core_cm4.h **** 
1634:Drivers/CMSIS/Include/core_cm4.h **** 
1635:Drivers/CMSIS/Include/core_cm4.h **** /* The following EXC_RETURN values are saved the LR on exception entry */
1636:Drivers/CMSIS/Include/core_cm4.h **** #define EXC_RETURN_HANDLER         (0xFFFFFFF1UL)     /* return to Handler mode, uses MSP after ret
1637:Drivers/CMSIS/Include/core_cm4.h **** #define EXC_RETURN_THREAD_MSP      (0xFFFFFFF9UL)     /* return to Thread mode, uses MSP after retu
1638:Drivers/CMSIS/Include/core_cm4.h **** #define EXC_RETURN_THREAD_PSP      (0xFFFFFFFDUL)     /* return to Thread mode, uses PSP after retu
1639:Drivers/CMSIS/Include/core_cm4.h **** #define EXC_RETURN_HANDLER_FPU     (0xFFFFFFE1UL)     /* return to Handler mode, uses MSP after ret
1640:Drivers/CMSIS/Include/core_cm4.h **** #define EXC_RETURN_THREAD_MSP_FPU  (0xFFFFFFE9UL)     /* return to Thread mode, uses MSP after retu
1641:Drivers/CMSIS/Include/core_cm4.h **** #define EXC_RETURN_THREAD_PSP_FPU  (0xFFFFFFEDUL)     /* return to Thread mode, uses PSP after retu
1642:Drivers/CMSIS/Include/core_cm4.h **** 
1643:Drivers/CMSIS/Include/core_cm4.h **** 
1644:Drivers/CMSIS/Include/core_cm4.h **** /**
1645:Drivers/CMSIS/Include/core_cm4.h ****   \brief   Set Priority Grouping
1646:Drivers/CMSIS/Include/core_cm4.h ****   \details Sets the priority grouping field using the required unlock sequence.
1647:Drivers/CMSIS/Include/core_cm4.h ****            The parameter PriorityGroup is assigned to the field SCB->AIRCR [10:8] PRIGROUP field.
1648:Drivers/CMSIS/Include/core_cm4.h ****            Only values from 0..7 are used.
1649:Drivers/CMSIS/Include/core_cm4.h ****            In case of a conflict between priority grouping and available
1650:Drivers/CMSIS/Include/core_cm4.h ****            priority bits (__NVIC_PRIO_BITS), the smallest possible priority group is set.
1651:Drivers/CMSIS/Include/core_cm4.h ****   \param [in]      PriorityGroup  Priority grouping field.
1652:Drivers/CMSIS/Include/core_cm4.h ****  */
1653:Drivers/CMSIS/Include/core_cm4.h **** __STATIC_INLINE void __NVIC_SetPriorityGrouping(uint32_t PriorityGroup)
1654:Drivers/CMSIS/Include/core_cm4.h **** {
1655:Drivers/CMSIS/Include/core_cm4.h ****   uint32_t reg_value;
1656:Drivers/CMSIS/Include/core_cm4.h ****   uint32_t PriorityGroupTmp = (PriorityGroup & (uint32_t)0x07UL);             /* only values 0..7 a
1657:Drivers/CMSIS/Include/core_cm4.h **** 
1658:Drivers/CMSIS/Include/core_cm4.h ****   reg_value  =  SCB->AIRCR;                                                   /* read old register 
1659:Drivers/CMSIS/Include/core_cm4.h ****   reg_value &= ~((uint32_t)(SCB_AIRCR_VECTKEY_Msk | SCB_AIRCR_PRIGROUP_Msk)); /* clear bits to chan
1660:Drivers/CMSIS/Include/core_cm4.h ****   reg_value  =  (reg_value                                   |
1661:Drivers/CMSIS/Include/core_cm4.h ****                 ((uint32_t)0x5FAUL << SCB_AIRCR_VECTKEY_Pos) |
1662:Drivers/CMSIS/Include/core_cm4.h ****                 (PriorityGroupTmp << SCB_AIRCR_PRIGROUP_Pos)  );              /* Insert write key a
1663:Drivers/CMSIS/Include/core_cm4.h ****   SCB->AIRCR =  reg_value;
1664:Drivers/CMSIS/Include/core_cm4.h **** }
1665:Drivers/CMSIS/Include/core_cm4.h **** 
1666:Drivers/CMSIS/Include/core_cm4.h **** 
1667:Drivers/CMSIS/Include/core_cm4.h **** /**
1668:Drivers/CMSIS/Include/core_cm4.h ****   \brief   Get Priority Grouping
1669:Drivers/CMSIS/Include/core_cm4.h ****   \details Reads the priority grouping field from the NVIC Interrupt Controller.
1670:Drivers/CMSIS/Include/core_cm4.h ****   \return                Priority grouping field (SCB->AIRCR [10:8] PRIGROUP field).
1671:Drivers/CMSIS/Include/core_cm4.h ****  */
ARM GAS  C:\Users\krisa\AppData\Local\Temp\ccNljk5K.s 			page 142


1672:Drivers/CMSIS/Include/core_cm4.h **** __STATIC_INLINE uint32_t __NVIC_GetPriorityGrouping(void)
1673:Drivers/CMSIS/Include/core_cm4.h **** {
1674:Drivers/CMSIS/Include/core_cm4.h ****   return ((uint32_t)((SCB->AIRCR & SCB_AIRCR_PRIGROUP_Msk) >> SCB_AIRCR_PRIGROUP_Pos));
1675:Drivers/CMSIS/Include/core_cm4.h **** }
1676:Drivers/CMSIS/Include/core_cm4.h **** 
1677:Drivers/CMSIS/Include/core_cm4.h **** 
1678:Drivers/CMSIS/Include/core_cm4.h **** /**
1679:Drivers/CMSIS/Include/core_cm4.h ****   \brief   Enable Interrupt
1680:Drivers/CMSIS/Include/core_cm4.h ****   \details Enables a device specific interrupt in the NVIC interrupt controller.
1681:Drivers/CMSIS/Include/core_cm4.h ****   \param [in]      IRQn  Device specific interrupt number.
1682:Drivers/CMSIS/Include/core_cm4.h ****   \note    IRQn must not be negative.
1683:Drivers/CMSIS/Include/core_cm4.h ****  */
1684:Drivers/CMSIS/Include/core_cm4.h **** __STATIC_INLINE void __NVIC_EnableIRQ(IRQn_Type IRQn)
 3234              		.loc 7 1684 22 view .LVU1073
 3235              	.LBB361:
1685:Drivers/CMSIS/Include/core_cm4.h **** {
1686:Drivers/CMSIS/Include/core_cm4.h ****   if ((int32_t)(IRQn) >= 0)
 3236              		.loc 7 1686 3 view .LVU1074
 3237              		.loc 7 1686 6 is_stmt 0 view .LVU1075
 3238 000a 002B     		cmp	r3, #0
 3239 000c 07DB     		blt	.L198
1687:Drivers/CMSIS/Include/core_cm4.h ****   {
1688:Drivers/CMSIS/Include/core_cm4.h ****     __COMPILER_BARRIER();
 3240              		.loc 7 1688 5 is_stmt 1 view .LVU1076
1689:Drivers/CMSIS/Include/core_cm4.h ****     NVIC->ISER[(((uint32_t)IRQn) >> 5UL)] = (uint32_t)(1UL << (((uint32_t)IRQn) & 0x1FUL));
 3241              		.loc 7 1689 5 view .LVU1077
 3242              		.loc 7 1689 81 is_stmt 0 view .LVU1078
 3243 000e 03F01F01 		and	r1, r3, #31
 3244              		.loc 7 1689 34 view .LVU1079
 3245 0012 5B09     		lsrs	r3, r3, #5
 3246              	.LVL332:
 3247              		.loc 7 1689 45 view .LVU1080
 3248 0014 0122     		movs	r2, #1
 3249 0016 8A40     		lsls	r2, r2, r1
 3250              		.loc 7 1689 43 view .LVU1081
 3251 0018 0249     		ldr	r1, .L200+4
 3252 001a 41F82320 		str	r2, [r1, r3, lsl #2]
1690:Drivers/CMSIS/Include/core_cm4.h ****     __COMPILER_BARRIER();
 3253              		.loc 7 1690 5 is_stmt 1 view .LVU1082
 3254              	.LVL333:
 3255              	.L198:
 3256              		.loc 7 1690 5 is_stmt 0 view .LVU1083
 3257              	.LBE361:
 3258              	.LBE360:
 3259              	.LBE359:
 3260              	.LBE358:
 521:lib/TinyUSB/src/portable/synopsys/dwc2/dcd_dwc2.c **** 
 3261              		.loc 1 521 1 view .LVU1084
 3262 001e 7047     		bx	lr
 3263              	.L201:
 3264              		.align	2
 3265              	.L200:
 3266 0020 00000000 		.word	.LANCHOR0
 3267 0024 00E100E0 		.word	-536813312
 3268              		.cfi_endproc
 3269              	.LFE354:
 3271              		.section	.text.dcd_int_disable,"ax",%progbits
ARM GAS  C:\Users\krisa\AppData\Local\Temp\ccNljk5K.s 			page 143


 3272              		.align	1
 3273              		.global	dcd_int_disable
 3274              		.syntax unified
 3275              		.thumb
 3276              		.thumb_func
 3278              	dcd_int_disable:
 3279              	.LVL334:
 3280              	.LFB355:
 523:lib/TinyUSB/src/portable/synopsys/dwc2/dcd_dwc2.c ****   dwc2_dcd_int_disable(rhport);
 3281              		.loc 1 523 38 is_stmt 1 view -0
 3282              		.cfi_startproc
 3283              		@ args = 0, pretend = 0, frame = 0
 3284              		@ frame_needed = 0, uses_anonymous_args = 0
 3285              		@ link register save eliminated.
 524:lib/TinyUSB/src/portable/synopsys/dwc2/dcd_dwc2.c **** }
 3286              		.loc 1 524 3 view .LVU1086
 3287              	.LBB370:
 3288              	.LBI370:
 162:lib/TinyUSB/src/portable/synopsys/dwc2/dwc2_stm32.h ****   (void) role;
 3289              		.loc 6 162 42 view .LVU1087
 3290              	.LBB371:
 163:lib/TinyUSB/src/portable/synopsys/dwc2/dwc2_stm32.h ****   const IRQn_Type irqn = (IRQn_Type) _dwc2_controller[rhport].irqnum;
 3291              		.loc 6 163 3 view .LVU1088
 164:lib/TinyUSB/src/portable/synopsys/dwc2/dwc2_stm32.h ****   if (enabled) {
 3292              		.loc 6 164 3 view .LVU1089
 164:lib/TinyUSB/src/portable/synopsys/dwc2/dwc2_stm32.h ****   if (enabled) {
 3293              		.loc 6 164 62 is_stmt 0 view .LVU1090
 3294 0000 0A4B     		ldr	r3, .L204
 3295 0002 03EB0013 		add	r3, r3, r0, lsl #4
 164:lib/TinyUSB/src/portable/synopsys/dwc2/dwc2_stm32.h ****   if (enabled) {
 3296              		.loc 6 164 19 view .LVU1091
 3297 0006 93F90430 		ldrsb	r3, [r3, #4]
 3298              	.LVL335:
 165:lib/TinyUSB/src/portable/synopsys/dwc2/dwc2_stm32.h ****     NVIC_EnableIRQ(irqn);
 3299              		.loc 6 165 3 is_stmt 1 view .LVU1092
 167:lib/TinyUSB/src/portable/synopsys/dwc2/dwc2_stm32.h ****   } else {
 168:lib/TinyUSB/src/portable/synopsys/dwc2/dwc2_stm32.h ****     NVIC_DisableIRQ(irqn);
 3300              		.loc 6 168 5 view .LVU1093
 3301              	.LBB372:
 3302              	.LBI372:
1691:Drivers/CMSIS/Include/core_cm4.h ****   }
1692:Drivers/CMSIS/Include/core_cm4.h **** }
1693:Drivers/CMSIS/Include/core_cm4.h **** 
1694:Drivers/CMSIS/Include/core_cm4.h **** 
1695:Drivers/CMSIS/Include/core_cm4.h **** /**
1696:Drivers/CMSIS/Include/core_cm4.h ****   \brief   Get Interrupt Enable status
1697:Drivers/CMSIS/Include/core_cm4.h ****   \details Returns a device specific interrupt enable status from the NVIC interrupt controller.
1698:Drivers/CMSIS/Include/core_cm4.h ****   \param [in]      IRQn  Device specific interrupt number.
1699:Drivers/CMSIS/Include/core_cm4.h ****   \return             0  Interrupt is not enabled.
1700:Drivers/CMSIS/Include/core_cm4.h ****   \return             1  Interrupt is enabled.
1701:Drivers/CMSIS/Include/core_cm4.h ****   \note    IRQn must not be negative.
1702:Drivers/CMSIS/Include/core_cm4.h ****  */
1703:Drivers/CMSIS/Include/core_cm4.h **** __STATIC_INLINE uint32_t __NVIC_GetEnableIRQ(IRQn_Type IRQn)
1704:Drivers/CMSIS/Include/core_cm4.h **** {
1705:Drivers/CMSIS/Include/core_cm4.h ****   if ((int32_t)(IRQn) >= 0)
1706:Drivers/CMSIS/Include/core_cm4.h ****   {
1707:Drivers/CMSIS/Include/core_cm4.h ****     return((uint32_t)(((NVIC->ISER[(((uint32_t)IRQn) >> 5UL)] & (1UL << (((uint32_t)IRQn) & 0x1FUL)
ARM GAS  C:\Users\krisa\AppData\Local\Temp\ccNljk5K.s 			page 144


1708:Drivers/CMSIS/Include/core_cm4.h ****   }
1709:Drivers/CMSIS/Include/core_cm4.h ****   else
1710:Drivers/CMSIS/Include/core_cm4.h ****   {
1711:Drivers/CMSIS/Include/core_cm4.h ****     return(0U);
1712:Drivers/CMSIS/Include/core_cm4.h ****   }
1713:Drivers/CMSIS/Include/core_cm4.h **** }
1714:Drivers/CMSIS/Include/core_cm4.h **** 
1715:Drivers/CMSIS/Include/core_cm4.h **** 
1716:Drivers/CMSIS/Include/core_cm4.h **** /**
1717:Drivers/CMSIS/Include/core_cm4.h ****   \brief   Disable Interrupt
1718:Drivers/CMSIS/Include/core_cm4.h ****   \details Disables a device specific interrupt in the NVIC interrupt controller.
1719:Drivers/CMSIS/Include/core_cm4.h ****   \param [in]      IRQn  Device specific interrupt number.
1720:Drivers/CMSIS/Include/core_cm4.h ****   \note    IRQn must not be negative.
1721:Drivers/CMSIS/Include/core_cm4.h ****  */
1722:Drivers/CMSIS/Include/core_cm4.h **** __STATIC_INLINE void __NVIC_DisableIRQ(IRQn_Type IRQn)
 3303              		.loc 7 1722 22 view .LVU1094
 3304              	.LBB373:
1723:Drivers/CMSIS/Include/core_cm4.h **** {
1724:Drivers/CMSIS/Include/core_cm4.h ****   if ((int32_t)(IRQn) >= 0)
 3305              		.loc 7 1724 3 view .LVU1095
 3306              		.loc 7 1724 6 is_stmt 0 view .LVU1096
 3307 000a 002B     		cmp	r3, #0
 3308 000c 0CDB     		blt	.L202
1725:Drivers/CMSIS/Include/core_cm4.h ****   {
1726:Drivers/CMSIS/Include/core_cm4.h ****     NVIC->ICER[(((uint32_t)IRQn) >> 5UL)] = (uint32_t)(1UL << (((uint32_t)IRQn) & 0x1FUL));
 3309              		.loc 7 1726 5 is_stmt 1 view .LVU1097
 3310              		.loc 7 1726 81 is_stmt 0 view .LVU1098
 3311 000e 03F01F01 		and	r1, r3, #31
 3312              		.loc 7 1726 34 view .LVU1099
 3313 0012 5B09     		lsrs	r3, r3, #5
 3314              	.LVL336:
 3315              		.loc 7 1726 45 view .LVU1100
 3316 0014 0122     		movs	r2, #1
 3317 0016 8A40     		lsls	r2, r2, r1
 3318              		.loc 7 1726 43 view .LVU1101
 3319 0018 2033     		adds	r3, r3, #32
 3320 001a 0549     		ldr	r1, .L204+4
 3321 001c 41F82320 		str	r2, [r1, r3, lsl #2]
1727:Drivers/CMSIS/Include/core_cm4.h ****     __DSB();
 3322              		.loc 7 1727 5 is_stmt 1 view .LVU1102
 3323              	.LBB374:
 3324              	.LBI374:
 3325              		.file 8 "Drivers/CMSIS/Include/cmsis_gcc.h"
   1:Drivers/CMSIS/Include/cmsis_gcc.h **** /**************************************************************************//**
   2:Drivers/CMSIS/Include/cmsis_gcc.h ****  * @file     cmsis_gcc.h
   3:Drivers/CMSIS/Include/cmsis_gcc.h ****  * @brief    CMSIS compiler GCC header file
   4:Drivers/CMSIS/Include/cmsis_gcc.h ****  * @version  V5.4.1
   5:Drivers/CMSIS/Include/cmsis_gcc.h ****  * @date     27. May 2021
   6:Drivers/CMSIS/Include/cmsis_gcc.h ****  ******************************************************************************/
   7:Drivers/CMSIS/Include/cmsis_gcc.h **** /*
   8:Drivers/CMSIS/Include/cmsis_gcc.h ****  * Copyright (c) 2009-2021 Arm Limited. All rights reserved.
   9:Drivers/CMSIS/Include/cmsis_gcc.h ****  *
  10:Drivers/CMSIS/Include/cmsis_gcc.h ****  * SPDX-License-Identifier: Apache-2.0
  11:Drivers/CMSIS/Include/cmsis_gcc.h ****  *
  12:Drivers/CMSIS/Include/cmsis_gcc.h ****  * Licensed under the Apache License, Version 2.0 (the License); you may
  13:Drivers/CMSIS/Include/cmsis_gcc.h ****  * not use this file except in compliance with the License.
  14:Drivers/CMSIS/Include/cmsis_gcc.h ****  * You may obtain a copy of the License at
ARM GAS  C:\Users\krisa\AppData\Local\Temp\ccNljk5K.s 			page 145


  15:Drivers/CMSIS/Include/cmsis_gcc.h ****  *
  16:Drivers/CMSIS/Include/cmsis_gcc.h ****  * www.apache.org/licenses/LICENSE-2.0
  17:Drivers/CMSIS/Include/cmsis_gcc.h ****  *
  18:Drivers/CMSIS/Include/cmsis_gcc.h ****  * Unless required by applicable law or agreed to in writing, software
  19:Drivers/CMSIS/Include/cmsis_gcc.h ****  * distributed under the License is distributed on an AS IS BASIS, WITHOUT
  20:Drivers/CMSIS/Include/cmsis_gcc.h ****  * WARRANTIES OR CONDITIONS OF ANY KIND, either express or implied.
  21:Drivers/CMSIS/Include/cmsis_gcc.h ****  * See the License for the specific language governing permissions and
  22:Drivers/CMSIS/Include/cmsis_gcc.h ****  * limitations under the License.
  23:Drivers/CMSIS/Include/cmsis_gcc.h ****  */
  24:Drivers/CMSIS/Include/cmsis_gcc.h **** 
  25:Drivers/CMSIS/Include/cmsis_gcc.h **** #ifndef __CMSIS_GCC_H
  26:Drivers/CMSIS/Include/cmsis_gcc.h **** #define __CMSIS_GCC_H
  27:Drivers/CMSIS/Include/cmsis_gcc.h **** 
  28:Drivers/CMSIS/Include/cmsis_gcc.h **** /* ignore some GCC warnings */
  29:Drivers/CMSIS/Include/cmsis_gcc.h **** #pragma GCC diagnostic push
  30:Drivers/CMSIS/Include/cmsis_gcc.h **** #pragma GCC diagnostic ignored "-Wsign-conversion"
  31:Drivers/CMSIS/Include/cmsis_gcc.h **** #pragma GCC diagnostic ignored "-Wconversion"
  32:Drivers/CMSIS/Include/cmsis_gcc.h **** #pragma GCC diagnostic ignored "-Wunused-parameter"
  33:Drivers/CMSIS/Include/cmsis_gcc.h **** 
  34:Drivers/CMSIS/Include/cmsis_gcc.h **** /* Fallback for __has_builtin */
  35:Drivers/CMSIS/Include/cmsis_gcc.h **** #ifndef __has_builtin
  36:Drivers/CMSIS/Include/cmsis_gcc.h ****   #define __has_builtin(x) (0)
  37:Drivers/CMSIS/Include/cmsis_gcc.h **** #endif
  38:Drivers/CMSIS/Include/cmsis_gcc.h **** 
  39:Drivers/CMSIS/Include/cmsis_gcc.h **** /* CMSIS compiler specific defines */
  40:Drivers/CMSIS/Include/cmsis_gcc.h **** #ifndef   __ASM
  41:Drivers/CMSIS/Include/cmsis_gcc.h ****   #define __ASM                                  __asm
  42:Drivers/CMSIS/Include/cmsis_gcc.h **** #endif
  43:Drivers/CMSIS/Include/cmsis_gcc.h **** #ifndef   __INLINE
  44:Drivers/CMSIS/Include/cmsis_gcc.h ****   #define __INLINE                               inline
  45:Drivers/CMSIS/Include/cmsis_gcc.h **** #endif
  46:Drivers/CMSIS/Include/cmsis_gcc.h **** #ifndef   __STATIC_INLINE
  47:Drivers/CMSIS/Include/cmsis_gcc.h ****   #define __STATIC_INLINE                        static inline
  48:Drivers/CMSIS/Include/cmsis_gcc.h **** #endif
  49:Drivers/CMSIS/Include/cmsis_gcc.h **** #ifndef   __STATIC_FORCEINLINE
  50:Drivers/CMSIS/Include/cmsis_gcc.h ****   #define __STATIC_FORCEINLINE                   __attribute__((always_inline)) static inline
  51:Drivers/CMSIS/Include/cmsis_gcc.h **** #endif
  52:Drivers/CMSIS/Include/cmsis_gcc.h **** #ifndef   __NO_RETURN
  53:Drivers/CMSIS/Include/cmsis_gcc.h ****   #define __NO_RETURN                            __attribute__((__noreturn__))
  54:Drivers/CMSIS/Include/cmsis_gcc.h **** #endif
  55:Drivers/CMSIS/Include/cmsis_gcc.h **** #ifndef   __USED
  56:Drivers/CMSIS/Include/cmsis_gcc.h ****   #define __USED                                 __attribute__((used))
  57:Drivers/CMSIS/Include/cmsis_gcc.h **** #endif
  58:Drivers/CMSIS/Include/cmsis_gcc.h **** #ifndef   __WEAK
  59:Drivers/CMSIS/Include/cmsis_gcc.h ****   #define __WEAK                                 __attribute__((weak))
  60:Drivers/CMSIS/Include/cmsis_gcc.h **** #endif
  61:Drivers/CMSIS/Include/cmsis_gcc.h **** #ifndef   __PACKED
  62:Drivers/CMSIS/Include/cmsis_gcc.h ****   #define __PACKED                               __attribute__((packed, aligned(1)))
  63:Drivers/CMSIS/Include/cmsis_gcc.h **** #endif
  64:Drivers/CMSIS/Include/cmsis_gcc.h **** #ifndef   __PACKED_STRUCT
  65:Drivers/CMSIS/Include/cmsis_gcc.h ****   #define __PACKED_STRUCT                        struct __attribute__((packed, aligned(1)))
  66:Drivers/CMSIS/Include/cmsis_gcc.h **** #endif
  67:Drivers/CMSIS/Include/cmsis_gcc.h **** #ifndef   __PACKED_UNION
  68:Drivers/CMSIS/Include/cmsis_gcc.h ****   #define __PACKED_UNION                         union __attribute__((packed, aligned(1)))
  69:Drivers/CMSIS/Include/cmsis_gcc.h **** #endif
  70:Drivers/CMSIS/Include/cmsis_gcc.h **** #ifndef   __UNALIGNED_UINT32        /* deprecated */
  71:Drivers/CMSIS/Include/cmsis_gcc.h ****   #pragma GCC diagnostic push
ARM GAS  C:\Users\krisa\AppData\Local\Temp\ccNljk5K.s 			page 146


  72:Drivers/CMSIS/Include/cmsis_gcc.h ****   #pragma GCC diagnostic ignored "-Wpacked"
  73:Drivers/CMSIS/Include/cmsis_gcc.h ****   #pragma GCC diagnostic ignored "-Wattributes"
  74:Drivers/CMSIS/Include/cmsis_gcc.h ****   struct __attribute__((packed)) T_UINT32 { uint32_t v; };
  75:Drivers/CMSIS/Include/cmsis_gcc.h ****   #pragma GCC diagnostic pop
  76:Drivers/CMSIS/Include/cmsis_gcc.h ****   #define __UNALIGNED_UINT32(x)                  (((struct T_UINT32 *)(x))->v)
  77:Drivers/CMSIS/Include/cmsis_gcc.h **** #endif
  78:Drivers/CMSIS/Include/cmsis_gcc.h **** #ifndef   __UNALIGNED_UINT16_WRITE
  79:Drivers/CMSIS/Include/cmsis_gcc.h ****   #pragma GCC diagnostic push
  80:Drivers/CMSIS/Include/cmsis_gcc.h ****   #pragma GCC diagnostic ignored "-Wpacked"
  81:Drivers/CMSIS/Include/cmsis_gcc.h ****   #pragma GCC diagnostic ignored "-Wattributes"
  82:Drivers/CMSIS/Include/cmsis_gcc.h ****   __PACKED_STRUCT T_UINT16_WRITE { uint16_t v; };
  83:Drivers/CMSIS/Include/cmsis_gcc.h ****   #pragma GCC diagnostic pop
  84:Drivers/CMSIS/Include/cmsis_gcc.h ****   #define __UNALIGNED_UINT16_WRITE(addr, val)    (void)((((struct T_UINT16_WRITE *)(void *)(addr))-
  85:Drivers/CMSIS/Include/cmsis_gcc.h **** #endif
  86:Drivers/CMSIS/Include/cmsis_gcc.h **** #ifndef   __UNALIGNED_UINT16_READ
  87:Drivers/CMSIS/Include/cmsis_gcc.h ****   #pragma GCC diagnostic push
  88:Drivers/CMSIS/Include/cmsis_gcc.h ****   #pragma GCC diagnostic ignored "-Wpacked"
  89:Drivers/CMSIS/Include/cmsis_gcc.h ****   #pragma GCC diagnostic ignored "-Wattributes"
  90:Drivers/CMSIS/Include/cmsis_gcc.h ****   __PACKED_STRUCT T_UINT16_READ { uint16_t v; };
  91:Drivers/CMSIS/Include/cmsis_gcc.h ****   #pragma GCC diagnostic pop
  92:Drivers/CMSIS/Include/cmsis_gcc.h ****   #define __UNALIGNED_UINT16_READ(addr)          (((const struct T_UINT16_READ *)(const void *)(add
  93:Drivers/CMSIS/Include/cmsis_gcc.h **** #endif
  94:Drivers/CMSIS/Include/cmsis_gcc.h **** #ifndef   __UNALIGNED_UINT32_WRITE
  95:Drivers/CMSIS/Include/cmsis_gcc.h ****   #pragma GCC diagnostic push
  96:Drivers/CMSIS/Include/cmsis_gcc.h ****   #pragma GCC diagnostic ignored "-Wpacked"
  97:Drivers/CMSIS/Include/cmsis_gcc.h ****   #pragma GCC diagnostic ignored "-Wattributes"
  98:Drivers/CMSIS/Include/cmsis_gcc.h ****   __PACKED_STRUCT T_UINT32_WRITE { uint32_t v; };
  99:Drivers/CMSIS/Include/cmsis_gcc.h ****   #pragma GCC diagnostic pop
 100:Drivers/CMSIS/Include/cmsis_gcc.h ****   #define __UNALIGNED_UINT32_WRITE(addr, val)    (void)((((struct T_UINT32_WRITE *)(void *)(addr))-
 101:Drivers/CMSIS/Include/cmsis_gcc.h **** #endif
 102:Drivers/CMSIS/Include/cmsis_gcc.h **** #ifndef   __UNALIGNED_UINT32_READ
 103:Drivers/CMSIS/Include/cmsis_gcc.h ****   #pragma GCC diagnostic push
 104:Drivers/CMSIS/Include/cmsis_gcc.h ****   #pragma GCC diagnostic ignored "-Wpacked"
 105:Drivers/CMSIS/Include/cmsis_gcc.h ****   #pragma GCC diagnostic ignored "-Wattributes"
 106:Drivers/CMSIS/Include/cmsis_gcc.h ****   __PACKED_STRUCT T_UINT32_READ { uint32_t v; };
 107:Drivers/CMSIS/Include/cmsis_gcc.h ****   #pragma GCC diagnostic pop
 108:Drivers/CMSIS/Include/cmsis_gcc.h ****   #define __UNALIGNED_UINT32_READ(addr)          (((const struct T_UINT32_READ *)(const void *)(add
 109:Drivers/CMSIS/Include/cmsis_gcc.h **** #endif
 110:Drivers/CMSIS/Include/cmsis_gcc.h **** #ifndef   __ALIGNED
 111:Drivers/CMSIS/Include/cmsis_gcc.h ****   #define __ALIGNED(x)                           __attribute__((aligned(x)))
 112:Drivers/CMSIS/Include/cmsis_gcc.h **** #endif
 113:Drivers/CMSIS/Include/cmsis_gcc.h **** #ifndef   __RESTRICT
 114:Drivers/CMSIS/Include/cmsis_gcc.h ****   #define __RESTRICT                             __restrict
 115:Drivers/CMSIS/Include/cmsis_gcc.h **** #endif
 116:Drivers/CMSIS/Include/cmsis_gcc.h **** #ifndef   __COMPILER_BARRIER
 117:Drivers/CMSIS/Include/cmsis_gcc.h ****   #define __COMPILER_BARRIER()                   __ASM volatile("":::"memory")
 118:Drivers/CMSIS/Include/cmsis_gcc.h **** #endif
 119:Drivers/CMSIS/Include/cmsis_gcc.h **** 
 120:Drivers/CMSIS/Include/cmsis_gcc.h **** /* #########################  Startup and Lowlevel Init  ######################## */
 121:Drivers/CMSIS/Include/cmsis_gcc.h **** 
 122:Drivers/CMSIS/Include/cmsis_gcc.h **** #ifndef __PROGRAM_START
 123:Drivers/CMSIS/Include/cmsis_gcc.h **** 
 124:Drivers/CMSIS/Include/cmsis_gcc.h **** /**
 125:Drivers/CMSIS/Include/cmsis_gcc.h ****   \brief   Initializes data and bss sections
 126:Drivers/CMSIS/Include/cmsis_gcc.h ****   \details This default implementations initialized all data and additional bss
 127:Drivers/CMSIS/Include/cmsis_gcc.h ****            sections relying on .copy.table and .zero.table specified properly
 128:Drivers/CMSIS/Include/cmsis_gcc.h ****            in the used linker script.
ARM GAS  C:\Users\krisa\AppData\Local\Temp\ccNljk5K.s 			page 147


 129:Drivers/CMSIS/Include/cmsis_gcc.h **** 
 130:Drivers/CMSIS/Include/cmsis_gcc.h ****  */
 131:Drivers/CMSIS/Include/cmsis_gcc.h **** __STATIC_FORCEINLINE __NO_RETURN void __cmsis_start(void)
 132:Drivers/CMSIS/Include/cmsis_gcc.h **** {
 133:Drivers/CMSIS/Include/cmsis_gcc.h ****   extern void _start(void) __NO_RETURN;
 134:Drivers/CMSIS/Include/cmsis_gcc.h **** 
 135:Drivers/CMSIS/Include/cmsis_gcc.h ****   typedef struct {
 136:Drivers/CMSIS/Include/cmsis_gcc.h ****     uint32_t const* src;
 137:Drivers/CMSIS/Include/cmsis_gcc.h ****     uint32_t* dest;
 138:Drivers/CMSIS/Include/cmsis_gcc.h ****     uint32_t  wlen;
 139:Drivers/CMSIS/Include/cmsis_gcc.h ****   } __copy_table_t;
 140:Drivers/CMSIS/Include/cmsis_gcc.h **** 
 141:Drivers/CMSIS/Include/cmsis_gcc.h ****   typedef struct {
 142:Drivers/CMSIS/Include/cmsis_gcc.h ****     uint32_t* dest;
 143:Drivers/CMSIS/Include/cmsis_gcc.h ****     uint32_t  wlen;
 144:Drivers/CMSIS/Include/cmsis_gcc.h ****   } __zero_table_t;
 145:Drivers/CMSIS/Include/cmsis_gcc.h **** 
 146:Drivers/CMSIS/Include/cmsis_gcc.h ****   extern const __copy_table_t __copy_table_start__;
 147:Drivers/CMSIS/Include/cmsis_gcc.h ****   extern const __copy_table_t __copy_table_end__;
 148:Drivers/CMSIS/Include/cmsis_gcc.h ****   extern const __zero_table_t __zero_table_start__;
 149:Drivers/CMSIS/Include/cmsis_gcc.h ****   extern const __zero_table_t __zero_table_end__;
 150:Drivers/CMSIS/Include/cmsis_gcc.h **** 
 151:Drivers/CMSIS/Include/cmsis_gcc.h ****   for (__copy_table_t const* pTable = &__copy_table_start__; pTable < &__copy_table_end__; ++pTable
 152:Drivers/CMSIS/Include/cmsis_gcc.h ****     for(uint32_t i=0u; i<pTable->wlen; ++i) {
 153:Drivers/CMSIS/Include/cmsis_gcc.h ****       pTable->dest[i] = pTable->src[i];
 154:Drivers/CMSIS/Include/cmsis_gcc.h ****     }
 155:Drivers/CMSIS/Include/cmsis_gcc.h ****   }
 156:Drivers/CMSIS/Include/cmsis_gcc.h **** 
 157:Drivers/CMSIS/Include/cmsis_gcc.h ****   for (__zero_table_t const* pTable = &__zero_table_start__; pTable < &__zero_table_end__; ++pTable
 158:Drivers/CMSIS/Include/cmsis_gcc.h ****     for(uint32_t i=0u; i<pTable->wlen; ++i) {
 159:Drivers/CMSIS/Include/cmsis_gcc.h ****       pTable->dest[i] = 0u;
 160:Drivers/CMSIS/Include/cmsis_gcc.h ****     }
 161:Drivers/CMSIS/Include/cmsis_gcc.h ****   }
 162:Drivers/CMSIS/Include/cmsis_gcc.h **** 
 163:Drivers/CMSIS/Include/cmsis_gcc.h ****   _start();
 164:Drivers/CMSIS/Include/cmsis_gcc.h **** }
 165:Drivers/CMSIS/Include/cmsis_gcc.h **** 
 166:Drivers/CMSIS/Include/cmsis_gcc.h **** #define __PROGRAM_START           __cmsis_start
 167:Drivers/CMSIS/Include/cmsis_gcc.h **** #endif
 168:Drivers/CMSIS/Include/cmsis_gcc.h **** 
 169:Drivers/CMSIS/Include/cmsis_gcc.h **** #ifndef __INITIAL_SP
 170:Drivers/CMSIS/Include/cmsis_gcc.h **** #define __INITIAL_SP              __StackTop
 171:Drivers/CMSIS/Include/cmsis_gcc.h **** #endif
 172:Drivers/CMSIS/Include/cmsis_gcc.h **** 
 173:Drivers/CMSIS/Include/cmsis_gcc.h **** #ifndef __STACK_LIMIT
 174:Drivers/CMSIS/Include/cmsis_gcc.h **** #define __STACK_LIMIT             __StackLimit
 175:Drivers/CMSIS/Include/cmsis_gcc.h **** #endif
 176:Drivers/CMSIS/Include/cmsis_gcc.h **** 
 177:Drivers/CMSIS/Include/cmsis_gcc.h **** #ifndef __VECTOR_TABLE
 178:Drivers/CMSIS/Include/cmsis_gcc.h **** #define __VECTOR_TABLE            __Vectors
 179:Drivers/CMSIS/Include/cmsis_gcc.h **** #endif
 180:Drivers/CMSIS/Include/cmsis_gcc.h **** 
 181:Drivers/CMSIS/Include/cmsis_gcc.h **** #ifndef __VECTOR_TABLE_ATTRIBUTE
 182:Drivers/CMSIS/Include/cmsis_gcc.h **** #define __VECTOR_TABLE_ATTRIBUTE  __attribute__((used, section(".vectors")))
 183:Drivers/CMSIS/Include/cmsis_gcc.h **** #endif
 184:Drivers/CMSIS/Include/cmsis_gcc.h **** 
 185:Drivers/CMSIS/Include/cmsis_gcc.h **** #if defined (__ARM_FEATURE_CMSE) && (__ARM_FEATURE_CMSE == 3U)
ARM GAS  C:\Users\krisa\AppData\Local\Temp\ccNljk5K.s 			page 148


 186:Drivers/CMSIS/Include/cmsis_gcc.h **** #ifndef __STACK_SEAL
 187:Drivers/CMSIS/Include/cmsis_gcc.h **** #define __STACK_SEAL              __StackSeal
 188:Drivers/CMSIS/Include/cmsis_gcc.h **** #endif
 189:Drivers/CMSIS/Include/cmsis_gcc.h **** 
 190:Drivers/CMSIS/Include/cmsis_gcc.h **** #ifndef __TZ_STACK_SEAL_SIZE
 191:Drivers/CMSIS/Include/cmsis_gcc.h **** #define __TZ_STACK_SEAL_SIZE      8U
 192:Drivers/CMSIS/Include/cmsis_gcc.h **** #endif
 193:Drivers/CMSIS/Include/cmsis_gcc.h **** 
 194:Drivers/CMSIS/Include/cmsis_gcc.h **** #ifndef __TZ_STACK_SEAL_VALUE
 195:Drivers/CMSIS/Include/cmsis_gcc.h **** #define __TZ_STACK_SEAL_VALUE     0xFEF5EDA5FEF5EDA5ULL
 196:Drivers/CMSIS/Include/cmsis_gcc.h **** #endif
 197:Drivers/CMSIS/Include/cmsis_gcc.h **** 
 198:Drivers/CMSIS/Include/cmsis_gcc.h **** 
 199:Drivers/CMSIS/Include/cmsis_gcc.h **** __STATIC_FORCEINLINE void __TZ_set_STACKSEAL_S (uint32_t* stackTop) {
 200:Drivers/CMSIS/Include/cmsis_gcc.h ****   *((uint64_t *)stackTop) = __TZ_STACK_SEAL_VALUE;
 201:Drivers/CMSIS/Include/cmsis_gcc.h **** }
 202:Drivers/CMSIS/Include/cmsis_gcc.h **** #endif
 203:Drivers/CMSIS/Include/cmsis_gcc.h **** 
 204:Drivers/CMSIS/Include/cmsis_gcc.h **** 
 205:Drivers/CMSIS/Include/cmsis_gcc.h **** /* ##########################  Core Instruction Access  ######################### */
 206:Drivers/CMSIS/Include/cmsis_gcc.h **** /** \defgroup CMSIS_Core_InstructionInterface CMSIS Core Instruction Interface
 207:Drivers/CMSIS/Include/cmsis_gcc.h ****   Access to dedicated instructions
 208:Drivers/CMSIS/Include/cmsis_gcc.h ****   @{
 209:Drivers/CMSIS/Include/cmsis_gcc.h **** */
 210:Drivers/CMSIS/Include/cmsis_gcc.h **** 
 211:Drivers/CMSIS/Include/cmsis_gcc.h **** /* Define macros for porting to both thumb1 and thumb2.
 212:Drivers/CMSIS/Include/cmsis_gcc.h ****  * For thumb1, use low register (r0-r7), specified by constraint "l"
 213:Drivers/CMSIS/Include/cmsis_gcc.h ****  * Otherwise, use general registers, specified by constraint "r" */
 214:Drivers/CMSIS/Include/cmsis_gcc.h **** #if defined (__thumb__) && !defined (__thumb2__)
 215:Drivers/CMSIS/Include/cmsis_gcc.h **** #define __CMSIS_GCC_OUT_REG(r) "=l" (r)
 216:Drivers/CMSIS/Include/cmsis_gcc.h **** #define __CMSIS_GCC_RW_REG(r) "+l" (r)
 217:Drivers/CMSIS/Include/cmsis_gcc.h **** #define __CMSIS_GCC_USE_REG(r) "l" (r)
 218:Drivers/CMSIS/Include/cmsis_gcc.h **** #else
 219:Drivers/CMSIS/Include/cmsis_gcc.h **** #define __CMSIS_GCC_OUT_REG(r) "=r" (r)
 220:Drivers/CMSIS/Include/cmsis_gcc.h **** #define __CMSIS_GCC_RW_REG(r) "+r" (r)
 221:Drivers/CMSIS/Include/cmsis_gcc.h **** #define __CMSIS_GCC_USE_REG(r) "r" (r)
 222:Drivers/CMSIS/Include/cmsis_gcc.h **** #endif
 223:Drivers/CMSIS/Include/cmsis_gcc.h **** 
 224:Drivers/CMSIS/Include/cmsis_gcc.h **** /**
 225:Drivers/CMSIS/Include/cmsis_gcc.h ****   \brief   No Operation
 226:Drivers/CMSIS/Include/cmsis_gcc.h ****   \details No Operation does nothing. This instruction can be used for code alignment purposes.
 227:Drivers/CMSIS/Include/cmsis_gcc.h ****  */
 228:Drivers/CMSIS/Include/cmsis_gcc.h **** #define __NOP()                             __ASM volatile ("nop")
 229:Drivers/CMSIS/Include/cmsis_gcc.h **** 
 230:Drivers/CMSIS/Include/cmsis_gcc.h **** /**
 231:Drivers/CMSIS/Include/cmsis_gcc.h ****   \brief   Wait For Interrupt
 232:Drivers/CMSIS/Include/cmsis_gcc.h ****   \details Wait For Interrupt is a hint instruction that suspends execution until one of a number o
 233:Drivers/CMSIS/Include/cmsis_gcc.h ****  */
 234:Drivers/CMSIS/Include/cmsis_gcc.h **** #define __WFI()                             __ASM volatile ("wfi":::"memory")
 235:Drivers/CMSIS/Include/cmsis_gcc.h **** 
 236:Drivers/CMSIS/Include/cmsis_gcc.h **** 
 237:Drivers/CMSIS/Include/cmsis_gcc.h **** /**
 238:Drivers/CMSIS/Include/cmsis_gcc.h ****   \brief   Wait For Event
 239:Drivers/CMSIS/Include/cmsis_gcc.h ****   \details Wait For Event is a hint instruction that permits the processor to enter
 240:Drivers/CMSIS/Include/cmsis_gcc.h ****            a low-power state until one of a number of events occurs.
 241:Drivers/CMSIS/Include/cmsis_gcc.h ****  */
 242:Drivers/CMSIS/Include/cmsis_gcc.h **** #define __WFE()                             __ASM volatile ("wfe":::"memory")
ARM GAS  C:\Users\krisa\AppData\Local\Temp\ccNljk5K.s 			page 149


 243:Drivers/CMSIS/Include/cmsis_gcc.h **** 
 244:Drivers/CMSIS/Include/cmsis_gcc.h **** 
 245:Drivers/CMSIS/Include/cmsis_gcc.h **** /**
 246:Drivers/CMSIS/Include/cmsis_gcc.h ****   \brief   Send Event
 247:Drivers/CMSIS/Include/cmsis_gcc.h ****   \details Send Event is a hint instruction. It causes an event to be signaled to the CPU.
 248:Drivers/CMSIS/Include/cmsis_gcc.h ****  */
 249:Drivers/CMSIS/Include/cmsis_gcc.h **** #define __SEV()                             __ASM volatile ("sev")
 250:Drivers/CMSIS/Include/cmsis_gcc.h **** 
 251:Drivers/CMSIS/Include/cmsis_gcc.h **** 
 252:Drivers/CMSIS/Include/cmsis_gcc.h **** /**
 253:Drivers/CMSIS/Include/cmsis_gcc.h ****   \brief   Instruction Synchronization Barrier
 254:Drivers/CMSIS/Include/cmsis_gcc.h ****   \details Instruction Synchronization Barrier flushes the pipeline in the processor,
 255:Drivers/CMSIS/Include/cmsis_gcc.h ****            so that all instructions following the ISB are fetched from cache or memory,
 256:Drivers/CMSIS/Include/cmsis_gcc.h ****            after the instruction has been completed.
 257:Drivers/CMSIS/Include/cmsis_gcc.h ****  */
 258:Drivers/CMSIS/Include/cmsis_gcc.h **** __STATIC_FORCEINLINE void __ISB(void)
 259:Drivers/CMSIS/Include/cmsis_gcc.h **** {
 260:Drivers/CMSIS/Include/cmsis_gcc.h ****   __ASM volatile ("isb 0xF":::"memory");
 261:Drivers/CMSIS/Include/cmsis_gcc.h **** }
 262:Drivers/CMSIS/Include/cmsis_gcc.h **** 
 263:Drivers/CMSIS/Include/cmsis_gcc.h **** 
 264:Drivers/CMSIS/Include/cmsis_gcc.h **** /**
 265:Drivers/CMSIS/Include/cmsis_gcc.h ****   \brief   Data Synchronization Barrier
 266:Drivers/CMSIS/Include/cmsis_gcc.h ****   \details Acts as a special kind of Data Memory Barrier.
 267:Drivers/CMSIS/Include/cmsis_gcc.h ****            It completes when all explicit memory accesses before this instruction complete.
 268:Drivers/CMSIS/Include/cmsis_gcc.h ****  */
 269:Drivers/CMSIS/Include/cmsis_gcc.h **** __STATIC_FORCEINLINE void __DSB(void)
 3326              		.loc 8 269 27 view .LVU1103
 3327              	.LBB375:
 270:Drivers/CMSIS/Include/cmsis_gcc.h **** {
 271:Drivers/CMSIS/Include/cmsis_gcc.h ****   __ASM volatile ("dsb 0xF":::"memory");
 3328              		.loc 8 271 3 view .LVU1104
 3329              		.syntax unified
 3330              	@ 271 "Drivers/CMSIS/Include/cmsis_gcc.h" 1
 3331 0020 BFF34F8F 		dsb 0xF
 3332              	@ 0 "" 2
 3333              		.thumb
 3334              		.syntax unified
 3335              	.LBE375:
 3336              	.LBE374:
1728:Drivers/CMSIS/Include/core_cm4.h ****     __ISB();
 3337              		.loc 7 1728 5 view .LVU1105
 3338              	.LBB376:
 3339              	.LBI376:
 258:Drivers/CMSIS/Include/cmsis_gcc.h **** {
 3340              		.loc 8 258 27 view .LVU1106
 3341              	.LBB377:
 260:Drivers/CMSIS/Include/cmsis_gcc.h **** }
 3342              		.loc 8 260 3 view .LVU1107
 3343              		.syntax unified
 3344              	@ 260 "Drivers/CMSIS/Include/cmsis_gcc.h" 1
 3345 0024 BFF36F8F 		isb 0xF
 3346              	@ 0 "" 2
 3347              	.LVL337:
 3348              		.thumb
 3349              		.syntax unified
 3350              	.L202:
ARM GAS  C:\Users\krisa\AppData\Local\Temp\ccNljk5K.s 			page 150


 260:Drivers/CMSIS/Include/cmsis_gcc.h **** }
 3351              		.loc 8 260 3 is_stmt 0 view .LVU1108
 3352              	.LBE377:
 3353              	.LBE376:
 3354              	.LBE373:
 3355              	.LBE372:
 3356              	.LBE371:
 3357              	.LBE370:
 525:lib/TinyUSB/src/portable/synopsys/dwc2/dcd_dwc2.c **** 
 3358              		.loc 1 525 1 view .LVU1109
 3359 0028 7047     		bx	lr
 3360              	.L205:
 3361 002a 00BF     		.align	2
 3362              	.L204:
 3363 002c 00000000 		.word	.LANCHOR0
 3364 0030 00E100E0 		.word	-536813312
 3365              		.cfi_endproc
 3366              	.LFE355:
 3368              		.section	.text.dcd_remote_wakeup,"ax",%progbits
 3369              		.align	1
 3370              		.global	dcd_remote_wakeup
 3371              		.syntax unified
 3372              		.thumb
 3373              		.thumb_func
 3375              	dcd_remote_wakeup:
 3376              	.LVL338:
 3377              	.LFB357:
 535:lib/TinyUSB/src/portable/synopsys/dwc2/dcd_dwc2.c ****   (void) rhport;
 3378              		.loc 1 535 40 is_stmt 1 view -0
 3379              		.cfi_startproc
 3380              		@ args = 0, pretend = 0, frame = 0
 3381              		@ frame_needed = 0, uses_anonymous_args = 0
 3382              		@ link register save eliminated.
 536:lib/TinyUSB/src/portable/synopsys/dwc2/dcd_dwc2.c **** 
 3383              		.loc 1 536 3 view .LVU1111
 538:lib/TinyUSB/src/portable/synopsys/dwc2/dcd_dwc2.c **** 
 3384              		.loc 1 538 3 view .LVU1112
 3385              	.LBB378:
 3386              	.LBI378:
  79:lib/TinyUSB/src/portable/synopsys/dwc2/dwc2_common.h ****   if (rhport >= DWC2_CONTROLLER_COUNT) {
 3387              		.loc 2 79 50 view .LVU1113
 3388              	.LBB379:
  80:lib/TinyUSB/src/portable/synopsys/dwc2/dwc2_common.h ****     // user mis-configured, ignore and use first controller
 3389              		.loc 2 80 3 view .LVU1114
  80:lib/TinyUSB/src/portable/synopsys/dwc2/dwc2_common.h ****     // user mis-configured, ignore and use first controller
 3390              		.loc 2 80 6 is_stmt 0 view .LVU1115
 3391 0000 0128     		cmp	r0, #1
 3392 0002 00D9     		bls	.L207
  82:lib/TinyUSB/src/portable/synopsys/dwc2/dwc2_common.h ****   }
 3393              		.loc 2 82 12 view .LVU1116
 3394 0004 0020     		movs	r0, #0
 3395              	.LVL339:
 3396              	.L207:
  84:lib/TinyUSB/src/portable/synopsys/dwc2/dwc2_common.h **** }
 3397              		.loc 2 84 3 is_stmt 1 view .LVU1117
  84:lib/TinyUSB/src/portable/synopsys/dwc2/dwc2_common.h **** }
 3398              		.loc 2 84 48 is_stmt 0 view .LVU1118
ARM GAS  C:\Users\krisa\AppData\Local\Temp\ccNljk5K.s 			page 151


 3399 0006 0001     		lsls	r0, r0, #4
 3400              	.LVL340:
  84:lib/TinyUSB/src/portable/synopsys/dwc2/dwc2_common.h **** }
 3401              		.loc 2 84 48 view .LVU1119
 3402 0008 104B     		ldr	r3, .L211
 3403 000a 1958     		ldr	r1, [r3, r0]
 3404              	.LVL341:
  84:lib/TinyUSB/src/portable/synopsys/dwc2/dwc2_common.h **** }
 3405              		.loc 2 84 48 view .LVU1120
 3406              	.LBE379:
 3407              	.LBE378:
 541:lib/TinyUSB/src/portable/synopsys/dwc2/dcd_dwc2.c **** 
 3408              		.loc 1 541 3 is_stmt 1 view .LVU1121
 541:lib/TinyUSB/src/portable/synopsys/dwc2/dcd_dwc2.c **** 
 3409              		.loc 1 541 14 is_stmt 0 view .LVU1122
 3410 000c D1F80438 		ldr	r3, [r1, #2052]
 3411 0010 43F00103 		orr	r3, r3, #1
 3412 0014 C1F80438 		str	r3, [r1, #2052]
 544:lib/TinyUSB/src/portable/synopsys/dwc2/dcd_dwc2.c ****   dwc2->gintmsk |= GINTMSK_SOFM;
 3413              		.loc 1 544 3 is_stmt 1 view .LVU1123
 544:lib/TinyUSB/src/portable/synopsys/dwc2/dcd_dwc2.c ****   dwc2->gintmsk |= GINTMSK_SOFM;
 3414              		.loc 1 544 17 is_stmt 0 view .LVU1124
 3415 0018 0823     		movs	r3, #8
 3416 001a 4B61     		str	r3, [r1, #20]
 545:lib/TinyUSB/src/portable/synopsys/dwc2/dcd_dwc2.c **** 
 3417              		.loc 1 545 3 is_stmt 1 view .LVU1125
 545:lib/TinyUSB/src/portable/synopsys/dwc2/dcd_dwc2.c **** 
 3418              		.loc 1 545 17 is_stmt 0 view .LVU1126
 3419 001c 8B69     		ldr	r3, [r1, #24]
 3420 001e 43F00803 		orr	r3, r3, #8
 3421 0022 8B61     		str	r3, [r1, #24]
 548:lib/TinyUSB/src/portable/synopsys/dwc2/dcd_dwc2.c **** 
 3422              		.loc 1 548 3 is_stmt 1 view .LVU1127
 3423              	.LBB380:
 3424              	.LBI380:
 169:lib/TinyUSB/src/portable/synopsys/dwc2/dwc2_stm32.h ****   }
 170:lib/TinyUSB/src/portable/synopsys/dwc2/dwc2_stm32.h **** }
 171:lib/TinyUSB/src/portable/synopsys/dwc2/dwc2_stm32.h **** 
 172:lib/TinyUSB/src/portable/synopsys/dwc2/dwc2_stm32.h **** #define dwc2_dcd_int_enable(_rhport)  dwc2_int_set(_rhport, TUSB_ROLE_DEVICE, true)
 173:lib/TinyUSB/src/portable/synopsys/dwc2/dwc2_stm32.h **** #define dwc2_dcd_int_disable(_rhport) dwc2_int_set(_rhport, TUSB_ROLE_DEVICE, false)
 174:lib/TinyUSB/src/portable/synopsys/dwc2/dwc2_stm32.h **** 
 175:lib/TinyUSB/src/portable/synopsys/dwc2/dwc2_stm32.h **** 
 176:lib/TinyUSB/src/portable/synopsys/dwc2/dwc2_stm32.h **** TU_ATTR_ALWAYS_INLINE static inline void dwc2_remote_wakeup_delay(void) {
 3425              		.loc 6 176 42 view .LVU1128
 3426              	.LBB381:
 177:lib/TinyUSB/src/portable/synopsys/dwc2/dwc2_stm32.h ****   // try to delay for 1 ms
 178:lib/TinyUSB/src/portable/synopsys/dwc2/dwc2_stm32.h ****   uint32_t count = SystemCoreClock / 1000;
 3427              		.loc 6 178 3 view .LVU1129
 3428              		.loc 6 178 36 is_stmt 0 view .LVU1130
 3429 0024 0A4B     		ldr	r3, .L211+4
 3430 0026 1B68     		ldr	r3, [r3]
 3431              		.loc 6 178 12 view .LVU1131
 3432 0028 0A4A     		ldr	r2, .L211+8
 3433 002a A2FB0323 		umull	r2, r3, r2, r3
 3434 002e 9B09     		lsrs	r3, r3, #6
 3435              	.LVL342:
 179:lib/TinyUSB/src/portable/synopsys/dwc2/dwc2_stm32.h ****   while (count--) {
ARM GAS  C:\Users\krisa\AppData\Local\Temp\ccNljk5K.s 			page 152


 3436              		.loc 6 179 3 is_stmt 1 view .LVU1132
 3437              		.loc 6 179 9 is_stmt 0 view .LVU1133
 3438 0030 01E0     		b	.L208
 3439              	.LVL343:
 3440              	.L209:
 180:lib/TinyUSB/src/portable/synopsys/dwc2/dwc2_stm32.h ****     __NOP();
 3441              		.loc 6 180 5 is_stmt 1 view .LVU1134
 3442              		.syntax unified
 3443              	@ 180 "lib/TinyUSB/src/portable/synopsys/dwc2/dwc2_stm32.h" 1
 3444 0032 00BF     		nop
 3445              	@ 0 "" 2
 179:lib/TinyUSB/src/portable/synopsys/dwc2/dwc2_stm32.h ****   while (count--) {
 3446              		.loc 6 179 15 is_stmt 0 view .LVU1135
 3447              		.thumb
 3448              		.syntax unified
 3449 0034 1346     		mov	r3, r2
 3450              	.LVL344:
 3451              	.L208:
 179:lib/TinyUSB/src/portable/synopsys/dwc2/dwc2_stm32.h ****   while (count--) {
 3452              		.loc 6 179 9 is_stmt 1 view .LVU1136
 179:lib/TinyUSB/src/portable/synopsys/dwc2/dwc2_stm32.h ****   while (count--) {
 3453              		.loc 6 179 15 is_stmt 0 view .LVU1137
 3454 0036 5A1E     		subs	r2, r3, #1
 3455              	.LVL345:
 179:lib/TinyUSB/src/portable/synopsys/dwc2/dwc2_stm32.h ****   while (count--) {
 3456              		.loc 6 179 9 view .LVU1138
 3457 0038 002B     		cmp	r3, #0
 3458 003a FAD1     		bne	.L209
 3459              	.LVL346:
 179:lib/TinyUSB/src/portable/synopsys/dwc2/dwc2_stm32.h ****   while (count--) {
 3460              		.loc 6 179 9 view .LVU1139
 3461              	.LBE381:
 3462              	.LBE380:
 550:lib/TinyUSB/src/portable/synopsys/dwc2/dcd_dwc2.c **** }
 3463              		.loc 1 550 3 is_stmt 1 view .LVU1140
 550:lib/TinyUSB/src/portable/synopsys/dwc2/dcd_dwc2.c **** }
 3464              		.loc 1 550 14 is_stmt 0 view .LVU1141
 3465 003c D1F80438 		ldr	r3, [r1, #2052]
 3466 0040 23F00103 		bic	r3, r3, #1
 3467 0044 C1F80438 		str	r3, [r1, #2052]
 551:lib/TinyUSB/src/portable/synopsys/dwc2/dcd_dwc2.c **** 
 3468              		.loc 1 551 1 view .LVU1142
 3469 0048 7047     		bx	lr
 3470              	.L212:
 3471 004a 00BF     		.align	2
 3472              	.L211:
 3473 004c 00000000 		.word	.LANCHOR0
 3474 0050 00000000 		.word	SystemCoreClock
 3475 0054 D34D6210 		.word	274877907
 3476              		.cfi_endproc
 3477              	.LFE357:
 3479              		.section	.text.dcd_connect,"ax",%progbits
 3480              		.align	1
 3481              		.global	dcd_connect
 3482              		.syntax unified
 3483              		.thumb
 3484              		.thumb_func
ARM GAS  C:\Users\krisa\AppData\Local\Temp\ccNljk5K.s 			page 153


 3486              	dcd_connect:
 3487              	.LVL347:
 3488              	.LFB358:
 553:lib/TinyUSB/src/portable/synopsys/dwc2/dcd_dwc2.c ****   (void) rhport;
 3489              		.loc 1 553 34 is_stmt 1 view -0
 3490              		.cfi_startproc
 3491              		@ args = 0, pretend = 0, frame = 0
 3492              		@ frame_needed = 0, uses_anonymous_args = 0
 3493              		@ link register save eliminated.
 554:lib/TinyUSB/src/portable/synopsys/dwc2/dcd_dwc2.c ****   dwc2_regs_t* dwc2 = DWC2_REG(rhport);
 3494              		.loc 1 554 3 view .LVU1144
 555:lib/TinyUSB/src/portable/synopsys/dwc2/dcd_dwc2.c **** 
 3495              		.loc 1 555 3 view .LVU1145
 3496              	.LBB382:
 3497              	.LBI382:
  79:lib/TinyUSB/src/portable/synopsys/dwc2/dwc2_common.h ****   if (rhport >= DWC2_CONTROLLER_COUNT) {
 3498              		.loc 2 79 50 view .LVU1146
 3499              	.LBB383:
  80:lib/TinyUSB/src/portable/synopsys/dwc2/dwc2_common.h ****     // user mis-configured, ignore and use first controller
 3500              		.loc 2 80 3 view .LVU1147
  80:lib/TinyUSB/src/portable/synopsys/dwc2/dwc2_common.h ****     // user mis-configured, ignore and use first controller
 3501              		.loc 2 80 6 is_stmt 0 view .LVU1148
 3502 0000 0128     		cmp	r0, #1
 3503 0002 00D9     		bls	.L214
  82:lib/TinyUSB/src/portable/synopsys/dwc2/dwc2_common.h ****   }
 3504              		.loc 2 82 12 view .LVU1149
 3505 0004 0020     		movs	r0, #0
 3506              	.LVL348:
 3507              	.L214:
  84:lib/TinyUSB/src/portable/synopsys/dwc2/dwc2_common.h **** }
 3508              		.loc 2 84 3 is_stmt 1 view .LVU1150
  84:lib/TinyUSB/src/portable/synopsys/dwc2/dwc2_common.h **** }
 3509              		.loc 2 84 48 is_stmt 0 view .LVU1151
 3510 0006 0001     		lsls	r0, r0, #4
 3511              	.LVL349:
  84:lib/TinyUSB/src/portable/synopsys/dwc2/dwc2_common.h **** }
 3512              		.loc 2 84 48 view .LVU1152
 3513 0008 044B     		ldr	r3, .L216
 3514 000a 1A58     		ldr	r2, [r3, r0]
 3515              	.LVL350:
  84:lib/TinyUSB/src/portable/synopsys/dwc2/dwc2_common.h **** }
 3516              		.loc 2 84 48 view .LVU1153
 3517              	.LBE383:
 3518              	.LBE382:
 567:lib/TinyUSB/src/portable/synopsys/dwc2/dcd_dwc2.c **** }
 3519              		.loc 1 567 3 is_stmt 1 view .LVU1154
 567:lib/TinyUSB/src/portable/synopsys/dwc2/dcd_dwc2.c **** }
 3520              		.loc 1 567 14 is_stmt 0 view .LVU1155
 3521 000c D2F80438 		ldr	r3, [r2, #2052]
 3522 0010 23F00203 		bic	r3, r3, #2
 3523 0014 C2F80438 		str	r3, [r2, #2052]
 568:lib/TinyUSB/src/portable/synopsys/dwc2/dcd_dwc2.c **** 
 3524              		.loc 1 568 1 view .LVU1156
 3525 0018 7047     		bx	lr
 3526              	.L217:
 3527 001a 00BF     		.align	2
 3528              	.L216:
ARM GAS  C:\Users\krisa\AppData\Local\Temp\ccNljk5K.s 			page 154


 3529 001c 00000000 		.word	.LANCHOR0
 3530              		.cfi_endproc
 3531              	.LFE358:
 3533              		.section	.text.dcd_disconnect,"ax",%progbits
 3534              		.align	1
 3535              		.global	dcd_disconnect
 3536              		.syntax unified
 3537              		.thumb
 3538              		.thumb_func
 3540              	dcd_disconnect:
 3541              	.LVL351:
 3542              	.LFB359:
 570:lib/TinyUSB/src/portable/synopsys/dwc2/dcd_dwc2.c ****   (void) rhport;
 3543              		.loc 1 570 37 is_stmt 1 view -0
 3544              		.cfi_startproc
 3545              		@ args = 0, pretend = 0, frame = 0
 3546              		@ frame_needed = 0, uses_anonymous_args = 0
 3547              		@ link register save eliminated.
 571:lib/TinyUSB/src/portable/synopsys/dwc2/dcd_dwc2.c ****   dwc2_regs_t* dwc2 = DWC2_REG(rhport);
 3548              		.loc 1 571 3 view .LVU1158
 572:lib/TinyUSB/src/portable/synopsys/dwc2/dcd_dwc2.c **** 
 3549              		.loc 1 572 3 view .LVU1159
 3550              	.LBB384:
 3551              	.LBI384:
  79:lib/TinyUSB/src/portable/synopsys/dwc2/dwc2_common.h ****   if (rhport >= DWC2_CONTROLLER_COUNT) {
 3552              		.loc 2 79 50 view .LVU1160
 3553              	.LBB385:
  80:lib/TinyUSB/src/portable/synopsys/dwc2/dwc2_common.h ****     // user mis-configured, ignore and use first controller
 3554              		.loc 2 80 3 view .LVU1161
  80:lib/TinyUSB/src/portable/synopsys/dwc2/dwc2_common.h ****     // user mis-configured, ignore and use first controller
 3555              		.loc 2 80 6 is_stmt 0 view .LVU1162
 3556 0000 0128     		cmp	r0, #1
 3557 0002 00D9     		bls	.L219
  82:lib/TinyUSB/src/portable/synopsys/dwc2/dwc2_common.h ****   }
 3558              		.loc 2 82 12 view .LVU1163
 3559 0004 0020     		movs	r0, #0
 3560              	.LVL352:
 3561              	.L219:
  84:lib/TinyUSB/src/portable/synopsys/dwc2/dwc2_common.h **** }
 3562              		.loc 2 84 3 is_stmt 1 view .LVU1164
  84:lib/TinyUSB/src/portable/synopsys/dwc2/dwc2_common.h **** }
 3563              		.loc 2 84 48 is_stmt 0 view .LVU1165
 3564 0006 0001     		lsls	r0, r0, #4
 3565              	.LVL353:
  84:lib/TinyUSB/src/portable/synopsys/dwc2/dwc2_common.h **** }
 3566              		.loc 2 84 48 view .LVU1166
 3567 0008 044B     		ldr	r3, .L221
 3568 000a 1A58     		ldr	r2, [r3, r0]
 3569              	.LVL354:
  84:lib/TinyUSB/src/portable/synopsys/dwc2/dwc2_common.h **** }
 3570              		.loc 2 84 48 view .LVU1167
 3571              	.LBE385:
 3572              	.LBE384:
 584:lib/TinyUSB/src/portable/synopsys/dwc2/dcd_dwc2.c **** }
 3573              		.loc 1 584 3 is_stmt 1 view .LVU1168
 584:lib/TinyUSB/src/portable/synopsys/dwc2/dcd_dwc2.c **** }
 3574              		.loc 1 584 14 is_stmt 0 view .LVU1169
ARM GAS  C:\Users\krisa\AppData\Local\Temp\ccNljk5K.s 			page 155


 3575 000c D2F80438 		ldr	r3, [r2, #2052]
 3576 0010 43F00203 		orr	r3, r3, #2
 3577 0014 C2F80438 		str	r3, [r2, #2052]
 585:lib/TinyUSB/src/portable/synopsys/dwc2/dcd_dwc2.c **** 
 3578              		.loc 1 585 1 view .LVU1170
 3579 0018 7047     		bx	lr
 3580              	.L222:
 3581 001a 00BF     		.align	2
 3582              	.L221:
 3583 001c 00000000 		.word	.LANCHOR0
 3584              		.cfi_endproc
 3585              	.LFE359:
 3587              		.section	.text.dcd_init,"ax",%progbits
 3588              		.align	1
 3589              		.global	dcd_init
 3590              		.syntax unified
 3591              		.thumb
 3592              		.thumb_func
 3594              	dcd_init:
 3595              	.LVL355:
 3596              	.LFB353:
 465:lib/TinyUSB/src/portable/synopsys/dwc2/dcd_dwc2.c ****   (void) rh_init;
 3597              		.loc 1 465 66 is_stmt 1 view -0
 3598              		.cfi_startproc
 3599              		@ args = 0, pretend = 0, frame = 0
 3600              		@ frame_needed = 0, uses_anonymous_args = 0
 465:lib/TinyUSB/src/portable/synopsys/dwc2/dcd_dwc2.c ****   (void) rh_init;
 3601              		.loc 1 465 66 is_stmt 0 view .LVU1172
 3602 0000 F8B5     		push	{r3, r4, r5, r6, r7, lr}
 3603              	.LCFI28:
 3604              		.cfi_def_cfa_offset 24
 3605              		.cfi_offset 3, -24
 3606              		.cfi_offset 4, -20
 3607              		.cfi_offset 5, -16
 3608              		.cfi_offset 6, -12
 3609              		.cfi_offset 7, -8
 3610              		.cfi_offset 14, -4
 3611 0002 0546     		mov	r5, r0
 466:lib/TinyUSB/src/portable/synopsys/dwc2/dcd_dwc2.c ****   dwc2_regs_t* dwc2 = DWC2_REG(rhport);
 3612              		.loc 1 466 3 is_stmt 1 view .LVU1173
 467:lib/TinyUSB/src/portable/synopsys/dwc2/dcd_dwc2.c **** 
 3613              		.loc 1 467 3 view .LVU1174
 3614              	.LVL356:
 3615              	.LBB386:
 3616              	.LBI386:
  79:lib/TinyUSB/src/portable/synopsys/dwc2/dwc2_common.h ****   if (rhport >= DWC2_CONTROLLER_COUNT) {
 3617              		.loc 2 79 50 view .LVU1175
 3618              	.LBB387:
  80:lib/TinyUSB/src/portable/synopsys/dwc2/dwc2_common.h ****     // user mis-configured, ignore and use first controller
 3619              		.loc 2 80 3 view .LVU1176
  80:lib/TinyUSB/src/portable/synopsys/dwc2/dwc2_common.h ****     // user mis-configured, ignore and use first controller
 3620              		.loc 2 80 6 is_stmt 0 view .LVU1177
 3621 0004 0128     		cmp	r0, #1
 3622 0006 21D9     		bls	.L233
  82:lib/TinyUSB/src/portable/synopsys/dwc2/dwc2_common.h ****   }
 3623              		.loc 2 82 12 view .LVU1178
 3624 0008 0023     		movs	r3, #0
ARM GAS  C:\Users\krisa\AppData\Local\Temp\ccNljk5K.s 			page 156


 3625              	.L224:
 3626              	.LVL357:
  84:lib/TinyUSB/src/portable/synopsys/dwc2/dwc2_common.h **** }
 3627              		.loc 2 84 3 is_stmt 1 view .LVU1179
  84:lib/TinyUSB/src/portable/synopsys/dwc2/dwc2_common.h **** }
 3628              		.loc 2 84 48 is_stmt 0 view .LVU1180
 3629 000a 1B01     		lsls	r3, r3, #4
 3630              	.LVL358:
  84:lib/TinyUSB/src/portable/synopsys/dwc2/dwc2_common.h **** }
 3631              		.loc 2 84 48 view .LVU1181
 3632 000c 264A     		ldr	r2, .L235
 3633 000e D458     		ldr	r4, [r2, r3]
 3634              	.LVL359:
  84:lib/TinyUSB/src/portable/synopsys/dwc2/dwc2_common.h **** }
 3635              		.loc 2 84 48 view .LVU1182
 3636              	.LBE387:
 3637              	.LBE386:
 469:lib/TinyUSB/src/portable/synopsys/dwc2/dcd_dwc2.c **** 
 3638              		.loc 1 469 3 is_stmt 1 view .LVU1183
 3639 0010 264B     		ldr	r3, .L235+4
 3640 0012 0027     		movs	r7, #0
 3641 0014 1F60     		str	r7, [r3]
 3642 0016 5F60     		str	r7, [r3, #4]
 472:lib/TinyUSB/src/portable/synopsys/dwc2/dcd_dwc2.c ****   const bool is_dma = dma_device_enabled(dwc2);
 3643              		.loc 1 472 3 view .LVU1184
 472:lib/TinyUSB/src/portable/synopsys/dwc2/dcd_dwc2.c ****   const bool is_dma = dma_device_enabled(dwc2);
 3644              		.loc 1 472 29 is_stmt 0 view .LVU1185
 3645 0018 0121     		movs	r1, #1
 3646              	.LVL360:
 472:lib/TinyUSB/src/portable/synopsys/dwc2/dcd_dwc2.c ****   const bool is_dma = dma_device_enabled(dwc2);
 3647              		.loc 1 472 29 view .LVU1186
 3648 001a 2046     		mov	r0, r4
 3649              	.LVL361:
 472:lib/TinyUSB/src/portable/synopsys/dwc2/dcd_dwc2.c ****   const bool is_dma = dma_device_enabled(dwc2);
 3650              		.loc 1 472 29 view .LVU1187
 3651 001c FFF7FEFF 		bl	dwc2_core_is_highspeed
 3652              	.LVL362:
 3653 0020 0646     		mov	r6, r0
 3654              	.LVL363:
 473:lib/TinyUSB/src/portable/synopsys/dwc2/dcd_dwc2.c ****   TU_ASSERT(dwc2_core_init(rhport, is_highspeed, is_dma));
 3655              		.loc 1 473 3 is_stmt 1 view .LVU1188
 3656              	.LBB389:
 3657              	.LBI389:
 121:lib/TinyUSB/src/portable/synopsys/dwc2/dcd_dwc2.c ****   (void) dwc2;
 3658              		.loc 1 121 42 view .LVU1189
 3659              	.LBB390:
 122:lib/TinyUSB/src/portable/synopsys/dwc2/dcd_dwc2.c ****   // Internal DMA only
 3660              		.loc 1 122 3 view .LVU1190
 124:lib/TinyUSB/src/portable/synopsys/dwc2/dcd_dwc2.c ****   return CFG_TUD_DWC2_DMA_ENABLE && ghwcfg2.arch == GHWCFG2_ARCH_INTERNAL_DMA;
 3661              		.loc 1 124 3 view .LVU1191
 124:lib/TinyUSB/src/portable/synopsys/dwc2/dcd_dwc2.c ****   return CFG_TUD_DWC2_DMA_ENABLE && ghwcfg2.arch == GHWCFG2_ARCH_INTERNAL_DMA;
 3662              		.loc 1 124 48 is_stmt 0 view .LVU1192
 3663 0022 A36C     		ldr	r3, [r4, #72]
 125:lib/TinyUSB/src/portable/synopsys/dwc2/dcd_dwc2.c **** }
 3664              		.loc 1 125 3 is_stmt 1 view .LVU1193
 3665              	.LVL364:
 125:lib/TinyUSB/src/portable/synopsys/dwc2/dcd_dwc2.c **** }
ARM GAS  C:\Users\krisa\AppData\Local\Temp\ccNljk5K.s 			page 157


 3666              		.loc 1 125 3 is_stmt 0 view .LVU1194
 3667              	.LBE390:
 3668              	.LBE389:
 474:lib/TinyUSB/src/portable/synopsys/dwc2/dcd_dwc2.c **** 
 3669              		.loc 1 474 3 is_stmt 1 view .LVU1195
 474:lib/TinyUSB/src/portable/synopsys/dwc2/dcd_dwc2.c **** 
 3670              		.loc 1 474 3 view .LVU1196
 3671 0024 3A46     		mov	r2, r7
 3672 0026 0146     		mov	r1, r0
 3673 0028 2846     		mov	r0, r5
 3674              	.LVL365:
 474:lib/TinyUSB/src/portable/synopsys/dwc2/dcd_dwc2.c **** 
 3675              		.loc 1 474 3 is_stmt 0 view .LVU1197
 3676 002a FFF7FEFF 		bl	dwc2_core_init
 3677              	.LVL366:
 3678 002e 0746     		mov	r7, r0
 3679 0030 70B1     		cbz	r0, .L234
 474:lib/TinyUSB/src/portable/synopsys/dwc2/dcd_dwc2.c **** 
 3680              		.loc 1 474 3 is_stmt 1 discriminator 2 view .LVU1198
 478:lib/TinyUSB/src/portable/synopsys/dwc2/dcd_dwc2.c ****   if (is_highspeed) {
 3681              		.loc 1 478 3 discriminator 2 view .LVU1199
 478:lib/TinyUSB/src/portable/synopsys/dwc2/dcd_dwc2.c ****   if (is_highspeed) {
 3682              		.loc 1 478 23 is_stmt 0 discriminator 2 view .LVU1200
 3683 0032 D4F80038 		ldr	r3, [r4, #2048]
 478:lib/TinyUSB/src/portable/synopsys/dwc2/dcd_dwc2.c ****   if (is_highspeed) {
 3684              		.loc 1 478 12 discriminator 2 view .LVU1201
 3685 0036 23F00303 		bic	r3, r3, #3
 3686              	.LVL367:
 479:lib/TinyUSB/src/portable/synopsys/dwc2/dcd_dwc2.c ****     // dcfg Highspeed's mask is 0
 3687              		.loc 1 479 3 is_stmt 1 discriminator 2 view .LVU1202
 479:lib/TinyUSB/src/portable/synopsys/dwc2/dcd_dwc2.c ****     // dcfg Highspeed's mask is 0
 3688              		.loc 1 479 6 is_stmt 0 discriminator 2 view .LVU1203
 3689 003a 96B1     		cbz	r6, .L228
 3690              	.LBB391:
 484:lib/TinyUSB/src/portable/synopsys/dwc2/dcd_dwc2.c ****     if (ghwcfg2.hs_phy_type == GHWCFG2_HSPHY_ULPI) {
 3691              		.loc 1 484 5 is_stmt 1 view .LVU1204
 484:lib/TinyUSB/src/portable/synopsys/dwc2/dcd_dwc2.c ****     if (ghwcfg2.hs_phy_type == GHWCFG2_HSPHY_ULPI) {
 3692              		.loc 1 484 50 is_stmt 0 view .LVU1205
 3693 003c A26C     		ldr	r2, [r4, #72]
 485:lib/TinyUSB/src/portable/synopsys/dwc2/dcd_dwc2.c ****       dcfg |= DCFG_XCVRDLY;
 3694              		.loc 1 485 5 is_stmt 1 view .LVU1206
 485:lib/TinyUSB/src/portable/synopsys/dwc2/dcd_dwc2.c ****       dcfg |= DCFG_XCVRDLY;
 3695              		.loc 1 485 29 is_stmt 0 view .LVU1207
 3696 003e 02F0C002 		and	r2, r2, #192
 485:lib/TinyUSB/src/portable/synopsys/dwc2/dcd_dwc2.c ****       dcfg |= DCFG_XCVRDLY;
 3697              		.loc 1 485 8 view .LVU1208
 3698 0042 802A     		cmp	r2, #128
 3699 0044 0FD1     		bne	.L230
 486:lib/TinyUSB/src/portable/synopsys/dwc2/dcd_dwc2.c ****     }
 3700              		.loc 1 486 7 is_stmt 1 view .LVU1209
 486:lib/TinyUSB/src/portable/synopsys/dwc2/dcd_dwc2.c ****     }
 3701              		.loc 1 486 12 is_stmt 0 view .LVU1210
 3702 0046 43F48043 		orr	r3, r3, #16384
 3703              	.LVL368:
 486:lib/TinyUSB/src/portable/synopsys/dwc2/dcd_dwc2.c ****     }
 3704              		.loc 1 486 12 view .LVU1211
 3705 004a 0CE0     		b	.L230
ARM GAS  C:\Users\krisa\AppData\Local\Temp\ccNljk5K.s 			page 158


 3706              	.LVL369:
 3707              	.L233:
 486:lib/TinyUSB/src/portable/synopsys/dwc2/dcd_dwc2.c ****     }
 3708              		.loc 1 486 12 view .LVU1212
 3709              	.LBE391:
 3710              	.LBB392:
 3711              	.LBB388:
  80:lib/TinyUSB/src/portable/synopsys/dwc2/dwc2_common.h ****     // user mis-configured, ignore and use first controller
 3712              		.loc 2 80 6 view .LVU1213
 3713 004c 0346     		mov	r3, r0
 3714 004e DCE7     		b	.L224
 3715              	.LVL370:
 3716              	.L234:
  80:lib/TinyUSB/src/portable/synopsys/dwc2/dwc2_common.h ****     // user mis-configured, ignore and use first controller
 3717              		.loc 2 80 6 view .LVU1214
 3718              	.LBE388:
 3719              	.LBE392:
 474:lib/TinyUSB/src/portable/synopsys/dwc2/dcd_dwc2.c **** 
 3720              		.loc 1 474 3 is_stmt 1 discriminator 1 view .LVU1215
 474:lib/TinyUSB/src/portable/synopsys/dwc2/dcd_dwc2.c **** 
 3721              		.loc 1 474 3 discriminator 1 view .LVU1216
 474:lib/TinyUSB/src/portable/synopsys/dwc2/dcd_dwc2.c **** 
 3722              		.loc 1 474 3 discriminator 1 view .LVU1217
 474:lib/TinyUSB/src/portable/synopsys/dwc2/dcd_dwc2.c **** 
 3723              		.loc 1 474 3 discriminator 1 view .LVU1218
 3724              	.LBB393:
 474:lib/TinyUSB/src/portable/synopsys/dwc2/dcd_dwc2.c **** 
 3725              		.loc 1 474 3 discriminator 1 view .LVU1219
 474:lib/TinyUSB/src/portable/synopsys/dwc2/dcd_dwc2.c **** 
 3726              		.loc 1 474 3 discriminator 1 view .LVU1220
 3727 0050 4FF0E023 		mov	r3, #-536813568
 3728 0054 D3F8F03D 		ldr	r3, [r3, #3568]
 3729 0058 13F0010F 		tst	r3, #1
 3730 005c 21D0     		beq	.L227
 474:lib/TinyUSB/src/portable/synopsys/dwc2/dcd_dwc2.c **** 
 3731              		.loc 1 474 3 discriminator 3 view .LVU1221
 3732              		.syntax unified
 3733              	@ 474 "lib/TinyUSB/src/portable/synopsys/dwc2/dcd_dwc2.c" 1
 3734 005e 00BE     		BKPT #0
 3735              	
 3736              	@ 0 "" 2
 3737              		.thumb
 3738              		.syntax unified
 3739              	.LBE393:
 474:lib/TinyUSB/src/portable/synopsys/dwc2/dcd_dwc2.c **** 
 3740              		.loc 1 474 3 discriminator 3 view .LVU1222
 474:lib/TinyUSB/src/portable/synopsys/dwc2/dcd_dwc2.c **** 
 3741              		.loc 1 474 3 discriminator 3 view .LVU1223
 3742 0060 1FE0     		b	.L227
 3743              	.LVL371:
 3744              	.L228:
 489:lib/TinyUSB/src/portable/synopsys/dwc2/dcd_dwc2.c ****   }
 3745              		.loc 1 489 5 view .LVU1224
 489:lib/TinyUSB/src/portable/synopsys/dwc2/dcd_dwc2.c ****   }
 3746              		.loc 1 489 10 is_stmt 0 view .LVU1225
 3747 0062 43F00303 		orr	r3, r3, #3
 3748              	.LVL372:
ARM GAS  C:\Users\krisa\AppData\Local\Temp\ccNljk5K.s 			page 159


 3749              	.L230:
 492:lib/TinyUSB/src/portable/synopsys/dwc2/dcd_dwc2.c ****   dwc2->dcfg = dcfg;
 3750              		.loc 1 492 3 is_stmt 1 view .LVU1226
 492:lib/TinyUSB/src/portable/synopsys/dwc2/dcd_dwc2.c ****   dwc2->dcfg = dcfg;
 3751              		.loc 1 492 8 is_stmt 0 view .LVU1227
 3752 0066 43F00403 		orr	r3, r3, #4
 3753              	.LVL373:
 493:lib/TinyUSB/src/portable/synopsys/dwc2/dcd_dwc2.c **** 
 3754              		.loc 1 493 3 is_stmt 1 view .LVU1228
 493:lib/TinyUSB/src/portable/synopsys/dwc2/dcd_dwc2.c **** 
 3755              		.loc 1 493 14 is_stmt 0 view .LVU1229
 3756 006a C4F80038 		str	r3, [r4, #2048]
 495:lib/TinyUSB/src/portable/synopsys/dwc2/dcd_dwc2.c **** 
 3757              		.loc 1 495 3 is_stmt 1 view .LVU1230
 3758 006e 2846     		mov	r0, r5
 3759 0070 FFF7FEFF 		bl	dcd_disconnect
 3760              	.LVL374:
 498:lib/TinyUSB/src/portable/synopsys/dwc2/dcd_dwc2.c **** 
 3761              		.loc 1 498 3 view .LVU1231
 498:lib/TinyUSB/src/portable/synopsys/dwc2/dcd_dwc2.c **** 
 3762              		.loc 1 498 24 is_stmt 0 view .LVU1232
 3763 0074 E368     		ldr	r3, [r4, #12]
 498:lib/TinyUSB/src/portable/synopsys/dwc2/dcd_dwc2.c **** 
 3764              		.loc 1 498 52 view .LVU1233
 3765 0076 23F0C043 		bic	r3, r3, #1610612736
 3766 007a 43F08043 		orr	r3, r3, #1073741824
 498:lib/TinyUSB/src/portable/synopsys/dwc2/dcd_dwc2.c **** 
 3767              		.loc 1 498 17 view .LVU1234
 3768 007e E360     		str	r3, [r4, #12]
 501:lib/TinyUSB/src/portable/synopsys/dwc2/dcd_dwc2.c **** 
 3769              		.loc 1 501 3 is_stmt 1 view .LVU1235
 501:lib/TinyUSB/src/portable/synopsys/dwc2/dcd_dwc2.c **** 
 3770              		.loc 1 501 24 is_stmt 0 view .LVU1236
 3771 0080 2368     		ldr	r3, [r4]
 501:lib/TinyUSB/src/portable/synopsys/dwc2/dcd_dwc2.c **** 
 3772              		.loc 1 501 72 view .LVU1237
 3773 0082 23F0D003 		bic	r3, r3, #208
 3774 0086 43F0C003 		orr	r3, r3, #192
 501:lib/TinyUSB/src/portable/synopsys/dwc2/dcd_dwc2.c **** 
 3775              		.loc 1 501 17 view .LVU1238
 3776 008a 2360     		str	r3, [r4]
 509:lib/TinyUSB/src/portable/synopsys/dwc2/dcd_dwc2.c **** 
 3777              		.loc 1 509 3 is_stmt 1 view .LVU1239
 509:lib/TinyUSB/src/portable/synopsys/dwc2/dcd_dwc2.c **** 
 3778              		.loc 1 509 17 is_stmt 0 view .LVU1240
 3779 008c A269     		ldr	r2, [r4, #24]
 3780 008e 084B     		ldr	r3, .L235+8
 3781 0090 1343     		orrs	r3, r3, r2
 3782 0092 A361     		str	r3, [r4, #24]
 511:lib/TinyUSB/src/portable/synopsys/dwc2/dcd_dwc2.c ****   gahbcfg |= GAHBCFG_GINT; // Enable global interrupt
 3783              		.loc 1 511 3 is_stmt 1 view .LVU1241
 511:lib/TinyUSB/src/portable/synopsys/dwc2/dcd_dwc2.c ****   gahbcfg |= GAHBCFG_GINT; // Enable global interrupt
 3784              		.loc 1 511 12 is_stmt 0 view .LVU1242
 3785 0094 A368     		ldr	r3, [r4, #8]
 3786              	.LVL375:
 512:lib/TinyUSB/src/portable/synopsys/dwc2/dcd_dwc2.c ****   dwc2->gahbcfg = gahbcfg;
 3787              		.loc 1 512 3 is_stmt 1 view .LVU1243
ARM GAS  C:\Users\krisa\AppData\Local\Temp\ccNljk5K.s 			page 160


 512:lib/TinyUSB/src/portable/synopsys/dwc2/dcd_dwc2.c ****   dwc2->gahbcfg = gahbcfg;
 3788              		.loc 1 512 11 is_stmt 0 view .LVU1244
 3789 0096 43F00103 		orr	r3, r3, #1
 3790              	.LVL376:
 513:lib/TinyUSB/src/portable/synopsys/dwc2/dcd_dwc2.c **** 
 3791              		.loc 1 513 3 is_stmt 1 view .LVU1245
 513:lib/TinyUSB/src/portable/synopsys/dwc2/dcd_dwc2.c **** 
 3792              		.loc 1 513 17 is_stmt 0 view .LVU1246
 3793 009a A360     		str	r3, [r4, #8]
 515:lib/TinyUSB/src/portable/synopsys/dwc2/dcd_dwc2.c ****   return true;
 3794              		.loc 1 515 3 is_stmt 1 view .LVU1247
 3795 009c 2846     		mov	r0, r5
 3796 009e FFF7FEFF 		bl	dcd_connect
 3797              	.LVL377:
 516:lib/TinyUSB/src/portable/synopsys/dwc2/dcd_dwc2.c **** }
 3798              		.loc 1 516 3 view .LVU1248
 3799              	.L227:
 517:lib/TinyUSB/src/portable/synopsys/dwc2/dcd_dwc2.c **** 
 3800              		.loc 1 517 1 is_stmt 0 view .LVU1249
 3801 00a2 3846     		mov	r0, r7
 3802 00a4 F8BD     		pop	{r3, r4, r5, r6, r7, pc}
 3803              	.LVL378:
 3804              	.L236:
 517:lib/TinyUSB/src/portable/synopsys/dwc2/dcd_dwc2.c **** 
 3805              		.loc 1 517 1 view .LVU1250
 3806 00a6 00BF     		.align	2
 3807              	.L235:
 3808 00a8 00000000 		.word	.LANCHOR0
 3809 00ac 00000000 		.word	.LANCHOR1
 3810 00b0 04300080 		.word	-2147471356
 3811              		.cfi_endproc
 3812              	.LFE353:
 3814              		.section	.text.dcd_sof_enable,"ax",%progbits
 3815              		.align	1
 3816              		.global	dcd_sof_enable
 3817              		.syntax unified
 3818              		.thumb
 3819              		.thumb_func
 3821              	dcd_sof_enable:
 3822              	.LVL379:
 3823              	.LFB360:
 588:lib/TinyUSB/src/portable/synopsys/dwc2/dcd_dwc2.c ****   (void) rhport;
 3824              		.loc 1 588 46 is_stmt 1 view -0
 3825              		.cfi_startproc
 3826              		@ args = 0, pretend = 0, frame = 0
 3827              		@ frame_needed = 0, uses_anonymous_args = 0
 3828              		@ link register save eliminated.
 589:lib/TinyUSB/src/portable/synopsys/dwc2/dcd_dwc2.c ****   dwc2_regs_t* dwc2 = DWC2_REG(rhport);
 3829              		.loc 1 589 3 view .LVU1252
 590:lib/TinyUSB/src/portable/synopsys/dwc2/dcd_dwc2.c **** 
 3830              		.loc 1 590 3 view .LVU1253
 3831              	.LBB394:
 3832              	.LBI394:
  79:lib/TinyUSB/src/portable/synopsys/dwc2/dwc2_common.h ****   if (rhport >= DWC2_CONTROLLER_COUNT) {
 3833              		.loc 2 79 50 view .LVU1254
 3834              	.LBB395:
  80:lib/TinyUSB/src/portable/synopsys/dwc2/dwc2_common.h ****     // user mis-configured, ignore and use first controller
ARM GAS  C:\Users\krisa\AppData\Local\Temp\ccNljk5K.s 			page 161


 3835              		.loc 2 80 3 view .LVU1255
  80:lib/TinyUSB/src/portable/synopsys/dwc2/dwc2_common.h ****     // user mis-configured, ignore and use first controller
 3836              		.loc 2 80 6 is_stmt 0 view .LVU1256
 3837 0000 0128     		cmp	r0, #1
 3838 0002 00D9     		bls	.L238
  82:lib/TinyUSB/src/portable/synopsys/dwc2/dwc2_common.h ****   }
 3839              		.loc 2 82 12 view .LVU1257
 3840 0004 0020     		movs	r0, #0
 3841              	.LVL380:
 3842              	.L238:
  84:lib/TinyUSB/src/portable/synopsys/dwc2/dwc2_common.h **** }
 3843              		.loc 2 84 3 is_stmt 1 view .LVU1258
  84:lib/TinyUSB/src/portable/synopsys/dwc2/dwc2_common.h **** }
 3844              		.loc 2 84 48 is_stmt 0 view .LVU1259
 3845 0006 0001     		lsls	r0, r0, #4
 3846              	.LVL381:
  84:lib/TinyUSB/src/portable/synopsys/dwc2/dwc2_common.h **** }
 3847              		.loc 2 84 48 view .LVU1260
 3848 0008 084B     		ldr	r3, .L242
 3849 000a 1B58     		ldr	r3, [r3, r0]
 3850              	.LVL382:
  84:lib/TinyUSB/src/portable/synopsys/dwc2/dwc2_common.h **** }
 3851              		.loc 2 84 48 view .LVU1261
 3852              	.LBE395:
 3853              	.LBE394:
 592:lib/TinyUSB/src/portable/synopsys/dwc2/dcd_dwc2.c **** 
 3854              		.loc 1 592 3 is_stmt 1 view .LVU1262
 592:lib/TinyUSB/src/portable/synopsys/dwc2/dcd_dwc2.c **** 
 3855              		.loc 1 592 20 is_stmt 0 view .LVU1263
 3856 000c 084A     		ldr	r2, .L242+4
 3857 000e D171     		strb	r1, [r2, #7]
 594:lib/TinyUSB/src/portable/synopsys/dwc2/dcd_dwc2.c ****     dwc2->gintsts = GINTSTS_SOF;
 3858              		.loc 1 594 3 is_stmt 1 view .LVU1264
 594:lib/TinyUSB/src/portable/synopsys/dwc2/dcd_dwc2.c ****     dwc2->gintsts = GINTSTS_SOF;
 3859              		.loc 1 594 6 is_stmt 0 view .LVU1265
 3860 0010 31B1     		cbz	r1, .L239
 595:lib/TinyUSB/src/portable/synopsys/dwc2/dcd_dwc2.c ****     dwc2->gintmsk |= GINTMSK_SOFM;
 3861              		.loc 1 595 5 is_stmt 1 view .LVU1266
 595:lib/TinyUSB/src/portable/synopsys/dwc2/dcd_dwc2.c ****     dwc2->gintmsk |= GINTMSK_SOFM;
 3862              		.loc 1 595 19 is_stmt 0 view .LVU1267
 3863 0012 0822     		movs	r2, #8
 3864 0014 5A61     		str	r2, [r3, #20]
 596:lib/TinyUSB/src/portable/synopsys/dwc2/dcd_dwc2.c ****   } else {
 3865              		.loc 1 596 5 is_stmt 1 view .LVU1268
 596:lib/TinyUSB/src/portable/synopsys/dwc2/dcd_dwc2.c ****   } else {
 3866              		.loc 1 596 19 is_stmt 0 view .LVU1269
 3867 0016 9A69     		ldr	r2, [r3, #24]
 3868 0018 42F00802 		orr	r2, r2, #8
 3869 001c 9A61     		str	r2, [r3, #24]
 3870 001e 7047     		bx	lr
 3871              	.L239:
 598:lib/TinyUSB/src/portable/synopsys/dwc2/dcd_dwc2.c ****   }
 3872              		.loc 1 598 5 is_stmt 1 view .LVU1270
 598:lib/TinyUSB/src/portable/synopsys/dwc2/dcd_dwc2.c ****   }
 3873              		.loc 1 598 19 is_stmt 0 view .LVU1271
 3874 0020 9A69     		ldr	r2, [r3, #24]
 3875 0022 22F00802 		bic	r2, r2, #8
ARM GAS  C:\Users\krisa\AppData\Local\Temp\ccNljk5K.s 			page 162


 3876 0026 9A61     		str	r2, [r3, #24]
 600:lib/TinyUSB/src/portable/synopsys/dwc2/dcd_dwc2.c **** 
 3877              		.loc 1 600 1 view .LVU1272
 3878 0028 7047     		bx	lr
 3879              	.L243:
 3880 002a 00BF     		.align	2
 3881              	.L242:
 3882 002c 00000000 		.word	.LANCHOR0
 3883 0030 00000000 		.word	.LANCHOR1
 3884              		.cfi_endproc
 3885              	.LFE360:
 3887              		.section	.text.dcd_edpt_open,"ax",%progbits
 3888              		.align	1
 3889              		.global	dcd_edpt_open
 3890              		.syntax unified
 3891              		.thumb
 3892              		.thumb_func
 3894              	dcd_edpt_open:
 3895              	.LVL383:
 3896              	.LFB361:
 606:lib/TinyUSB/src/portable/synopsys/dwc2/dcd_dwc2.c ****   TU_ASSERT(dfifo_alloc(rhport, desc_edpt->bEndpointAddress, tu_edpt_packet_size(desc_edpt),
 3897              		.loc 1 606 75 is_stmt 1 view -0
 3898              		.cfi_startproc
 3899              		@ args = 0, pretend = 0, frame = 0
 3900              		@ frame_needed = 0, uses_anonymous_args = 0
 606:lib/TinyUSB/src/portable/synopsys/dwc2/dcd_dwc2.c ****   TU_ASSERT(dfifo_alloc(rhport, desc_edpt->bEndpointAddress, tu_edpt_packet_size(desc_edpt),
 3901              		.loc 1 606 75 is_stmt 0 view .LVU1274
 3902 0000 70B5     		push	{r4, r5, r6, lr}
 3903              	.LCFI29:
 3904              		.cfi_def_cfa_offset 16
 3905              		.cfi_offset 4, -16
 3906              		.cfi_offset 5, -12
 3907              		.cfi_offset 6, -8
 3908              		.cfi_offset 14, -4
 3909 0002 0546     		mov	r5, r0
 3910 0004 0C46     		mov	r4, r1
 607:lib/TinyUSB/src/portable/synopsys/dwc2/dcd_dwc2.c ****                        desc_edpt->bmAttributes.xfer == TUSB_XFER_BULK));
 3911              		.loc 1 607 3 is_stmt 1 view .LVU1275
 607:lib/TinyUSB/src/portable/synopsys/dwc2/dcd_dwc2.c ****                        desc_edpt->bmAttributes.xfer == TUSB_XFER_BULK));
 3912              		.loc 1 607 3 view .LVU1276
 3913              	.LVL384:
 3914              	.LBB396:
 3915              	.LBI396:
 560:lib/TinyUSB/src/common/tusb_types.h ****   return tu_le16toh(desc_ep->wMaxPacketSize) & 0x7FF;
 3916              		.loc 3 560 46 view .LVU1277
 3917              	.LBB397:
 3918              		.loc 3 561 3 view .LVU1278
 3919              		.loc 3 561 10 is_stmt 0 view .LVU1279
 3920 0006 8A88     		ldrh	r2, [r1, #4]	@ unaligned
 3921              	.LVL385:
 3922              		.loc 3 561 10 view .LVU1280
 3923              	.LBE397:
 3924              	.LBE396:
 607:lib/TinyUSB/src/portable/synopsys/dwc2/dcd_dwc2.c ****                        desc_edpt->bmAttributes.xfer == TUSB_XFER_BULK));
 3925              		.loc 1 607 3 view .LVU1281
 3926 0008 CB78     		ldrb	r3, [r1, #3]	@ zero_extendqisi2
 3927 000a 03F00303 		and	r3, r3, #3
ARM GAS  C:\Users\krisa\AppData\Local\Temp\ccNljk5K.s 			page 163


 3928 000e 022B     		cmp	r3, #2
 3929 0010 14BF     		ite	ne
 3930 0012 0023     		movne	r3, #0
 3931 0014 0123     		moveq	r3, #1
 3932 0016 C2F30A02 		ubfx	r2, r2, #0, #11
 3933 001a 8978     		ldrb	r1, [r1, #2]	@ zero_extendqisi2
 3934              	.LVL386:
 607:lib/TinyUSB/src/portable/synopsys/dwc2/dcd_dwc2.c ****                        desc_edpt->bmAttributes.xfer == TUSB_XFER_BULK));
 3935              		.loc 1 607 3 view .LVU1282
 3936 001c FFF7FEFF 		bl	dfifo_alloc
 3937              	.LVL387:
 607:lib/TinyUSB/src/portable/synopsys/dwc2/dcd_dwc2.c ****                        desc_edpt->bmAttributes.xfer == TUSB_XFER_BULK));
 3938              		.loc 1 607 3 view .LVU1283
 3939 0020 0646     		mov	r6, r0
 3940 0022 40B9     		cbnz	r0, .L245
 607:lib/TinyUSB/src/portable/synopsys/dwc2/dcd_dwc2.c ****                        desc_edpt->bmAttributes.xfer == TUSB_XFER_BULK));
 3941              		.loc 1 607 3 is_stmt 1 discriminator 1 view .LVU1284
 607:lib/TinyUSB/src/portable/synopsys/dwc2/dcd_dwc2.c ****                        desc_edpt->bmAttributes.xfer == TUSB_XFER_BULK));
 3942              		.loc 1 607 3 discriminator 1 view .LVU1285
 607:lib/TinyUSB/src/portable/synopsys/dwc2/dcd_dwc2.c ****                        desc_edpt->bmAttributes.xfer == TUSB_XFER_BULK));
 3943              		.loc 1 607 3 discriminator 1 view .LVU1286
 607:lib/TinyUSB/src/portable/synopsys/dwc2/dcd_dwc2.c ****                        desc_edpt->bmAttributes.xfer == TUSB_XFER_BULK));
 3944              		.loc 1 607 3 discriminator 1 view .LVU1287
 3945              	.LBB398:
 607:lib/TinyUSB/src/portable/synopsys/dwc2/dcd_dwc2.c ****                        desc_edpt->bmAttributes.xfer == TUSB_XFER_BULK));
 3946              		.loc 1 607 3 discriminator 1 view .LVU1288
 3947              	.LVL388:
 607:lib/TinyUSB/src/portable/synopsys/dwc2/dcd_dwc2.c ****                        desc_edpt->bmAttributes.xfer == TUSB_XFER_BULK));
 3948              		.loc 1 607 3 discriminator 1 view .LVU1289
 3949 0024 4FF0E023 		mov	r3, #-536813568
 3950 0028 D3F8F03D 		ldr	r3, [r3, #3568]
 3951 002c 13F0010F 		tst	r3, #1
 3952 0030 05D0     		beq	.L247
 607:lib/TinyUSB/src/portable/synopsys/dwc2/dcd_dwc2.c ****                        desc_edpt->bmAttributes.xfer == TUSB_XFER_BULK));
 3953              		.loc 1 607 3 discriminator 3 view .LVU1290
 3954              		.syntax unified
 3955              	@ 607 "lib/TinyUSB/src/portable/synopsys/dwc2/dcd_dwc2.c" 1
 3956 0032 00BE     		BKPT #0
 3957              	
 3958              	@ 0 "" 2
 3959              		.thumb
 3960              		.syntax unified
 3961              	.LBE398:
 607:lib/TinyUSB/src/portable/synopsys/dwc2/dcd_dwc2.c ****                        desc_edpt->bmAttributes.xfer == TUSB_XFER_BULK));
 3962              		.loc 1 607 3 discriminator 3 view .LVU1291
 607:lib/TinyUSB/src/portable/synopsys/dwc2/dcd_dwc2.c ****                        desc_edpt->bmAttributes.xfer == TUSB_XFER_BULK));
 3963              		.loc 1 607 3 discriminator 3 view .LVU1292
 3964 0034 03E0     		b	.L247
 3965              	.LVL389:
 3966              	.L245:
 607:lib/TinyUSB/src/portable/synopsys/dwc2/dcd_dwc2.c ****                        desc_edpt->bmAttributes.xfer == TUSB_XFER_BULK));
 3967              		.loc 1 607 3 discriminator 2 view .LVU1293
 609:lib/TinyUSB/src/portable/synopsys/dwc2/dcd_dwc2.c ****   return true;
 3968              		.loc 1 609 3 discriminator 2 view .LVU1294
 3969 0036 2146     		mov	r1, r4
 3970 0038 2846     		mov	r0, r5
 3971 003a FFF7FEFF 		bl	edpt_activate
ARM GAS  C:\Users\krisa\AppData\Local\Temp\ccNljk5K.s 			page 164


 3972              	.LVL390:
 610:lib/TinyUSB/src/portable/synopsys/dwc2/dcd_dwc2.c **** }
 3973              		.loc 1 610 3 discriminator 2 view .LVU1295
 3974              	.L247:
 611:lib/TinyUSB/src/portable/synopsys/dwc2/dcd_dwc2.c **** 
 3975              		.loc 1 611 1 is_stmt 0 view .LVU1296
 3976 003e 3046     		mov	r0, r6
 3977 0040 70BD     		pop	{r4, r5, r6, pc}
 611:lib/TinyUSB/src/portable/synopsys/dwc2/dcd_dwc2.c **** 
 3978              		.loc 1 611 1 view .LVU1297
 3979              		.cfi_endproc
 3980              	.LFE361:
 3982              		.section	.text.dcd_edpt_close_all,"ax",%progbits
 3983              		.align	1
 3984              		.global	dcd_edpt_close_all
 3985              		.syntax unified
 3986              		.thumb
 3987              		.thumb_func
 3989              	dcd_edpt_close_all:
 3990              	.LVL391:
 3991              	.LFB362:
 614:lib/TinyUSB/src/portable/synopsys/dwc2/dcd_dwc2.c ****   dwc2_regs_t* dwc2 = DWC2_REG(rhport);
 3992              		.loc 1 614 41 is_stmt 1 view -0
 3993              		.cfi_startproc
 3994              		@ args = 0, pretend = 0, frame = 0
 3995              		@ frame_needed = 0, uses_anonymous_args = 0
 614:lib/TinyUSB/src/portable/synopsys/dwc2/dcd_dwc2.c ****   dwc2_regs_t* dwc2 = DWC2_REG(rhport);
 3996              		.loc 1 614 41 is_stmt 0 view .LVU1299
 3997 0000 F8B5     		push	{r3, r4, r5, r6, r7, lr}
 3998              	.LCFI30:
 3999              		.cfi_def_cfa_offset 24
 4000              		.cfi_offset 3, -24
 4001              		.cfi_offset 4, -20
 4002              		.cfi_offset 5, -16
 4003              		.cfi_offset 6, -12
 4004              		.cfi_offset 7, -8
 4005              		.cfi_offset 14, -4
 4006 0002 0646     		mov	r6, r0
 615:lib/TinyUSB/src/portable/synopsys/dwc2/dcd_dwc2.c ****   uint8_t const ep_count = _dwc2_controller[rhport].ep_count;
 4007              		.loc 1 615 3 is_stmt 1 view .LVU1300
 4008              	.LVL392:
 4009              	.LBB399:
 4010              	.LBI399:
  79:lib/TinyUSB/src/portable/synopsys/dwc2/dwc2_common.h ****   if (rhport >= DWC2_CONTROLLER_COUNT) {
 4011              		.loc 2 79 50 view .LVU1301
 4012              	.LBB400:
  80:lib/TinyUSB/src/portable/synopsys/dwc2/dwc2_common.h ****     // user mis-configured, ignore and use first controller
 4013              		.loc 2 80 3 view .LVU1302
  80:lib/TinyUSB/src/portable/synopsys/dwc2/dwc2_common.h ****     // user mis-configured, ignore and use first controller
 4014              		.loc 2 80 6 is_stmt 0 view .LVU1303
 4015 0004 0128     		cmp	r0, #1
 4016 0006 12D9     		bls	.L260
  82:lib/TinyUSB/src/portable/synopsys/dwc2/dwc2_common.h ****   }
 4017              		.loc 2 82 12 view .LVU1304
 4018 0008 0022     		movs	r2, #0
 4019              	.L250:
 4020              	.LVL393:
ARM GAS  C:\Users\krisa\AppData\Local\Temp\ccNljk5K.s 			page 165


  84:lib/TinyUSB/src/portable/synopsys/dwc2/dwc2_common.h **** }
 4021              		.loc 2 84 3 is_stmt 1 view .LVU1305
  84:lib/TinyUSB/src/portable/synopsys/dwc2/dwc2_common.h **** }
 4022              		.loc 2 84 48 is_stmt 0 view .LVU1306
 4023 000a 264B     		ldr	r3, .L263
 4024 000c 1201     		lsls	r2, r2, #4
 4025              	.LVL394:
  84:lib/TinyUSB/src/portable/synopsys/dwc2/dwc2_common.h **** }
 4026              		.loc 2 84 48 view .LVU1307
 4027 000e 9C58     		ldr	r4, [r3, r2]
 4028              	.LVL395:
  84:lib/TinyUSB/src/portable/synopsys/dwc2/dwc2_common.h **** }
 4029              		.loc 2 84 48 view .LVU1308
 4030              	.LBE400:
 4031              	.LBE399:
 616:lib/TinyUSB/src/portable/synopsys/dwc2/dcd_dwc2.c **** 
 4032              		.loc 1 616 3 is_stmt 1 view .LVU1309
 616:lib/TinyUSB/src/portable/synopsys/dwc2/dcd_dwc2.c **** 
 4033              		.loc 1 616 17 is_stmt 0 view .LVU1310
 4034 0010 03EB0613 		add	r3, r3, r6, lsl #4
 4035 0014 1D7A     		ldrb	r5, [r3, #8]	@ zero_extendqisi2
 4036              	.LVL396:
 618:lib/TinyUSB/src/portable/synopsys/dwc2/dcd_dwc2.c **** 
 4037              		.loc 1 618 3 is_stmt 1 view .LVU1311
 4038 0016 0020     		movs	r0, #0
 4039              	.LVL397:
 618:lib/TinyUSB/src/portable/synopsys/dwc2/dcd_dwc2.c **** 
 4040              		.loc 1 618 3 is_stmt 0 view .LVU1312
 4041 0018 FFF7FEFF 		bl	usbd_spin_lock
 4042              	.LVL398:
 620:lib/TinyUSB/src/portable/synopsys/dwc2/dcd_dwc2.c **** 
 4043              		.loc 1 620 3 is_stmt 1 view .LVU1313
 620:lib/TinyUSB/src/portable/synopsys/dwc2/dcd_dwc2.c **** 
 4044              		.loc 1 620 34 is_stmt 0 view .LVU1314
 4045 001c 224B     		ldr	r3, .L263+4
 4046 001e 0022     		movs	r2, #0
 4047 0020 9A71     		strb	r2, [r3, #6]
 623:lib/TinyUSB/src/portable/synopsys/dwc2/dcd_dwc2.c **** 
 4048              		.loc 1 623 3 is_stmt 1 view .LVU1315
 623:lib/TinyUSB/src/portable/synopsys/dwc2/dcd_dwc2.c **** 
 4049              		.loc 1 623 18 is_stmt 0 view .LVU1316
 4050 0022 4FF00113 		mov	r3, #65537
 4051 0026 C4F81C38 		str	r3, [r4, #2076]
 625:lib/TinyUSB/src/portable/synopsys/dwc2/dcd_dwc2.c ****     for (uint8_t d = 0; d < 2; d++) {
 4052              		.loc 1 625 3 is_stmt 1 view .LVU1317
 4053              	.LBB402:
 625:lib/TinyUSB/src/portable/synopsys/dwc2/dcd_dwc2.c ****     for (uint8_t d = 0; d < 2; d++) {
 4054              		.loc 1 625 8 view .LVU1318
 4055              	.LVL399:
 625:lib/TinyUSB/src/portable/synopsys/dwc2/dcd_dwc2.c ****     for (uint8_t d = 0; d < 2; d++) {
 4056              		.loc 1 625 16 is_stmt 0 view .LVU1319
 4057 002a 0120     		movs	r0, #1
 625:lib/TinyUSB/src/portable/synopsys/dwc2/dcd_dwc2.c ****     for (uint8_t d = 0; d < 2; d++) {
 4058              		.loc 1 625 3 view .LVU1320
 4059 002c 22E0     		b	.L251
 4060              	.LVL400:
 4061              	.L260:
ARM GAS  C:\Users\krisa\AppData\Local\Temp\ccNljk5K.s 			page 166


 625:lib/TinyUSB/src/portable/synopsys/dwc2/dcd_dwc2.c ****     for (uint8_t d = 0; d < 2; d++) {
 4062              		.loc 1 625 3 view .LVU1321
 4063              	.LBE402:
 4064              	.LBB409:
 4065              	.LBB401:
  80:lib/TinyUSB/src/portable/synopsys/dwc2/dwc2_common.h ****     // user mis-configured, ignore and use first controller
 4066              		.loc 2 80 6 view .LVU1322
 4067 002e 0246     		mov	r2, r0
 4068 0030 EBE7     		b	.L250
 4069              	.LVL401:
 4070              	.L252:
  80:lib/TinyUSB/src/portable/synopsys/dwc2/dwc2_common.h ****     // user mis-configured, ignore and use first controller
 4071              		.loc 2 80 6 view .LVU1323
 4072              	.LBE401:
 4073              	.LBE409:
 4074              	.LBB410:
 4075              	.LBB403:
 4076              	.LBB404:
 631:lib/TinyUSB/src/portable/synopsys/dwc2/dcd_dwc2.c ****     }
 4077              		.loc 1 631 7 is_stmt 1 discriminator 2 view .LVU1324
 631:lib/TinyUSB/src/portable/synopsys/dwc2/dcd_dwc2.c ****     }
 4078              		.loc 1 631 23 is_stmt 0 discriminator 2 view .LVU1325
 4079 0032 C2F10102 		rsb	r2, r2, #1
 4080              	.LVL402:
 631:lib/TinyUSB/src/portable/synopsys/dwc2/dcd_dwc2.c ****     }
 4081              		.loc 1 631 36 discriminator 2 view .LVU1326
 4082 0036 02EB4C02 		add	r2, r2, ip, lsl #1
 4083 003a 1C49     		ldr	r1, .L263+8
 4084 003c 01EB0212 		add	r2, r1, r2, lsl #4
 4085 0040 0021     		movs	r1, #0
 4086 0042 5181     		strh	r1, [r2, #10]	@ movhi
 4087              	.LBE404:
 626:lib/TinyUSB/src/portable/synopsys/dwc2/dcd_dwc2.c ****       dwc2_dep_t* dep = &dwc2->ep[d][n];
 4088              		.loc 1 626 32 is_stmt 1 discriminator 2 view .LVU1327
 626:lib/TinyUSB/src/portable/synopsys/dwc2/dcd_dwc2.c ****       dwc2_dep_t* dep = &dwc2->ep[d][n];
 4089              		.loc 1 626 33 is_stmt 0 discriminator 2 view .LVU1328
 4090 0044 0133     		adds	r3, r3, #1
 4091              	.LVL403:
 626:lib/TinyUSB/src/portable/synopsys/dwc2/dcd_dwc2.c ****       dwc2_dep_t* dep = &dwc2->ep[d][n];
 4092              		.loc 1 626 33 discriminator 2 view .LVU1329
 4093 0046 DBB2     		uxtb	r3, r3
 4094              	.LVL404:
 4095              	.L254:
 626:lib/TinyUSB/src/portable/synopsys/dwc2/dcd_dwc2.c ****       dwc2_dep_t* dep = &dwc2->ep[d][n];
 4096              		.loc 1 626 25 is_stmt 1 discriminator 1 view .LVU1330
 626:lib/TinyUSB/src/portable/synopsys/dwc2/dcd_dwc2.c ****       dwc2_dep_t* dep = &dwc2->ep[d][n];
 4097              		.loc 1 626 5 is_stmt 0 discriminator 1 view .LVU1331
 4098 0048 012B     		cmp	r3, #1
 4099 004a 11D8     		bhi	.L261
 4100              	.LBB407:
 627:lib/TinyUSB/src/portable/synopsys/dwc2/dcd_dwc2.c ****       if (edpt_is_enabled(dep)) {
 4101              		.loc 1 627 7 is_stmt 1 view .LVU1332
 627:lib/TinyUSB/src/portable/synopsys/dwc2/dcd_dwc2.c ****       if (edpt_is_enabled(dep)) {
 4102              		.loc 1 627 37 is_stmt 0 view .LVU1333
 4103 004c 1A46     		mov	r2, r3
 4104 004e 8446     		mov	ip, r0
 4105              	.LVL405:
ARM GAS  C:\Users\krisa\AppData\Local\Temp\ccNljk5K.s 			page 167


 628:lib/TinyUSB/src/portable/synopsys/dwc2/dcd_dwc2.c ****         dep->ctl |= EPCTL_SNAK | EPCTL_EPDIS;
 4106              		.loc 1 628 7 is_stmt 1 view .LVU1334
 4107              	.LBB405:
 4108              	.LBI405:
  97:lib/TinyUSB/src/portable/synopsys/dwc2/dcd_dwc2.c ****   return (dep->ctl & EPCTL_EPENA) != 0;
 4109              		.loc 1 97 42 view .LVU1335
 4110              	.LBB406:
  98:lib/TinyUSB/src/portable/synopsys/dwc2/dcd_dwc2.c **** }
 4111              		.loc 1 98 3 view .LVU1336
  98:lib/TinyUSB/src/portable/synopsys/dwc2/dcd_dwc2.c **** }
 4112              		.loc 1 98 14 is_stmt 0 view .LVU1337
 4113 0050 00EB0311 		add	r1, r0, r3, lsl #4
 4114 0054 4831     		adds	r1, r1, #72
 4115 0056 4901     		lsls	r1, r1, #5
 4116 0058 6158     		ldr	r1, [r4, r1]
 4117              	.LVL406:
  98:lib/TinyUSB/src/portable/synopsys/dwc2/dcd_dwc2.c **** }
 4118              		.loc 1 98 14 view .LVU1338
 4119              	.LBE406:
 4120              	.LBE405:
 628:lib/TinyUSB/src/portable/synopsys/dwc2/dcd_dwc2.c ****         dep->ctl |= EPCTL_SNAK | EPCTL_EPDIS;
 4121              		.loc 1 628 10 view .LVU1339
 4122 005a 0029     		cmp	r1, #0
 4123 005c E9DA     		bge	.L252
 4124              	.LVL407:
 629:lib/TinyUSB/src/portable/synopsys/dwc2/dcd_dwc2.c ****       }
 4125              		.loc 1 629 9 is_stmt 1 view .LVU1340
 629:lib/TinyUSB/src/portable/synopsys/dwc2/dcd_dwc2.c ****       }
 4126              		.loc 1 629 18 is_stmt 0 view .LVU1341
 4127 005e 00EB0311 		add	r1, r0, r3, lsl #4
 4128 0062 4831     		adds	r1, r1, #72
 4129 0064 4901     		lsls	r1, r1, #5
 4130 0066 6758     		ldr	r7, [r4, r1]
 4131 0068 47F09047 		orr	r7, r7, #1207959552
 4132 006c 6750     		str	r7, [r4, r1]
 4133 006e E0E7     		b	.L252
 4134              	.LVL408:
 4135              	.L261:
 629:lib/TinyUSB/src/portable/synopsys/dwc2/dcd_dwc2.c ****       }
 4136              		.loc 1 629 18 view .LVU1342
 4137              	.LBE407:
 4138              	.LBE403:
 625:lib/TinyUSB/src/portable/synopsys/dwc2/dcd_dwc2.c ****     for (uint8_t d = 0; d < 2; d++) {
 4139              		.loc 1 625 37 is_stmt 1 discriminator 2 view .LVU1343
 625:lib/TinyUSB/src/portable/synopsys/dwc2/dcd_dwc2.c ****     for (uint8_t d = 0; d < 2; d++) {
 4140              		.loc 1 625 38 is_stmt 0 discriminator 2 view .LVU1344
 4141 0070 0130     		adds	r0, r0, #1
 4142              	.LVL409:
 625:lib/TinyUSB/src/portable/synopsys/dwc2/dcd_dwc2.c ****     for (uint8_t d = 0; d < 2; d++) {
 4143              		.loc 1 625 38 discriminator 2 view .LVU1345
 4144 0072 C0B2     		uxtb	r0, r0
 4145              	.LVL410:
 4146              	.L251:
 625:lib/TinyUSB/src/portable/synopsys/dwc2/dcd_dwc2.c ****     for (uint8_t d = 0; d < 2; d++) {
 4147              		.loc 1 625 23 is_stmt 1 discriminator 1 view .LVU1346
 625:lib/TinyUSB/src/portable/synopsys/dwc2/dcd_dwc2.c ****     for (uint8_t d = 0; d < 2; d++) {
 4148              		.loc 1 625 3 is_stmt 0 discriminator 1 view .LVU1347
ARM GAS  C:\Users\krisa\AppData\Local\Temp\ccNljk5K.s 			page 168


 4149 0074 A842     		cmp	r0, r5
 4150 0076 01D2     		bcs	.L262
 4151              	.LBB408:
 626:lib/TinyUSB/src/portable/synopsys/dwc2/dcd_dwc2.c ****       dwc2_dep_t* dep = &dwc2->ep[d][n];
 4152              		.loc 1 626 18 view .LVU1348
 4153 0078 0023     		movs	r3, #0
 4154 007a E5E7     		b	.L254
 4155              	.L262:
 4156              	.LBE408:
 4157              	.LBE410:
 635:lib/TinyUSB/src/portable/synopsys/dwc2/dcd_dwc2.c ****   dfifo_flush_rx(dwc2);
 4158              		.loc 1 635 3 is_stmt 1 view .LVU1349
 4159              	.LVL411:
 4160              	.LBB411:
 4161              	.LBI411:
  94:lib/TinyUSB/src/portable/synopsys/dwc2/dwc2_common.h ****   // flush TX fifo and wait for it cleared
 4162              		.loc 2 94 42 view .LVU1350
 4163              	.LBB412:
  96:lib/TinyUSB/src/portable/synopsys/dwc2/dwc2_common.h ****   while (0 != (dwc2->grstctl & GRSTCTL_TXFFLSH_Msk)) {}
 4164              		.loc 2 96 3 view .LVU1351
  96:lib/TinyUSB/src/portable/synopsys/dwc2/dwc2_common.h ****   while (0 != (dwc2->grstctl & GRSTCTL_TXFFLSH_Msk)) {}
 4165              		.loc 2 96 17 is_stmt 0 view .LVU1352
 4166 007c 4FF48463 		mov	r3, #1056
 4167 0080 2361     		str	r3, [r4, #16]
  97:lib/TinyUSB/src/portable/synopsys/dwc2/dwc2_common.h **** }
 4168              		.loc 2 97 3 is_stmt 1 view .LVU1353
 4169              	.L255:
  97:lib/TinyUSB/src/portable/synopsys/dwc2/dwc2_common.h **** }
 4170              		.loc 2 97 55 view .LVU1354
  97:lib/TinyUSB/src/portable/synopsys/dwc2/dwc2_common.h **** }
 4171              		.loc 2 97 9 view .LVU1355
  97:lib/TinyUSB/src/portable/synopsys/dwc2/dwc2_common.h **** }
 4172              		.loc 2 97 20 is_stmt 0 view .LVU1356
 4173 0082 2369     		ldr	r3, [r4, #16]
  97:lib/TinyUSB/src/portable/synopsys/dwc2/dwc2_common.h **** }
 4174              		.loc 2 97 9 view .LVU1357
 4175 0084 13F0200F 		tst	r3, #32
 4176 0088 FBD1     		bne	.L255
 4177              	.LVL412:
  97:lib/TinyUSB/src/portable/synopsys/dwc2/dwc2_common.h **** }
 4178              		.loc 2 97 9 view .LVU1358
 4179              	.LBE412:
 4180              	.LBE411:
 636:lib/TinyUSB/src/portable/synopsys/dwc2/dcd_dwc2.c ****   dfifo_device_init(rhport); // re-init dfifo
 4181              		.loc 1 636 3 is_stmt 1 view .LVU1359
 4182              	.LBB413:
 4183              	.LBI413:
 100:lib/TinyUSB/src/portable/synopsys/dwc2/dwc2_common.h ****   // flush RX fifo and wait for it cleared
 4184              		.loc 2 100 42 view .LVU1360
 4185              	.LBB414:
 102:lib/TinyUSB/src/portable/synopsys/dwc2/dwc2_common.h ****   while (0 != (dwc2->grstctl & GRSTCTL_RXFFLSH_Msk)) {}
 4186              		.loc 2 102 3 view .LVU1361
 102:lib/TinyUSB/src/portable/synopsys/dwc2/dwc2_common.h ****   while (0 != (dwc2->grstctl & GRSTCTL_RXFFLSH_Msk)) {}
 4187              		.loc 2 102 17 is_stmt 0 view .LVU1362
 4188 008a 1023     		movs	r3, #16
 4189 008c 2361     		str	r3, [r4, #16]
 4190              		.loc 2 103 3 is_stmt 1 view .LVU1363
ARM GAS  C:\Users\krisa\AppData\Local\Temp\ccNljk5K.s 			page 169


 4191              	.L256:
 4192              		.loc 2 103 55 view .LVU1364
 4193              		.loc 2 103 9 view .LVU1365
 4194              		.loc 2 103 20 is_stmt 0 view .LVU1366
 4195 008e 2369     		ldr	r3, [r4, #16]
 4196              		.loc 2 103 9 view .LVU1367
 4197 0090 13F0100F 		tst	r3, #16
 4198 0094 FBD1     		bne	.L256
 4199              	.LVL413:
 4200              		.loc 2 103 9 view .LVU1368
 4201              	.LBE414:
 4202              	.LBE413:
 637:lib/TinyUSB/src/portable/synopsys/dwc2/dcd_dwc2.c **** 
 4203              		.loc 1 637 3 is_stmt 1 view .LVU1369
 4204 0096 3046     		mov	r0, r6
 4205              	.LVL414:
 637:lib/TinyUSB/src/portable/synopsys/dwc2/dcd_dwc2.c **** 
 4206              		.loc 1 637 3 is_stmt 0 view .LVU1370
 4207 0098 FFF7FEFF 		bl	dfifo_device_init
 4208              	.LVL415:
 639:lib/TinyUSB/src/portable/synopsys/dwc2/dcd_dwc2.c **** }
 4209              		.loc 1 639 3 is_stmt 1 view .LVU1371
 4210 009c 0020     		movs	r0, #0
 4211 009e FFF7FEFF 		bl	usbd_spin_unlock
 4212              	.LVL416:
 640:lib/TinyUSB/src/portable/synopsys/dwc2/dcd_dwc2.c **** 
 4213              		.loc 1 640 1 is_stmt 0 view .LVU1372
 4214 00a2 F8BD     		pop	{r3, r4, r5, r6, r7, pc}
 4215              	.LVL417:
 4216              	.L264:
 640:lib/TinyUSB/src/portable/synopsys/dwc2/dcd_dwc2.c **** 
 4217              		.loc 1 640 1 view .LVU1373
 4218              		.align	2
 4219              	.L263:
 4220 00a4 00000000 		.word	.LANCHOR0
 4221 00a8 00000000 		.word	.LANCHOR1
 4222 00ac 00000000 		.word	.LANCHOR3
 4223              		.cfi_endproc
 4224              	.LFE362:
 4226              		.section	.text.dcd_edpt_iso_alloc,"ax",%progbits
 4227              		.align	1
 4228              		.global	dcd_edpt_iso_alloc
 4229              		.syntax unified
 4230              		.thumb
 4231              		.thumb_func
 4233              	dcd_edpt_iso_alloc:
 4234              	.LVL418:
 4235              	.LFB363:
 642:lib/TinyUSB/src/portable/synopsys/dwc2/dcd_dwc2.c ****   TU_ASSERT(dfifo_alloc(rhport, ep_addr, largest_packet_size, false));
 4236              		.loc 1 642 88 is_stmt 1 view -0
 4237              		.cfi_startproc
 4238              		@ args = 0, pretend = 0, frame = 0
 4239              		@ frame_needed = 0, uses_anonymous_args = 0
 642:lib/TinyUSB/src/portable/synopsys/dwc2/dcd_dwc2.c ****   TU_ASSERT(dfifo_alloc(rhport, ep_addr, largest_packet_size, false));
 4240              		.loc 1 642 88 is_stmt 0 view .LVU1375
 4241 0000 08B5     		push	{r3, lr}
 4242              	.LCFI31:
ARM GAS  C:\Users\krisa\AppData\Local\Temp\ccNljk5K.s 			page 170


 4243              		.cfi_def_cfa_offset 8
 4244              		.cfi_offset 3, -8
 4245              		.cfi_offset 14, -4
 643:lib/TinyUSB/src/portable/synopsys/dwc2/dcd_dwc2.c ****   return true;
 4246              		.loc 1 643 3 is_stmt 1 view .LVU1376
 643:lib/TinyUSB/src/portable/synopsys/dwc2/dcd_dwc2.c ****   return true;
 4247              		.loc 1 643 3 view .LVU1377
 4248 0002 0023     		movs	r3, #0
 4249 0004 FFF7FEFF 		bl	dfifo_alloc
 4250              	.LVL419:
 643:lib/TinyUSB/src/portable/synopsys/dwc2/dcd_dwc2.c ****   return true;
 4251              		.loc 1 643 3 is_stmt 0 view .LVU1378
 4252 0008 00B1     		cbz	r0, .L269
 4253              	.L266:
 645:lib/TinyUSB/src/portable/synopsys/dwc2/dcd_dwc2.c **** 
 4254              		.loc 1 645 1 view .LVU1379
 4255 000a 08BD     		pop	{r3, pc}
 4256              	.L269:
 643:lib/TinyUSB/src/portable/synopsys/dwc2/dcd_dwc2.c ****   return true;
 4257              		.loc 1 643 3 is_stmt 1 discriminator 1 view .LVU1380
 643:lib/TinyUSB/src/portable/synopsys/dwc2/dcd_dwc2.c ****   return true;
 4258              		.loc 1 643 3 discriminator 1 view .LVU1381
 643:lib/TinyUSB/src/portable/synopsys/dwc2/dcd_dwc2.c ****   return true;
 4259              		.loc 1 643 3 discriminator 1 view .LVU1382
 643:lib/TinyUSB/src/portable/synopsys/dwc2/dcd_dwc2.c ****   return true;
 4260              		.loc 1 643 3 discriminator 1 view .LVU1383
 4261              	.LBB415:
 643:lib/TinyUSB/src/portable/synopsys/dwc2/dcd_dwc2.c ****   return true;
 4262              		.loc 1 643 3 discriminator 1 view .LVU1384
 4263              	.LVL420:
 643:lib/TinyUSB/src/portable/synopsys/dwc2/dcd_dwc2.c ****   return true;
 4264              		.loc 1 643 3 discriminator 1 view .LVU1385
 4265 000c 4FF0E023 		mov	r3, #-536813568
 4266 0010 D3F8F03D 		ldr	r3, [r3, #3568]
 4267 0014 13F0010F 		tst	r3, #1
 4268 0018 F7D0     		beq	.L266
 643:lib/TinyUSB/src/portable/synopsys/dwc2/dcd_dwc2.c ****   return true;
 4269              		.loc 1 643 3 discriminator 3 view .LVU1386
 4270              		.syntax unified
 4271              	@ 643 "lib/TinyUSB/src/portable/synopsys/dwc2/dcd_dwc2.c" 1
 4272 001a 00BE     		BKPT #0
 4273              	
 4274              	@ 0 "" 2
 4275              		.thumb
 4276              		.syntax unified
 4277              	.LBE415:
 643:lib/TinyUSB/src/portable/synopsys/dwc2/dcd_dwc2.c ****   return true;
 4278              		.loc 1 643 3 discriminator 3 view .LVU1387
 643:lib/TinyUSB/src/portable/synopsys/dwc2/dcd_dwc2.c ****   return true;
 4279              		.loc 1 643 3 discriminator 3 view .LVU1388
 4280 001c F5E7     		b	.L266
 4281              		.cfi_endproc
 4282              	.LFE363:
 4284              		.section	.text.dcd_edpt_iso_activate,"ax",%progbits
 4285              		.align	1
 4286              		.global	dcd_edpt_iso_activate
 4287              		.syntax unified
ARM GAS  C:\Users\krisa\AppData\Local\Temp\ccNljk5K.s 			page 171


 4288              		.thumb
 4289              		.thumb_func
 4291              	dcd_edpt_iso_activate:
 4292              	.LVL421:
 4293              	.LFB364:
 647:lib/TinyUSB/src/portable/synopsys/dwc2/dcd_dwc2.c ****   // Disable EP to clear potential incomplete transfers
 4294              		.loc 1 647 91 view -0
 4295              		.cfi_startproc
 4296              		@ args = 0, pretend = 0, frame = 0
 4297              		@ frame_needed = 0, uses_anonymous_args = 0
 647:lib/TinyUSB/src/portable/synopsys/dwc2/dcd_dwc2.c ****   // Disable EP to clear potential incomplete transfers
 4298              		.loc 1 647 91 is_stmt 0 view .LVU1390
 4299 0000 38B5     		push	{r3, r4, r5, lr}
 4300              	.LCFI32:
 4301              		.cfi_def_cfa_offset 16
 4302              		.cfi_offset 3, -16
 4303              		.cfi_offset 4, -12
 4304              		.cfi_offset 5, -8
 4305              		.cfi_offset 14, -4
 4306 0002 0546     		mov	r5, r0
 4307 0004 0C46     		mov	r4, r1
 649:lib/TinyUSB/src/portable/synopsys/dwc2/dcd_dwc2.c ****   edpt_activate(rhport, p_endpoint_desc);
 4308              		.loc 1 649 3 is_stmt 1 view .LVU1391
 4309 0006 0022     		movs	r2, #0
 4310 0008 8978     		ldrb	r1, [r1, #2]	@ zero_extendqisi2
 4311              	.LVL422:
 649:lib/TinyUSB/src/portable/synopsys/dwc2/dcd_dwc2.c ****   edpt_activate(rhport, p_endpoint_desc);
 4312              		.loc 1 649 3 is_stmt 0 view .LVU1392
 4313 000a FFF7FEFF 		bl	edpt_disable
 4314              	.LVL423:
 650:lib/TinyUSB/src/portable/synopsys/dwc2/dcd_dwc2.c ****   return true;
 4315              		.loc 1 650 3 is_stmt 1 view .LVU1393
 4316 000e 2146     		mov	r1, r4
 4317 0010 2846     		mov	r0, r5
 4318 0012 FFF7FEFF 		bl	edpt_activate
 4319              	.LVL424:
 651:lib/TinyUSB/src/portable/synopsys/dwc2/dcd_dwc2.c **** }
 4320              		.loc 1 651 3 view .LVU1394
 652:lib/TinyUSB/src/portable/synopsys/dwc2/dcd_dwc2.c **** 
 4321              		.loc 1 652 1 is_stmt 0 view .LVU1395
 4322 0016 0120     		movs	r0, #1
 4323 0018 38BD     		pop	{r3, r4, r5, pc}
 652:lib/TinyUSB/src/portable/synopsys/dwc2/dcd_dwc2.c **** 
 4324              		.loc 1 652 1 view .LVU1396
 4325              		.cfi_endproc
 4326              	.LFE364:
 4328              		.section	.text.dcd_edpt_xfer,"ax",%progbits
 4329              		.align	1
 4330              		.global	dcd_edpt_xfer
 4331              		.syntax unified
 4332              		.thumb
 4333              		.thumb_func
 4335              	dcd_edpt_xfer:
 4336              	.LVL425:
 4337              	.LFB365:
 654:lib/TinyUSB/src/portable/synopsys/dwc2/dcd_dwc2.c ****   (void) is_isr;
 4338              		.loc 1 654 105 is_stmt 1 view -0
ARM GAS  C:\Users\krisa\AppData\Local\Temp\ccNljk5K.s 			page 172


 4339              		.cfi_startproc
 4340              		@ args = 4, pretend = 0, frame = 0
 4341              		@ frame_needed = 0, uses_anonymous_args = 0
 654:lib/TinyUSB/src/portable/synopsys/dwc2/dcd_dwc2.c ****   (void) is_isr;
 4342              		.loc 1 654 105 is_stmt 0 view .LVU1398
 4343 0000 2DE9F843 		push	{r3, r4, r5, r6, r7, r8, r9, lr}
 4344              	.LCFI33:
 4345              		.cfi_def_cfa_offset 32
 4346              		.cfi_offset 3, -32
 4347              		.cfi_offset 4, -28
 4348              		.cfi_offset 5, -24
 4349              		.cfi_offset 6, -20
 4350              		.cfi_offset 7, -16
 4351              		.cfi_offset 8, -12
 4352              		.cfi_offset 9, -8
 4353              		.cfi_offset 14, -4
 4354 0004 0646     		mov	r6, r0
 4355 0006 9046     		mov	r8, r2
 4356 0008 1D46     		mov	r5, r3
 4357 000a 9DF82090 		ldrb	r9, [sp, #32]	@ zero_extendqisi2
 655:lib/TinyUSB/src/portable/synopsys/dwc2/dcd_dwc2.c ****   uint8_t const epnum = tu_edpt_number(ep_addr);
 4358              		.loc 1 655 3 is_stmt 1 view .LVU1399
 656:lib/TinyUSB/src/portable/synopsys/dwc2/dcd_dwc2.c ****   uint8_t const dir = tu_edpt_dir(ep_addr);
 4359              		.loc 1 656 3 view .LVU1400
 4360              	.LVL426:
 4361              	.LBB416:
 4362              	.LBI416:
 552:lib/TinyUSB/src/common/tusb_types.h ****   return (uint8_t) (addr & TUSB_EPNUM_MASK);
 4363              		.loc 3 552 45 view .LVU1401
 4364              	.LBB417:
 553:lib/TinyUSB/src/common/tusb_types.h **** }
 4365              		.loc 3 553 3 view .LVU1402
 553:lib/TinyUSB/src/common/tusb_types.h **** }
 4366              		.loc 3 553 10 is_stmt 0 view .LVU1403
 4367 000e 01F00F07 		and	r7, r1, #15
 4368              	.LVL427:
 553:lib/TinyUSB/src/common/tusb_types.h **** }
 4369              		.loc 3 553 10 view .LVU1404
 4370              	.LBE417:
 4371              	.LBE416:
 657:lib/TinyUSB/src/portable/synopsys/dwc2/dcd_dwc2.c ****   xfer_ctl_t* xfer = XFER_CTL_BASE(epnum, dir);
 4372              		.loc 1 657 3 is_stmt 1 view .LVU1405
 4373              	.LBB418:
 4374              	.LBI418:
 547:lib/TinyUSB/src/common/tusb_types.h ****   return (addr & TUSB_DIR_IN_MASK) ? TUSB_DIR_IN : TUSB_DIR_OUT;
 4375              		.loc 3 547 48 view .LVU1406
 4376              	.LBB419:
 548:lib/TinyUSB/src/common/tusb_types.h **** }
 4377              		.loc 3 548 3 view .LVU1407
 548:lib/TinyUSB/src/common/tusb_types.h **** }
 4378              		.loc 3 548 50 is_stmt 0 view .LVU1408
 4379 0012 CC09     		lsrs	r4, r1, #7
 4380              	.LVL428:
 548:lib/TinyUSB/src/common/tusb_types.h **** }
 4381              		.loc 3 548 50 view .LVU1409
 4382              	.LBE419:
 4383              	.LBE418:
ARM GAS  C:\Users\krisa\AppData\Local\Temp\ccNljk5K.s 			page 173


 658:lib/TinyUSB/src/portable/synopsys/dwc2/dcd_dwc2.c ****   bool ret;
 4384              		.loc 1 658 3 is_stmt 1 view .LVU1410
 659:lib/TinyUSB/src/portable/synopsys/dwc2/dcd_dwc2.c **** 
 4385              		.loc 1 659 3 view .LVU1411
 661:lib/TinyUSB/src/portable/synopsys/dwc2/dcd_dwc2.c **** 
 4386              		.loc 1 661 3 view .LVU1412
 4387 0014 4846     		mov	r0, r9
 4388              	.LVL429:
 661:lib/TinyUSB/src/portable/synopsys/dwc2/dcd_dwc2.c **** 
 4389              		.loc 1 661 3 is_stmt 0 view .LVU1413
 4390 0016 FFF7FEFF 		bl	usbd_spin_lock
 4391              	.LVL430:
 663:lib/TinyUSB/src/portable/synopsys/dwc2/dcd_dwc2.c ****     ret = false;  // Endpoint is closed
 4392              		.loc 1 663 3 is_stmt 1 view .LVU1414
 663:lib/TinyUSB/src/portable/synopsys/dwc2/dcd_dwc2.c ****     ret = false;  // Endpoint is closed
 4393              		.loc 1 663 11 is_stmt 0 view .LVU1415
 4394 001a 04EB4702 		add	r2, r4, r7, lsl #1
 4395 001e 114B     		ldr	r3, .L277
 4396 0020 03EB0213 		add	r3, r3, r2, lsl #4
 4397 0024 5B89     		ldrh	r3, [r3, #10]
 663:lib/TinyUSB/src/portable/synopsys/dwc2/dcd_dwc2.c ****     ret = false;  // Endpoint is closed
 4398              		.loc 1 663 6 view .LVU1416
 4399 0026 DBB1     		cbz	r3, .L275
 666:lib/TinyUSB/src/portable/synopsys/dwc2/dcd_dwc2.c ****     xfer->ff = NULL;
 4400              		.loc 1 666 5 is_stmt 1 view .LVU1417
 666:lib/TinyUSB/src/portable/synopsys/dwc2/dcd_dwc2.c ****     xfer->ff = NULL;
 4401              		.loc 1 666 18 is_stmt 0 view .LVU1418
 4402 0028 0E4B     		ldr	r3, .L277
 4403 002a 1146     		mov	r1, r2
 4404 002c 1201     		lsls	r2, r2, #4
 4405 002e 03EB0111 		add	r1, r3, r1, lsl #4
 4406 0032 43F80280 		str	r8, [r3, r2]
 667:lib/TinyUSB/src/portable/synopsys/dwc2/dcd_dwc2.c ****     xfer->total_len = total_bytes;
 4407              		.loc 1 667 5 is_stmt 1 view .LVU1419
 667:lib/TinyUSB/src/portable/synopsys/dwc2/dcd_dwc2.c ****     xfer->total_len = total_bytes;
 4408              		.loc 1 667 14 is_stmt 0 view .LVU1420
 4409 0036 0023     		movs	r3, #0
 4410 0038 4B60     		str	r3, [r1, #4]
 668:lib/TinyUSB/src/portable/synopsys/dwc2/dcd_dwc2.c ****     xfer->iso_retry = xfer->interval; // Reset ISO retry counter to interval value
 4411              		.loc 1 668 5 is_stmt 1 view .LVU1421
 668:lib/TinyUSB/src/portable/synopsys/dwc2/dcd_dwc2.c ****     xfer->iso_retry = xfer->interval; // Reset ISO retry counter to interval value
 4412              		.loc 1 668 21 is_stmt 0 view .LVU1422
 4413 003a 0D81     		strh	r5, [r1, #8]	@ movhi
 669:lib/TinyUSB/src/portable/synopsys/dwc2/dcd_dwc2.c **** 
 4414              		.loc 1 669 5 is_stmt 1 view .LVU1423
 669:lib/TinyUSB/src/portable/synopsys/dwc2/dcd_dwc2.c **** 
 4415              		.loc 1 669 27 is_stmt 0 view .LVU1424
 4416 003c 0B7B     		ldrb	r3, [r1, #12]	@ zero_extendqisi2
 669:lib/TinyUSB/src/portable/synopsys/dwc2/dcd_dwc2.c **** 
 4417              		.loc 1 669 21 view .LVU1425
 4418 003e 4B73     		strb	r3, [r1, #13]
 672:lib/TinyUSB/src/portable/synopsys/dwc2/dcd_dwc2.c ****       _dcd_data.ep0_pending[dir] = total_bytes;
 4419              		.loc 1 672 5 is_stmt 1 view .LVU1426
 672:lib/TinyUSB/src/portable/synopsys/dwc2/dcd_dwc2.c ****       _dcd_data.ep0_pending[dir] = total_bytes;
 4420              		.loc 1 672 8 is_stmt 0 view .LVU1427
 4421 0040 17B9     		cbnz	r7, .L274
 673:lib/TinyUSB/src/portable/synopsys/dwc2/dcd_dwc2.c ****     }
ARM GAS  C:\Users\krisa\AppData\Local\Temp\ccNljk5K.s 			page 174


 4422              		.loc 1 673 7 is_stmt 1 view .LVU1428
 673:lib/TinyUSB/src/portable/synopsys/dwc2/dcd_dwc2.c ****     }
 4423              		.loc 1 673 34 is_stmt 0 view .LVU1429
 4424 0042 094B     		ldr	r3, .L277+4
 4425 0044 23F81450 		strh	r5, [r3, r4, lsl #1]	@ movhi
 4426              	.L274:
 677:lib/TinyUSB/src/portable/synopsys/dwc2/dcd_dwc2.c ****     ret = true;
 4427              		.loc 1 677 5 is_stmt 1 view .LVU1430
 4428 0048 2246     		mov	r2, r4
 4429 004a 3946     		mov	r1, r7
 4430 004c 3046     		mov	r0, r6
 4431 004e FFF7FEFF 		bl	edpt_schedule_packets
 4432              	.LVL431:
 678:lib/TinyUSB/src/portable/synopsys/dwc2/dcd_dwc2.c ****   }
 4433              		.loc 1 678 5 view .LVU1431
 678:lib/TinyUSB/src/portable/synopsys/dwc2/dcd_dwc2.c ****   }
 4434              		.loc 1 678 9 is_stmt 0 view .LVU1432
 4435 0052 0124     		movs	r4, #1
 4436              	.LVL432:
 4437              	.L273:
 681:lib/TinyUSB/src/portable/synopsys/dwc2/dcd_dwc2.c **** 
 4438              		.loc 1 681 3 is_stmt 1 view .LVU1433
 4439 0054 4846     		mov	r0, r9
 4440 0056 FFF7FEFF 		bl	usbd_spin_unlock
 4441              	.LVL433:
 683:lib/TinyUSB/src/portable/synopsys/dwc2/dcd_dwc2.c **** }
 4442              		.loc 1 683 3 view .LVU1434
 684:lib/TinyUSB/src/portable/synopsys/dwc2/dcd_dwc2.c **** 
 4443              		.loc 1 684 1 is_stmt 0 view .LVU1435
 4444 005a 2046     		mov	r0, r4
 4445 005c BDE8F883 		pop	{r3, r4, r5, r6, r7, r8, r9, pc}
 4446              	.LVL434:
 4447              	.L275:
 664:lib/TinyUSB/src/portable/synopsys/dwc2/dcd_dwc2.c ****   } else {
 4448              		.loc 1 664 9 view .LVU1436
 4449 0060 0024     		movs	r4, #0
 4450              	.LVL435:
 664:lib/TinyUSB/src/portable/synopsys/dwc2/dcd_dwc2.c ****   } else {
 4451              		.loc 1 664 9 view .LVU1437
 4452 0062 F7E7     		b	.L273
 4453              	.L278:
 4454              		.align	2
 4455              	.L277:
 4456 0064 00000000 		.word	.LANCHOR3
 4457 0068 00000000 		.word	.LANCHOR1
 4458              		.cfi_endproc
 4459              	.LFE365:
 4461              		.section	.text.dcd_set_address,"ax",%progbits
 4462              		.align	1
 4463              		.global	dcd_set_address
 4464              		.syntax unified
 4465              		.thumb
 4466              		.thumb_func
 4468              	dcd_set_address:
 4469              	.LVL436:
 4470              	.LFB356:
 527:lib/TinyUSB/src/portable/synopsys/dwc2/dcd_dwc2.c ****   dwc2_regs_t* dwc2 = DWC2_REG(rhport);
ARM GAS  C:\Users\krisa\AppData\Local\Temp\ccNljk5K.s 			page 175


 4471              		.loc 1 527 56 is_stmt 1 view -0
 4472              		.cfi_startproc
 4473              		@ args = 0, pretend = 0, frame = 0
 4474              		@ frame_needed = 0, uses_anonymous_args = 0
 527:lib/TinyUSB/src/portable/synopsys/dwc2/dcd_dwc2.c ****   dwc2_regs_t* dwc2 = DWC2_REG(rhport);
 4475              		.loc 1 527 56 is_stmt 0 view .LVU1439
 4476 0000 00B5     		push	{lr}
 4477              	.LCFI34:
 4478              		.cfi_def_cfa_offset 4
 4479              		.cfi_offset 14, -4
 4480 0002 83B0     		sub	sp, sp, #12
 4481              	.LCFI35:
 4482              		.cfi_def_cfa_offset 16
 528:lib/TinyUSB/src/portable/synopsys/dwc2/dcd_dwc2.c ****   dwc2->dcfg = (dwc2->dcfg & ~DCFG_DAD_Msk) | (dev_addr << DCFG_DAD_Pos);
 4483              		.loc 1 528 3 is_stmt 1 view .LVU1440
 4484              	.LVL437:
 4485              	.LBB420:
 4486              	.LBI420:
  79:lib/TinyUSB/src/portable/synopsys/dwc2/dwc2_common.h ****   if (rhport >= DWC2_CONTROLLER_COUNT) {
 4487              		.loc 2 79 50 view .LVU1441
 4488              	.LBB421:
  80:lib/TinyUSB/src/portable/synopsys/dwc2/dwc2_common.h ****     // user mis-configured, ignore and use first controller
 4489              		.loc 2 80 3 view .LVU1442
  80:lib/TinyUSB/src/portable/synopsys/dwc2/dwc2_common.h ****     // user mis-configured, ignore and use first controller
 4490              		.loc 2 80 6 is_stmt 0 view .LVU1443
 4491 0004 0128     		cmp	r0, #1
 4492 0006 14D9     		bls	.L283
  82:lib/TinyUSB/src/portable/synopsys/dwc2/dwc2_common.h ****   }
 4493              		.loc 2 82 12 view .LVU1444
 4494 0008 0023     		movs	r3, #0
 4495              	.L280:
 4496              	.LVL438:
  84:lib/TinyUSB/src/portable/synopsys/dwc2/dwc2_common.h **** }
 4497              		.loc 2 84 3 is_stmt 1 view .LVU1445
  84:lib/TinyUSB/src/portable/synopsys/dwc2/dwc2_common.h **** }
 4498              		.loc 2 84 48 is_stmt 0 view .LVU1446
 4499 000a 1B01     		lsls	r3, r3, #4
 4500              	.LVL439:
  84:lib/TinyUSB/src/portable/synopsys/dwc2/dwc2_common.h **** }
 4501              		.loc 2 84 48 view .LVU1447
 4502 000c 0A4A     		ldr	r2, .L284
 4503 000e D258     		ldr	r2, [r2, r3]
 4504              	.LVL440:
  84:lib/TinyUSB/src/portable/synopsys/dwc2/dwc2_common.h **** }
 4505              		.loc 2 84 48 view .LVU1448
 4506              	.LBE421:
 4507              	.LBE420:
 529:lib/TinyUSB/src/portable/synopsys/dwc2/dcd_dwc2.c **** 
 4508              		.loc 1 529 3 is_stmt 1 view .LVU1449
 529:lib/TinyUSB/src/portable/synopsys/dwc2/dcd_dwc2.c **** 
 4509              		.loc 1 529 21 is_stmt 0 view .LVU1450
 4510 0010 D2F80038 		ldr	r3, [r2, #2048]
 529:lib/TinyUSB/src/portable/synopsys/dwc2/dcd_dwc2.c **** 
 4511              		.loc 1 529 28 view .LVU1451
 4512 0014 23F4FE63 		bic	r3, r3, #2032
 529:lib/TinyUSB/src/portable/synopsys/dwc2/dcd_dwc2.c **** 
 4513              		.loc 1 529 45 view .LVU1452
ARM GAS  C:\Users\krisa\AppData\Local\Temp\ccNljk5K.s 			page 176


 4514 0018 43EA0111 		orr	r1, r3, r1, lsl #4
 4515              	.LVL441:
 529:lib/TinyUSB/src/portable/synopsys/dwc2/dcd_dwc2.c **** 
 4516              		.loc 1 529 14 view .LVU1453
 4517 001c C2F80018 		str	r1, [r2, #2048]
 532:lib/TinyUSB/src/portable/synopsys/dwc2/dcd_dwc2.c **** }
 4518              		.loc 1 532 3 is_stmt 1 view .LVU1454
 4519              	.LVL442:
 557:lib/TinyUSB/src/common/tusb_types.h **** }
 4520              		.loc 3 557 3 view .LVU1455
 532:lib/TinyUSB/src/portable/synopsys/dwc2/dcd_dwc2.c **** }
 4521              		.loc 1 532 3 is_stmt 0 view .LVU1456
 4522 0020 0022     		movs	r2, #0
 4523              	.LVL443:
 532:lib/TinyUSB/src/portable/synopsys/dwc2/dcd_dwc2.c **** }
 4524              		.loc 1 532 3 view .LVU1457
 4525 0022 0092     		str	r2, [sp]
 4526 0024 1346     		mov	r3, r2
 4527 0026 8021     		movs	r1, #128
 4528 0028 FFF7FEFF 		bl	dcd_edpt_xfer
 4529              	.LVL444:
 533:lib/TinyUSB/src/portable/synopsys/dwc2/dcd_dwc2.c **** 
 4530              		.loc 1 533 1 view .LVU1458
 4531 002c 03B0     		add	sp, sp, #12
 4532              	.LCFI36:
 4533              		.cfi_remember_state
 4534              		.cfi_def_cfa_offset 4
 4535              		@ sp needed
 4536 002e 5DF804FB 		ldr	pc, [sp], #4
 4537              	.LVL445:
 4538              	.L283:
 4539              	.LCFI37:
 4540              		.cfi_restore_state
 4541              	.LBB423:
 4542              	.LBB422:
  80:lib/TinyUSB/src/portable/synopsys/dwc2/dwc2_common.h ****     // user mis-configured, ignore and use first controller
 4543              		.loc 2 80 6 view .LVU1459
 4544 0032 0346     		mov	r3, r0
 4545 0034 E9E7     		b	.L280
 4546              	.L285:
 4547 0036 00BF     		.align	2
 4548              	.L284:
 4549 0038 00000000 		.word	.LANCHOR0
 4550              	.LBE422:
 4551              	.LBE423:
 4552              		.cfi_endproc
 4553              	.LFE356:
 4555              		.section	.text.dcd_edpt_xfer_fifo,"ax",%progbits
 4556              		.align	1
 4557              		.global	dcd_edpt_xfer_fifo
 4558              		.syntax unified
 4559              		.thumb
 4560              		.thumb_func
 4562              	dcd_edpt_xfer_fifo:
 4563              	.LVL446:
 4564              	.LFB366:
 690:lib/TinyUSB/src/portable/synopsys/dwc2/dcd_dwc2.c ****   (void) is_isr;
ARM GAS  C:\Users\krisa\AppData\Local\Temp\ccNljk5K.s 			page 177


 4565              		.loc 1 690 108 is_stmt 1 view -0
 4566              		.cfi_startproc
 4567              		@ args = 4, pretend = 0, frame = 0
 4568              		@ frame_needed = 0, uses_anonymous_args = 0
 690:lib/TinyUSB/src/portable/synopsys/dwc2/dcd_dwc2.c ****   (void) is_isr;
 4569              		.loc 1 690 108 is_stmt 0 view .LVU1461
 4570 0000 2DE9F843 		push	{r3, r4, r5, r6, r7, r8, r9, lr}
 4571              	.LCFI38:
 4572              		.cfi_def_cfa_offset 32
 4573              		.cfi_offset 3, -32
 4574              		.cfi_offset 4, -28
 4575              		.cfi_offset 5, -24
 4576              		.cfi_offset 6, -20
 4577              		.cfi_offset 7, -16
 4578              		.cfi_offset 8, -12
 4579              		.cfi_offset 9, -8
 4580              		.cfi_offset 14, -4
 4581 0004 9DF82080 		ldrb	r8, [sp, #32]	@ zero_extendqisi2
 691:lib/TinyUSB/src/portable/synopsys/dwc2/dcd_dwc2.c ****   // USB buffers always work in bytes so to avoid unnecessary divisions we demand item_size = 1
 4582              		.loc 1 691 3 is_stmt 1 view .LVU1462
 693:lib/TinyUSB/src/portable/synopsys/dwc2/dcd_dwc2.c **** 
 4583              		.loc 1 693 3 view .LVU1463
 693:lib/TinyUSB/src/portable/synopsys/dwc2/dcd_dwc2.c **** 
 4584              		.loc 1 693 3 view .LVU1464
 4585 0008 B2F806C0 		ldrh	ip, [r2, #6]
 4586 000c CCF30E0C 		ubfx	ip, ip, #0, #15
 4587 0010 BCF1010F 		cmp	ip, #1
 4588 0014 0BD0     		beq	.L287
 693:lib/TinyUSB/src/portable/synopsys/dwc2/dcd_dwc2.c **** 
 4589              		.loc 1 693 3 discriminator 1 view .LVU1465
 693:lib/TinyUSB/src/portable/synopsys/dwc2/dcd_dwc2.c **** 
 4590              		.loc 1 693 3 discriminator 1 view .LVU1466
 693:lib/TinyUSB/src/portable/synopsys/dwc2/dcd_dwc2.c **** 
 4591              		.loc 1 693 3 discriminator 1 view .LVU1467
 693:lib/TinyUSB/src/portable/synopsys/dwc2/dcd_dwc2.c **** 
 4592              		.loc 1 693 3 discriminator 1 view .LVU1468
 4593              	.LBB424:
 693:lib/TinyUSB/src/portable/synopsys/dwc2/dcd_dwc2.c **** 
 4594              		.loc 1 693 3 discriminator 1 view .LVU1469
 4595              	.LVL447:
 693:lib/TinyUSB/src/portable/synopsys/dwc2/dcd_dwc2.c **** 
 4596              		.loc 1 693 3 discriminator 1 view .LVU1470
 4597 0016 4FF0E023 		mov	r3, #-536813568
 4598              	.LVL448:
 693:lib/TinyUSB/src/portable/synopsys/dwc2/dcd_dwc2.c **** 
 4599              		.loc 1 693 3 is_stmt 0 discriminator 1 view .LVU1471
 4600 001a D3F8F03D 		ldr	r3, [r3, #3568]
 4601 001e 13F0010F 		tst	r3, #1
 4602 0022 00D0     		beq	.L288
 693:lib/TinyUSB/src/portable/synopsys/dwc2/dcd_dwc2.c **** 
 4603              		.loc 1 693 3 is_stmt 1 discriminator 3 view .LVU1472
 4604              		.syntax unified
 4605              	@ 693 "lib/TinyUSB/src/portable/synopsys/dwc2/dcd_dwc2.c" 1
 4606 0024 00BE     		BKPT #0
 4607              	
 4608              	@ 0 "" 2
 4609              		.thumb
ARM GAS  C:\Users\krisa\AppData\Local\Temp\ccNljk5K.s 			page 178


 4610              		.syntax unified
 4611              	.L288:
 4612              	.LBE424:
 693:lib/TinyUSB/src/portable/synopsys/dwc2/dcd_dwc2.c **** 
 4613              		.loc 1 693 3 discriminator 5 view .LVU1473
 693:lib/TinyUSB/src/portable/synopsys/dwc2/dcd_dwc2.c **** 
 4614              		.loc 1 693 3 discriminator 5 view .LVU1474
 4615 0026 0024     		movs	r4, #0
 4616              	.LVL449:
 4617              	.L289:
 719:lib/TinyUSB/src/portable/synopsys/dwc2/dcd_dwc2.c **** 
 4618              		.loc 1 719 1 is_stmt 0 view .LVU1475
 4619 0028 2046     		mov	r0, r4
 4620 002a BDE8F883 		pop	{r3, r4, r5, r6, r7, r8, r9, pc}
 4621              	.LVL450:
 4622              	.L287:
 719:lib/TinyUSB/src/portable/synopsys/dwc2/dcd_dwc2.c **** 
 4623              		.loc 1 719 1 view .LVU1476
 4624 002e 0646     		mov	r6, r0
 4625 0030 1546     		mov	r5, r2
 4626 0032 1F46     		mov	r7, r3
 693:lib/TinyUSB/src/portable/synopsys/dwc2/dcd_dwc2.c **** 
 4627              		.loc 1 693 3 is_stmt 1 view .LVU1477
 695:lib/TinyUSB/src/portable/synopsys/dwc2/dcd_dwc2.c ****   uint8_t const dir = tu_edpt_dir(ep_addr);
 4628              		.loc 1 695 3 view .LVU1478
 4629              	.LVL451:
 4630              	.LBB425:
 4631              	.LBI425:
 552:lib/TinyUSB/src/common/tusb_types.h ****   return (uint8_t) (addr & TUSB_EPNUM_MASK);
 4632              		.loc 3 552 45 view .LVU1479
 4633              	.LBB426:
 553:lib/TinyUSB/src/common/tusb_types.h **** }
 4634              		.loc 3 553 3 view .LVU1480
 553:lib/TinyUSB/src/common/tusb_types.h **** }
 4635              		.loc 3 553 10 is_stmt 0 view .LVU1481
 4636 0034 01F00F09 		and	r9, r1, #15
 4637              	.LVL452:
 553:lib/TinyUSB/src/common/tusb_types.h **** }
 4638              		.loc 3 553 10 view .LVU1482
 4639              	.LBE426:
 4640              	.LBE425:
 696:lib/TinyUSB/src/portable/synopsys/dwc2/dcd_dwc2.c ****   xfer_ctl_t* xfer = XFER_CTL_BASE(epnum, dir);
 4641              		.loc 1 696 3 is_stmt 1 view .LVU1483
 4642              	.LBB427:
 4643              	.LBI427:
 547:lib/TinyUSB/src/common/tusb_types.h ****   return (addr & TUSB_DIR_IN_MASK) ? TUSB_DIR_IN : TUSB_DIR_OUT;
 4644              		.loc 3 547 48 view .LVU1484
 4645              	.LBB428:
 548:lib/TinyUSB/src/common/tusb_types.h **** }
 4646              		.loc 3 548 3 view .LVU1485
 548:lib/TinyUSB/src/common/tusb_types.h **** }
 4647              		.loc 3 548 50 is_stmt 0 view .LVU1486
 4648 0038 CC09     		lsrs	r4, r1, #7
 4649              	.LVL453:
 548:lib/TinyUSB/src/common/tusb_types.h **** }
 4650              		.loc 3 548 50 view .LVU1487
 4651              	.LBE428:
ARM GAS  C:\Users\krisa\AppData\Local\Temp\ccNljk5K.s 			page 179


 4652              	.LBE427:
 697:lib/TinyUSB/src/portable/synopsys/dwc2/dcd_dwc2.c ****   bool ret;
 4653              		.loc 1 697 3 is_stmt 1 view .LVU1488
 698:lib/TinyUSB/src/portable/synopsys/dwc2/dcd_dwc2.c **** 
 4654              		.loc 1 698 3 view .LVU1489
 700:lib/TinyUSB/src/portable/synopsys/dwc2/dcd_dwc2.c **** 
 4655              		.loc 1 700 3 view .LVU1490
 4656 003a 4046     		mov	r0, r8
 4657              	.LVL454:
 700:lib/TinyUSB/src/portable/synopsys/dwc2/dcd_dwc2.c **** 
 4658              		.loc 1 700 3 is_stmt 0 view .LVU1491
 4659 003c FFF7FEFF 		bl	usbd_spin_lock
 4660              	.LVL455:
 702:lib/TinyUSB/src/portable/synopsys/dwc2/dcd_dwc2.c ****     ret = false;  // Endpoint is closed
 4661              		.loc 1 702 3 is_stmt 1 view .LVU1492
 702:lib/TinyUSB/src/portable/synopsys/dwc2/dcd_dwc2.c ****     ret = false;  // Endpoint is closed
 4662              		.loc 1 702 11 is_stmt 0 view .LVU1493
 4663 0040 04EB4902 		add	r2, r4, r9, lsl #1
 4664 0044 0E4B     		ldr	r3, .L294
 4665 0046 03EB0213 		add	r3, r3, r2, lsl #4
 4666 004a 5B89     		ldrh	r3, [r3, #10]
 702:lib/TinyUSB/src/portable/synopsys/dwc2/dcd_dwc2.c ****     ret = false;  // Endpoint is closed
 4667              		.loc 1 702 6 view .LVU1494
 4668 004c 23B9     		cbnz	r3, .L293
 703:lib/TinyUSB/src/portable/synopsys/dwc2/dcd_dwc2.c ****   } else {
 4669              		.loc 1 703 9 view .LVU1495
 4670 004e 0024     		movs	r4, #0
 4671              	.LVL456:
 4672              	.L290:
 716:lib/TinyUSB/src/portable/synopsys/dwc2/dcd_dwc2.c **** 
 4673              		.loc 1 716 3 is_stmt 1 view .LVU1496
 4674 0050 4046     		mov	r0, r8
 4675 0052 FFF7FEFF 		bl	usbd_spin_unlock
 4676              	.LVL457:
 718:lib/TinyUSB/src/portable/synopsys/dwc2/dcd_dwc2.c **** }
 4677              		.loc 1 718 3 view .LVU1497
 718:lib/TinyUSB/src/portable/synopsys/dwc2/dcd_dwc2.c **** }
 4678              		.loc 1 718 10 is_stmt 0 view .LVU1498
 4679 0056 E7E7     		b	.L289
 4680              	.LVL458:
 4681              	.L293:
 705:lib/TinyUSB/src/portable/synopsys/dwc2/dcd_dwc2.c ****     xfer->ff = ff;
 4682              		.loc 1 705 5 is_stmt 1 view .LVU1499
 705:lib/TinyUSB/src/portable/synopsys/dwc2/dcd_dwc2.c ****     xfer->ff = ff;
 4683              		.loc 1 705 18 is_stmt 0 view .LVU1500
 4684 0058 094A     		ldr	r2, .L294
 4685 005a 04EB4903 		add	r3, r4, r9, lsl #1
 4686 005e 1901     		lsls	r1, r3, #4
 4687 0060 02EB0313 		add	r3, r2, r3, lsl #4
 4688 0064 0020     		movs	r0, #0
 4689 0066 5050     		str	r0, [r2, r1]
 706:lib/TinyUSB/src/portable/synopsys/dwc2/dcd_dwc2.c ****     xfer->total_len = total_bytes;
 4690              		.loc 1 706 5 is_stmt 1 view .LVU1501
 706:lib/TinyUSB/src/portable/synopsys/dwc2/dcd_dwc2.c ****     xfer->total_len = total_bytes;
 4691              		.loc 1 706 14 is_stmt 0 view .LVU1502
 4692 0068 5D60     		str	r5, [r3, #4]
 707:lib/TinyUSB/src/portable/synopsys/dwc2/dcd_dwc2.c ****     xfer->iso_retry = xfer->interval; // Reset ISO retry counter to interval value
ARM GAS  C:\Users\krisa\AppData\Local\Temp\ccNljk5K.s 			page 180


 4693              		.loc 1 707 5 is_stmt 1 view .LVU1503
 707:lib/TinyUSB/src/portable/synopsys/dwc2/dcd_dwc2.c ****     xfer->iso_retry = xfer->interval; // Reset ISO retry counter to interval value
 4694              		.loc 1 707 21 is_stmt 0 view .LVU1504
 4695 006a 1F81     		strh	r7, [r3, #8]	@ movhi
 708:lib/TinyUSB/src/portable/synopsys/dwc2/dcd_dwc2.c **** 
 4696              		.loc 1 708 5 is_stmt 1 view .LVU1505
 708:lib/TinyUSB/src/portable/synopsys/dwc2/dcd_dwc2.c **** 
 4697              		.loc 1 708 27 is_stmt 0 view .LVU1506
 4698 006c 1A7B     		ldrb	r2, [r3, #12]	@ zero_extendqisi2
 708:lib/TinyUSB/src/portable/synopsys/dwc2/dcd_dwc2.c **** 
 4699              		.loc 1 708 21 view .LVU1507
 4700 006e 5A73     		strb	r2, [r3, #13]
 712:lib/TinyUSB/src/portable/synopsys/dwc2/dcd_dwc2.c ****     ret = true;
 4701              		.loc 1 712 5 is_stmt 1 view .LVU1508
 4702 0070 2246     		mov	r2, r4
 4703 0072 4946     		mov	r1, r9
 4704 0074 3046     		mov	r0, r6
 4705 0076 FFF7FEFF 		bl	edpt_schedule_packets
 4706              	.LVL459:
 713:lib/TinyUSB/src/portable/synopsys/dwc2/dcd_dwc2.c ****   }
 4707              		.loc 1 713 5 view .LVU1509
 713:lib/TinyUSB/src/portable/synopsys/dwc2/dcd_dwc2.c ****   }
 4708              		.loc 1 713 9 is_stmt 0 view .LVU1510
 4709 007a 0124     		movs	r4, #1
 4710              	.LVL460:
 713:lib/TinyUSB/src/portable/synopsys/dwc2/dcd_dwc2.c ****   }
 4711              		.loc 1 713 9 view .LVU1511
 4712 007c E8E7     		b	.L290
 4713              	.L295:
 4714 007e 00BF     		.align	2
 4715              	.L294:
 4716 0080 00000000 		.word	.LANCHOR3
 4717              		.cfi_endproc
 4718              	.LFE366:
 4720              		.section	.text.dcd_edpt_stall,"ax",%progbits
 4721              		.align	1
 4722              		.global	dcd_edpt_stall
 4723              		.syntax unified
 4724              		.thumb
 4725              		.thumb_func
 4727              	dcd_edpt_stall:
 4728              	.LVL461:
 4729              	.LFB367:
 721:lib/TinyUSB/src/portable/synopsys/dwc2/dcd_dwc2.c ****   dwc2_regs_t* dwc2 = DWC2_REG(rhport);
 4730              		.loc 1 721 54 is_stmt 1 view -0
 4731              		.cfi_startproc
 4732              		@ args = 0, pretend = 0, frame = 0
 4733              		@ frame_needed = 0, uses_anonymous_args = 0
 721:lib/TinyUSB/src/portable/synopsys/dwc2/dcd_dwc2.c ****   dwc2_regs_t* dwc2 = DWC2_REG(rhport);
 4734              		.loc 1 721 54 is_stmt 0 view .LVU1513
 4735 0000 38B5     		push	{r3, r4, r5, lr}
 4736              	.LCFI39:
 4737              		.cfi_def_cfa_offset 16
 4738              		.cfi_offset 3, -16
 4739              		.cfi_offset 4, -12
 4740              		.cfi_offset 5, -8
 4741              		.cfi_offset 14, -4
ARM GAS  C:\Users\krisa\AppData\Local\Temp\ccNljk5K.s 			page 181


 4742 0002 0C46     		mov	r4, r1
 722:lib/TinyUSB/src/portable/synopsys/dwc2/dcd_dwc2.c ****   edpt_disable(rhport, ep_addr, true);
 4743              		.loc 1 722 3 is_stmt 1 view .LVU1514
 4744              	.LVL462:
 4745              	.LBB429:
 4746              	.LBI429:
  79:lib/TinyUSB/src/portable/synopsys/dwc2/dwc2_common.h ****   if (rhport >= DWC2_CONTROLLER_COUNT) {
 4747              		.loc 2 79 50 view .LVU1515
 4748              	.LBB430:
  80:lib/TinyUSB/src/portable/synopsys/dwc2/dwc2_common.h ****     // user mis-configured, ignore and use first controller
 4749              		.loc 2 80 3 view .LVU1516
  80:lib/TinyUSB/src/portable/synopsys/dwc2/dwc2_common.h ****     // user mis-configured, ignore and use first controller
 4750              		.loc 2 80 6 is_stmt 0 view .LVU1517
 4751 0004 0128     		cmp	r0, #1
 4752 0006 0CD9     		bls	.L301
  82:lib/TinyUSB/src/portable/synopsys/dwc2/dwc2_common.h ****   }
 4753              		.loc 2 82 12 view .LVU1518
 4754 0008 0023     		movs	r3, #0
 4755              	.L297:
 4756              	.LVL463:
  84:lib/TinyUSB/src/portable/synopsys/dwc2/dwc2_common.h **** }
 4757              		.loc 2 84 3 is_stmt 1 view .LVU1519
  84:lib/TinyUSB/src/portable/synopsys/dwc2/dwc2_common.h **** }
 4758              		.loc 2 84 48 is_stmt 0 view .LVU1520
 4759 000a 1B01     		lsls	r3, r3, #4
 4760              	.LVL464:
  84:lib/TinyUSB/src/portable/synopsys/dwc2/dwc2_common.h **** }
 4761              		.loc 2 84 48 view .LVU1521
 4762 000c 064A     		ldr	r2, .L302
 4763 000e D558     		ldr	r5, [r2, r3]
 4764              	.LVL465:
  84:lib/TinyUSB/src/portable/synopsys/dwc2/dwc2_common.h **** }
 4765              		.loc 2 84 48 view .LVU1522
 4766              	.LBE430:
 4767              	.LBE429:
 723:lib/TinyUSB/src/portable/synopsys/dwc2/dcd_dwc2.c **** 
 4768              		.loc 1 723 3 is_stmt 1 view .LVU1523
 4769 0010 0122     		movs	r2, #1
 4770 0012 2146     		mov	r1, r4
 4771              	.LVL466:
 723:lib/TinyUSB/src/portable/synopsys/dwc2/dcd_dwc2.c **** 
 4772              		.loc 1 723 3 is_stmt 0 view .LVU1524
 4773 0014 FFF7FEFF 		bl	edpt_disable
 4774              	.LVL467:
 726:lib/TinyUSB/src/portable/synopsys/dwc2/dcd_dwc2.c ****     if (dma_device_enabled(dwc2)) {
 4775              		.loc 1 726 3 is_stmt 1 view .LVU1525
 4776              	.LBB432:
 4777              	.LBI432:
 552:lib/TinyUSB/src/common/tusb_types.h ****   return (uint8_t) (addr & TUSB_EPNUM_MASK);
 4778              		.loc 3 552 45 view .LVU1526
 4779              	.LBB433:
 553:lib/TinyUSB/src/common/tusb_types.h **** }
 4780              		.loc 3 553 3 view .LVU1527
 553:lib/TinyUSB/src/common/tusb_types.h **** }
 4781              		.loc 3 553 3 is_stmt 0 view .LVU1528
 4782              	.LBE433:
 4783              	.LBE432:
ARM GAS  C:\Users\krisa\AppData\Local\Temp\ccNljk5K.s 			page 182


 726:lib/TinyUSB/src/portable/synopsys/dwc2/dcd_dwc2.c ****     if (dma_device_enabled(dwc2)) {
 4784              		.loc 1 726 6 view .LVU1529
 4785 0018 14F00F0F 		tst	r4, #15
 4786 001c 00D1     		bne	.L296
 727:lib/TinyUSB/src/portable/synopsys/dwc2/dcd_dwc2.c ****       dma_setup_prepare(rhport);
 4787              		.loc 1 727 5 is_stmt 1 view .LVU1530
 4788              	.LVL468:
 4789              	.LBB434:
 4790              	.LBI434:
 121:lib/TinyUSB/src/portable/synopsys/dwc2/dcd_dwc2.c ****   (void) dwc2;
 4791              		.loc 1 121 42 view .LVU1531
 4792              	.LBB435:
 122:lib/TinyUSB/src/portable/synopsys/dwc2/dcd_dwc2.c ****   // Internal DMA only
 4793              		.loc 1 122 3 view .LVU1532
 124:lib/TinyUSB/src/portable/synopsys/dwc2/dcd_dwc2.c ****   return CFG_TUD_DWC2_DMA_ENABLE && ghwcfg2.arch == GHWCFG2_ARCH_INTERNAL_DMA;
 4794              		.loc 1 124 3 view .LVU1533
 124:lib/TinyUSB/src/portable/synopsys/dwc2/dcd_dwc2.c ****   return CFG_TUD_DWC2_DMA_ENABLE && ghwcfg2.arch == GHWCFG2_ARCH_INTERNAL_DMA;
 4795              		.loc 1 124 48 is_stmt 0 view .LVU1534
 4796 001e AB6C     		ldr	r3, [r5, #72]
 125:lib/TinyUSB/src/portable/synopsys/dwc2/dcd_dwc2.c **** }
 4797              		.loc 1 125 3 is_stmt 1 view .LVU1535
 4798              	.LVL469:
 4799              	.L296:
 125:lib/TinyUSB/src/portable/synopsys/dwc2/dcd_dwc2.c **** }
 4800              		.loc 1 125 3 is_stmt 0 view .LVU1536
 4801              	.LBE435:
 4802              	.LBE434:
 731:lib/TinyUSB/src/portable/synopsys/dwc2/dcd_dwc2.c **** 
 4803              		.loc 1 731 1 view .LVU1537
 4804 0020 38BD     		pop	{r3, r4, r5, pc}
 4805              	.LVL470:
 4806              	.L301:
 4807              	.LBB436:
 4808              	.LBB431:
  80:lib/TinyUSB/src/portable/synopsys/dwc2/dwc2_common.h ****     // user mis-configured, ignore and use first controller
 4809              		.loc 2 80 6 view .LVU1538
 4810 0022 0346     		mov	r3, r0
 4811 0024 F1E7     		b	.L297
 4812              	.L303:
 4813 0026 00BF     		.align	2
 4814              	.L302:
 4815 0028 00000000 		.word	.LANCHOR0
 4816              	.LBE431:
 4817              	.LBE436:
 4818              		.cfi_endproc
 4819              	.LFE367:
 4821              		.section	.text.dcd_edpt_clear_stall,"ax",%progbits
 4822              		.align	1
 4823              		.global	dcd_edpt_clear_stall
 4824              		.syntax unified
 4825              		.thumb
 4826              		.thumb_func
 4828              	dcd_edpt_clear_stall:
 4829              	.LVL471:
 4830              	.LFB368:
 733:lib/TinyUSB/src/portable/synopsys/dwc2/dcd_dwc2.c ****   dwc2_regs_t* dwc2 = DWC2_REG(rhport);
 4831              		.loc 1 733 60 is_stmt 1 view -0
ARM GAS  C:\Users\krisa\AppData\Local\Temp\ccNljk5K.s 			page 183


 4832              		.cfi_startproc
 4833              		@ args = 0, pretend = 0, frame = 0
 4834              		@ frame_needed = 0, uses_anonymous_args = 0
 4835              		@ link register save eliminated.
 734:lib/TinyUSB/src/portable/synopsys/dwc2/dcd_dwc2.c ****   uint8_t const epnum = tu_edpt_number(ep_addr);
 4836              		.loc 1 734 3 view .LVU1540
 4837              	.LBB437:
 4838              	.LBI437:
  79:lib/TinyUSB/src/portable/synopsys/dwc2/dwc2_common.h ****   if (rhport >= DWC2_CONTROLLER_COUNT) {
 4839              		.loc 2 79 50 view .LVU1541
 4840              	.LBB438:
  80:lib/TinyUSB/src/portable/synopsys/dwc2/dwc2_common.h ****     // user mis-configured, ignore and use first controller
 4841              		.loc 2 80 3 view .LVU1542
  80:lib/TinyUSB/src/portable/synopsys/dwc2/dwc2_common.h ****     // user mis-configured, ignore and use first controller
 4842              		.loc 2 80 6 is_stmt 0 view .LVU1543
 4843 0000 0128     		cmp	r0, #1
 4844 0002 00D9     		bls	.L305
  82:lib/TinyUSB/src/portable/synopsys/dwc2/dwc2_common.h ****   }
 4845              		.loc 2 82 12 view .LVU1544
 4846 0004 0020     		movs	r0, #0
 4847              	.LVL472:
 4848              	.L305:
  84:lib/TinyUSB/src/portable/synopsys/dwc2/dwc2_common.h **** }
 4849              		.loc 2 84 3 is_stmt 1 view .LVU1545
  84:lib/TinyUSB/src/portable/synopsys/dwc2/dwc2_common.h **** }
 4850              		.loc 2 84 48 is_stmt 0 view .LVU1546
 4851 0006 0001     		lsls	r0, r0, #4
 4852              	.LVL473:
  84:lib/TinyUSB/src/portable/synopsys/dwc2/dwc2_common.h **** }
 4853              		.loc 2 84 48 view .LVU1547
 4854 0008 0A4B     		ldr	r3, .L307
 4855 000a 1A58     		ldr	r2, [r3, r0]
 4856              	.LVL474:
  84:lib/TinyUSB/src/portable/synopsys/dwc2/dwc2_common.h **** }
 4857              		.loc 2 84 48 view .LVU1548
 4858              	.LBE438:
 4859              	.LBE437:
 735:lib/TinyUSB/src/portable/synopsys/dwc2/dcd_dwc2.c ****   uint8_t const dir = tu_edpt_dir(ep_addr);
 4860              		.loc 1 735 3 is_stmt 1 view .LVU1549
 4861              	.LBB439:
 4862              	.LBI439:
 552:lib/TinyUSB/src/common/tusb_types.h ****   return (uint8_t) (addr & TUSB_EPNUM_MASK);
 4863              		.loc 3 552 45 view .LVU1550
 4864              	.LBB440:
 553:lib/TinyUSB/src/common/tusb_types.h **** }
 4865              		.loc 3 553 3 view .LVU1551
 553:lib/TinyUSB/src/common/tusb_types.h **** }
 4866              		.loc 3 553 10 is_stmt 0 view .LVU1552
 4867 000c 01F00F03 		and	r3, r1, #15
 4868              	.LVL475:
 553:lib/TinyUSB/src/common/tusb_types.h **** }
 4869              		.loc 3 553 10 view .LVU1553
 4870              	.LBE440:
 4871              	.LBE439:
 736:lib/TinyUSB/src/portable/synopsys/dwc2/dcd_dwc2.c ****   dwc2_dep_t* dep = &dwc2->ep[dir == TUSB_DIR_IN ? 0 : 1][epnum];
 4872              		.loc 1 736 3 is_stmt 1 view .LVU1554
 4873              	.LBB441:
ARM GAS  C:\Users\krisa\AppData\Local\Temp\ccNljk5K.s 			page 184


 4874              	.LBI441:
 547:lib/TinyUSB/src/common/tusb_types.h ****   return (addr & TUSB_DIR_IN_MASK) ? TUSB_DIR_IN : TUSB_DIR_OUT;
 4875              		.loc 3 547 48 view .LVU1555
 4876              	.LBB442:
 548:lib/TinyUSB/src/common/tusb_types.h **** }
 4877              		.loc 3 548 3 view .LVU1556
 548:lib/TinyUSB/src/common/tusb_types.h **** }
 4878              		.loc 3 548 3 is_stmt 0 view .LVU1557
 4879              	.LBE442:
 4880              	.LBE441:
 737:lib/TinyUSB/src/portable/synopsys/dwc2/dcd_dwc2.c **** 
 4881              		.loc 1 737 3 is_stmt 1 view .LVU1558
 737:lib/TinyUSB/src/portable/synopsys/dwc2/dcd_dwc2.c **** 
 4882              		.loc 1 737 54 is_stmt 0 view .LVU1559
 4883 0010 C909     		lsrs	r1, r1, #7
 4884              	.LVL476:
 737:lib/TinyUSB/src/portable/synopsys/dwc2/dcd_dwc2.c **** 
 4885              		.loc 1 737 54 view .LVU1560
 4886 0012 0CBF     		ite	eq
 4887 0014 0121     		moveq	r1, #1
 4888 0016 0021     		movne	r1, #0
 4889              	.LVL477:
 740:lib/TinyUSB/src/portable/synopsys/dwc2/dcd_dwc2.c ****   dep->ctl |= EPCTL_SD0PID_SEVNFRM;
 4890              		.loc 1 740 3 is_stmt 1 view .LVU1561
 740:lib/TinyUSB/src/portable/synopsys/dwc2/dcd_dwc2.c ****   dep->ctl |= EPCTL_SD0PID_SEVNFRM;
 4891              		.loc 1 740 12 is_stmt 0 view .LVU1562
 4892 0018 03EB0113 		add	r3, r3, r1, lsl #4
 4893              	.LVL478:
 740:lib/TinyUSB/src/portable/synopsys/dwc2/dcd_dwc2.c ****   dep->ctl |= EPCTL_SD0PID_SEVNFRM;
 4894              		.loc 1 740 12 view .LVU1563
 4895 001c 4833     		adds	r3, r3, #72
 4896 001e 5B01     		lsls	r3, r3, #5
 4897 0020 D158     		ldr	r1, [r2, r3]
 740:lib/TinyUSB/src/portable/synopsys/dwc2/dcd_dwc2.c ****   dep->ctl |= EPCTL_SD0PID_SEVNFRM;
 4898              		.loc 1 740 12 view .LVU1564
 4899 0022 21F40011 		bic	r1, r1, #2097152
 4900 0026 D150     		str	r1, [r2, r3]
 740:lib/TinyUSB/src/portable/synopsys/dwc2/dcd_dwc2.c ****   dep->ctl |= EPCTL_SD0PID_SEVNFRM;
 4901              		.loc 1 740 28 is_stmt 1 view .LVU1565
 741:lib/TinyUSB/src/portable/synopsys/dwc2/dcd_dwc2.c **** }
 4902              		.loc 1 741 3 view .LVU1566
 741:lib/TinyUSB/src/portable/synopsys/dwc2/dcd_dwc2.c **** }
 4903              		.loc 1 741 12 is_stmt 0 view .LVU1567
 4904 0028 D158     		ldr	r1, [r2, r3]
 4905 002a 41F08051 		orr	r1, r1, #268435456
 4906 002e D150     		str	r1, [r2, r3]
 742:lib/TinyUSB/src/portable/synopsys/dwc2/dcd_dwc2.c **** 
 4907              		.loc 1 742 1 view .LVU1568
 4908 0030 7047     		bx	lr
 4909              	.L308:
 4910 0032 00BF     		.align	2
 4911              	.L307:
 4912 0034 00000000 		.word	.LANCHOR0
 4913              		.cfi_endproc
 4914              	.LFE368:
 4916              		.section	.text.dcd_int_handler,"ax",%progbits
 4917              		.align	1
ARM GAS  C:\Users\krisa\AppData\Local\Temp\ccNljk5K.s 			page 185


 4918              		.global	dcd_int_handler
 4919              		.syntax unified
 4920              		.thumb
 4921              		.thumb_func
 4923              	dcd_int_handler:
 4924              	.LVL479:
 4925              	.LFB376:
1122:lib/TinyUSB/src/portable/synopsys/dwc2/dcd_dwc2.c **** 
1123:lib/TinyUSB/src/portable/synopsys/dwc2/dcd_dwc2.c **** /* Interrupt Hierarchy
1124:lib/TinyUSB/src/portable/synopsys/dwc2/dcd_dwc2.c ****                  DIEPINT  DIEPINT
1125:lib/TinyUSB/src/portable/synopsys/dwc2/dcd_dwc2.c ****                     \       /
1126:lib/TinyUSB/src/portable/synopsys/dwc2/dcd_dwc2.c ****                      \     /
1127:lib/TinyUSB/src/portable/synopsys/dwc2/dcd_dwc2.c ****                       DAINT
1128:lib/TinyUSB/src/portable/synopsys/dwc2/dcd_dwc2.c ****                      /     \
1129:lib/TinyUSB/src/portable/synopsys/dwc2/dcd_dwc2.c ****                     /       \
1130:lib/TinyUSB/src/portable/synopsys/dwc2/dcd_dwc2.c ****      GINTSTS:    OEPInt    IEPInt | USBReset | EnumDone | USBSusp | WkUpInt | OTGInt | SOF | RXFLVL
1131:lib/TinyUSB/src/portable/synopsys/dwc2/dcd_dwc2.c **** 
1132:lib/TinyUSB/src/portable/synopsys/dwc2/dcd_dwc2.c ****   Note: when OTG_MULTI_PROC_INTRPT = 1, Device Each endpoint interrupt deachint/deachmsk/diepeachms
1133:lib/TinyUSB/src/portable/synopsys/dwc2/dcd_dwc2.c ****   are combined to generate dedicated interrupt line for each endpoint.
1134:lib/TinyUSB/src/portable/synopsys/dwc2/dcd_dwc2.c ****  */
1135:lib/TinyUSB/src/portable/synopsys/dwc2/dcd_dwc2.c **** void dcd_int_handler(uint8_t rhport) {
 4926              		.loc 1 1135 38 is_stmt 1 view -0
 4927              		.cfi_startproc
 4928              		@ args = 0, pretend = 0, frame = 16
 4929              		@ frame_needed = 0, uses_anonymous_args = 0
 4930              		.loc 1 1135 38 is_stmt 0 view .LVU1570
 4931 0000 F0B5     		push	{r4, r5, r6, r7, lr}
 4932              	.LCFI40:
 4933              		.cfi_def_cfa_offset 20
 4934              		.cfi_offset 4, -20
 4935              		.cfi_offset 5, -16
 4936              		.cfi_offset 6, -12
 4937              		.cfi_offset 7, -8
 4938              		.cfi_offset 14, -4
 4939 0002 85B0     		sub	sp, sp, #20
 4940              	.LCFI41:
 4941              		.cfi_def_cfa_offset 40
 4942 0004 0646     		mov	r6, r0
1136:lib/TinyUSB/src/portable/synopsys/dwc2/dcd_dwc2.c ****   dwc2_regs_t* dwc2 = DWC2_REG(rhport);
 4943              		.loc 1 1136 3 is_stmt 1 view .LVU1571
 4944              	.LVL480:
 4945              	.LBB443:
 4946              	.LBI443:
  79:lib/TinyUSB/src/portable/synopsys/dwc2/dwc2_common.h ****   if (rhport >= DWC2_CONTROLLER_COUNT) {
 4947              		.loc 2 79 50 view .LVU1572
 4948              	.LBB444:
  80:lib/TinyUSB/src/portable/synopsys/dwc2/dwc2_common.h ****     // user mis-configured, ignore and use first controller
 4949              		.loc 2 80 3 view .LVU1573
  80:lib/TinyUSB/src/portable/synopsys/dwc2/dwc2_common.h ****     // user mis-configured, ignore and use first controller
 4950              		.loc 2 80 6 is_stmt 0 view .LVU1574
 4951 0006 0128     		cmp	r0, #1
 4952 0008 54D9     		bls	.L326
  82:lib/TinyUSB/src/portable/synopsys/dwc2/dwc2_common.h ****   }
 4953              		.loc 2 82 12 view .LVU1575
 4954 000a 0023     		movs	r3, #0
 4955              	.L310:
 4956              	.LVL481:
ARM GAS  C:\Users\krisa\AppData\Local\Temp\ccNljk5K.s 			page 186


  84:lib/TinyUSB/src/portable/synopsys/dwc2/dwc2_common.h **** }
 4957              		.loc 2 84 3 is_stmt 1 view .LVU1576
  84:lib/TinyUSB/src/portable/synopsys/dwc2/dwc2_common.h **** }
 4958              		.loc 2 84 48 is_stmt 0 view .LVU1577
 4959 000c 1B01     		lsls	r3, r3, #4
 4960              	.LVL482:
  84:lib/TinyUSB/src/portable/synopsys/dwc2/dwc2_common.h **** }
 4961              		.loc 2 84 48 view .LVU1578
 4962 000e 574A     		ldr	r2, .L335
 4963 0010 D458     		ldr	r4, [r2, r3]
 4964              	.LVL483:
  84:lib/TinyUSB/src/portable/synopsys/dwc2/dwc2_common.h **** }
 4965              		.loc 2 84 48 view .LVU1579
 4966              	.LBE444:
 4967              	.LBE443:
1137:lib/TinyUSB/src/portable/synopsys/dwc2/dcd_dwc2.c ****   const uint32_t gintmask = dwc2->gintmsk;
 4968              		.loc 1 1137 3 is_stmt 1 view .LVU1580
 4969              		.loc 1 1137 18 is_stmt 0 view .LVU1581
 4970 0012 A369     		ldr	r3, [r4, #24]
 4971              	.LVL484:
1138:lib/TinyUSB/src/portable/synopsys/dwc2/dcd_dwc2.c ****   const uint32_t gintsts = dwc2->gintsts & gintmask;
 4972              		.loc 1 1138 3 is_stmt 1 view .LVU1582
 4973              		.loc 1 1138 32 is_stmt 0 view .LVU1583
 4974 0014 6569     		ldr	r5, [r4, #20]
 4975              		.loc 1 1138 18 view .LVU1584
 4976 0016 1D40     		ands	r5, r5, r3
 4977              	.LVL485:
1139:lib/TinyUSB/src/portable/synopsys/dwc2/dcd_dwc2.c **** 
1140:lib/TinyUSB/src/portable/synopsys/dwc2/dcd_dwc2.c ****   if (gintsts & GINTSTS_USBRST) {
 4978              		.loc 1 1140 3 is_stmt 1 view .LVU1585
 4979              		.loc 1 1140 6 is_stmt 0 view .LVU1586
 4980 0018 15F4805F 		tst	r5, #4096
 4981 001c 4CD1     		bne	.L327
 4982              	.LVL486:
 4983              	.L311:
1141:lib/TinyUSB/src/portable/synopsys/dwc2/dcd_dwc2.c ****     // USBRST is start of reset.
1142:lib/TinyUSB/src/portable/synopsys/dwc2/dcd_dwc2.c ****     dwc2->gintsts = GINTSTS_USBRST;
1143:lib/TinyUSB/src/portable/synopsys/dwc2/dcd_dwc2.c **** 
1144:lib/TinyUSB/src/portable/synopsys/dwc2/dcd_dwc2.c ****     usbd_spin_lock(true);
1145:lib/TinyUSB/src/portable/synopsys/dwc2/dcd_dwc2.c ****     handle_bus_reset(rhport);
1146:lib/TinyUSB/src/portable/synopsys/dwc2/dcd_dwc2.c ****     usbd_spin_unlock(true);
1147:lib/TinyUSB/src/portable/synopsys/dwc2/dcd_dwc2.c ****   }
1148:lib/TinyUSB/src/portable/synopsys/dwc2/dcd_dwc2.c **** 
1149:lib/TinyUSB/src/portable/synopsys/dwc2/dcd_dwc2.c ****   if (gintsts & GINTSTS_ENUMDNE) {
 4984              		.loc 1 1149 3 is_stmt 1 view .LVU1587
 4985              		.loc 1 1149 6 is_stmt 0 view .LVU1588
 4986 001e 15F4005F 		tst	r5, #8192
 4987 0022 56D1     		bne	.L328
 4988              	.L312:
1150:lib/TinyUSB/src/portable/synopsys/dwc2/dcd_dwc2.c ****     // ENUMDNE is the end of reset where speed of the link is detected
1151:lib/TinyUSB/src/portable/synopsys/dwc2/dcd_dwc2.c ****     dwc2->gintsts = GINTSTS_ENUMDNE;
1152:lib/TinyUSB/src/portable/synopsys/dwc2/dcd_dwc2.c ****     // There may be a pending suspend event, so we clear it first
1153:lib/TinyUSB/src/portable/synopsys/dwc2/dcd_dwc2.c ****     dwc2->gintsts = GINTSTS_USBSUSP;
1154:lib/TinyUSB/src/portable/synopsys/dwc2/dcd_dwc2.c ****     dwc2->gintmsk |= GINTMSK_USBSUSPM;
1155:lib/TinyUSB/src/portable/synopsys/dwc2/dcd_dwc2.c ****     handle_enum_done(rhport);
1156:lib/TinyUSB/src/portable/synopsys/dwc2/dcd_dwc2.c ****   }
1157:lib/TinyUSB/src/portable/synopsys/dwc2/dcd_dwc2.c **** 
ARM GAS  C:\Users\krisa\AppData\Local\Temp\ccNljk5K.s 			page 187


1158:lib/TinyUSB/src/portable/synopsys/dwc2/dcd_dwc2.c ****   if (gintsts & GINTSTS_USBSUSP) {
 4989              		.loc 1 1158 3 is_stmt 1 view .LVU1589
 4990              		.loc 1 1158 6 is_stmt 0 view .LVU1590
 4991 0024 15F4006F 		tst	r5, #2048
 4992 0028 61D1     		bne	.L329
 4993              	.L313:
1159:lib/TinyUSB/src/portable/synopsys/dwc2/dcd_dwc2.c ****     dwc2->gintsts = GINTSTS_USBSUSP;
1160:lib/TinyUSB/src/portable/synopsys/dwc2/dcd_dwc2.c ****     dwc2->gintmsk &= ~GINTMSK_USBSUSPM;
1161:lib/TinyUSB/src/portable/synopsys/dwc2/dcd_dwc2.c ****     dcd_event_bus_signal(rhport, DCD_EVENT_SUSPEND, true);
1162:lib/TinyUSB/src/portable/synopsys/dwc2/dcd_dwc2.c ****   }
1163:lib/TinyUSB/src/portable/synopsys/dwc2/dcd_dwc2.c **** 
1164:lib/TinyUSB/src/portable/synopsys/dwc2/dcd_dwc2.c ****   if (gintsts & GINTSTS_WKUINT) {
 4994              		.loc 1 1164 3 is_stmt 1 view .LVU1591
 4995              		.loc 1 1164 6 is_stmt 0 view .LVU1592
 4996 002a 002D     		cmp	r5, #0
 4997 002c 71DB     		blt	.L330
 4998              	.L314:
1165:lib/TinyUSB/src/portable/synopsys/dwc2/dcd_dwc2.c ****     dwc2->gintsts = GINTSTS_WKUINT;
1166:lib/TinyUSB/src/portable/synopsys/dwc2/dcd_dwc2.c ****     dwc2->gintmsk |= GINTMSK_USBSUSPM;
1167:lib/TinyUSB/src/portable/synopsys/dwc2/dcd_dwc2.c ****     dcd_event_bus_signal(rhport, DCD_EVENT_RESUME, true);
1168:lib/TinyUSB/src/portable/synopsys/dwc2/dcd_dwc2.c ****   }
1169:lib/TinyUSB/src/portable/synopsys/dwc2/dcd_dwc2.c **** 
1170:lib/TinyUSB/src/portable/synopsys/dwc2/dcd_dwc2.c ****   // TODO check GINTSTS_DISCINT for disconnect detection
1171:lib/TinyUSB/src/portable/synopsys/dwc2/dcd_dwc2.c ****   // if(int_status & GINTSTS_DISCINT)
1172:lib/TinyUSB/src/portable/synopsys/dwc2/dcd_dwc2.c **** 
1173:lib/TinyUSB/src/portable/synopsys/dwc2/dcd_dwc2.c ****   if (gintsts & GINTSTS_OTGINT) {
 4999              		.loc 1 1173 3 is_stmt 1 view .LVU1593
 5000              		.loc 1 1173 6 is_stmt 0 view .LVU1594
 5001 002e 15F0040F 		tst	r5, #4
 5002 0032 04D0     		beq	.L315
 5003              	.LBB446:
1174:lib/TinyUSB/src/portable/synopsys/dwc2/dcd_dwc2.c ****     // OTG INT bit is read-only
1175:lib/TinyUSB/src/portable/synopsys/dwc2/dcd_dwc2.c ****     const uint32_t otg_int = dwc2->gotgint;
 5004              		.loc 1 1175 5 is_stmt 1 view .LVU1595
 5005              		.loc 1 1175 20 is_stmt 0 view .LVU1596
 5006 0034 6768     		ldr	r7, [r4, #4]
 5007              	.LVL487:
1176:lib/TinyUSB/src/portable/synopsys/dwc2/dcd_dwc2.c **** 
1177:lib/TinyUSB/src/portable/synopsys/dwc2/dcd_dwc2.c ****     if (otg_int & GOTGINT_SEDET) {
 5008              		.loc 1 1177 5 is_stmt 1 view .LVU1597
 5009              		.loc 1 1177 8 is_stmt 0 view .LVU1598
 5010 0036 17F0040F 		tst	r7, #4
 5011 003a 7BD1     		bne	.L331
 5012              	.L316:
1178:lib/TinyUSB/src/portable/synopsys/dwc2/dcd_dwc2.c ****       dcd_event_bus_signal(rhport, DCD_EVENT_UNPLUGGED, true);
1179:lib/TinyUSB/src/portable/synopsys/dwc2/dcd_dwc2.c ****     }
1180:lib/TinyUSB/src/portable/synopsys/dwc2/dcd_dwc2.c **** 
1181:lib/TinyUSB/src/portable/synopsys/dwc2/dcd_dwc2.c ****     dwc2->gotgint = otg_int;
 5013              		.loc 1 1181 5 is_stmt 1 view .LVU1599
 5014              		.loc 1 1181 19 is_stmt 0 view .LVU1600
 5015 003c 6760     		str	r7, [r4, #4]
 5016              	.LVL488:
 5017              	.L315:
 5018              		.loc 1 1181 19 view .LVU1601
 5019              	.LBE446:
1182:lib/TinyUSB/src/portable/synopsys/dwc2/dcd_dwc2.c ****   }
1183:lib/TinyUSB/src/portable/synopsys/dwc2/dcd_dwc2.c **** 
ARM GAS  C:\Users\krisa\AppData\Local\Temp\ccNljk5K.s 			page 188


1184:lib/TinyUSB/src/portable/synopsys/dwc2/dcd_dwc2.c ****   if(gintsts & GINTSTS_SOF) {
 5020              		.loc 1 1184 3 is_stmt 1 view .LVU1602
 5021              		.loc 1 1184 5 is_stmt 0 view .LVU1603
 5022 003e 15F0080F 		tst	r5, #8
 5023 0042 1AD0     		beq	.L317
 5024              	.LBB449:
1185:lib/TinyUSB/src/portable/synopsys/dwc2/dcd_dwc2.c ****     dwc2->gintsts = GINTSTS_SOF;
 5025              		.loc 1 1185 5 is_stmt 1 view .LVU1604
 5026              		.loc 1 1185 19 is_stmt 0 view .LVU1605
 5027 0044 0823     		movs	r3, #8
 5028 0046 6361     		str	r3, [r4, #20]
1186:lib/TinyUSB/src/portable/synopsys/dwc2/dcd_dwc2.c ****     dwc2->gintmsk |= GINTMSK_USBSUSPM;
 5029              		.loc 1 1186 5 is_stmt 1 view .LVU1606
 5030              		.loc 1 1186 19 is_stmt 0 view .LVU1607
 5031 0048 A369     		ldr	r3, [r4, #24]
 5032 004a 43F40063 		orr	r3, r3, #2048
 5033 004e A361     		str	r3, [r4, #24]
1187:lib/TinyUSB/src/portable/synopsys/dwc2/dcd_dwc2.c ****     const uint32_t frame = (dwc2->dsts & DSTS_FNSOF) >> DSTS_FNSOF_Pos;
 5034              		.loc 1 1187 5 is_stmt 1 view .LVU1608
 5035              		.loc 1 1187 33 is_stmt 0 view .LVU1609
 5036 0050 D4F80838 		ldr	r3, [r4, #2056]
 5037              		.loc 1 1187 20 view .LVU1610
 5038 0054 C3F30D23 		ubfx	r3, r3, #8, #14
 5039              	.LVL489:
1188:lib/TinyUSB/src/portable/synopsys/dwc2/dcd_dwc2.c **** 
1189:lib/TinyUSB/src/portable/synopsys/dwc2/dcd_dwc2.c ****     // Disable SOF interrupt if SOF was not explicitly enabled since SOF was used for remote wakeup
1190:lib/TinyUSB/src/portable/synopsys/dwc2/dcd_dwc2.c ****     if (!_dcd_data.sof_en) {
 5040              		.loc 1 1190 5 is_stmt 1 view .LVU1611
 5041              		.loc 1 1190 19 is_stmt 0 view .LVU1612
 5042 0058 454A     		ldr	r2, .L335+4
 5043 005a D279     		ldrb	r2, [r2, #7]	@ zero_extendqisi2
 5044              		.loc 1 1190 8 view .LVU1613
 5045 005c 1AB9     		cbnz	r2, .L318
1191:lib/TinyUSB/src/portable/synopsys/dwc2/dcd_dwc2.c ****       dwc2->gintmsk &= ~GINTMSK_SOFM;
 5046              		.loc 1 1191 7 is_stmt 1 view .LVU1614
 5047              		.loc 1 1191 21 is_stmt 0 view .LVU1615
 5048 005e A269     		ldr	r2, [r4, #24]
 5049 0060 22F00802 		bic	r2, r2, #8
 5050 0064 A261     		str	r2, [r4, #24]
 5051              	.L318:
1192:lib/TinyUSB/src/portable/synopsys/dwc2/dcd_dwc2.c ****     }
1193:lib/TinyUSB/src/portable/synopsys/dwc2/dcd_dwc2.c **** 
1194:lib/TinyUSB/src/portable/synopsys/dwc2/dcd_dwc2.c ****     dcd_event_sof(rhport, frame, true);
 5052              		.loc 1 1194 5 is_stmt 1 view .LVU1616
 5053              	.LVL490:
 5054              	.LBB450:
 5055              	.LBI450:
 235:lib/TinyUSB/src/device/dcd.h **** 
 236:lib/TinyUSB/src/device/dcd.h **** TU_ATTR_ALWAYS_INLINE static inline void dcd_event_sof(uint8_t rhport, uint32_t frame_count, bool i
 5056              		.loc 5 236 42 view .LVU1617
 5057              	.LBB451:
 237:lib/TinyUSB/src/device/dcd.h ****   dcd_event_t event;
 5058              		.loc 5 237 3 view .LVU1618
 238:lib/TinyUSB/src/device/dcd.h ****   event.rhport = rhport;
 5059              		.loc 5 238 3 view .LVU1619
 5060              		.loc 5 238 16 is_stmt 0 view .LVU1620
 5061 0066 8DF80460 		strb	r6, [sp, #4]
ARM GAS  C:\Users\krisa\AppData\Local\Temp\ccNljk5K.s 			page 189


 239:lib/TinyUSB/src/device/dcd.h ****   event.event_id = DCD_EVENT_SOF;
 5062              		.loc 5 239 3 is_stmt 1 view .LVU1621
 5063              		.loc 5 239 18 is_stmt 0 view .LVU1622
 5064 006a 0322     		movs	r2, #3
 5065 006c 8DF80520 		strb	r2, [sp, #5]
 240:lib/TinyUSB/src/device/dcd.h ****   event.sof.frame_count = frame_count;
 5066              		.loc 5 240 3 is_stmt 1 view .LVU1623
 5067              		.loc 5 240 25 is_stmt 0 view .LVU1624
 5068 0070 0293     		str	r3, [sp, #8]
 241:lib/TinyUSB/src/device/dcd.h ****   dcd_event_handler(&event, in_isr);
 5069              		.loc 5 241 3 is_stmt 1 view .LVU1625
 5070 0072 0121     		movs	r1, #1
 5071 0074 01A8     		add	r0, sp, #4
 5072 0076 FFF7FEFF 		bl	dcd_event_handler
 5073              	.LVL491:
 5074              	.L317:
 5075              		.loc 5 241 3 is_stmt 0 view .LVU1626
 5076              	.LBE451:
 5077              	.LBE450:
 5078              	.LBE449:
1195:lib/TinyUSB/src/portable/synopsys/dwc2/dcd_dwc2.c ****   }
1196:lib/TinyUSB/src/portable/synopsys/dwc2/dcd_dwc2.c **** 
1197:lib/TinyUSB/src/portable/synopsys/dwc2/dcd_dwc2.c **** #if CFG_TUD_DWC2_SLAVE_ENABLE
1198:lib/TinyUSB/src/portable/synopsys/dwc2/dcd_dwc2.c ****   // RxFIFO non-empty interrupt handling.
1199:lib/TinyUSB/src/portable/synopsys/dwc2/dcd_dwc2.c ****   if (gintsts & GINTSTS_RXFLVL) {
 5079              		.loc 1 1199 3 is_stmt 1 view .LVU1627
 5080              		.loc 1 1199 6 is_stmt 0 view .LVU1628
 5081 007a 15F0100F 		tst	r5, #16
 5082 007e 0ED0     		beq	.L319
1200:lib/TinyUSB/src/portable/synopsys/dwc2/dcd_dwc2.c ****     // RXFLVL bit is read-only
1201:lib/TinyUSB/src/portable/synopsys/dwc2/dcd_dwc2.c ****     dwc2->gintmsk &= ~GINTMSK_RXFLVLM; // disable RXFLVL interrupt while reading
 5083              		.loc 1 1201 5 is_stmt 1 view .LVU1629
 5084              		.loc 1 1201 19 is_stmt 0 view .LVU1630
 5085 0080 A369     		ldr	r3, [r4, #24]
 5086 0082 23F01003 		bic	r3, r3, #16
 5087 0086 A361     		str	r3, [r4, #24]
 5088              	.L320:
1202:lib/TinyUSB/src/portable/synopsys/dwc2/dcd_dwc2.c **** 
1203:lib/TinyUSB/src/portable/synopsys/dwc2/dcd_dwc2.c ****     do {
 5089              		.loc 1 1203 5 is_stmt 1 discriminator 1 view .LVU1631
1204:lib/TinyUSB/src/portable/synopsys/dwc2/dcd_dwc2.c ****       handle_rxflvl_irq(rhport); // read all packets
 5090              		.loc 1 1204 7 discriminator 1 view .LVU1632
 5091 0088 3046     		mov	r0, r6
 5092 008a FFF7FEFF 		bl	handle_rxflvl_irq
 5093              	.LVL492:
1205:lib/TinyUSB/src/portable/synopsys/dwc2/dcd_dwc2.c ****     } while(dwc2->gintsts & GINTSTS_RXFLVL);
 5094              		.loc 1 1205 12 discriminator 1 view .LVU1633
 5095              		.loc 1 1205 17 is_stmt 0 discriminator 1 view .LVU1634
 5096 008e 6369     		ldr	r3, [r4, #20]
 5097              		.loc 1 1205 5 discriminator 1 view .LVU1635
 5098 0090 13F0100F 		tst	r3, #16
 5099 0094 F8D1     		bne	.L320
1206:lib/TinyUSB/src/portable/synopsys/dwc2/dcd_dwc2.c **** 
1207:lib/TinyUSB/src/portable/synopsys/dwc2/dcd_dwc2.c ****     dwc2->gintmsk |= GINTMSK_RXFLVLM;
 5100              		.loc 1 1207 5 is_stmt 1 view .LVU1636
 5101              		.loc 1 1207 19 is_stmt 0 view .LVU1637
 5102 0096 A369     		ldr	r3, [r4, #24]
ARM GAS  C:\Users\krisa\AppData\Local\Temp\ccNljk5K.s 			page 190


 5103 0098 43F01003 		orr	r3, r3, #16
 5104 009c A361     		str	r3, [r4, #24]
 5105              	.L319:
1208:lib/TinyUSB/src/portable/synopsys/dwc2/dcd_dwc2.c ****   }
1209:lib/TinyUSB/src/portable/synopsys/dwc2/dcd_dwc2.c **** #endif
1210:lib/TinyUSB/src/portable/synopsys/dwc2/dcd_dwc2.c **** 
1211:lib/TinyUSB/src/portable/synopsys/dwc2/dcd_dwc2.c ****   // OUT endpoint interrupt handling.
1212:lib/TinyUSB/src/portable/synopsys/dwc2/dcd_dwc2.c ****   if (gintsts & GINTSTS_OEPINT) {
 5106              		.loc 1 1212 3 is_stmt 1 view .LVU1638
 5107              		.loc 1 1212 6 is_stmt 0 view .LVU1639
 5108 009e 15F4002F 		tst	r5, #524288
 5109 00a2 51D1     		bne	.L332
 5110              	.L321:
1213:lib/TinyUSB/src/portable/synopsys/dwc2/dcd_dwc2.c ****     // OEPINT is read-only, clear using DOEPINTn
1214:lib/TinyUSB/src/portable/synopsys/dwc2/dcd_dwc2.c ****     handle_ep_irq(rhport, TUSB_DIR_OUT);
1215:lib/TinyUSB/src/portable/synopsys/dwc2/dcd_dwc2.c ****   }
1216:lib/TinyUSB/src/portable/synopsys/dwc2/dcd_dwc2.c **** 
1217:lib/TinyUSB/src/portable/synopsys/dwc2/dcd_dwc2.c ****   // IN endpoint interrupt handling.
1218:lib/TinyUSB/src/portable/synopsys/dwc2/dcd_dwc2.c ****   if (gintsts & GINTSTS_IEPINT) {
 5111              		.loc 1 1218 3 is_stmt 1 view .LVU1640
 5112              		.loc 1 1218 6 is_stmt 0 view .LVU1641
 5113 00a4 15F4802F 		tst	r5, #262144
 5114 00a8 53D1     		bne	.L333
 5115              	.L322:
1219:lib/TinyUSB/src/portable/synopsys/dwc2/dcd_dwc2.c ****     // IEPINT bit read-only, clear using DIEPINTn
1220:lib/TinyUSB/src/portable/synopsys/dwc2/dcd_dwc2.c ****     handle_ep_irq(rhport, TUSB_DIR_IN);
1221:lib/TinyUSB/src/portable/synopsys/dwc2/dcd_dwc2.c ****   }
1222:lib/TinyUSB/src/portable/synopsys/dwc2/dcd_dwc2.c **** 
1223:lib/TinyUSB/src/portable/synopsys/dwc2/dcd_dwc2.c ****   // Incomplete isochronous IN transfer interrupt handling.
1224:lib/TinyUSB/src/portable/synopsys/dwc2/dcd_dwc2.c ****   if (gintsts & GINTSTS_IISOIXFR) {
 5116              		.loc 1 1224 3 is_stmt 1 view .LVU1642
 5117              		.loc 1 1224 6 is_stmt 0 view .LVU1643
 5118 00aa 15F4801F 		tst	r5, #1048576
 5119 00ae 55D1     		bne	.L334
 5120              	.L309:
1225:lib/TinyUSB/src/portable/synopsys/dwc2/dcd_dwc2.c ****     dwc2->gintsts = GINTSTS_IISOIXFR;
1226:lib/TinyUSB/src/portable/synopsys/dwc2/dcd_dwc2.c ****     handle_incomplete_iso_in(rhport);
1227:lib/TinyUSB/src/portable/synopsys/dwc2/dcd_dwc2.c ****   }
1228:lib/TinyUSB/src/portable/synopsys/dwc2/dcd_dwc2.c **** }
 5121              		.loc 1 1228 1 view .LVU1644
 5122 00b0 05B0     		add	sp, sp, #20
 5123              	.LCFI42:
 5124              		.cfi_remember_state
 5125              		.cfi_def_cfa_offset 20
 5126              		@ sp needed
 5127 00b2 F0BD     		pop	{r4, r5, r6, r7, pc}
 5128              	.LVL493:
 5129              	.L326:
 5130              	.LCFI43:
 5131              		.cfi_restore_state
 5132              	.LBB452:
 5133              	.LBB445:
  80:lib/TinyUSB/src/portable/synopsys/dwc2/dwc2_common.h ****     // user mis-configured, ignore and use first controller
 5134              		.loc 2 80 6 view .LVU1645
 5135 00b4 0346     		mov	r3, r0
 5136 00b6 A9E7     		b	.L310
 5137              	.LVL494:
ARM GAS  C:\Users\krisa\AppData\Local\Temp\ccNljk5K.s 			page 191


 5138              	.L327:
  80:lib/TinyUSB/src/portable/synopsys/dwc2/dwc2_common.h ****     // user mis-configured, ignore and use first controller
 5139              		.loc 2 80 6 view .LVU1646
 5140              	.LBE445:
 5141              	.LBE452:
1142:lib/TinyUSB/src/portable/synopsys/dwc2/dcd_dwc2.c **** 
 5142              		.loc 1 1142 5 is_stmt 1 view .LVU1647
1142:lib/TinyUSB/src/portable/synopsys/dwc2/dcd_dwc2.c **** 
 5143              		.loc 1 1142 19 is_stmt 0 view .LVU1648
 5144 00b8 4FF48053 		mov	r3, #4096
 5145              	.LVL495:
1142:lib/TinyUSB/src/portable/synopsys/dwc2/dcd_dwc2.c **** 
 5146              		.loc 1 1142 19 view .LVU1649
 5147 00bc 6361     		str	r3, [r4, #20]
1144:lib/TinyUSB/src/portable/synopsys/dwc2/dcd_dwc2.c ****     handle_bus_reset(rhport);
 5148              		.loc 1 1144 5 is_stmt 1 view .LVU1650
 5149 00be 0120     		movs	r0, #1
 5150              	.LVL496:
1144:lib/TinyUSB/src/portable/synopsys/dwc2/dcd_dwc2.c ****     handle_bus_reset(rhport);
 5151              		.loc 1 1144 5 is_stmt 0 view .LVU1651
 5152 00c0 FFF7FEFF 		bl	usbd_spin_lock
 5153              	.LVL497:
1145:lib/TinyUSB/src/portable/synopsys/dwc2/dcd_dwc2.c ****     usbd_spin_unlock(true);
 5154              		.loc 1 1145 5 is_stmt 1 view .LVU1652
 5155 00c4 3046     		mov	r0, r6
 5156 00c6 FFF7FEFF 		bl	handle_bus_reset
 5157              	.LVL498:
1146:lib/TinyUSB/src/portable/synopsys/dwc2/dcd_dwc2.c ****   }
 5158              		.loc 1 1146 5 view .LVU1653
 5159 00ca 0120     		movs	r0, #1
 5160 00cc FFF7FEFF 		bl	usbd_spin_unlock
 5161              	.LVL499:
 5162 00d0 A5E7     		b	.L311
 5163              	.L328:
1151:lib/TinyUSB/src/portable/synopsys/dwc2/dcd_dwc2.c ****     // There may be a pending suspend event, so we clear it first
 5164              		.loc 1 1151 5 view .LVU1654
1151:lib/TinyUSB/src/portable/synopsys/dwc2/dcd_dwc2.c ****     // There may be a pending suspend event, so we clear it first
 5165              		.loc 1 1151 19 is_stmt 0 view .LVU1655
 5166 00d2 4FF40053 		mov	r3, #8192
 5167 00d6 6361     		str	r3, [r4, #20]
1153:lib/TinyUSB/src/portable/synopsys/dwc2/dcd_dwc2.c ****     dwc2->gintmsk |= GINTMSK_USBSUSPM;
 5168              		.loc 1 1153 5 is_stmt 1 view .LVU1656
1153:lib/TinyUSB/src/portable/synopsys/dwc2/dcd_dwc2.c ****     dwc2->gintmsk |= GINTMSK_USBSUSPM;
 5169              		.loc 1 1153 19 is_stmt 0 view .LVU1657
 5170 00d8 4FF40063 		mov	r3, #2048
 5171 00dc 6361     		str	r3, [r4, #20]
1154:lib/TinyUSB/src/portable/synopsys/dwc2/dcd_dwc2.c ****     handle_enum_done(rhport);
 5172              		.loc 1 1154 5 is_stmt 1 view .LVU1658
1154:lib/TinyUSB/src/portable/synopsys/dwc2/dcd_dwc2.c ****     handle_enum_done(rhport);
 5173              		.loc 1 1154 19 is_stmt 0 view .LVU1659
 5174 00de A369     		ldr	r3, [r4, #24]
 5175 00e0 43F40063 		orr	r3, r3, #2048
 5176 00e4 A361     		str	r3, [r4, #24]
1155:lib/TinyUSB/src/portable/synopsys/dwc2/dcd_dwc2.c ****   }
 5177              		.loc 1 1155 5 is_stmt 1 view .LVU1660
 5178 00e6 3046     		mov	r0, r6
 5179 00e8 FFF7FEFF 		bl	handle_enum_done
ARM GAS  C:\Users\krisa\AppData\Local\Temp\ccNljk5K.s 			page 192


 5180              	.LVL500:
 5181 00ec 9AE7     		b	.L312
 5182              	.L329:
1159:lib/TinyUSB/src/portable/synopsys/dwc2/dcd_dwc2.c ****     dwc2->gintmsk &= ~GINTMSK_USBSUSPM;
 5183              		.loc 1 1159 5 view .LVU1661
1159:lib/TinyUSB/src/portable/synopsys/dwc2/dcd_dwc2.c ****     dwc2->gintmsk &= ~GINTMSK_USBSUSPM;
 5184              		.loc 1 1159 19 is_stmt 0 view .LVU1662
 5185 00ee 4FF40063 		mov	r3, #2048
 5186 00f2 6361     		str	r3, [r4, #20]
1160:lib/TinyUSB/src/portable/synopsys/dwc2/dcd_dwc2.c ****     dcd_event_bus_signal(rhport, DCD_EVENT_SUSPEND, true);
 5187              		.loc 1 1160 5 is_stmt 1 view .LVU1663
1160:lib/TinyUSB/src/portable/synopsys/dwc2/dcd_dwc2.c ****     dcd_event_bus_signal(rhport, DCD_EVENT_SUSPEND, true);
 5188              		.loc 1 1160 19 is_stmt 0 view .LVU1664
 5189 00f4 A369     		ldr	r3, [r4, #24]
 5190 00f6 23F40063 		bic	r3, r3, #2048
 5191 00fa A361     		str	r3, [r4, #24]
1161:lib/TinyUSB/src/portable/synopsys/dwc2/dcd_dwc2.c ****   }
 5192              		.loc 1 1161 5 is_stmt 1 view .LVU1665
 5193              	.LVL501:
 5194              	.LBB453:
 5195              	.LBI453:
 200:lib/TinyUSB/src/device/dcd.h ****   dcd_event_t event;
 5196              		.loc 5 200 42 view .LVU1666
 5197              	.LBB454:
 201:lib/TinyUSB/src/device/dcd.h ****   event.rhport = rhport;
 5198              		.loc 5 201 3 view .LVU1667
 202:lib/TinyUSB/src/device/dcd.h ****   event.event_id = eid;
 5199              		.loc 5 202 3 view .LVU1668
 202:lib/TinyUSB/src/device/dcd.h ****   event.event_id = eid;
 5200              		.loc 5 202 16 is_stmt 0 view .LVU1669
 5201 00fc 8DF80460 		strb	r6, [sp, #4]
 203:lib/TinyUSB/src/device/dcd.h ****   dcd_event_handler(&event, in_isr);
 5202              		.loc 5 203 3 is_stmt 1 view .LVU1670
 203:lib/TinyUSB/src/device/dcd.h ****   dcd_event_handler(&event, in_isr);
 5203              		.loc 5 203 18 is_stmt 0 view .LVU1671
 5204 0100 0423     		movs	r3, #4
 5205 0102 8DF80530 		strb	r3, [sp, #5]
 204:lib/TinyUSB/src/device/dcd.h **** }
 5206              		.loc 5 204 3 is_stmt 1 view .LVU1672
 5207 0106 0121     		movs	r1, #1
 5208 0108 0DEB0300 		add	r0, sp, r3
 5209 010c FFF7FEFF 		bl	dcd_event_handler
 5210              	.LVL502:
 205:lib/TinyUSB/src/device/dcd.h **** 
 5211              		.loc 5 205 1 is_stmt 0 view .LVU1673
 5212 0110 8BE7     		b	.L313
 5213              	.LVL503:
 5214              	.L330:
 205:lib/TinyUSB/src/device/dcd.h **** 
 5215              		.loc 5 205 1 view .LVU1674
 5216              	.LBE454:
 5217              	.LBE453:
1165:lib/TinyUSB/src/portable/synopsys/dwc2/dcd_dwc2.c ****     dwc2->gintmsk |= GINTMSK_USBSUSPM;
 5218              		.loc 1 1165 5 is_stmt 1 view .LVU1675
1165:lib/TinyUSB/src/portable/synopsys/dwc2/dcd_dwc2.c ****     dwc2->gintmsk |= GINTMSK_USBSUSPM;
 5219              		.loc 1 1165 19 is_stmt 0 view .LVU1676
 5220 0112 4FF00043 		mov	r3, #-2147483648
ARM GAS  C:\Users\krisa\AppData\Local\Temp\ccNljk5K.s 			page 193


 5221 0116 6361     		str	r3, [r4, #20]
1166:lib/TinyUSB/src/portable/synopsys/dwc2/dcd_dwc2.c ****     dcd_event_bus_signal(rhport, DCD_EVENT_RESUME, true);
 5222              		.loc 1 1166 5 is_stmt 1 view .LVU1677
1166:lib/TinyUSB/src/portable/synopsys/dwc2/dcd_dwc2.c ****     dcd_event_bus_signal(rhport, DCD_EVENT_RESUME, true);
 5223              		.loc 1 1166 19 is_stmt 0 view .LVU1678
 5224 0118 A369     		ldr	r3, [r4, #24]
 5225 011a 43F40063 		orr	r3, r3, #2048
 5226 011e A361     		str	r3, [r4, #24]
1167:lib/TinyUSB/src/portable/synopsys/dwc2/dcd_dwc2.c ****   }
 5227              		.loc 1 1167 5 is_stmt 1 view .LVU1679
 5228              	.LVL504:
 5229              	.LBB455:
 5230              	.LBI455:
 200:lib/TinyUSB/src/device/dcd.h ****   dcd_event_t event;
 5231              		.loc 5 200 42 view .LVU1680
 5232              	.LBB456:
 201:lib/TinyUSB/src/device/dcd.h ****   event.rhport = rhport;
 5233              		.loc 5 201 3 view .LVU1681
 202:lib/TinyUSB/src/device/dcd.h ****   event.event_id = eid;
 5234              		.loc 5 202 3 view .LVU1682
 202:lib/TinyUSB/src/device/dcd.h ****   event.event_id = eid;
 5235              		.loc 5 202 16 is_stmt 0 view .LVU1683
 5236 0120 8DF80460 		strb	r6, [sp, #4]
 203:lib/TinyUSB/src/device/dcd.h ****   dcd_event_handler(&event, in_isr);
 5237              		.loc 5 203 3 is_stmt 1 view .LVU1684
 203:lib/TinyUSB/src/device/dcd.h ****   dcd_event_handler(&event, in_isr);
 5238              		.loc 5 203 18 is_stmt 0 view .LVU1685
 5239 0124 0523     		movs	r3, #5
 5240 0126 8DF80530 		strb	r3, [sp, #5]
 204:lib/TinyUSB/src/device/dcd.h **** }
 5241              		.loc 5 204 3 is_stmt 1 view .LVU1686
 5242 012a 0121     		movs	r1, #1
 5243 012c 01A8     		add	r0, sp, #4
 5244 012e FFF7FEFF 		bl	dcd_event_handler
 5245              	.LVL505:
 205:lib/TinyUSB/src/device/dcd.h **** 
 5246              		.loc 5 205 1 is_stmt 0 view .LVU1687
 5247 0132 7CE7     		b	.L314
 5248              	.LVL506:
 5249              	.L331:
 205:lib/TinyUSB/src/device/dcd.h **** 
 5250              		.loc 5 205 1 view .LVU1688
 5251              	.LBE456:
 5252              	.LBE455:
 5253              	.LBB457:
1178:lib/TinyUSB/src/portable/synopsys/dwc2/dcd_dwc2.c ****     }
 5254              		.loc 1 1178 7 is_stmt 1 view .LVU1689
 5255              	.LBB447:
 5256              	.LBI447:
 200:lib/TinyUSB/src/device/dcd.h ****   dcd_event_t event;
 5257              		.loc 5 200 42 view .LVU1690
 5258              	.LBB448:
 201:lib/TinyUSB/src/device/dcd.h ****   event.rhport = rhport;
 5259              		.loc 5 201 3 view .LVU1691
 202:lib/TinyUSB/src/device/dcd.h ****   event.event_id = eid;
 5260              		.loc 5 202 3 view .LVU1692
 202:lib/TinyUSB/src/device/dcd.h ****   event.event_id = eid;
ARM GAS  C:\Users\krisa\AppData\Local\Temp\ccNljk5K.s 			page 194


 5261              		.loc 5 202 16 is_stmt 0 view .LVU1693
 5262 0134 8DF80460 		strb	r6, [sp, #4]
 203:lib/TinyUSB/src/device/dcd.h ****   dcd_event_handler(&event, in_isr);
 5263              		.loc 5 203 3 is_stmt 1 view .LVU1694
 203:lib/TinyUSB/src/device/dcd.h ****   dcd_event_handler(&event, in_isr);
 5264              		.loc 5 203 18 is_stmt 0 view .LVU1695
 5265 0138 0223     		movs	r3, #2
 5266 013a 8DF80530 		strb	r3, [sp, #5]
 204:lib/TinyUSB/src/device/dcd.h **** }
 5267              		.loc 5 204 3 is_stmt 1 view .LVU1696
 5268 013e 0121     		movs	r1, #1
 5269 0140 01A8     		add	r0, sp, #4
 5270 0142 FFF7FEFF 		bl	dcd_event_handler
 5271              	.LVL507:
 205:lib/TinyUSB/src/device/dcd.h **** 
 5272              		.loc 5 205 1 is_stmt 0 view .LVU1697
 5273 0146 79E7     		b	.L316
 5274              	.LVL508:
 5275              	.L332:
 205:lib/TinyUSB/src/device/dcd.h **** 
 5276              		.loc 5 205 1 view .LVU1698
 5277              	.LBE448:
 5278              	.LBE447:
 5279              	.LBE457:
1214:lib/TinyUSB/src/portable/synopsys/dwc2/dcd_dwc2.c ****   }
 5280              		.loc 1 1214 5 is_stmt 1 view .LVU1699
 5281 0148 0021     		movs	r1, #0
 5282 014a 3046     		mov	r0, r6
 5283 014c FFF7FEFF 		bl	handle_ep_irq
 5284              	.LVL509:
 5285 0150 A8E7     		b	.L321
 5286              	.L333:
1220:lib/TinyUSB/src/portable/synopsys/dwc2/dcd_dwc2.c ****   }
 5287              		.loc 1 1220 5 view .LVU1700
 5288 0152 0121     		movs	r1, #1
 5289 0154 3046     		mov	r0, r6
 5290 0156 FFF7FEFF 		bl	handle_ep_irq
 5291              	.LVL510:
 5292 015a A6E7     		b	.L322
 5293              	.L334:
1225:lib/TinyUSB/src/portable/synopsys/dwc2/dcd_dwc2.c ****     handle_incomplete_iso_in(rhport);
 5294              		.loc 1 1225 5 view .LVU1701
1225:lib/TinyUSB/src/portable/synopsys/dwc2/dcd_dwc2.c ****     handle_incomplete_iso_in(rhport);
 5295              		.loc 1 1225 19 is_stmt 0 view .LVU1702
 5296 015c 4FF48013 		mov	r3, #1048576
 5297 0160 6361     		str	r3, [r4, #20]
1226:lib/TinyUSB/src/portable/synopsys/dwc2/dcd_dwc2.c ****   }
 5298              		.loc 1 1226 5 is_stmt 1 view .LVU1703
 5299 0162 3046     		mov	r0, r6
 5300 0164 FFF7FEFF 		bl	handle_incomplete_iso_in
 5301              	.LVL511:
 5302              		.loc 1 1228 1 is_stmt 0 view .LVU1704
 5303 0168 A2E7     		b	.L309
 5304              	.L336:
 5305 016a 00BF     		.align	2
 5306              	.L335:
 5307 016c 00000000 		.word	.LANCHOR0
ARM GAS  C:\Users\krisa\AppData\Local\Temp\ccNljk5K.s 			page 195


 5308 0170 00000000 		.word	.LANCHOR1
 5309              		.cfi_endproc
 5310              	.LFE376:
 5312              		.section	.bss._dcd_data,"aw",%nobits
 5313              		.align	2
 5314              		.set	.LANCHOR1,. + 0
 5317              	_dcd_data:
 5318 0000 00000000 		.space	8
 5318      00000000 
 5319              		.section	.bss._dcd_usbbuf,"aw",%nobits
 5320              		.align	2
 5321              		.set	.LANCHOR4,. + 0
 5324              	_dcd_usbbuf:
 5325 0000 00000000 		.space	8
 5325      00000000 
 5326              		.section	.bss._tud_cfg,"aw",%nobits
 5327              		.align	2
 5328              		.set	.LANCHOR2,. + 0
 5331              	_tud_cfg:
 5332 0000 0000     		.space	2
 5333              		.section	.bss.xfer_status,"aw",%nobits
 5334              		.align	2
 5335              		.set	.LANCHOR3,. + 0
 5338              	xfer_status:
 5339 0000 00000000 		.space	288
 5339      00000000 
 5339      00000000 
 5339      00000000 
 5339      00000000 
 5340              		.section	.rodata._dwc2_controller,"a"
 5341              		.align	2
 5342              		.set	.LANCHOR0,. + 0
 5345              	_dwc2_controller:
 5346 0000 00000050 		.word	1342177280
 5347 0004 43000000 		.word	67
 5348 0008 06       		.byte	6
 5349 0009 000000   		.space	3
 5350 000c 00050000 		.word	1280
 5351 0010 00000440 		.word	1074003968
 5352 0014 4D000000 		.word	77
 5353 0018 09       		.byte	9
 5354 0019 000000   		.space	3
 5355 001c 00100000 		.word	4096
 5356              		.text
 5357              	.Letext0:
 5358              		.file 9 "c:\\program files (x86)\\gnu arm embedded toolchain\\10 2021.10\\arm-none-eabi\\include\\
 5359              		.file 10 "c:\\program files (x86)\\gnu arm embedded toolchain\\10 2021.10\\arm-none-eabi\\include\
 5360              		.file 11 "lib/TinyUSB/src/common/tusb_fifo.h"
 5361              		.file 12 "lib/TinyUSB/src/device/usbd.h"
 5362              		.file 13 "lib/TinyUSB/src/portable/synopsys/dwc2/dwc2_type.h"
 5363              		.file 14 "Drivers/CMSIS/Device/ST/STM32F4xx/Include/stm32f446xx.h"
 5364              		.file 15 "Drivers/CMSIS/Device/ST/STM32F4xx/Include/system_stm32f4xx.h"
 5365              		.file 16 "lib/TinyUSB/src/device/usbd_pvt.h"
 5366              		.file 17 "<built-in>"
ARM GAS  C:\Users\krisa\AppData\Local\Temp\ccNljk5K.s 			page 196


DEFINED SYMBOLS
                            *ABS*:00000000 dcd_dwc2.c
C:\Users\krisa\AppData\Local\Temp\ccNljk5K.s:20     .text.dfifo_alloc:00000000 $t
C:\Users\krisa\AppData\Local\Temp\ccNljk5K.s:25     .text.dfifo_alloc:00000000 dfifo_alloc
C:\Users\krisa\AppData\Local\Temp\ccNljk5K.s:414    .text.dfifo_alloc:00000104 $d
C:\Users\krisa\AppData\Local\Temp\ccNljk5K.s:421    .text.dfifo_device_init:00000000 $t
C:\Users\krisa\AppData\Local\Temp\ccNljk5K.s:426    .text.dfifo_device_init:00000000 dfifo_device_init
C:\Users\krisa\AppData\Local\Temp\ccNljk5K.s:535    .text.dfifo_device_init:0000003c $d
C:\Users\krisa\AppData\Local\Temp\ccNljk5K.s:543    .text.edpt_activate:00000000 $t
C:\Users\krisa\AppData\Local\Temp\ccNljk5K.s:548    .text.edpt_activate:00000000 edpt_activate
C:\Users\krisa\AppData\Local\Temp\ccNljk5K.s:748    .text.edpt_activate:000000b8 $d
C:\Users\krisa\AppData\Local\Temp\ccNljk5K.s:754    .text.edpt_disable:00000000 $t
C:\Users\krisa\AppData\Local\Temp\ccNljk5K.s:759    .text.edpt_disable:00000000 edpt_disable
C:\Users\krisa\AppData\Local\Temp\ccNljk5K.s:1059   .text.edpt_disable:00000134 $d
C:\Users\krisa\AppData\Local\Temp\ccNljk5K.s:1064   .text.handle_bus_reset:00000000 $t
C:\Users\krisa\AppData\Local\Temp\ccNljk5K.s:1069   .text.handle_bus_reset:00000000 handle_bus_reset
C:\Users\krisa\AppData\Local\Temp\ccNljk5K.s:1374   .text.handle_bus_reset:000000f8 $d
C:\Users\krisa\AppData\Local\Temp\ccNljk5K.s:1381   .text.epin_write_tx_fifo:00000000 $t
C:\Users\krisa\AppData\Local\Temp\ccNljk5K.s:1386   .text.epin_write_tx_fifo:00000000 epin_write_tx_fifo
C:\Users\krisa\AppData\Local\Temp\ccNljk5K.s:1575   .text.epin_write_tx_fifo:000000a0 $d
C:\Users\krisa\AppData\Local\Temp\ccNljk5K.s:1582   .text.edpt_schedule_packets:00000000 $t
C:\Users\krisa\AppData\Local\Temp\ccNljk5K.s:1587   .text.edpt_schedule_packets:00000000 edpt_schedule_packets
C:\Users\krisa\AppData\Local\Temp\ccNljk5K.s:1873   .text.edpt_schedule_packets:000000e4 $d
C:\Users\krisa\AppData\Local\Temp\ccNljk5K.s:1880   .text.handle_enum_done:00000000 $t
C:\Users\krisa\AppData\Local\Temp\ccNljk5K.s:1885   .text.handle_enum_done:00000000 handle_enum_done
C:\Users\krisa\AppData\Local\Temp\ccNljk5K.s:1999   .text.handle_enum_done:0000004c $d
C:\Users\krisa\AppData\Local\Temp\ccNljk5K.s:2004   .text.handle_incomplete_iso_in:00000000 $t
C:\Users\krisa\AppData\Local\Temp\ccNljk5K.s:2009   .text.handle_incomplete_iso_in:00000000 handle_incomplete_iso_in
C:\Users\krisa\AppData\Local\Temp\ccNljk5K.s:2288   .text.handle_incomplete_iso_in:000000d8 $d
C:\Users\krisa\AppData\Local\Temp\ccNljk5K.s:2294   .text.handle_epout_slave:00000000 $t
C:\Users\krisa\AppData\Local\Temp\ccNljk5K.s:2299   .text.handle_epout_slave:00000000 handle_epout_slave
C:\Users\krisa\AppData\Local\Temp\ccNljk5K.s:2516   .text.handle_epout_slave:000000a0 $d
C:\Users\krisa\AppData\Local\Temp\ccNljk5K.s:2525   .text.handle_epin_slave:00000000 $t
C:\Users\krisa\AppData\Local\Temp\ccNljk5K.s:2530   .text.handle_epin_slave:00000000 handle_epin_slave
C:\Users\krisa\AppData\Local\Temp\ccNljk5K.s:2726   .text.handle_epin_slave:000000a0 $d
C:\Users\krisa\AppData\Local\Temp\ccNljk5K.s:2733   .text.handle_ep_irq:00000000 $t
C:\Users\krisa\AppData\Local\Temp\ccNljk5K.s:2738   .text.handle_ep_irq:00000000 handle_ep_irq
C:\Users\krisa\AppData\Local\Temp\ccNljk5K.s:2937   .text.handle_ep_irq:00000084 $d
C:\Users\krisa\AppData\Local\Temp\ccNljk5K.s:2942   .text.handle_rxflvl_irq:00000000 $t
C:\Users\krisa\AppData\Local\Temp\ccNljk5K.s:2947   .text.handle_rxflvl_irq:00000000 handle_rxflvl_irq
C:\Users\krisa\AppData\Local\Temp\ccNljk5K.s:3133   .text.handle_rxflvl_irq:000000b8 $d
C:\Users\krisa\AppData\Local\Temp\ccNljk5K.s:3142   .text.dcd_configure:00000000 $t
C:\Users\krisa\AppData\Local\Temp\ccNljk5K.s:3148   .text.dcd_configure:00000000 dcd_configure
C:\Users\krisa\AppData\Local\Temp\ccNljk5K.s:3196   .text.dcd_configure:00000018 $d
C:\Users\krisa\AppData\Local\Temp\ccNljk5K.s:3201   .text.dcd_int_enable:00000000 $t
C:\Users\krisa\AppData\Local\Temp\ccNljk5K.s:3207   .text.dcd_int_enable:00000000 dcd_int_enable
C:\Users\krisa\AppData\Local\Temp\ccNljk5K.s:3266   .text.dcd_int_enable:00000020 $d
C:\Users\krisa\AppData\Local\Temp\ccNljk5K.s:3272   .text.dcd_int_disable:00000000 $t
C:\Users\krisa\AppData\Local\Temp\ccNljk5K.s:3278   .text.dcd_int_disable:00000000 dcd_int_disable
C:\Users\krisa\AppData\Local\Temp\ccNljk5K.s:3363   .text.dcd_int_disable:0000002c $d
C:\Users\krisa\AppData\Local\Temp\ccNljk5K.s:3369   .text.dcd_remote_wakeup:00000000 $t
C:\Users\krisa\AppData\Local\Temp\ccNljk5K.s:3375   .text.dcd_remote_wakeup:00000000 dcd_remote_wakeup
C:\Users\krisa\AppData\Local\Temp\ccNljk5K.s:3473   .text.dcd_remote_wakeup:0000004c $d
C:\Users\krisa\AppData\Local\Temp\ccNljk5K.s:3480   .text.dcd_connect:00000000 $t
C:\Users\krisa\AppData\Local\Temp\ccNljk5K.s:3486   .text.dcd_connect:00000000 dcd_connect
C:\Users\krisa\AppData\Local\Temp\ccNljk5K.s:3529   .text.dcd_connect:0000001c $d
C:\Users\krisa\AppData\Local\Temp\ccNljk5K.s:3534   .text.dcd_disconnect:00000000 $t
ARM GAS  C:\Users\krisa\AppData\Local\Temp\ccNljk5K.s 			page 197


C:\Users\krisa\AppData\Local\Temp\ccNljk5K.s:3540   .text.dcd_disconnect:00000000 dcd_disconnect
C:\Users\krisa\AppData\Local\Temp\ccNljk5K.s:3583   .text.dcd_disconnect:0000001c $d
C:\Users\krisa\AppData\Local\Temp\ccNljk5K.s:3588   .text.dcd_init:00000000 $t
C:\Users\krisa\AppData\Local\Temp\ccNljk5K.s:3594   .text.dcd_init:00000000 dcd_init
C:\Users\krisa\AppData\Local\Temp\ccNljk5K.s:3808   .text.dcd_init:000000a8 $d
C:\Users\krisa\AppData\Local\Temp\ccNljk5K.s:3815   .text.dcd_sof_enable:00000000 $t
C:\Users\krisa\AppData\Local\Temp\ccNljk5K.s:3821   .text.dcd_sof_enable:00000000 dcd_sof_enable
C:\Users\krisa\AppData\Local\Temp\ccNljk5K.s:3882   .text.dcd_sof_enable:0000002c $d
C:\Users\krisa\AppData\Local\Temp\ccNljk5K.s:3888   .text.dcd_edpt_open:00000000 $t
C:\Users\krisa\AppData\Local\Temp\ccNljk5K.s:3894   .text.dcd_edpt_open:00000000 dcd_edpt_open
C:\Users\krisa\AppData\Local\Temp\ccNljk5K.s:3983   .text.dcd_edpt_close_all:00000000 $t
C:\Users\krisa\AppData\Local\Temp\ccNljk5K.s:3989   .text.dcd_edpt_close_all:00000000 dcd_edpt_close_all
C:\Users\krisa\AppData\Local\Temp\ccNljk5K.s:4220   .text.dcd_edpt_close_all:000000a4 $d
C:\Users\krisa\AppData\Local\Temp\ccNljk5K.s:4227   .text.dcd_edpt_iso_alloc:00000000 $t
C:\Users\krisa\AppData\Local\Temp\ccNljk5K.s:4233   .text.dcd_edpt_iso_alloc:00000000 dcd_edpt_iso_alloc
C:\Users\krisa\AppData\Local\Temp\ccNljk5K.s:4285   .text.dcd_edpt_iso_activate:00000000 $t
C:\Users\krisa\AppData\Local\Temp\ccNljk5K.s:4291   .text.dcd_edpt_iso_activate:00000000 dcd_edpt_iso_activate
C:\Users\krisa\AppData\Local\Temp\ccNljk5K.s:4329   .text.dcd_edpt_xfer:00000000 $t
C:\Users\krisa\AppData\Local\Temp\ccNljk5K.s:4335   .text.dcd_edpt_xfer:00000000 dcd_edpt_xfer
C:\Users\krisa\AppData\Local\Temp\ccNljk5K.s:4456   .text.dcd_edpt_xfer:00000064 $d
C:\Users\krisa\AppData\Local\Temp\ccNljk5K.s:4462   .text.dcd_set_address:00000000 $t
C:\Users\krisa\AppData\Local\Temp\ccNljk5K.s:4468   .text.dcd_set_address:00000000 dcd_set_address
C:\Users\krisa\AppData\Local\Temp\ccNljk5K.s:4549   .text.dcd_set_address:00000038 $d
C:\Users\krisa\AppData\Local\Temp\ccNljk5K.s:4556   .text.dcd_edpt_xfer_fifo:00000000 $t
C:\Users\krisa\AppData\Local\Temp\ccNljk5K.s:4562   .text.dcd_edpt_xfer_fifo:00000000 dcd_edpt_xfer_fifo
C:\Users\krisa\AppData\Local\Temp\ccNljk5K.s:4716   .text.dcd_edpt_xfer_fifo:00000080 $d
C:\Users\krisa\AppData\Local\Temp\ccNljk5K.s:4721   .text.dcd_edpt_stall:00000000 $t
C:\Users\krisa\AppData\Local\Temp\ccNljk5K.s:4727   .text.dcd_edpt_stall:00000000 dcd_edpt_stall
C:\Users\krisa\AppData\Local\Temp\ccNljk5K.s:4815   .text.dcd_edpt_stall:00000028 $d
C:\Users\krisa\AppData\Local\Temp\ccNljk5K.s:4822   .text.dcd_edpt_clear_stall:00000000 $t
C:\Users\krisa\AppData\Local\Temp\ccNljk5K.s:4828   .text.dcd_edpt_clear_stall:00000000 dcd_edpt_clear_stall
C:\Users\krisa\AppData\Local\Temp\ccNljk5K.s:4912   .text.dcd_edpt_clear_stall:00000034 $d
C:\Users\krisa\AppData\Local\Temp\ccNljk5K.s:4917   .text.dcd_int_handler:00000000 $t
C:\Users\krisa\AppData\Local\Temp\ccNljk5K.s:4923   .text.dcd_int_handler:00000000 dcd_int_handler
C:\Users\krisa\AppData\Local\Temp\ccNljk5K.s:5307   .text.dcd_int_handler:0000016c $d
C:\Users\krisa\AppData\Local\Temp\ccNljk5K.s:5313   .bss._dcd_data:00000000 $d
C:\Users\krisa\AppData\Local\Temp\ccNljk5K.s:5317   .bss._dcd_data:00000000 _dcd_data
C:\Users\krisa\AppData\Local\Temp\ccNljk5K.s:5320   .bss._dcd_usbbuf:00000000 $d
C:\Users\krisa\AppData\Local\Temp\ccNljk5K.s:5324   .bss._dcd_usbbuf:00000000 _dcd_usbbuf
C:\Users\krisa\AppData\Local\Temp\ccNljk5K.s:5327   .bss._tud_cfg:00000000 $d
C:\Users\krisa\AppData\Local\Temp\ccNljk5K.s:5331   .bss._tud_cfg:00000000 _tud_cfg
C:\Users\krisa\AppData\Local\Temp\ccNljk5K.s:5334   .bss.xfer_status:00000000 $d
C:\Users\krisa\AppData\Local\Temp\ccNljk5K.s:5338   .bss.xfer_status:00000000 xfer_status
C:\Users\krisa\AppData\Local\Temp\ccNljk5K.s:5341   .rodata._dwc2_controller:00000000 $d
C:\Users\krisa\AppData\Local\Temp\ccNljk5K.s:5345   .rodata._dwc2_controller:00000000 _dwc2_controller

UNDEFINED SYMBOLS
memset
dfifo_write_packet
tu_fifo_read_n_access_mode
dcd_event_handler
tu_fifo_write_n_access_mode
dfifo_read_packet
SystemCoreClock
dwc2_core_is_highspeed
dwc2_core_init
usbd_spin_lock
ARM GAS  C:\Users\krisa\AppData\Local\Temp\ccNljk5K.s 			page 198


usbd_spin_unlock
