ARM GAS  C:\Users\krisa\AppData\Local\Temp\ccuohWpS.s 			page 1


   1              		.cpu cortex-m4
   2              		.arch armv7e-m
   3              		.fpu fpv4-sp-d16
   4              		.eabi_attribute 27, 1
   5              		.eabi_attribute 28, 1
   6              		.eabi_attribute 20, 1
   7              		.eabi_attribute 21, 1
   8              		.eabi_attribute 23, 3
   9              		.eabi_attribute 24, 1
  10              		.eabi_attribute 25, 1
  11              		.eabi_attribute 26, 1
  12              		.eabi_attribute 30, 1
  13              		.eabi_attribute 34, 1
  14              		.eabi_attribute 18, 4
  15              		.file	"tusb.c"
  16              		.text
  17              	.Ltext0:
  18              		.cfi_sections	.debug_frame
  19              		.section	.text.stream_claim,"ax",%progbits
  20              		.align	1
  21              		.syntax unified
  22              		.thumb
  23              		.thumb_func
  25              	stream_claim:
  26              	.LVL0:
  27              	.LFB124:
  28              		.file 1 "lib/TinyUSB/src/tusb.c"
   1:lib/TinyUSB/src/tusb.c **** /*
   2:lib/TinyUSB/src/tusb.c ****  * The MIT License (MIT)
   3:lib/TinyUSB/src/tusb.c ****  *
   4:lib/TinyUSB/src/tusb.c ****  * Copyright (c) 2019 Ha Thach (tinyusb.org)
   5:lib/TinyUSB/src/tusb.c ****  *
   6:lib/TinyUSB/src/tusb.c ****  * Permission is hereby granted, free of charge, to any person obtaining a copy
   7:lib/TinyUSB/src/tusb.c ****  * of this software and associated documentation files (the "Software"), to deal
   8:lib/TinyUSB/src/tusb.c ****  * in the Software without restriction, including without limitation the rights
   9:lib/TinyUSB/src/tusb.c ****  * to use, copy, modify, merge, publish, distribute, sublicense, and/or sell
  10:lib/TinyUSB/src/tusb.c ****  * copies of the Software, and to permit persons to whom the Software is
  11:lib/TinyUSB/src/tusb.c ****  * furnished to do so, subject to the following conditions:
  12:lib/TinyUSB/src/tusb.c ****  *
  13:lib/TinyUSB/src/tusb.c ****  * The above copyright notice and this permission notice shall be included in
  14:lib/TinyUSB/src/tusb.c ****  * all copies or substantial portions of the Software.
  15:lib/TinyUSB/src/tusb.c ****  *
  16:lib/TinyUSB/src/tusb.c ****  * THE SOFTWARE IS PROVIDED "AS IS", WITHOUT WARRANTY OF ANY KIND, EXPRESS OR
  17:lib/TinyUSB/src/tusb.c ****  * IMPLIED, INCLUDING BUT NOT LIMITED TO THE WARRANTIES OF MERCHANTABILITY,
  18:lib/TinyUSB/src/tusb.c ****  * FITNESS FOR A PARTICULAR PURPOSE AND NONINFRINGEMENT. IN NO EVENT SHALL THE
  19:lib/TinyUSB/src/tusb.c ****  * AUTHORS OR COPYRIGHT HOLDERS BE LIABLE FOR ANY CLAIM, DAMAGES OR OTHER
  20:lib/TinyUSB/src/tusb.c ****  * LIABILITY, WHETHER IN AN ACTION OF CONTRACT, TORT OR OTHERWISE, ARISING FROM,
  21:lib/TinyUSB/src/tusb.c ****  * OUT OF OR IN CONNECTION WITH THE SOFTWARE OR THE USE OR OTHER DEALINGS IN
  22:lib/TinyUSB/src/tusb.c ****  * THE SOFTWARE.
  23:lib/TinyUSB/src/tusb.c ****  *
  24:lib/TinyUSB/src/tusb.c ****  * This file is part of the TinyUSB stack.
  25:lib/TinyUSB/src/tusb.c ****  */
  26:lib/TinyUSB/src/tusb.c **** 
  27:lib/TinyUSB/src/tusb.c **** #include "tusb_option.h"
  28:lib/TinyUSB/src/tusb.c **** 
  29:lib/TinyUSB/src/tusb.c **** #if CFG_TUH_ENABLED || CFG_TUD_ENABLED
  30:lib/TinyUSB/src/tusb.c **** 
ARM GAS  C:\Users\krisa\AppData\Local\Temp\ccuohWpS.s 			page 2


  31:lib/TinyUSB/src/tusb.c **** #include "tusb.h"
  32:lib/TinyUSB/src/tusb.c **** #include "common/tusb_private.h"
  33:lib/TinyUSB/src/tusb.c **** 
  34:lib/TinyUSB/src/tusb.c **** #if CFG_TUD_ENABLED
  35:lib/TinyUSB/src/tusb.c **** #include "device/usbd_pvt.h"
  36:lib/TinyUSB/src/tusb.c **** #endif
  37:lib/TinyUSB/src/tusb.c **** 
  38:lib/TinyUSB/src/tusb.c **** #if CFG_TUH_ENABLED
  39:lib/TinyUSB/src/tusb.c **** #include "host/usbh_pvt.h"
  40:lib/TinyUSB/src/tusb.c **** #endif
  41:lib/TinyUSB/src/tusb.c **** 
  42:lib/TinyUSB/src/tusb.c **** tusb_role_t _tusb_rhport_role[TUP_USBIP_CONTROLLER_NUM] = { TUSB_ROLE_INVALID };
  43:lib/TinyUSB/src/tusb.c **** 
  44:lib/TinyUSB/src/tusb.c **** //--------------------------------------------------------------------
  45:lib/TinyUSB/src/tusb.c **** // Weak/Default API, can be overwritten by Application
  46:lib/TinyUSB/src/tusb.c **** //--------------------------------------------------------------------
  47:lib/TinyUSB/src/tusb.c **** 
  48:lib/TinyUSB/src/tusb.c **** TU_ATTR_WEAK void tusb_time_delay_ms_api(uint32_t ms) {
  49:lib/TinyUSB/src/tusb.c **** #if CFG_TUSB_OS != OPT_OS_NONE
  50:lib/TinyUSB/src/tusb.c ****   osal_task_delay(ms);
  51:lib/TinyUSB/src/tusb.c **** #else
  52:lib/TinyUSB/src/tusb.c ****   // delay using millis() (if implemented) and/or frame number if possible
  53:lib/TinyUSB/src/tusb.c ****   const uint32_t time_ms = tusb_time_millis_api();
  54:lib/TinyUSB/src/tusb.c ****   while ((tusb_time_millis_api() - time_ms) < ms) {}
  55:lib/TinyUSB/src/tusb.c **** #endif
  56:lib/TinyUSB/src/tusb.c **** }
  57:lib/TinyUSB/src/tusb.c **** 
  58:lib/TinyUSB/src/tusb.c **** TU_ATTR_WEAK void* tusb_app_virt_to_phys(void *virt_addr) {
  59:lib/TinyUSB/src/tusb.c ****   return virt_addr;
  60:lib/TinyUSB/src/tusb.c **** }
  61:lib/TinyUSB/src/tusb.c **** 
  62:lib/TinyUSB/src/tusb.c **** TU_ATTR_WEAK void* tusb_app_phys_to_virt(void *phys_addr) {
  63:lib/TinyUSB/src/tusb.c ****   return phys_addr;
  64:lib/TinyUSB/src/tusb.c **** }
  65:lib/TinyUSB/src/tusb.c **** 
  66:lib/TinyUSB/src/tusb.c **** //--------------------------------------------------------------------+
  67:lib/TinyUSB/src/tusb.c **** // Public API
  68:lib/TinyUSB/src/tusb.c **** //--------------------------------------------------------------------+
  69:lib/TinyUSB/src/tusb.c **** bool tusb_rhport_init(uint8_t rhport, const tusb_rhport_init_t* rh_init) {
  70:lib/TinyUSB/src/tusb.c ****   //  backward compatible called with tusb_init(void)
  71:lib/TinyUSB/src/tusb.c ****   #if defined(TUD_OPT_RHPORT) || defined(TUH_OPT_RHPORT)
  72:lib/TinyUSB/src/tusb.c ****   if (rh_init == NULL) {
  73:lib/TinyUSB/src/tusb.c ****     #if CFG_TUD_ENABLED && defined(TUD_OPT_RHPORT)
  74:lib/TinyUSB/src/tusb.c ****     // init device stack CFG_TUSB_RHPORTx_MODE must be defined
  75:lib/TinyUSB/src/tusb.c ****     const tusb_rhport_init_t dev_init = {
  76:lib/TinyUSB/src/tusb.c ****       .role = TUSB_ROLE_DEVICE,
  77:lib/TinyUSB/src/tusb.c ****       .speed = TUD_OPT_HIGH_SPEED ? TUSB_SPEED_HIGH : TUSB_SPEED_FULL
  78:lib/TinyUSB/src/tusb.c ****     };
  79:lib/TinyUSB/src/tusb.c ****     TU_ASSERT ( tud_rhport_init(TUD_OPT_RHPORT, &dev_init) );
  80:lib/TinyUSB/src/tusb.c ****     _tusb_rhport_role[TUD_OPT_RHPORT] = TUSB_ROLE_DEVICE;
  81:lib/TinyUSB/src/tusb.c ****     #endif
  82:lib/TinyUSB/src/tusb.c **** 
  83:lib/TinyUSB/src/tusb.c ****     #if CFG_TUH_ENABLED && defined(TUH_OPT_RHPORT)
  84:lib/TinyUSB/src/tusb.c ****     // init host stack CFG_TUSB_RHPORTx_MODE must be defined
  85:lib/TinyUSB/src/tusb.c ****     const tusb_rhport_init_t host_init = {
  86:lib/TinyUSB/src/tusb.c ****       .role = TUSB_ROLE_HOST,
  87:lib/TinyUSB/src/tusb.c ****       .speed = TUH_OPT_HIGH_SPEED ? TUSB_SPEED_HIGH : TUSB_SPEED_FULL
ARM GAS  C:\Users\krisa\AppData\Local\Temp\ccuohWpS.s 			page 3


  88:lib/TinyUSB/src/tusb.c ****     };
  89:lib/TinyUSB/src/tusb.c ****     TU_ASSERT( tuh_rhport_init(TUH_OPT_RHPORT, &host_init) );
  90:lib/TinyUSB/src/tusb.c ****     _tusb_rhport_role[TUH_OPT_RHPORT] = TUSB_ROLE_HOST;
  91:lib/TinyUSB/src/tusb.c ****     #endif
  92:lib/TinyUSB/src/tusb.c **** 
  93:lib/TinyUSB/src/tusb.c ****     return true;
  94:lib/TinyUSB/src/tusb.c ****   }
  95:lib/TinyUSB/src/tusb.c ****   #endif
  96:lib/TinyUSB/src/tusb.c **** 
  97:lib/TinyUSB/src/tusb.c ****   // new API with explicit rhport and role
  98:lib/TinyUSB/src/tusb.c ****   TU_ASSERT(rhport < TUP_USBIP_CONTROLLER_NUM && rh_init->role != TUSB_ROLE_INVALID);
  99:lib/TinyUSB/src/tusb.c ****   _tusb_rhport_role[rhport] = rh_init->role;
 100:lib/TinyUSB/src/tusb.c **** 
 101:lib/TinyUSB/src/tusb.c ****   #if CFG_TUD_ENABLED
 102:lib/TinyUSB/src/tusb.c ****   if (rh_init->role == TUSB_ROLE_DEVICE) {
 103:lib/TinyUSB/src/tusb.c ****     TU_ASSERT(tud_rhport_init(rhport, rh_init));
 104:lib/TinyUSB/src/tusb.c ****   }
 105:lib/TinyUSB/src/tusb.c ****   #endif
 106:lib/TinyUSB/src/tusb.c **** 
 107:lib/TinyUSB/src/tusb.c ****   #if CFG_TUH_ENABLED
 108:lib/TinyUSB/src/tusb.c ****   if (rh_init->role == TUSB_ROLE_HOST) {
 109:lib/TinyUSB/src/tusb.c ****     TU_ASSERT(tuh_rhport_init(rhport, rh_init));
 110:lib/TinyUSB/src/tusb.c ****   }
 111:lib/TinyUSB/src/tusb.c ****   #endif
 112:lib/TinyUSB/src/tusb.c **** 
 113:lib/TinyUSB/src/tusb.c ****   return true;
 114:lib/TinyUSB/src/tusb.c **** }
 115:lib/TinyUSB/src/tusb.c **** 
 116:lib/TinyUSB/src/tusb.c **** bool tusb_inited(void) {
 117:lib/TinyUSB/src/tusb.c ****   bool ret = false;
 118:lib/TinyUSB/src/tusb.c **** 
 119:lib/TinyUSB/src/tusb.c ****   #if CFG_TUD_ENABLED
 120:lib/TinyUSB/src/tusb.c ****   if (tud_inited()) {
 121:lib/TinyUSB/src/tusb.c ****     ret = true;
 122:lib/TinyUSB/src/tusb.c ****   }
 123:lib/TinyUSB/src/tusb.c ****   #endif
 124:lib/TinyUSB/src/tusb.c **** 
 125:lib/TinyUSB/src/tusb.c ****   #if CFG_TUH_ENABLED
 126:lib/TinyUSB/src/tusb.c ****   if (tuh_inited()) {
 127:lib/TinyUSB/src/tusb.c ****     ret = true;
 128:lib/TinyUSB/src/tusb.c ****   }
 129:lib/TinyUSB/src/tusb.c ****   #endif
 130:lib/TinyUSB/src/tusb.c **** 
 131:lib/TinyUSB/src/tusb.c ****   return ret;
 132:lib/TinyUSB/src/tusb.c **** }
 133:lib/TinyUSB/src/tusb.c **** 
 134:lib/TinyUSB/src/tusb.c **** void tusb_int_handler(uint8_t rhport, bool in_isr) {
 135:lib/TinyUSB/src/tusb.c ****   TU_VERIFY(rhport < TUP_USBIP_CONTROLLER_NUM,);
 136:lib/TinyUSB/src/tusb.c **** 
 137:lib/TinyUSB/src/tusb.c ****   #if CFG_TUD_ENABLED
 138:lib/TinyUSB/src/tusb.c ****   if (_tusb_rhport_role[rhport] == TUSB_ROLE_DEVICE) {
 139:lib/TinyUSB/src/tusb.c ****     (void) in_isr;
 140:lib/TinyUSB/src/tusb.c ****     dcd_int_handler(rhport);
 141:lib/TinyUSB/src/tusb.c ****   }
 142:lib/TinyUSB/src/tusb.c ****   #endif
 143:lib/TinyUSB/src/tusb.c **** 
 144:lib/TinyUSB/src/tusb.c ****   #if CFG_TUH_ENABLED
ARM GAS  C:\Users\krisa\AppData\Local\Temp\ccuohWpS.s 			page 4


 145:lib/TinyUSB/src/tusb.c ****   if (_tusb_rhport_role[rhport] == TUSB_ROLE_HOST) {
 146:lib/TinyUSB/src/tusb.c ****     hcd_int_handler(rhport, in_isr);
 147:lib/TinyUSB/src/tusb.c ****   }
 148:lib/TinyUSB/src/tusb.c ****   #endif
 149:lib/TinyUSB/src/tusb.c **** }
 150:lib/TinyUSB/src/tusb.c **** 
 151:lib/TinyUSB/src/tusb.c **** bool tusb_deinit(uint8_t rhport) {
 152:lib/TinyUSB/src/tusb.c ****   TU_VERIFY(rhport < TUP_USBIP_CONTROLLER_NUM);
 153:lib/TinyUSB/src/tusb.c ****   bool ret = false;
 154:lib/TinyUSB/src/tusb.c **** 
 155:lib/TinyUSB/src/tusb.c ****   #if CFG_TUD_ENABLED
 156:lib/TinyUSB/src/tusb.c ****   if (_tusb_rhport_role[rhport] == TUSB_ROLE_DEVICE) {
 157:lib/TinyUSB/src/tusb.c ****     TU_ASSERT(tud_deinit(rhport));
 158:lib/TinyUSB/src/tusb.c ****     _tusb_rhport_role[rhport] = TUSB_ROLE_INVALID;
 159:lib/TinyUSB/src/tusb.c ****     ret = true;
 160:lib/TinyUSB/src/tusb.c ****   }
 161:lib/TinyUSB/src/tusb.c ****   #endif
 162:lib/TinyUSB/src/tusb.c **** 
 163:lib/TinyUSB/src/tusb.c ****   #if CFG_TUH_ENABLED
 164:lib/TinyUSB/src/tusb.c ****   if (_tusb_rhport_role[rhport] == TUSB_ROLE_HOST) {
 165:lib/TinyUSB/src/tusb.c ****     TU_ASSERT(tuh_deinit(rhport));
 166:lib/TinyUSB/src/tusb.c ****     _tusb_rhport_role[rhport] = TUSB_ROLE_INVALID;
 167:lib/TinyUSB/src/tusb.c ****     ret = true;
 168:lib/TinyUSB/src/tusb.c ****   }
 169:lib/TinyUSB/src/tusb.c ****   #endif
 170:lib/TinyUSB/src/tusb.c **** 
 171:lib/TinyUSB/src/tusb.c ****   return ret;
 172:lib/TinyUSB/src/tusb.c **** }
 173:lib/TinyUSB/src/tusb.c **** 
 174:lib/TinyUSB/src/tusb.c **** //--------------------------------------------------------------------+
 175:lib/TinyUSB/src/tusb.c **** // Descriptor helper
 176:lib/TinyUSB/src/tusb.c **** //--------------------------------------------------------------------+
 177:lib/TinyUSB/src/tusb.c **** 
 178:lib/TinyUSB/src/tusb.c **** uint8_t const* tu_desc_find(uint8_t const* desc, uint8_t const* end, uint8_t byte1) {
 179:lib/TinyUSB/src/tusb.c ****   while (desc + 1 < end) {
 180:lib/TinyUSB/src/tusb.c ****     if (desc[1] == byte1) {
 181:lib/TinyUSB/src/tusb.c ****       return desc;
 182:lib/TinyUSB/src/tusb.c ****     }
 183:lib/TinyUSB/src/tusb.c ****     desc += desc[DESC_OFFSET_LEN];
 184:lib/TinyUSB/src/tusb.c ****   }
 185:lib/TinyUSB/src/tusb.c ****   return NULL;
 186:lib/TinyUSB/src/tusb.c **** }
 187:lib/TinyUSB/src/tusb.c **** 
 188:lib/TinyUSB/src/tusb.c **** uint8_t const* tu_desc_find2(uint8_t const* desc, uint8_t const* end, uint8_t byte1, uint8_t byte2)
 189:lib/TinyUSB/src/tusb.c ****   while (desc + 2 < end) {
 190:lib/TinyUSB/src/tusb.c ****     if (desc[1] == byte1 && desc[2] == byte2) {
 191:lib/TinyUSB/src/tusb.c ****       return desc;
 192:lib/TinyUSB/src/tusb.c ****     }
 193:lib/TinyUSB/src/tusb.c ****     desc += desc[DESC_OFFSET_LEN];
 194:lib/TinyUSB/src/tusb.c ****   }
 195:lib/TinyUSB/src/tusb.c ****   return NULL;
 196:lib/TinyUSB/src/tusb.c **** }
 197:lib/TinyUSB/src/tusb.c **** 
 198:lib/TinyUSB/src/tusb.c **** uint8_t const* tu_desc_find3(uint8_t const* desc, uint8_t const* end, uint8_t byte1, uint8_t byte2,
 199:lib/TinyUSB/src/tusb.c ****   while (desc + 3 < end) {
 200:lib/TinyUSB/src/tusb.c ****     if (desc[1] == byte1 && desc[2] == byte2 && desc[3] == byte3) {
 201:lib/TinyUSB/src/tusb.c ****       return desc;
ARM GAS  C:\Users\krisa\AppData\Local\Temp\ccuohWpS.s 			page 5


 202:lib/TinyUSB/src/tusb.c ****     }
 203:lib/TinyUSB/src/tusb.c ****     desc += desc[DESC_OFFSET_LEN];
 204:lib/TinyUSB/src/tusb.c ****   }
 205:lib/TinyUSB/src/tusb.c ****   return NULL;
 206:lib/TinyUSB/src/tusb.c **** }
 207:lib/TinyUSB/src/tusb.c **** 
 208:lib/TinyUSB/src/tusb.c **** //--------------------------------------------------------------------+
 209:lib/TinyUSB/src/tusb.c **** // Endpoint Helper for both Host and Device stack
 210:lib/TinyUSB/src/tusb.c **** //--------------------------------------------------------------------+
 211:lib/TinyUSB/src/tusb.c **** 
 212:lib/TinyUSB/src/tusb.c **** bool tu_edpt_claim(tu_edpt_state_t* ep_state, osal_mutex_t mutex) {
 213:lib/TinyUSB/src/tusb.c ****   (void) mutex;
 214:lib/TinyUSB/src/tusb.c **** 
 215:lib/TinyUSB/src/tusb.c ****   // pre-check to help reducing mutex lock
 216:lib/TinyUSB/src/tusb.c ****   TU_VERIFY(ep_state->busy == 0);
 217:lib/TinyUSB/src/tusb.c ****   TU_VERIFY(ep_state->claimed == 0);
 218:lib/TinyUSB/src/tusb.c ****   (void) osal_mutex_lock(mutex, OSAL_TIMEOUT_WAIT_FOREVER);
 219:lib/TinyUSB/src/tusb.c **** 
 220:lib/TinyUSB/src/tusb.c ****   // can only claim the endpoint if it is not busy and not claimed yet.
 221:lib/TinyUSB/src/tusb.c ****   bool const available = (ep_state->busy == 0) && (ep_state->claimed == 0);
 222:lib/TinyUSB/src/tusb.c ****   if (available) {
 223:lib/TinyUSB/src/tusb.c ****     ep_state->claimed = 1;
 224:lib/TinyUSB/src/tusb.c ****   }
 225:lib/TinyUSB/src/tusb.c **** 
 226:lib/TinyUSB/src/tusb.c ****   (void) osal_mutex_unlock(mutex);
 227:lib/TinyUSB/src/tusb.c ****   return available;
 228:lib/TinyUSB/src/tusb.c **** }
 229:lib/TinyUSB/src/tusb.c **** 
 230:lib/TinyUSB/src/tusb.c **** bool tu_edpt_release(tu_edpt_state_t* ep_state, osal_mutex_t mutex) {
 231:lib/TinyUSB/src/tusb.c ****   (void) mutex;
 232:lib/TinyUSB/src/tusb.c ****   (void) osal_mutex_lock(mutex, OSAL_TIMEOUT_WAIT_FOREVER);
 233:lib/TinyUSB/src/tusb.c **** 
 234:lib/TinyUSB/src/tusb.c ****   // can only release the endpoint if it is claimed and not busy
 235:lib/TinyUSB/src/tusb.c ****   bool const ret = (ep_state->claimed == 1) && (ep_state->busy == 0);
 236:lib/TinyUSB/src/tusb.c ****   if (ret) {
 237:lib/TinyUSB/src/tusb.c ****     ep_state->claimed = 0;
 238:lib/TinyUSB/src/tusb.c ****   }
 239:lib/TinyUSB/src/tusb.c **** 
 240:lib/TinyUSB/src/tusb.c ****   (void) osal_mutex_unlock(mutex);
 241:lib/TinyUSB/src/tusb.c ****   return ret;
 242:lib/TinyUSB/src/tusb.c **** }
 243:lib/TinyUSB/src/tusb.c **** 
 244:lib/TinyUSB/src/tusb.c **** #if CFG_TUSB_DEBUG
 245:lib/TinyUSB/src/tusb.c **** bool tu_edpt_validate(const tusb_desc_endpoint_t *desc_ep, tusb_speed_t speed) {
 246:lib/TinyUSB/src/tusb.c ****   const uint16_t max_packet_size = tu_edpt_packet_size(desc_ep);
 247:lib/TinyUSB/src/tusb.c ****   TU_LOG2("  Open EP %02X with Size = %u\r\n", desc_ep->bEndpointAddress, max_packet_size);
 248:lib/TinyUSB/src/tusb.c **** 
 249:lib/TinyUSB/src/tusb.c ****   switch (desc_ep->bmAttributes.xfer) {
 250:lib/TinyUSB/src/tusb.c ****     case TUSB_XFER_ISOCHRONOUS: {
 251:lib/TinyUSB/src/tusb.c ****       const uint16_t spec_size = (speed == TUSB_SPEED_HIGH ? 1024 : 1023);
 252:lib/TinyUSB/src/tusb.c ****       TU_ASSERT(max_packet_size <= spec_size);
 253:lib/TinyUSB/src/tusb.c ****       break;
 254:lib/TinyUSB/src/tusb.c ****     }
 255:lib/TinyUSB/src/tusb.c **** 
 256:lib/TinyUSB/src/tusb.c ****     case TUSB_XFER_BULK:
 257:lib/TinyUSB/src/tusb.c ****       if (speed == TUSB_SPEED_HIGH) {
 258:lib/TinyUSB/src/tusb.c ****         // Bulk highspeed must be EXACTLY 512
ARM GAS  C:\Users\krisa\AppData\Local\Temp\ccuohWpS.s 			page 6


 259:lib/TinyUSB/src/tusb.c ****         TU_ASSERT(max_packet_size == 512);
 260:lib/TinyUSB/src/tusb.c ****       } else {
 261:lib/TinyUSB/src/tusb.c ****         // Bulk fullspeed can only be 8, 16, 32, 64
 262:lib/TinyUSB/src/tusb.c ****         TU_ASSERT(max_packet_size == 8 || max_packet_size == 16 || max_packet_size == 32 || max_pac
 263:lib/TinyUSB/src/tusb.c ****       }
 264:lib/TinyUSB/src/tusb.c ****       break;
 265:lib/TinyUSB/src/tusb.c **** 
 266:lib/TinyUSB/src/tusb.c ****     case TUSB_XFER_INTERRUPT: {
 267:lib/TinyUSB/src/tusb.c ****       uint16_t const spec_size = (speed == TUSB_SPEED_HIGH ? 1024 : 64);
 268:lib/TinyUSB/src/tusb.c ****       TU_ASSERT(max_packet_size <= spec_size);
 269:lib/TinyUSB/src/tusb.c ****       break;
 270:lib/TinyUSB/src/tusb.c ****     }
 271:lib/TinyUSB/src/tusb.c **** 
 272:lib/TinyUSB/src/tusb.c ****     default:
 273:lib/TinyUSB/src/tusb.c ****       return false;
 274:lib/TinyUSB/src/tusb.c ****   }
 275:lib/TinyUSB/src/tusb.c **** 
 276:lib/TinyUSB/src/tusb.c ****   return true;
 277:lib/TinyUSB/src/tusb.c **** }
 278:lib/TinyUSB/src/tusb.c **** #endif
 279:lib/TinyUSB/src/tusb.c **** 
 280:lib/TinyUSB/src/tusb.c **** bool tu_bind_driver_to_ep_itf(uint8_t driver_id, uint8_t ep2drv[][2], uint8_t itf2drv[], uint8_t it
 281:lib/TinyUSB/src/tusb.c ****                               const uint8_t *p_desc, uint16_t desc_len) {
 282:lib/TinyUSB/src/tusb.c ****   const uint8_t *desc_end = p_desc + desc_len;
 283:lib/TinyUSB/src/tusb.c ****   while (tu_desc_in_bounds(p_desc, desc_end)) {
 284:lib/TinyUSB/src/tusb.c ****     const uint8_t desc_type = tu_desc_type(p_desc);
 285:lib/TinyUSB/src/tusb.c **** 
 286:lib/TinyUSB/src/tusb.c ****     if (desc_type == TUSB_DESC_ENDPOINT) {
 287:lib/TinyUSB/src/tusb.c ****       const uint8_t ep_addr  = ((const tusb_desc_endpoint_t *)p_desc)->bEndpointAddress;
 288:lib/TinyUSB/src/tusb.c ****       const uint8_t ep_num   = tu_edpt_number(ep_addr);
 289:lib/TinyUSB/src/tusb.c ****       const uint8_t ep_dir   = tu_edpt_dir(ep_addr);
 290:lib/TinyUSB/src/tusb.c ****       ep2drv[ep_num][ep_dir] = driver_id;
 291:lib/TinyUSB/src/tusb.c ****     } else if (desc_type == TUSB_DESC_INTERFACE) {
 292:lib/TinyUSB/src/tusb.c ****       const tusb_desc_interface_t *desc_itf = (const tusb_desc_interface_t *)p_desc;
 293:lib/TinyUSB/src/tusb.c ****       if (desc_itf->bAlternateSetting == 0) {
 294:lib/TinyUSB/src/tusb.c ****         TU_ASSERT(desc_itf->bInterfaceNumber < itf_max);
 295:lib/TinyUSB/src/tusb.c ****         itf2drv[desc_itf->bInterfaceNumber] = driver_id;
 296:lib/TinyUSB/src/tusb.c ****       }
 297:lib/TinyUSB/src/tusb.c ****     }
 298:lib/TinyUSB/src/tusb.c **** 
 299:lib/TinyUSB/src/tusb.c ****     p_desc = tu_desc_next(p_desc);
 300:lib/TinyUSB/src/tusb.c ****   }
 301:lib/TinyUSB/src/tusb.c ****   return true;
 302:lib/TinyUSB/src/tusb.c **** }
 303:lib/TinyUSB/src/tusb.c **** 
 304:lib/TinyUSB/src/tusb.c **** //--------------------------------------------------------------------+
 305:lib/TinyUSB/src/tusb.c **** // Endpoint Stream Helper for both Host and Device stack
 306:lib/TinyUSB/src/tusb.c **** //--------------------------------------------------------------------+
 307:lib/TinyUSB/src/tusb.c **** 
 308:lib/TinyUSB/src/tusb.c **** bool tu_edpt_stream_init(tu_edpt_stream_t *s, bool is_host, bool is_tx, bool overwritable, void *ff
 309:lib/TinyUSB/src/tusb.c ****                          uint16_t ff_bufsize, uint8_t *ep_buf, uint16_t ep_bufsize) {
 310:lib/TinyUSB/src/tusb.c ****   (void) is_tx;
 311:lib/TinyUSB/src/tusb.c **** 
 312:lib/TinyUSB/src/tusb.c ****   #if CFG_TUSB_EDPT_STREAM_NO_FIFO_ENABLED == 0 // FIFO is required
 313:lib/TinyUSB/src/tusb.c ****   if (ff_buf == NULL || ff_bufsize == 0) {
 314:lib/TinyUSB/src/tusb.c ****     return false;
 315:lib/TinyUSB/src/tusb.c ****   }
ARM GAS  C:\Users\krisa\AppData\Local\Temp\ccuohWpS.s 			page 7


 316:lib/TinyUSB/src/tusb.c ****   #endif
 317:lib/TinyUSB/src/tusb.c **** 
 318:lib/TinyUSB/src/tusb.c ****   s->is_host = is_host;
 319:lib/TinyUSB/src/tusb.c ****   tu_fifo_config(&s->ff, ff_buf, ff_bufsize, 1, overwritable);
 320:lib/TinyUSB/src/tusb.c **** 
 321:lib/TinyUSB/src/tusb.c ****   #if OSAL_MUTEX_REQUIRED
 322:lib/TinyUSB/src/tusb.c ****   if (ff_buf != NULL && ff_bufsize > 0) {
 323:lib/TinyUSB/src/tusb.c ****     osal_mutex_t new_mutex = osal_mutex_create(&s->ff_mutexdef);
 324:lib/TinyUSB/src/tusb.c ****     tu_fifo_config_mutex(&s->ff, is_tx ? new_mutex : NULL, is_tx ? NULL : new_mutex);
 325:lib/TinyUSB/src/tusb.c ****   }
 326:lib/TinyUSB/src/tusb.c ****   #endif
 327:lib/TinyUSB/src/tusb.c **** 
 328:lib/TinyUSB/src/tusb.c ****   s->ep_buf = ep_buf;
 329:lib/TinyUSB/src/tusb.c ****   s->ep_bufsize = ep_bufsize;
 330:lib/TinyUSB/src/tusb.c **** 
 331:lib/TinyUSB/src/tusb.c ****   return true;
 332:lib/TinyUSB/src/tusb.c **** }
 333:lib/TinyUSB/src/tusb.c **** 
 334:lib/TinyUSB/src/tusb.c **** static bool stream_claim(tu_edpt_stream_t *s) {
  29              		.loc 1 334 47 view -0
  30              		.cfi_startproc
  31              		@ args = 0, pretend = 0, frame = 0
  32              		@ frame_needed = 0, uses_anonymous_args = 0
 335:lib/TinyUSB/src/tusb.c ****   TU_VERIFY(s->ep_addr != 0); // must be opened
  33              		.loc 1 335 3 view .LVU1
  34              		.loc 1 335 3 view .LVU2
  35 0000 8178     		ldrb	r1, [r0, #2]	@ zero_extendqisi2
  36 0002 41B1     		cbz	r1, .L3
 334:lib/TinyUSB/src/tusb.c ****   TU_VERIFY(s->ep_addr != 0); // must be opened
  37              		.loc 1 334 47 is_stmt 0 discriminator 2 view .LVU3
  38 0004 08B5     		push	{r3, lr}
  39              	.LCFI0:
  40              		.cfi_def_cfa_offset 8
  41              		.cfi_offset 3, -8
  42              		.cfi_offset 14, -4
  43              		.loc 1 335 3 is_stmt 1 discriminator 2 view .LVU4
 336:lib/TinyUSB/src/tusb.c ****   if (s->is_host) {
  44              		.loc 1 336 3 discriminator 2 view .LVU5
  45              		.loc 1 336 8 is_stmt 0 discriminator 2 view .LVU6
  46 0006 4378     		ldrb	r3, [r0, #1]	@ zero_extendqisi2
  47              		.loc 1 336 6 discriminator 2 view .LVU7
  48 0008 0BB1     		cbz	r3, .L9
 337:lib/TinyUSB/src/tusb.c ****     #if CFG_TUH_ENABLED
 338:lib/TinyUSB/src/tusb.c ****     return usbh_edpt_claim(s->hwid, s->ep_addr);
 339:lib/TinyUSB/src/tusb.c ****   #endif
 340:lib/TinyUSB/src/tusb.c ****   } else {
 341:lib/TinyUSB/src/tusb.c ****     #if CFG_TUD_ENABLED
 342:lib/TinyUSB/src/tusb.c ****     return usbd_edpt_claim(s->hwid, s->ep_addr);
 343:lib/TinyUSB/src/tusb.c ****   #endif
 344:lib/TinyUSB/src/tusb.c ****   }
 345:lib/TinyUSB/src/tusb.c ****   return false;
  49              		.loc 1 345 10 view .LVU8
  50 000a 0020     		movs	r0, #0
  51              	.LVL1:
  52              	.L2:
 346:lib/TinyUSB/src/tusb.c **** }
  53              		.loc 1 346 1 view .LVU9
ARM GAS  C:\Users\krisa\AppData\Local\Temp\ccuohWpS.s 			page 8


  54 000c 08BD     		pop	{r3, pc}
  55              	.LVL2:
  56              	.L9:
 342:lib/TinyUSB/src/tusb.c ****   #endif
  57              		.loc 1 342 5 is_stmt 1 view .LVU10
 342:lib/TinyUSB/src/tusb.c ****   #endif
  58              		.loc 1 342 12 is_stmt 0 view .LVU11
  59 000e 0078     		ldrb	r0, [r0]	@ zero_extendqisi2
  60              	.LVL3:
 342:lib/TinyUSB/src/tusb.c ****   #endif
  61              		.loc 1 342 12 view .LVU12
  62 0010 FFF7FEFF 		bl	usbd_edpt_claim
  63              	.LVL4:
  64 0014 FAE7     		b	.L2
  65              	.LVL5:
  66              	.L3:
  67              	.LCFI1:
  68              		.cfi_def_cfa_offset 0
  69              		.cfi_restore 3
  70              		.cfi_restore 14
 335:lib/TinyUSB/src/tusb.c ****   if (s->is_host) {
  71              		.loc 1 335 3 view .LVU13
  72 0016 0020     		movs	r0, #0
  73              	.LVL6:
  74              		.loc 1 346 1 view .LVU14
  75 0018 7047     		bx	lr
  76              		.cfi_endproc
  77              	.LFE124:
  79              		.section	.text.stream_xfer,"ax",%progbits
  80              		.align	1
  81              		.syntax unified
  82              		.thumb
  83              		.thumb_func
  85              	stream_xfer:
  86              	.LVL7:
  87              	.LFB125:
 347:lib/TinyUSB/src/tusb.c **** 
 348:lib/TinyUSB/src/tusb.c **** static bool stream_xfer(tu_edpt_stream_t *s, uint16_t count) {
  88              		.loc 1 348 62 is_stmt 1 view -0
  89              		.cfi_startproc
  90              		@ args = 0, pretend = 0, frame = 0
  91              		@ frame_needed = 0, uses_anonymous_args = 0
 349:lib/TinyUSB/src/tusb.c ****   if (s->is_host) {
  92              		.loc 1 349 3 view .LVU16
  93              		.loc 1 349 8 is_stmt 0 view .LVU17
  94 0000 4278     		ldrb	r2, [r0, #1]	@ zero_extendqisi2
  95              		.loc 1 349 6 view .LVU18
  96 0002 C2B9     		cbnz	r2, .L14
 348:lib/TinyUSB/src/tusb.c ****   if (s->is_host) {
  97              		.loc 1 348 62 view .LVU19
  98 0004 10B5     		push	{r4, lr}
  99              	.LCFI2:
 100              		.cfi_def_cfa_offset 8
 101              		.cfi_offset 4, -8
 102              		.cfi_offset 14, -4
 103 0006 82B0     		sub	sp, sp, #8
 104              	.LCFI3:
ARM GAS  C:\Users\krisa\AppData\Local\Temp\ccuohWpS.s 			page 9


 105              		.cfi_def_cfa_offset 16
 106 0008 8446     		mov	ip, r0
 107 000a 0B46     		mov	r3, r1
 350:lib/TinyUSB/src/tusb.c ****     #if CFG_TUH_ENABLED
 351:lib/TinyUSB/src/tusb.c ****     return usbh_edpt_xfer(s->hwid, s->ep_addr, count ? s->ep_buf : NULL, count);
 352:lib/TinyUSB/src/tusb.c ****   #endif
 353:lib/TinyUSB/src/tusb.c ****   } else {
 354:lib/TinyUSB/src/tusb.c ****     #if CFG_TUD_ENABLED
 355:lib/TinyUSB/src/tusb.c ****     if (s->ep_buf == NULL) {
 108              		.loc 1 355 5 is_stmt 1 view .LVU20
 109              		.loc 1 355 10 is_stmt 0 view .LVU21
 110 000c 8268     		ldr	r2, [r0, #8]
 111              		.loc 1 355 8 view .LVU22
 112 000e 52B1     		cbz	r2, .L19
 356:lib/TinyUSB/src/tusb.c ****       return usbd_edpt_xfer_fifo(s->hwid, s->ep_addr, &s->ff, count, false);
 357:lib/TinyUSB/src/tusb.c ****     } else {
 358:lib/TinyUSB/src/tusb.c ****       return usbd_edpt_xfer(s->hwid, s->ep_addr, count ? s->ep_buf : NULL, count, false);
 113              		.loc 1 358 7 is_stmt 1 view .LVU23
 114              		.loc 1 358 14 is_stmt 0 view .LVU24
 115 0010 0078     		ldrb	r0, [r0]	@ zero_extendqisi2
 116              	.LVL8:
 117              		.loc 1 358 14 view .LVU25
 118 0012 9CF80210 		ldrb	r1, [ip, #2]	@ zero_extendqisi2
 119              	.LVL9:
 120              		.loc 1 358 14 view .LVU26
 121 0016 03B9     		cbnz	r3, .L13
 122 0018 0022     		movs	r2, #0
 123              	.L13:
 124              		.loc 1 358 14 discriminator 4 view .LVU27
 125 001a 0024     		movs	r4, #0
 126 001c 0094     		str	r4, [sp]
 127 001e FFF7FEFF 		bl	usbd_edpt_xfer
 128              	.LVL10:
 129              	.L11:
 359:lib/TinyUSB/src/tusb.c ****     }
 360:lib/TinyUSB/src/tusb.c ****   #endif
 361:lib/TinyUSB/src/tusb.c ****   }
 362:lib/TinyUSB/src/tusb.c ****   return false;
 363:lib/TinyUSB/src/tusb.c **** }
 130              		.loc 1 363 1 view .LVU28
 131 0022 02B0     		add	sp, sp, #8
 132              	.LCFI4:
 133              		.cfi_remember_state
 134              		.cfi_def_cfa_offset 8
 135              		@ sp needed
 136 0024 10BD     		pop	{r4, pc}
 137              	.LVL11:
 138              	.L19:
 139              	.LCFI5:
 140              		.cfi_restore_state
 356:lib/TinyUSB/src/tusb.c ****       return usbd_edpt_xfer_fifo(s->hwid, s->ep_addr, &s->ff, count, false);
 141              		.loc 1 356 7 is_stmt 1 view .LVU29
 356:lib/TinyUSB/src/tusb.c ****       return usbd_edpt_xfer_fifo(s->hwid, s->ep_addr, &s->ff, count, false);
 142              		.loc 1 356 14 is_stmt 0 view .LVU30
 143 0026 0092     		str	r2, [sp]
 144 0028 00F10C02 		add	r2, r0, #12
 145 002c 8178     		ldrb	r1, [r0, #2]	@ zero_extendqisi2
ARM GAS  C:\Users\krisa\AppData\Local\Temp\ccuohWpS.s 			page 10


 146              	.LVL12:
 356:lib/TinyUSB/src/tusb.c ****       return usbd_edpt_xfer_fifo(s->hwid, s->ep_addr, &s->ff, count, false);
 147              		.loc 1 356 14 view .LVU31
 148 002e 0078     		ldrb	r0, [r0]	@ zero_extendqisi2
 149              	.LVL13:
 356:lib/TinyUSB/src/tusb.c ****       return usbd_edpt_xfer_fifo(s->hwid, s->ep_addr, &s->ff, count, false);
 150              		.loc 1 356 14 view .LVU32
 151 0030 FFF7FEFF 		bl	usbd_edpt_xfer_fifo
 152              	.LVL14:
 356:lib/TinyUSB/src/tusb.c ****       return usbd_edpt_xfer_fifo(s->hwid, s->ep_addr, &s->ff, count, false);
 153              		.loc 1 356 14 view .LVU33
 154 0034 F5E7     		b	.L11
 155              	.LVL15:
 156              	.L14:
 157              	.LCFI6:
 158              		.cfi_def_cfa_offset 0
 159              		.cfi_restore 4
 160              		.cfi_restore 14
 362:lib/TinyUSB/src/tusb.c **** }
 161              		.loc 1 362 10 view .LVU34
 162 0036 0020     		movs	r0, #0
 163              	.LVL16:
 164              		.loc 1 363 1 view .LVU35
 165 0038 7047     		bx	lr
 166              		.cfi_endproc
 167              	.LFE125:
 169              		.section	.text.stream_release,"ax",%progbits
 170              		.align	1
 171              		.syntax unified
 172              		.thumb
 173              		.thumb_func
 175              	stream_release:
 176              	.LVL17:
 177              	.LFB126:
 364:lib/TinyUSB/src/tusb.c **** 
 365:lib/TinyUSB/src/tusb.c **** static bool stream_release(tu_edpt_stream_t *s) {
 178              		.loc 1 365 49 is_stmt 1 view -0
 179              		.cfi_startproc
 180              		@ args = 0, pretend = 0, frame = 0
 181              		@ frame_needed = 0, uses_anonymous_args = 0
 182              		.loc 1 365 49 is_stmt 0 view .LVU37
 183 0000 08B5     		push	{r3, lr}
 184              	.LCFI7:
 185              		.cfi_def_cfa_offset 8
 186              		.cfi_offset 3, -8
 187              		.cfi_offset 14, -4
 366:lib/TinyUSB/src/tusb.c ****   if (s->is_host) {
 188              		.loc 1 366 3 is_stmt 1 view .LVU38
 189              		.loc 1 366 8 is_stmt 0 view .LVU39
 190 0002 4378     		ldrb	r3, [r0, #1]	@ zero_extendqisi2
 191              		.loc 1 366 6 view .LVU40
 192 0004 0BB1     		cbz	r3, .L24
 367:lib/TinyUSB/src/tusb.c ****     #if CFG_TUH_ENABLED
 368:lib/TinyUSB/src/tusb.c ****     return usbh_edpt_release(s->hwid, s->ep_addr);
 369:lib/TinyUSB/src/tusb.c ****   #endif
 370:lib/TinyUSB/src/tusb.c ****   } else {
 371:lib/TinyUSB/src/tusb.c ****     #if CFG_TUD_ENABLED
ARM GAS  C:\Users\krisa\AppData\Local\Temp\ccuohWpS.s 			page 11


 372:lib/TinyUSB/src/tusb.c ****     return usbd_edpt_release(s->hwid, s->ep_addr);
 373:lib/TinyUSB/src/tusb.c ****   #endif
 374:lib/TinyUSB/src/tusb.c ****   }
 375:lib/TinyUSB/src/tusb.c ****   return false;
 193              		.loc 1 375 10 view .LVU41
 194 0006 0020     		movs	r0, #0
 195              	.LVL18:
 196              	.L21:
 376:lib/TinyUSB/src/tusb.c **** }
 197              		.loc 1 376 1 view .LVU42
 198 0008 08BD     		pop	{r3, pc}
 199              	.LVL19:
 200              	.L24:
 372:lib/TinyUSB/src/tusb.c ****   #endif
 201              		.loc 1 372 5 is_stmt 1 view .LVU43
 372:lib/TinyUSB/src/tusb.c ****   #endif
 202              		.loc 1 372 12 is_stmt 0 view .LVU44
 203 000a 8178     		ldrb	r1, [r0, #2]	@ zero_extendqisi2
 204 000c 0078     		ldrb	r0, [r0]	@ zero_extendqisi2
 205              	.LVL20:
 372:lib/TinyUSB/src/tusb.c ****   #endif
 206              		.loc 1 372 12 view .LVU45
 207 000e FFF7FEFF 		bl	usbd_edpt_release
 208              	.LVL21:
 209 0012 F9E7     		b	.L21
 210              		.cfi_endproc
 211              	.LFE126:
 213              		.section	.text.tusb_time_delay_ms_api,"ax",%progbits
 214              		.align	1
 215              		.weak	tusb_time_delay_ms_api
 216              		.syntax unified
 217              		.thumb
 218              		.thumb_func
 220              	tusb_time_delay_ms_api:
 221              	.LVL22:
 222              	.LFB110:
  48:lib/TinyUSB/src/tusb.c **** #if CFG_TUSB_OS != OPT_OS_NONE
 223              		.loc 1 48 55 is_stmt 1 view -0
 224              		.cfi_startproc
 225              		@ args = 0, pretend = 0, frame = 0
 226              		@ frame_needed = 0, uses_anonymous_args = 0
  48:lib/TinyUSB/src/tusb.c **** #if CFG_TUSB_OS != OPT_OS_NONE
 227              		.loc 1 48 55 is_stmt 0 view .LVU47
 228 0000 38B5     		push	{r3, r4, r5, lr}
 229              	.LCFI8:
 230              		.cfi_def_cfa_offset 16
 231              		.cfi_offset 3, -16
 232              		.cfi_offset 4, -12
 233              		.cfi_offset 5, -8
 234              		.cfi_offset 14, -4
 235 0002 0546     		mov	r5, r0
  53:lib/TinyUSB/src/tusb.c ****   while ((tusb_time_millis_api() - time_ms) < ms) {}
 236              		.loc 1 53 3 is_stmt 1 view .LVU48
  53:lib/TinyUSB/src/tusb.c ****   while ((tusb_time_millis_api() - time_ms) < ms) {}
 237              		.loc 1 53 28 is_stmt 0 view .LVU49
 238 0004 FFF7FEFF 		bl	tusb_time_millis_api
 239              	.LVL23:
ARM GAS  C:\Users\krisa\AppData\Local\Temp\ccuohWpS.s 			page 12


  53:lib/TinyUSB/src/tusb.c ****   while ((tusb_time_millis_api() - time_ms) < ms) {}
 240              		.loc 1 53 28 view .LVU50
 241 0008 0446     		mov	r4, r0
 242              	.LVL24:
  54:lib/TinyUSB/src/tusb.c **** #endif
 243              		.loc 1 54 3 is_stmt 1 view .LVU51
 244              	.L26:
  54:lib/TinyUSB/src/tusb.c **** #endif
 245              		.loc 1 54 52 discriminator 1 view .LVU52
  54:lib/TinyUSB/src/tusb.c **** #endif
 246              		.loc 1 54 9 discriminator 1 view .LVU53
  54:lib/TinyUSB/src/tusb.c **** #endif
 247              		.loc 1 54 11 is_stmt 0 discriminator 1 view .LVU54
 248 000a FFF7FEFF 		bl	tusb_time_millis_api
 249              	.LVL25:
  54:lib/TinyUSB/src/tusb.c **** #endif
 250              		.loc 1 54 34 discriminator 1 view .LVU55
 251 000e 001B     		subs	r0, r0, r4
  54:lib/TinyUSB/src/tusb.c **** #endif
 252              		.loc 1 54 9 discriminator 1 view .LVU56
 253 0010 A842     		cmp	r0, r5
 254 0012 FAD3     		bcc	.L26
  56:lib/TinyUSB/src/tusb.c **** 
 255              		.loc 1 56 1 view .LVU57
 256 0014 38BD     		pop	{r3, r4, r5, pc}
  56:lib/TinyUSB/src/tusb.c **** 
 257              		.loc 1 56 1 view .LVU58
 258              		.cfi_endproc
 259              	.LFE110:
 261              		.section	.text.tusb_app_virt_to_phys,"ax",%progbits
 262              		.align	1
 263              		.weak	tusb_app_virt_to_phys
 264              		.syntax unified
 265              		.thumb
 266              		.thumb_func
 268              	tusb_app_virt_to_phys:
 269              	.LVL26:
 270              	.LFB111:
  58:lib/TinyUSB/src/tusb.c ****   return virt_addr;
 271              		.loc 1 58 59 is_stmt 1 view -0
 272              		.cfi_startproc
 273              		@ args = 0, pretend = 0, frame = 0
 274              		@ frame_needed = 0, uses_anonymous_args = 0
 275              		@ link register save eliminated.
  59:lib/TinyUSB/src/tusb.c **** }
 276              		.loc 1 59 3 view .LVU60
  60:lib/TinyUSB/src/tusb.c **** 
 277              		.loc 1 60 1 is_stmt 0 view .LVU61
 278 0000 7047     		bx	lr
 279              		.cfi_endproc
 280              	.LFE111:
 282              		.section	.text.tusb_app_phys_to_virt,"ax",%progbits
 283              		.align	1
 284              		.weak	tusb_app_phys_to_virt
 285              		.syntax unified
 286              		.thumb
 287              		.thumb_func
ARM GAS  C:\Users\krisa\AppData\Local\Temp\ccuohWpS.s 			page 13


 289              	tusb_app_phys_to_virt:
 290              	.LVL27:
 291              	.LFB112:
  62:lib/TinyUSB/src/tusb.c ****   return phys_addr;
 292              		.loc 1 62 59 is_stmt 1 view -0
 293              		.cfi_startproc
 294              		@ args = 0, pretend = 0, frame = 0
 295              		@ frame_needed = 0, uses_anonymous_args = 0
 296              		@ link register save eliminated.
  63:lib/TinyUSB/src/tusb.c **** }
 297              		.loc 1 63 3 view .LVU63
  64:lib/TinyUSB/src/tusb.c **** 
 298              		.loc 1 64 1 is_stmt 0 view .LVU64
 299 0000 7047     		bx	lr
 300              		.cfi_endproc
 301              	.LFE112:
 303              		.section	.text.tusb_rhport_init,"ax",%progbits
 304              		.align	1
 305              		.global	tusb_rhport_init
 306              		.syntax unified
 307              		.thumb
 308              		.thumb_func
 310              	tusb_rhport_init:
 311              	.LVL28:
 312              	.LFB113:
  69:lib/TinyUSB/src/tusb.c ****   //  backward compatible called with tusb_init(void)
 313              		.loc 1 69 74 is_stmt 1 view -0
 314              		.cfi_startproc
 315              		@ args = 0, pretend = 0, frame = 0
 316              		@ frame_needed = 0, uses_anonymous_args = 0
  69:lib/TinyUSB/src/tusb.c ****   //  backward compatible called with tusb_init(void)
 317              		.loc 1 69 74 is_stmt 0 view .LVU66
 318 0000 08B5     		push	{r3, lr}
 319              	.LCFI9:
 320              		.cfi_def_cfa_offset 8
 321              		.cfi_offset 3, -8
 322              		.cfi_offset 14, -4
  98:lib/TinyUSB/src/tusb.c ****   _tusb_rhport_role[rhport] = rh_init->role;
 323              		.loc 1 98 3 is_stmt 1 view .LVU67
  98:lib/TinyUSB/src/tusb.c ****   _tusb_rhport_role[rhport] = rh_init->role;
 324              		.loc 1 98 3 view .LVU68
 325 0002 0128     		cmp	r0, #1
 326 0004 07D8     		bhi	.L31
  98:lib/TinyUSB/src/tusb.c ****   _tusb_rhport_role[rhport] = rh_init->role;
 327              		.loc 1 98 3 is_stmt 0 discriminator 2 view .LVU69
 328 0006 0B78     		ldrb	r3, [r1]	@ zero_extendqisi2
 329 0008 2BB1     		cbz	r3, .L31
  98:lib/TinyUSB/src/tusb.c ****   _tusb_rhport_role[rhport] = rh_init->role;
 330              		.loc 1 98 3 is_stmt 1 discriminator 4 view .LVU70
  99:lib/TinyUSB/src/tusb.c **** 
 331              		.loc 1 99 3 discriminator 4 view .LVU71
  99:lib/TinyUSB/src/tusb.c **** 
 332              		.loc 1 99 29 is_stmt 0 discriminator 4 view .LVU72
 333 000a 0E4A     		ldr	r2, .L39
 334 000c 1354     		strb	r3, [r2, r0]
 102:lib/TinyUSB/src/tusb.c ****     TU_ASSERT(tud_rhport_init(rhport, rh_init));
 335              		.loc 1 102 3 is_stmt 1 discriminator 4 view .LVU73
ARM GAS  C:\Users\krisa\AppData\Local\Temp\ccuohWpS.s 			page 14


 102:lib/TinyUSB/src/tusb.c ****     TU_ASSERT(tud_rhport_init(rhport, rh_init));
 336              		.loc 1 102 6 is_stmt 0 discriminator 4 view .LVU74
 337 000e 012B     		cmp	r3, #1
 338 0010 0BD0     		beq	.L38
 113:lib/TinyUSB/src/tusb.c **** }
 339              		.loc 1 113 10 view .LVU75
 340 0012 0120     		movs	r0, #1
 341              	.LVL29:
 113:lib/TinyUSB/src/tusb.c **** }
 342              		.loc 1 113 10 view .LVU76
 343 0014 08E0     		b	.L34
 344              	.LVL30:
 345              	.L31:
  98:lib/TinyUSB/src/tusb.c ****   _tusb_rhport_role[rhport] = rh_init->role;
 346              		.loc 1 98 3 is_stmt 1 discriminator 3 view .LVU77
  98:lib/TinyUSB/src/tusb.c ****   _tusb_rhport_role[rhport] = rh_init->role;
 347              		.loc 1 98 3 discriminator 3 view .LVU78
  98:lib/TinyUSB/src/tusb.c ****   _tusb_rhport_role[rhport] = rh_init->role;
 348              		.loc 1 98 3 discriminator 3 view .LVU79
  98:lib/TinyUSB/src/tusb.c ****   _tusb_rhport_role[rhport] = rh_init->role;
 349              		.loc 1 98 3 discriminator 3 view .LVU80
 350              	.LBB78:
  98:lib/TinyUSB/src/tusb.c ****   _tusb_rhport_role[rhport] = rh_init->role;
 351              		.loc 1 98 3 discriminator 3 view .LVU81
  98:lib/TinyUSB/src/tusb.c ****   _tusb_rhport_role[rhport] = rh_init->role;
 352              		.loc 1 98 3 discriminator 3 view .LVU82
 353 0016 4FF0E023 		mov	r3, #-536813568
 354 001a D3F8F03D 		ldr	r3, [r3, #3568]
 355 001e 13F0010F 		tst	r3, #1
 356 0022 00D0     		beq	.L33
  98:lib/TinyUSB/src/tusb.c ****   _tusb_rhport_role[rhport] = rh_init->role;
 357              		.loc 1 98 3 discriminator 5 view .LVU83
 358              		.syntax unified
 359              	@ 98 "lib/TinyUSB/src/tusb.c" 1
 360 0024 00BE     		BKPT #0
 361              	
 362              	@ 0 "" 2
 363              		.thumb
 364              		.syntax unified
 365              	.L33:
 366              	.LBE78:
  98:lib/TinyUSB/src/tusb.c ****   _tusb_rhport_role[rhport] = rh_init->role;
 367              		.loc 1 98 3 discriminator 7 view .LVU84
  98:lib/TinyUSB/src/tusb.c ****   _tusb_rhport_role[rhport] = rh_init->role;
 368              		.loc 1 98 3 discriminator 7 view .LVU85
 369 0026 0020     		movs	r0, #0
 370              	.LVL31:
 371              	.L34:
 114:lib/TinyUSB/src/tusb.c **** 
 372              		.loc 1 114 1 is_stmt 0 view .LVU86
 373 0028 08BD     		pop	{r3, pc}
 374              	.LVL32:
 375              	.L38:
 103:lib/TinyUSB/src/tusb.c ****   }
 376              		.loc 1 103 5 is_stmt 1 view .LVU87
 103:lib/TinyUSB/src/tusb.c ****   }
 377              		.loc 1 103 5 view .LVU88
ARM GAS  C:\Users\krisa\AppData\Local\Temp\ccuohWpS.s 			page 15


 378 002a FFF7FEFF 		bl	tud_rhport_init
 379              	.LVL33:
 103:lib/TinyUSB/src/tusb.c ****   }
 380              		.loc 1 103 5 is_stmt 0 view .LVU89
 381 002e 0028     		cmp	r0, #0
 382 0030 FAD1     		bne	.L34
 103:lib/TinyUSB/src/tusb.c ****   }
 383              		.loc 1 103 5 is_stmt 1 discriminator 1 view .LVU90
 103:lib/TinyUSB/src/tusb.c ****   }
 384              		.loc 1 103 5 discriminator 1 view .LVU91
 103:lib/TinyUSB/src/tusb.c ****   }
 385              		.loc 1 103 5 discriminator 1 view .LVU92
 103:lib/TinyUSB/src/tusb.c ****   }
 386              		.loc 1 103 5 discriminator 1 view .LVU93
 387              	.LBB79:
 103:lib/TinyUSB/src/tusb.c ****   }
 388              		.loc 1 103 5 discriminator 1 view .LVU94
 389              	.LVL34:
 103:lib/TinyUSB/src/tusb.c ****   }
 390              		.loc 1 103 5 discriminator 1 view .LVU95
 391 0032 4FF0E023 		mov	r3, #-536813568
 392 0036 D3F8F03D 		ldr	r3, [r3, #3568]
 393 003a 13F0010F 		tst	r3, #1
 394 003e F3D0     		beq	.L34
 103:lib/TinyUSB/src/tusb.c ****   }
 395              		.loc 1 103 5 discriminator 3 view .LVU96
 396              		.syntax unified
 397              	@ 103 "lib/TinyUSB/src/tusb.c" 1
 398 0040 00BE     		BKPT #0
 399              	
 400              	@ 0 "" 2
 401              		.thumb
 402              		.syntax unified
 403              	.LBE79:
 103:lib/TinyUSB/src/tusb.c ****   }
 404              		.loc 1 103 5 discriminator 3 view .LVU97
 103:lib/TinyUSB/src/tusb.c ****   }
 405              		.loc 1 103 5 discriminator 3 view .LVU98
 406 0042 F1E7     		b	.L34
 407              	.L40:
 408              		.align	2
 409              	.L39:
 410 0044 00000000 		.word	.LANCHOR0
 411              		.cfi_endproc
 412              	.LFE113:
 414              		.section	.text.tusb_inited,"ax",%progbits
 415              		.align	1
 416              		.global	tusb_inited
 417              		.syntax unified
 418              		.thumb
 419              		.thumb_func
 421              	tusb_inited:
 422              	.LFB114:
 116:lib/TinyUSB/src/tusb.c ****   bool ret = false;
 423              		.loc 1 116 24 view -0
 424              		.cfi_startproc
 425              		@ args = 0, pretend = 0, frame = 0
ARM GAS  C:\Users\krisa\AppData\Local\Temp\ccuohWpS.s 			page 16


 426              		@ frame_needed = 0, uses_anonymous_args = 0
 427 0000 08B5     		push	{r3, lr}
 428              	.LCFI10:
 429              		.cfi_def_cfa_offset 8
 430              		.cfi_offset 3, -8
 431              		.cfi_offset 14, -4
 117:lib/TinyUSB/src/tusb.c **** 
 432              		.loc 1 117 3 view .LVU100
 433              	.LVL35:
 120:lib/TinyUSB/src/tusb.c ****     ret = true;
 434              		.loc 1 120 3 view .LVU101
 120:lib/TinyUSB/src/tusb.c ****     ret = true;
 435              		.loc 1 120 7 is_stmt 0 view .LVU102
 436 0002 FFF7FEFF 		bl	tud_inited
 437              	.LVL36:
 131:lib/TinyUSB/src/tusb.c **** }
 438              		.loc 1 131 3 is_stmt 1 view .LVU103
 132:lib/TinyUSB/src/tusb.c **** 
 439              		.loc 1 132 1 is_stmt 0 view .LVU104
 440 0006 08BD     		pop	{r3, pc}
 441              		.cfi_endproc
 442              	.LFE114:
 444              		.section	.text.tusb_int_handler,"ax",%progbits
 445              		.align	1
 446              		.global	tusb_int_handler
 447              		.syntax unified
 448              		.thumb
 449              		.thumb_func
 451              	tusb_int_handler:
 452              	.LVL37:
 453              	.LFB115:
 134:lib/TinyUSB/src/tusb.c ****   TU_VERIFY(rhport < TUP_USBIP_CONTROLLER_NUM,);
 454              		.loc 1 134 52 is_stmt 1 view -0
 455              		.cfi_startproc
 456              		@ args = 0, pretend = 0, frame = 0
 457              		@ frame_needed = 0, uses_anonymous_args = 0
 135:lib/TinyUSB/src/tusb.c **** 
 458              		.loc 1 135 3 view .LVU106
 135:lib/TinyUSB/src/tusb.c **** 
 459              		.loc 1 135 3 view .LVU107
 460 0000 0128     		cmp	r0, #1
 461 0002 08D8     		bhi	.L46
 134:lib/TinyUSB/src/tusb.c ****   TU_VERIFY(rhport < TUP_USBIP_CONTROLLER_NUM,);
 462              		.loc 1 134 52 is_stmt 0 discriminator 2 view .LVU108
 463 0004 08B5     		push	{r3, lr}
 464              	.LCFI11:
 465              		.cfi_def_cfa_offset 8
 466              		.cfi_offset 3, -8
 467              		.cfi_offset 14, -4
 135:lib/TinyUSB/src/tusb.c **** 
 468              		.loc 1 135 3 is_stmt 1 discriminator 2 view .LVU109
 138:lib/TinyUSB/src/tusb.c ****     (void) in_isr;
 469              		.loc 1 138 3 discriminator 2 view .LVU110
 138:lib/TinyUSB/src/tusb.c ****     (void) in_isr;
 470              		.loc 1 138 24 is_stmt 0 discriminator 2 view .LVU111
 471 0006 044B     		ldr	r3, .L50
 472 0008 1B5C     		ldrb	r3, [r3, r0]	@ zero_extendqisi2
ARM GAS  C:\Users\krisa\AppData\Local\Temp\ccuohWpS.s 			page 17


 138:lib/TinyUSB/src/tusb.c ****     (void) in_isr;
 473              		.loc 1 138 6 discriminator 2 view .LVU112
 474 000a 012B     		cmp	r3, #1
 475 000c 00D0     		beq	.L49
 476              	.LVL38:
 477              	.L43:
 149:lib/TinyUSB/src/tusb.c **** 
 478              		.loc 1 149 1 view .LVU113
 479 000e 08BD     		pop	{r3, pc}
 480              	.LVL39:
 481              	.L49:
 139:lib/TinyUSB/src/tusb.c ****     dcd_int_handler(rhport);
 482              		.loc 1 139 5 is_stmt 1 view .LVU114
 140:lib/TinyUSB/src/tusb.c ****   }
 483              		.loc 1 140 5 view .LVU115
 484 0010 FFF7FEFF 		bl	dcd_int_handler
 485              	.LVL40:
 140:lib/TinyUSB/src/tusb.c ****   }
 486              		.loc 1 140 5 is_stmt 0 view .LVU116
 487 0014 FBE7     		b	.L43
 488              	.LVL41:
 489              	.L46:
 490              	.LCFI12:
 491              		.cfi_def_cfa_offset 0
 492              		.cfi_restore 3
 493              		.cfi_restore 14
 140:lib/TinyUSB/src/tusb.c ****   }
 494              		.loc 1 140 5 view .LVU117
 495 0016 7047     		bx	lr
 496              	.L51:
 497              		.align	2
 498              	.L50:
 499 0018 00000000 		.word	.LANCHOR0
 500              		.cfi_endproc
 501              	.LFE115:
 503              		.section	.text.tusb_deinit,"ax",%progbits
 504              		.align	1
 505              		.global	tusb_deinit
 506              		.syntax unified
 507              		.thumb
 508              		.thumb_func
 510              	tusb_deinit:
 511              	.LVL42:
 512              	.LFB116:
 151:lib/TinyUSB/src/tusb.c ****   TU_VERIFY(rhport < TUP_USBIP_CONTROLLER_NUM);
 513              		.loc 1 151 34 is_stmt 1 view -0
 514              		.cfi_startproc
 515              		@ args = 0, pretend = 0, frame = 0
 516              		@ frame_needed = 0, uses_anonymous_args = 0
 152:lib/TinyUSB/src/tusb.c ****   bool ret = false;
 517              		.loc 1 152 3 view .LVU119
 152:lib/TinyUSB/src/tusb.c ****   bool ret = false;
 518              		.loc 1 152 3 view .LVU120
 519 0000 0128     		cmp	r0, #1
 520 0002 17D8     		bhi	.L56
 151:lib/TinyUSB/src/tusb.c ****   TU_VERIFY(rhport < TUP_USBIP_CONTROLLER_NUM);
 521              		.loc 1 151 34 is_stmt 0 discriminator 2 view .LVU121
ARM GAS  C:\Users\krisa\AppData\Local\Temp\ccuohWpS.s 			page 18


 522 0004 10B5     		push	{r4, lr}
 523              	.LCFI13:
 524              		.cfi_def_cfa_offset 8
 525              		.cfi_offset 4, -8
 526              		.cfi_offset 14, -4
 527 0006 0446     		mov	r4, r0
 152:lib/TinyUSB/src/tusb.c ****   bool ret = false;
 528              		.loc 1 152 3 is_stmt 1 discriminator 2 view .LVU122
 153:lib/TinyUSB/src/tusb.c **** 
 529              		.loc 1 153 3 discriminator 2 view .LVU123
 530              	.LVL43:
 156:lib/TinyUSB/src/tusb.c ****     TU_ASSERT(tud_deinit(rhport));
 531              		.loc 1 156 3 discriminator 2 view .LVU124
 156:lib/TinyUSB/src/tusb.c ****     TU_ASSERT(tud_deinit(rhport));
 532              		.loc 1 156 24 is_stmt 0 discriminator 2 view .LVU125
 533 0008 0B4B     		ldr	r3, .L64
 534 000a 1B5C     		ldrb	r3, [r3, r0]	@ zero_extendqisi2
 156:lib/TinyUSB/src/tusb.c ****     TU_ASSERT(tud_deinit(rhport));
 535              		.loc 1 156 6 discriminator 2 view .LVU126
 536 000c 012B     		cmp	r3, #1
 537 000e 01D0     		beq	.L62
 153:lib/TinyUSB/src/tusb.c **** 
 538              		.loc 1 153 8 view .LVU127
 539 0010 0020     		movs	r0, #0
 540              	.LVL44:
 541              	.L53:
 172:lib/TinyUSB/src/tusb.c **** 
 542              		.loc 1 172 1 view .LVU128
 543 0012 10BD     		pop	{r4, pc}
 544              	.LVL45:
 545              	.L62:
 157:lib/TinyUSB/src/tusb.c ****     _tusb_rhport_role[rhport] = TUSB_ROLE_INVALID;
 546              		.loc 1 157 5 is_stmt 1 view .LVU129
 157:lib/TinyUSB/src/tusb.c ****     _tusb_rhport_role[rhport] = TUSB_ROLE_INVALID;
 547              		.loc 1 157 5 view .LVU130
 548 0014 FFF7FEFF 		bl	tud_deinit
 549              	.LVL46:
 157:lib/TinyUSB/src/tusb.c ****     _tusb_rhport_role[rhport] = TUSB_ROLE_INVALID;
 550              		.loc 1 157 5 is_stmt 0 view .LVU131
 551 0018 18B1     		cbz	r0, .L63
 157:lib/TinyUSB/src/tusb.c ****     _tusb_rhport_role[rhport] = TUSB_ROLE_INVALID;
 552              		.loc 1 157 5 is_stmt 1 discriminator 2 view .LVU132
 158:lib/TinyUSB/src/tusb.c ****     ret = true;
 553              		.loc 1 158 5 discriminator 2 view .LVU133
 158:lib/TinyUSB/src/tusb.c ****     ret = true;
 554              		.loc 1 158 31 is_stmt 0 discriminator 2 view .LVU134
 555 001a 074B     		ldr	r3, .L64
 556 001c 0022     		movs	r2, #0
 557 001e 1A55     		strb	r2, [r3, r4]
 159:lib/TinyUSB/src/tusb.c ****   }
 558              		.loc 1 159 5 is_stmt 1 discriminator 2 view .LVU135
 559              	.LVL47:
 159:lib/TinyUSB/src/tusb.c ****   }
 560              		.loc 1 159 5 is_stmt 0 discriminator 2 view .LVU136
 561 0020 F7E7     		b	.L53
 562              	.LVL48:
 563              	.L63:
ARM GAS  C:\Users\krisa\AppData\Local\Temp\ccuohWpS.s 			page 19


 157:lib/TinyUSB/src/tusb.c ****     _tusb_rhport_role[rhport] = TUSB_ROLE_INVALID;
 564              		.loc 1 157 5 is_stmt 1 discriminator 1 view .LVU137
 157:lib/TinyUSB/src/tusb.c ****     _tusb_rhport_role[rhport] = TUSB_ROLE_INVALID;
 565              		.loc 1 157 5 discriminator 1 view .LVU138
 157:lib/TinyUSB/src/tusb.c ****     _tusb_rhport_role[rhport] = TUSB_ROLE_INVALID;
 566              		.loc 1 157 5 discriminator 1 view .LVU139
 157:lib/TinyUSB/src/tusb.c ****     _tusb_rhport_role[rhport] = TUSB_ROLE_INVALID;
 567              		.loc 1 157 5 discriminator 1 view .LVU140
 568              	.LBB80:
 157:lib/TinyUSB/src/tusb.c ****     _tusb_rhport_role[rhport] = TUSB_ROLE_INVALID;
 569              		.loc 1 157 5 discriminator 1 view .LVU141
 157:lib/TinyUSB/src/tusb.c ****     _tusb_rhport_role[rhport] = TUSB_ROLE_INVALID;
 570              		.loc 1 157 5 discriminator 1 view .LVU142
 571 0022 4FF0E023 		mov	r3, #-536813568
 572 0026 D3F8F03D 		ldr	r3, [r3, #3568]
 573 002a 13F0010F 		tst	r3, #1
 574 002e F0D0     		beq	.L53
 157:lib/TinyUSB/src/tusb.c ****     _tusb_rhport_role[rhport] = TUSB_ROLE_INVALID;
 575              		.loc 1 157 5 discriminator 3 view .LVU143
 576              		.syntax unified
 577              	@ 157 "lib/TinyUSB/src/tusb.c" 1
 578 0030 00BE     		BKPT #0
 579              	
 580              	@ 0 "" 2
 581              		.thumb
 582              		.syntax unified
 583              	.LBE80:
 157:lib/TinyUSB/src/tusb.c ****     _tusb_rhport_role[rhport] = TUSB_ROLE_INVALID;
 584              		.loc 1 157 5 discriminator 3 view .LVU144
 157:lib/TinyUSB/src/tusb.c ****     _tusb_rhport_role[rhport] = TUSB_ROLE_INVALID;
 585              		.loc 1 157 5 discriminator 3 view .LVU145
 586 0032 EEE7     		b	.L53
 587              	.LVL49:
 588              	.L56:
 589              	.LCFI14:
 590              		.cfi_def_cfa_offset 0
 591              		.cfi_restore 4
 592              		.cfi_restore 14
 152:lib/TinyUSB/src/tusb.c ****   bool ret = false;
 593              		.loc 1 152 3 is_stmt 0 view .LVU146
 594 0034 0020     		movs	r0, #0
 595              	.LVL50:
 172:lib/TinyUSB/src/tusb.c **** 
 596              		.loc 1 172 1 view .LVU147
 597 0036 7047     		bx	lr
 598              	.L65:
 599              		.align	2
 600              	.L64:
 601 0038 00000000 		.word	.LANCHOR0
 602              		.cfi_endproc
 603              	.LFE116:
 605              		.section	.text.tu_desc_find,"ax",%progbits
 606              		.align	1
 607              		.global	tu_desc_find
 608              		.syntax unified
 609              		.thumb
 610              		.thumb_func
ARM GAS  C:\Users\krisa\AppData\Local\Temp\ccuohWpS.s 			page 20


 612              	tu_desc_find:
 613              	.LVL51:
 614              	.LFB117:
 178:lib/TinyUSB/src/tusb.c ****   while (desc + 1 < end) {
 615              		.loc 1 178 85 is_stmt 1 view -0
 616              		.cfi_startproc
 617              		@ args = 0, pretend = 0, frame = 0
 618              		@ frame_needed = 0, uses_anonymous_args = 0
 619              		@ link register save eliminated.
 179:lib/TinyUSB/src/tusb.c ****     if (desc[1] == byte1) {
 620              		.loc 1 179 3 view .LVU149
 179:lib/TinyUSB/src/tusb.c ****     if (desc[1] == byte1) {
 621              		.loc 1 179 9 is_stmt 0 view .LVU150
 622 0000 01E0     		b	.L67
 623              	.L72:
 183:lib/TinyUSB/src/tusb.c ****   }
 624              		.loc 1 183 5 is_stmt 1 view .LVU151
 183:lib/TinyUSB/src/tusb.c ****   }
 625              		.loc 1 183 17 is_stmt 0 view .LVU152
 626 0002 0378     		ldrb	r3, [r0]	@ zero_extendqisi2
 183:lib/TinyUSB/src/tusb.c ****   }
 627              		.loc 1 183 10 view .LVU153
 628 0004 1844     		add	r0, r0, r3
 629              	.LVL52:
 630              	.L67:
 179:lib/TinyUSB/src/tusb.c ****     if (desc[1] == byte1) {
 631              		.loc 1 179 9 is_stmt 1 view .LVU154
 179:lib/TinyUSB/src/tusb.c ****     if (desc[1] == byte1) {
 632              		.loc 1 179 15 is_stmt 0 view .LVU155
 633 0006 431C     		adds	r3, r0, #1
 179:lib/TinyUSB/src/tusb.c ****     if (desc[1] == byte1) {
 634              		.loc 1 179 9 view .LVU156
 635 0008 8B42     		cmp	r3, r1
 636 000a 03D2     		bcs	.L71
 180:lib/TinyUSB/src/tusb.c ****       return desc;
 637              		.loc 1 180 5 is_stmt 1 view .LVU157
 180:lib/TinyUSB/src/tusb.c ****       return desc;
 638              		.loc 1 180 13 is_stmt 0 view .LVU158
 639 000c 4378     		ldrb	r3, [r0, #1]	@ zero_extendqisi2
 180:lib/TinyUSB/src/tusb.c ****       return desc;
 640              		.loc 1 180 8 view .LVU159
 641 000e 9342     		cmp	r3, r2
 642 0010 F7D1     		bne	.L72
 643 0012 00E0     		b	.L66
 644              	.L71:
 185:lib/TinyUSB/src/tusb.c **** }
 645              		.loc 1 185 10 view .LVU160
 646 0014 0020     		movs	r0, #0
 647              	.LVL53:
 648              	.L66:
 186:lib/TinyUSB/src/tusb.c **** 
 649              		.loc 1 186 1 view .LVU161
 650 0016 7047     		bx	lr
 651              		.cfi_endproc
 652              	.LFE117:
 654              		.section	.text.tu_desc_find2,"ax",%progbits
 655              		.align	1
ARM GAS  C:\Users\krisa\AppData\Local\Temp\ccuohWpS.s 			page 21


 656              		.global	tu_desc_find2
 657              		.syntax unified
 658              		.thumb
 659              		.thumb_func
 661              	tu_desc_find2:
 662              	.LVL54:
 663              	.LFB118:
 188:lib/TinyUSB/src/tusb.c ****   while (desc + 2 < end) {
 664              		.loc 1 188 101 is_stmt 1 view -0
 665              		.cfi_startproc
 666              		@ args = 0, pretend = 0, frame = 0
 667              		@ frame_needed = 0, uses_anonymous_args = 0
 668              		@ link register save eliminated.
 189:lib/TinyUSB/src/tusb.c ****     if (desc[1] == byte1 && desc[2] == byte2) {
 669              		.loc 1 189 3 view .LVU163
 189:lib/TinyUSB/src/tusb.c ****     if (desc[1] == byte1 && desc[2] == byte2) {
 670              		.loc 1 189 9 is_stmt 0 view .LVU164
 671 0000 02E0     		b	.L74
 672              	.L75:
 193:lib/TinyUSB/src/tusb.c ****   }
 673              		.loc 1 193 5 is_stmt 1 view .LVU165
 193:lib/TinyUSB/src/tusb.c ****   }
 674              		.loc 1 193 17 is_stmt 0 view .LVU166
 675 0002 90F800C0 		ldrb	ip, [r0]	@ zero_extendqisi2
 193:lib/TinyUSB/src/tusb.c ****   }
 676              		.loc 1 193 10 view .LVU167
 677 0006 6044     		add	r0, r0, ip
 678              	.LVL55:
 679              	.L74:
 189:lib/TinyUSB/src/tusb.c ****     if (desc[1] == byte1 && desc[2] == byte2) {
 680              		.loc 1 189 9 is_stmt 1 view .LVU168
 189:lib/TinyUSB/src/tusb.c ****     if (desc[1] == byte1 && desc[2] == byte2) {
 681              		.loc 1 189 15 is_stmt 0 view .LVU169
 682 0008 00F1020C 		add	ip, r0, #2
 189:lib/TinyUSB/src/tusb.c ****     if (desc[1] == byte1 && desc[2] == byte2) {
 683              		.loc 1 189 9 view .LVU170
 684 000c 8C45     		cmp	ip, r1
 685 000e 08D2     		bcs	.L79
 190:lib/TinyUSB/src/tusb.c ****       return desc;
 686              		.loc 1 190 5 is_stmt 1 view .LVU171
 190:lib/TinyUSB/src/tusb.c ****       return desc;
 687              		.loc 1 190 13 is_stmt 0 view .LVU172
 688 0010 90F801C0 		ldrb	ip, [r0, #1]	@ zero_extendqisi2
 190:lib/TinyUSB/src/tusb.c ****       return desc;
 689              		.loc 1 190 8 view .LVU173
 690 0014 9445     		cmp	ip, r2
 691 0016 F4D1     		bne	.L75
 190:lib/TinyUSB/src/tusb.c ****       return desc;
 692              		.loc 1 190 33 discriminator 1 view .LVU174
 693 0018 90F802C0 		ldrb	ip, [r0, #2]	@ zero_extendqisi2
 190:lib/TinyUSB/src/tusb.c ****       return desc;
 694              		.loc 1 190 26 discriminator 1 view .LVU175
 695 001c 9C45     		cmp	ip, r3
 696 001e F0D1     		bne	.L75
 697 0020 00E0     		b	.L73
 698              	.L79:
 195:lib/TinyUSB/src/tusb.c **** }
ARM GAS  C:\Users\krisa\AppData\Local\Temp\ccuohWpS.s 			page 22


 699              		.loc 1 195 10 view .LVU176
 700 0022 0020     		movs	r0, #0
 701              	.LVL56:
 702              	.L73:
 196:lib/TinyUSB/src/tusb.c **** 
 703              		.loc 1 196 1 view .LVU177
 704 0024 7047     		bx	lr
 705              		.cfi_endproc
 706              	.LFE118:
 708              		.section	.text.tu_desc_find3,"ax",%progbits
 709              		.align	1
 710              		.global	tu_desc_find3
 711              		.syntax unified
 712              		.thumb
 713              		.thumb_func
 715              	tu_desc_find3:
 716              	.LVL57:
 717              	.LFB119:
 198:lib/TinyUSB/src/tusb.c ****   while (desc + 3 < end) {
 718              		.loc 1 198 116 is_stmt 1 view -0
 719              		.cfi_startproc
 720              		@ args = 4, pretend = 0, frame = 0
 721              		@ frame_needed = 0, uses_anonymous_args = 0
 198:lib/TinyUSB/src/tusb.c ****   while (desc + 3 < end) {
 722              		.loc 1 198 116 is_stmt 0 view .LVU179
 723 0000 00B5     		push	{lr}
 724              	.LCFI15:
 725              		.cfi_def_cfa_offset 4
 726              		.cfi_offset 14, -4
 727 0002 9DF804E0 		ldrb	lr, [sp, #4]	@ zero_extendqisi2
 199:lib/TinyUSB/src/tusb.c ****     if (desc[1] == byte1 && desc[2] == byte2 && desc[3] == byte3) {
 728              		.loc 1 199 3 is_stmt 1 view .LVU180
 199:lib/TinyUSB/src/tusb.c ****     if (desc[1] == byte1 && desc[2] == byte2 && desc[3] == byte3) {
 729              		.loc 1 199 9 is_stmt 0 view .LVU181
 730 0006 02E0     		b	.L81
 731              	.L82:
 203:lib/TinyUSB/src/tusb.c ****   }
 732              		.loc 1 203 5 is_stmt 1 view .LVU182
 203:lib/TinyUSB/src/tusb.c ****   }
 733              		.loc 1 203 17 is_stmt 0 view .LVU183
 734 0008 90F800C0 		ldrb	ip, [r0]	@ zero_extendqisi2
 203:lib/TinyUSB/src/tusb.c ****   }
 735              		.loc 1 203 10 view .LVU184
 736 000c 6044     		add	r0, r0, ip
 737              	.LVL58:
 738              	.L81:
 199:lib/TinyUSB/src/tusb.c ****     if (desc[1] == byte1 && desc[2] == byte2 && desc[3] == byte3) {
 739              		.loc 1 199 9 is_stmt 1 view .LVU185
 199:lib/TinyUSB/src/tusb.c ****     if (desc[1] == byte1 && desc[2] == byte2 && desc[3] == byte3) {
 740              		.loc 1 199 15 is_stmt 0 view .LVU186
 741 000e 00F1030C 		add	ip, r0, #3
 199:lib/TinyUSB/src/tusb.c ****     if (desc[1] == byte1 && desc[2] == byte2 && desc[3] == byte3) {
 742              		.loc 1 199 9 view .LVU187
 743 0012 8C45     		cmp	ip, r1
 744 0014 0CD2     		bcs	.L87
 200:lib/TinyUSB/src/tusb.c ****       return desc;
 745              		.loc 1 200 5 is_stmt 1 view .LVU188
ARM GAS  C:\Users\krisa\AppData\Local\Temp\ccuohWpS.s 			page 23


 200:lib/TinyUSB/src/tusb.c ****       return desc;
 746              		.loc 1 200 13 is_stmt 0 view .LVU189
 747 0016 90F801C0 		ldrb	ip, [r0, #1]	@ zero_extendqisi2
 200:lib/TinyUSB/src/tusb.c ****       return desc;
 748              		.loc 1 200 8 view .LVU190
 749 001a 9445     		cmp	ip, r2
 750 001c F4D1     		bne	.L82
 200:lib/TinyUSB/src/tusb.c ****       return desc;
 751              		.loc 1 200 33 discriminator 1 view .LVU191
 752 001e 90F802C0 		ldrb	ip, [r0, #2]	@ zero_extendqisi2
 200:lib/TinyUSB/src/tusb.c ****       return desc;
 753              		.loc 1 200 26 discriminator 1 view .LVU192
 754 0022 9C45     		cmp	ip, r3
 755 0024 F0D1     		bne	.L82
 200:lib/TinyUSB/src/tusb.c ****       return desc;
 756              		.loc 1 200 53 discriminator 2 view .LVU193
 757 0026 90F803C0 		ldrb	ip, [r0, #3]	@ zero_extendqisi2
 200:lib/TinyUSB/src/tusb.c ****       return desc;
 758              		.loc 1 200 46 discriminator 2 view .LVU194
 759 002a F445     		cmp	ip, lr
 760 002c ECD1     		bne	.L82
 761 002e 00E0     		b	.L80
 762              	.L87:
 205:lib/TinyUSB/src/tusb.c **** }
 763              		.loc 1 205 10 view .LVU195
 764 0030 0020     		movs	r0, #0
 765              	.LVL59:
 766              	.L80:
 206:lib/TinyUSB/src/tusb.c **** 
 767              		.loc 1 206 1 view .LVU196
 768 0032 5DF804FB 		ldr	pc, [sp], #4
 206:lib/TinyUSB/src/tusb.c **** 
 769              		.loc 1 206 1 view .LVU197
 770              		.cfi_endproc
 771              	.LFE119:
 773              		.section	.text.tu_edpt_claim,"ax",%progbits
 774              		.align	1
 775              		.global	tu_edpt_claim
 776              		.syntax unified
 777              		.thumb
 778              		.thumb_func
 780              	tu_edpt_claim:
 781              	.LVL60:
 782              	.LFB120:
 212:lib/TinyUSB/src/tusb.c ****   (void) mutex;
 783              		.loc 1 212 67 is_stmt 1 view -0
 784              		.cfi_startproc
 785              		@ args = 0, pretend = 0, frame = 0
 786              		@ frame_needed = 0, uses_anonymous_args = 0
 787              		@ link register save eliminated.
 212:lib/TinyUSB/src/tusb.c ****   (void) mutex;
 788              		.loc 1 212 67 is_stmt 0 view .LVU199
 789 0000 0246     		mov	r2, r0
 213:lib/TinyUSB/src/tusb.c **** 
 790              		.loc 1 213 3 is_stmt 1 view .LVU200
 216:lib/TinyUSB/src/tusb.c ****   TU_VERIFY(ep_state->claimed == 0);
 791              		.loc 1 216 3 view .LVU201
ARM GAS  C:\Users\krisa\AppData\Local\Temp\ccuohWpS.s 			page 24


 216:lib/TinyUSB/src/tusb.c ****   TU_VERIFY(ep_state->claimed == 0);
 792              		.loc 1 216 3 view .LVU202
 793 0002 0378     		ldrb	r3, [r0]	@ zero_extendqisi2
 794 0004 13F00100 		ands	r0, r3, #1
 795              	.LVL61:
 216:lib/TinyUSB/src/tusb.c ****   TU_VERIFY(ep_state->claimed == 0);
 796              		.loc 1 216 3 is_stmt 0 view .LVU203
 797 0008 17D1     		bne	.L91
 216:lib/TinyUSB/src/tusb.c ****   TU_VERIFY(ep_state->claimed == 0);
 798              		.loc 1 216 3 is_stmt 1 discriminator 2 view .LVU204
 217:lib/TinyUSB/src/tusb.c ****   (void) osal_mutex_lock(mutex, OSAL_TIMEOUT_WAIT_FOREVER);
 799              		.loc 1 217 3 discriminator 2 view .LVU205
 217:lib/TinyUSB/src/tusb.c ****   (void) osal_mutex_lock(mutex, OSAL_TIMEOUT_WAIT_FOREVER);
 800              		.loc 1 217 3 discriminator 2 view .LVU206
 801 000a 1378     		ldrb	r3, [r2]	@ zero_extendqisi2
 802 000c 13F0040F 		tst	r3, #4
 803 0010 14D1     		bne	.L89
 217:lib/TinyUSB/src/tusb.c ****   (void) osal_mutex_lock(mutex, OSAL_TIMEOUT_WAIT_FOREVER);
 804              		.loc 1 217 3 discriminator 2 view .LVU207
 218:lib/TinyUSB/src/tusb.c **** 
 805              		.loc 1 218 3 discriminator 2 view .LVU208
 221:lib/TinyUSB/src/tusb.c ****   if (available) {
 806              		.loc 1 221 3 discriminator 2 view .LVU209
 221:lib/TinyUSB/src/tusb.c ****   if (available) {
 807              		.loc 1 221 35 is_stmt 0 discriminator 2 view .LVU210
 808 0012 1378     		ldrb	r3, [r2]	@ zero_extendqisi2
 221:lib/TinyUSB/src/tusb.c ****   if (available) {
 809              		.loc 1 221 48 discriminator 2 view .LVU211
 810 0014 13F0010F 		tst	r3, #1
 811 0018 05D1     		bne	.L92
 221:lib/TinyUSB/src/tusb.c ****   if (available) {
 812              		.loc 1 221 60 discriminator 1 view .LVU212
 813 001a 1378     		ldrb	r3, [r2]	@ zero_extendqisi2
 221:lib/TinyUSB/src/tusb.c ****   if (available) {
 814              		.loc 1 221 48 discriminator 1 view .LVU213
 815 001c 13F0040F 		tst	r3, #4
 816 0020 09D0     		beq	.L93
 221:lib/TinyUSB/src/tusb.c ****   if (available) {
 817              		.loc 1 221 48 view .LVU214
 818 0022 0023     		movs	r3, #0
 819 0024 00E0     		b	.L90
 820              	.L92:
 821 0026 0023     		movs	r3, #0
 822              	.L90:
 823              	.LVL62:
 222:lib/TinyUSB/src/tusb.c ****     ep_state->claimed = 1;
 824              		.loc 1 222 3 is_stmt 1 discriminator 6 view .LVU215
 222:lib/TinyUSB/src/tusb.c ****     ep_state->claimed = 1;
 825              		.loc 1 222 6 is_stmt 0 discriminator 6 view .LVU216
 826 0028 1846     		mov	r0, r3
 827 002a 3BB1     		cbz	r3, .L89
 223:lib/TinyUSB/src/tusb.c ****   }
 828              		.loc 1 223 5 is_stmt 1 view .LVU217
 223:lib/TinyUSB/src/tusb.c ****   }
 829              		.loc 1 223 23 is_stmt 0 view .LVU218
 830 002c 1378     		ldrb	r3, [r2]	@ zero_extendqisi2
 831              	.LVL63:
ARM GAS  C:\Users\krisa\AppData\Local\Temp\ccuohWpS.s 			page 25


 223:lib/TinyUSB/src/tusb.c ****   }
 832              		.loc 1 223 23 view .LVU219
 833 002e 43F00403 		orr	r3, r3, #4
 834 0032 1370     		strb	r3, [r2]
 835 0034 7047     		bx	lr
 836              	.L93:
 221:lib/TinyUSB/src/tusb.c ****   if (available) {
 837              		.loc 1 221 48 view .LVU220
 838 0036 0123     		movs	r3, #1
 839 0038 F6E7     		b	.L90
 840              	.L91:
 216:lib/TinyUSB/src/tusb.c ****   TU_VERIFY(ep_state->claimed == 0);
 841              		.loc 1 216 3 view .LVU221
 842 003a 0020     		movs	r0, #0
 843              	.L89:
 228:lib/TinyUSB/src/tusb.c **** 
 844              		.loc 1 228 1 view .LVU222
 845 003c 7047     		bx	lr
 846              		.cfi_endproc
 847              	.LFE120:
 849              		.section	.text.tu_edpt_release,"ax",%progbits
 850              		.align	1
 851              		.global	tu_edpt_release
 852              		.syntax unified
 853              		.thumb
 854              		.thumb_func
 856              	tu_edpt_release:
 857              	.LVL64:
 858              	.LFB121:
 230:lib/TinyUSB/src/tusb.c ****   (void) mutex;
 859              		.loc 1 230 69 is_stmt 1 view -0
 860              		.cfi_startproc
 861              		@ args = 0, pretend = 0, frame = 0
 862              		@ frame_needed = 0, uses_anonymous_args = 0
 863              		@ link register save eliminated.
 230:lib/TinyUSB/src/tusb.c ****   (void) mutex;
 864              		.loc 1 230 69 is_stmt 0 view .LVU224
 865 0000 0346     		mov	r3, r0
 231:lib/TinyUSB/src/tusb.c ****   (void) osal_mutex_lock(mutex, OSAL_TIMEOUT_WAIT_FOREVER);
 866              		.loc 1 231 3 is_stmt 1 view .LVU225
 232:lib/TinyUSB/src/tusb.c **** 
 867              		.loc 1 232 3 view .LVU226
 235:lib/TinyUSB/src/tusb.c ****   if (ret) {
 868              		.loc 1 235 3 view .LVU227
 235:lib/TinyUSB/src/tusb.c ****   if (ret) {
 869              		.loc 1 235 29 is_stmt 0 view .LVU228
 870 0002 0278     		ldrb	r2, [r0]	@ zero_extendqisi2
 235:lib/TinyUSB/src/tusb.c ****   if (ret) {
 871              		.loc 1 235 45 view .LVU229
 872 0004 12F0040F 		tst	r2, #4
 873 0008 07D1     		bne	.L99
 874 000a 0022     		movs	r2, #0
 875              	.L95:
 876              	.LVL65:
 236:lib/TinyUSB/src/tusb.c ****     ep_state->claimed = 0;
 877              		.loc 1 236 3 is_stmt 1 discriminator 6 view .LVU230
 236:lib/TinyUSB/src/tusb.c ****     ep_state->claimed = 0;
ARM GAS  C:\Users\krisa\AppData\Local\Temp\ccuohWpS.s 			page 26


 878              		.loc 1 236 6 is_stmt 0 discriminator 6 view .LVU231
 879 000c 1046     		mov	r0, r2
 880              	.LVL66:
 236:lib/TinyUSB/src/tusb.c ****     ep_state->claimed = 0;
 881              		.loc 1 236 6 discriminator 6 view .LVU232
 882 000e 1AB1     		cbz	r2, .L96
 237:lib/TinyUSB/src/tusb.c ****   }
 883              		.loc 1 237 5 is_stmt 1 view .LVU233
 237:lib/TinyUSB/src/tusb.c ****   }
 884              		.loc 1 237 23 is_stmt 0 view .LVU234
 885 0010 1A78     		ldrb	r2, [r3]	@ zero_extendqisi2
 886              	.LVL67:
 237:lib/TinyUSB/src/tusb.c ****   }
 887              		.loc 1 237 23 view .LVU235
 888 0012 6FF38202 		bfc	r2, #2, #1
 889 0016 1A70     		strb	r2, [r3]
 890              	.L96:
 240:lib/TinyUSB/src/tusb.c ****   return ret;
 891              		.loc 1 240 3 is_stmt 1 view .LVU236
 241:lib/TinyUSB/src/tusb.c **** }
 892              		.loc 1 241 3 view .LVU237
 242:lib/TinyUSB/src/tusb.c **** 
 893              		.loc 1 242 1 is_stmt 0 view .LVU238
 894 0018 7047     		bx	lr
 895              	.LVL68:
 896              	.L99:
 235:lib/TinyUSB/src/tusb.c ****   if (ret) {
 897              		.loc 1 235 57 discriminator 1 view .LVU239
 898 001a 0278     		ldrb	r2, [r0]	@ zero_extendqisi2
 235:lib/TinyUSB/src/tusb.c ****   if (ret) {
 899              		.loc 1 235 45 discriminator 1 view .LVU240
 900 001c 12F0010F 		tst	r2, #1
 901 0020 01D0     		beq	.L98
 235:lib/TinyUSB/src/tusb.c ****   if (ret) {
 902              		.loc 1 235 45 view .LVU241
 903 0022 0022     		movs	r2, #0
 904 0024 F2E7     		b	.L95
 905              	.L98:
 906 0026 0122     		movs	r2, #1
 907 0028 F0E7     		b	.L95
 908              		.cfi_endproc
 909              	.LFE121:
 911              		.section	.text.tu_bind_driver_to_ep_itf,"ax",%progbits
 912              		.align	1
 913              		.global	tu_bind_driver_to_ep_itf
 914              		.syntax unified
 915              		.thumb
 916              		.thumb_func
 918              	tu_bind_driver_to_ep_itf:
 919              	.LVL69:
 920              	.LFB122:
 281:lib/TinyUSB/src/tusb.c ****   const uint8_t *desc_end = p_desc + desc_len;
 921              		.loc 1 281 73 is_stmt 1 view -0
 922              		.cfi_startproc
 923              		@ args = 8, pretend = 0, frame = 0
 924              		@ frame_needed = 0, uses_anonymous_args = 0
 281:lib/TinyUSB/src/tusb.c ****   const uint8_t *desc_end = p_desc + desc_len;
ARM GAS  C:\Users\krisa\AppData\Local\Temp\ccuohWpS.s 			page 27


 925              		.loc 1 281 73 is_stmt 0 view .LVU243
 926 0000 30B5     		push	{r4, r5, lr}
 927              	.LCFI16:
 928              		.cfi_def_cfa_offset 12
 929              		.cfi_offset 4, -12
 930              		.cfi_offset 5, -8
 931              		.cfi_offset 14, -4
 932 0002 039C     		ldr	r4, [sp, #12]
 282:lib/TinyUSB/src/tusb.c ****   while (tu_desc_in_bounds(p_desc, desc_end)) {
 933              		.loc 1 282 3 is_stmt 1 view .LVU244
 282:lib/TinyUSB/src/tusb.c ****   while (tu_desc_in_bounds(p_desc, desc_end)) {
 934              		.loc 1 282 18 is_stmt 0 view .LVU245
 935 0004 BDF810E0 		ldrh	lr, [sp, #16]
 936 0008 A644     		add	lr, lr, r4
 937              	.LVL70:
 283:lib/TinyUSB/src/tusb.c ****     const uint8_t desc_type = tu_desc_type(p_desc);
 938              		.loc 1 283 3 is_stmt 1 view .LVU246
 283:lib/TinyUSB/src/tusb.c ****     const uint8_t desc_type = tu_desc_type(p_desc);
 939              		.loc 1 283 9 is_stmt 0 view .LVU247
 940 000a 25E0     		b	.L101
 941              	.LVL71:
 942              	.L114:
 943              	.LBB81:
 944              	.LBB82:
 287:lib/TinyUSB/src/tusb.c ****       const uint8_t ep_num   = tu_edpt_number(ep_addr);
 945              		.loc 1 287 7 is_stmt 1 view .LVU248
 287:lib/TinyUSB/src/tusb.c ****       const uint8_t ep_num   = tu_edpt_number(ep_addr);
 946              		.loc 1 287 21 is_stmt 0 view .LVU249
 947 000c A578     		ldrb	r5, [r4, #2]	@ zero_extendqisi2
 948              	.LVL72:
 288:lib/TinyUSB/src/tusb.c ****       const uint8_t ep_dir   = tu_edpt_dir(ep_addr);
 949              		.loc 1 288 7 is_stmt 1 view .LVU250
 950              	.LBB83:
 951              	.LBI83:
 952              		.file 2 "lib/TinyUSB/src/common/tusb_types.h"
   1:lib/TinyUSB/src/common/tusb_types.h **** /*
   2:lib/TinyUSB/src/common/tusb_types.h ****  * The MIT License (MIT)
   3:lib/TinyUSB/src/common/tusb_types.h ****  *
   4:lib/TinyUSB/src/common/tusb_types.h ****  * Copyright (c) 2019 Ha Thach (tinyusb.org)
   5:lib/TinyUSB/src/common/tusb_types.h ****  *
   6:lib/TinyUSB/src/common/tusb_types.h ****  * Permission is hereby granted, free of charge, to any person obtaining a copy
   7:lib/TinyUSB/src/common/tusb_types.h ****  * of this software and associated documentation files (the "Software"), to deal
   8:lib/TinyUSB/src/common/tusb_types.h ****  * in the Software without restriction, including without limitation the rights
   9:lib/TinyUSB/src/common/tusb_types.h ****  * to use, copy, modify, merge, publish, distribute, sublicense, and/or sell
  10:lib/TinyUSB/src/common/tusb_types.h ****  * copies of the Software, and to permit persons to whom the Software is
  11:lib/TinyUSB/src/common/tusb_types.h ****  * furnished to do so, subject to the following conditions:
  12:lib/TinyUSB/src/common/tusb_types.h ****  *
  13:lib/TinyUSB/src/common/tusb_types.h ****  * The above copyright notice and this permission notice shall be included in
  14:lib/TinyUSB/src/common/tusb_types.h ****  * all copies or substantial portions of the Software.
  15:lib/TinyUSB/src/common/tusb_types.h ****  *
  16:lib/TinyUSB/src/common/tusb_types.h ****  * THE SOFTWARE IS PROVIDED "AS IS", WITHOUT WARRANTY OF ANY KIND, EXPRESS OR
  17:lib/TinyUSB/src/common/tusb_types.h ****  * IMPLIED, INCLUDING BUT NOT LIMITED TO THE WARRANTIES OF MERCHANTABILITY,
  18:lib/TinyUSB/src/common/tusb_types.h ****  * FITNESS FOR A PARTICULAR PURPOSE AND NONINFRINGEMENT. IN NO EVENT SHALL THE
  19:lib/TinyUSB/src/common/tusb_types.h ****  * AUTHORS OR COPYRIGHT HOLDERS BE LIABLE FOR ANY CLAIM, DAMAGES OR OTHER
  20:lib/TinyUSB/src/common/tusb_types.h ****  * LIABILITY, WHETHER IN AN ACTION OF CONTRACT, TORT OR OTHERWISE, ARISING FROM,
  21:lib/TinyUSB/src/common/tusb_types.h ****  * OUT OF OR IN CONNECTION WITH THE SOFTWARE OR THE USE OR OTHER DEALINGS IN
  22:lib/TinyUSB/src/common/tusb_types.h ****  * THE SOFTWARE.
ARM GAS  C:\Users\krisa\AppData\Local\Temp\ccuohWpS.s 			page 28


  23:lib/TinyUSB/src/common/tusb_types.h ****  *
  24:lib/TinyUSB/src/common/tusb_types.h ****  * This file is part of the TinyUSB stack.
  25:lib/TinyUSB/src/common/tusb_types.h ****  */
  26:lib/TinyUSB/src/common/tusb_types.h **** 
  27:lib/TinyUSB/src/common/tusb_types.h **** #ifndef TUSB_TYPES_H_
  28:lib/TinyUSB/src/common/tusb_types.h **** #define TUSB_TYPES_H_
  29:lib/TinyUSB/src/common/tusb_types.h **** 
  30:lib/TinyUSB/src/common/tusb_types.h **** #include <stdbool.h>
  31:lib/TinyUSB/src/common/tusb_types.h **** #include <stdint.h>
  32:lib/TinyUSB/src/common/tusb_types.h **** #include "tusb_compiler.h"
  33:lib/TinyUSB/src/common/tusb_types.h **** 
  34:lib/TinyUSB/src/common/tusb_types.h **** #ifdef __cplusplus
  35:lib/TinyUSB/src/common/tusb_types.h ****  extern "C" {
  36:lib/TinyUSB/src/common/tusb_types.h **** #endif
  37:lib/TinyUSB/src/common/tusb_types.h **** 
  38:lib/TinyUSB/src/common/tusb_types.h **** //------------- Device DCache declaration -------------//
  39:lib/TinyUSB/src/common/tusb_types.h **** #define TUD_EPBUF_DCACHE_SIZE(_size) (CFG_TUD_MEM_DCACHE_ENABLE ? \
  40:lib/TinyUSB/src/common/tusb_types.h ****   (TU_DIV_CEIL(_size, CFG_TUD_MEM_DCACHE_LINE_SIZE) * CFG_TUD_MEM_DCACHE_LINE_SIZE) : (_size))
  41:lib/TinyUSB/src/common/tusb_types.h **** 
  42:lib/TinyUSB/src/common/tusb_types.h **** // Declare an endpoint buffer with uint8_t[size]
  43:lib/TinyUSB/src/common/tusb_types.h **** #define TUD_EPBUF_DEF(_name, _size) \
  44:lib/TinyUSB/src/common/tusb_types.h ****   union { \
  45:lib/TinyUSB/src/common/tusb_types.h ****     CFG_TUD_MEM_ALIGN uint8_t _name[_size]; \
  46:lib/TinyUSB/src/common/tusb_types.h ****     TU_ATTR_ALIGNED(CFG_TUD_MEM_DCACHE_ENABLE ? CFG_TUD_MEM_DCACHE_LINE_SIZE : 1) uint8_t _name##_d
  47:lib/TinyUSB/src/common/tusb_types.h ****   }
  48:lib/TinyUSB/src/common/tusb_types.h **** 
  49:lib/TinyUSB/src/common/tusb_types.h **** // Declare an endpoint buffer with a type
  50:lib/TinyUSB/src/common/tusb_types.h **** #define TUD_EPBUF_TYPE_DEF(_type, _name) \
  51:lib/TinyUSB/src/common/tusb_types.h ****   union { \
  52:lib/TinyUSB/src/common/tusb_types.h ****     CFG_TUD_MEM_ALIGN _type _name; \
  53:lib/TinyUSB/src/common/tusb_types.h ****     TU_ATTR_ALIGNED(CFG_TUD_MEM_DCACHE_ENABLE ? CFG_TUD_MEM_DCACHE_LINE_SIZE : 1) uint8_t _name##_d
  54:lib/TinyUSB/src/common/tusb_types.h ****   }
  55:lib/TinyUSB/src/common/tusb_types.h **** 
  56:lib/TinyUSB/src/common/tusb_types.h **** //------------- Host DCache declaration -------------//
  57:lib/TinyUSB/src/common/tusb_types.h **** #define TUH_EPBUF_DCACHE_SIZE(_size) (CFG_TUH_MEM_DCACHE_ENABLE ? \
  58:lib/TinyUSB/src/common/tusb_types.h ****   (TU_DIV_CEIL(_size, CFG_TUH_MEM_DCACHE_LINE_SIZE) * CFG_TUH_MEM_DCACHE_LINE_SIZE) : (_size))
  59:lib/TinyUSB/src/common/tusb_types.h **** 
  60:lib/TinyUSB/src/common/tusb_types.h **** // Declare an endpoint buffer with uint8_t[size]
  61:lib/TinyUSB/src/common/tusb_types.h **** #define TUH_EPBUF_DEF(_name, _size) \
  62:lib/TinyUSB/src/common/tusb_types.h ****   union { \
  63:lib/TinyUSB/src/common/tusb_types.h ****     CFG_TUH_MEM_ALIGN uint8_t _name[_size]; \
  64:lib/TinyUSB/src/common/tusb_types.h ****     TU_ATTR_ALIGNED(CFG_TUH_MEM_DCACHE_ENABLE ? CFG_TUH_MEM_DCACHE_LINE_SIZE : 1) uint8_t _name##_d
  65:lib/TinyUSB/src/common/tusb_types.h ****   }
  66:lib/TinyUSB/src/common/tusb_types.h **** 
  67:lib/TinyUSB/src/common/tusb_types.h **** // Declare an endpoint buffer with a type
  68:lib/TinyUSB/src/common/tusb_types.h **** #define TUH_EPBUF_TYPE_DEF(_type, _name) \
  69:lib/TinyUSB/src/common/tusb_types.h ****   union { \
  70:lib/TinyUSB/src/common/tusb_types.h ****     CFG_TUH_MEM_ALIGN _type _name; \
  71:lib/TinyUSB/src/common/tusb_types.h ****     TU_ATTR_ALIGNED(CFG_TUH_MEM_DCACHE_ENABLE ? CFG_TUH_MEM_DCACHE_LINE_SIZE : 1) uint8_t _name##_d
  72:lib/TinyUSB/src/common/tusb_types.h ****   }
  73:lib/TinyUSB/src/common/tusb_types.h **** 
  74:lib/TinyUSB/src/common/tusb_types.h **** 
  75:lib/TinyUSB/src/common/tusb_types.h **** /*------------------------------------------------------------------*/
  76:lib/TinyUSB/src/common/tusb_types.h **** /* CONSTANTS
  77:lib/TinyUSB/src/common/tusb_types.h ****  *------------------------------------------------------------------*/
  78:lib/TinyUSB/src/common/tusb_types.h **** 
  79:lib/TinyUSB/src/common/tusb_types.h **** typedef enum {
ARM GAS  C:\Users\krisa\AppData\Local\Temp\ccuohWpS.s 			page 29


  80:lib/TinyUSB/src/common/tusb_types.h ****   TUSB_ROLE_INVALID = 0u,
  81:lib/TinyUSB/src/common/tusb_types.h ****   TUSB_ROLE_DEVICE  = 0x1,
  82:lib/TinyUSB/src/common/tusb_types.h ****   TUSB_ROLE_HOST    = 0x2,
  83:lib/TinyUSB/src/common/tusb_types.h **** } tusb_role_t;
  84:lib/TinyUSB/src/common/tusb_types.h **** 
  85:lib/TinyUSB/src/common/tusb_types.h **** /// defined base on EHCI specs value for Endpoint Speed
  86:lib/TinyUSB/src/common/tusb_types.h **** typedef enum {
  87:lib/TinyUSB/src/common/tusb_types.h ****   TUSB_SPEED_FULL = 0,
  88:lib/TinyUSB/src/common/tusb_types.h ****   TUSB_SPEED_LOW  = 1,
  89:lib/TinyUSB/src/common/tusb_types.h ****   TUSB_SPEED_HIGH = 2,
  90:lib/TinyUSB/src/common/tusb_types.h ****   TUSB_SPEED_AUTO = 0xaa,
  91:lib/TinyUSB/src/common/tusb_types.h ****   TUSB_SPEED_INVALID = 0xff,
  92:lib/TinyUSB/src/common/tusb_types.h **** } tusb_speed_t;
  93:lib/TinyUSB/src/common/tusb_types.h **** 
  94:lib/TinyUSB/src/common/tusb_types.h **** /// defined base on USB Specs Endpoint's bmAttributes
  95:lib/TinyUSB/src/common/tusb_types.h **** typedef enum {
  96:lib/TinyUSB/src/common/tusb_types.h ****   TUSB_XFER_CONTROL     = 0,
  97:lib/TinyUSB/src/common/tusb_types.h ****   TUSB_XFER_ISOCHRONOUS = 1,
  98:lib/TinyUSB/src/common/tusb_types.h ****   TUSB_XFER_BULK        = 2,
  99:lib/TinyUSB/src/common/tusb_types.h ****   TUSB_XFER_INTERRUPT   = 3
 100:lib/TinyUSB/src/common/tusb_types.h **** } tusb_xfer_type_t;
 101:lib/TinyUSB/src/common/tusb_types.h **** 
 102:lib/TinyUSB/src/common/tusb_types.h **** typedef enum {
 103:lib/TinyUSB/src/common/tusb_types.h ****   TUSB_DIR_OUT = 0,
 104:lib/TinyUSB/src/common/tusb_types.h ****   TUSB_DIR_IN  = 1,
 105:lib/TinyUSB/src/common/tusb_types.h **** 
 106:lib/TinyUSB/src/common/tusb_types.h ****   TUSB_EPNUM_MASK = 0x0F,
 107:lib/TinyUSB/src/common/tusb_types.h ****   TUSB_DIR_IN_MASK = 0x80
 108:lib/TinyUSB/src/common/tusb_types.h **** } tusb_dir_t;
 109:lib/TinyUSB/src/common/tusb_types.h **** 
 110:lib/TinyUSB/src/common/tusb_types.h **** enum {
 111:lib/TinyUSB/src/common/tusb_types.h ****   TUSB_EPSIZE_BULK_FS = 64,
 112:lib/TinyUSB/src/common/tusb_types.h ****   TUSB_EPSIZE_BULK_HS = 512,
 113:lib/TinyUSB/src/common/tusb_types.h **** 
 114:lib/TinyUSB/src/common/tusb_types.h ****   TUSB_EPSIZE_ISO_FS_MAX = 1023,
 115:lib/TinyUSB/src/common/tusb_types.h ****   TUSB_EPSIZE_ISO_HS_MAX = 1024,
 116:lib/TinyUSB/src/common/tusb_types.h **** };
 117:lib/TinyUSB/src/common/tusb_types.h **** 
 118:lib/TinyUSB/src/common/tusb_types.h **** /// Isochronous Endpoint Attributes
 119:lib/TinyUSB/src/common/tusb_types.h **** typedef enum {
 120:lib/TinyUSB/src/common/tusb_types.h ****   TUSB_ISO_EP_ATT_NO_SYNC         = 0x00,
 121:lib/TinyUSB/src/common/tusb_types.h ****   TUSB_ISO_EP_ATT_ASYNCHRONOUS    = 0x04,
 122:lib/TinyUSB/src/common/tusb_types.h ****   TUSB_ISO_EP_ATT_ADAPTIVE        = 0x08,
 123:lib/TinyUSB/src/common/tusb_types.h ****   TUSB_ISO_EP_ATT_SYNCHRONOUS     = 0x0C,
 124:lib/TinyUSB/src/common/tusb_types.h ****   TUSB_ISO_EP_ATT_DATA            = 0x00, ///< Data End Point
 125:lib/TinyUSB/src/common/tusb_types.h ****   TUSB_ISO_EP_ATT_EXPLICIT_FB     = 0x10, ///< Feedback End Point
 126:lib/TinyUSB/src/common/tusb_types.h ****   TUSB_ISO_EP_ATT_IMPLICIT_FB     = 0x20, ///< Data endpoint that also serves as an implicit feedba
 127:lib/TinyUSB/src/common/tusb_types.h **** } tusb_iso_ep_attribute_t;
 128:lib/TinyUSB/src/common/tusb_types.h **** 
 129:lib/TinyUSB/src/common/tusb_types.h **** /// USB Descriptor Types
 130:lib/TinyUSB/src/common/tusb_types.h **** typedef enum {
 131:lib/TinyUSB/src/common/tusb_types.h ****   TUSB_DESC_DEVICE                = 0x01,
 132:lib/TinyUSB/src/common/tusb_types.h ****   TUSB_DESC_CONFIGURATION         = 0x02,
 133:lib/TinyUSB/src/common/tusb_types.h ****   TUSB_DESC_STRING                = 0x03,
 134:lib/TinyUSB/src/common/tusb_types.h ****   TUSB_DESC_INTERFACE             = 0x04,
 135:lib/TinyUSB/src/common/tusb_types.h ****   TUSB_DESC_ENDPOINT              = 0x05,
 136:lib/TinyUSB/src/common/tusb_types.h ****   TUSB_DESC_DEVICE_QUALIFIER      = 0x06,
ARM GAS  C:\Users\krisa\AppData\Local\Temp\ccuohWpS.s 			page 30


 137:lib/TinyUSB/src/common/tusb_types.h ****   TUSB_DESC_OTHER_SPEED_CONFIG    = 0x07,
 138:lib/TinyUSB/src/common/tusb_types.h ****   TUSB_DESC_INTERFACE_POWER       = 0x08,
 139:lib/TinyUSB/src/common/tusb_types.h ****   TUSB_DESC_OTG                   = 0x09,
 140:lib/TinyUSB/src/common/tusb_types.h ****   TUSB_DESC_DEBUG                 = 0x0A,
 141:lib/TinyUSB/src/common/tusb_types.h ****   TUSB_DESC_INTERFACE_ASSOCIATION = 0x0B,
 142:lib/TinyUSB/src/common/tusb_types.h **** 
 143:lib/TinyUSB/src/common/tusb_types.h ****   TUSB_DESC_BOS                   = 0x0F,
 144:lib/TinyUSB/src/common/tusb_types.h ****   TUSB_DESC_DEVICE_CAPABILITY     = 0x10,
 145:lib/TinyUSB/src/common/tusb_types.h **** 
 146:lib/TinyUSB/src/common/tusb_types.h ****   TUSB_DESC_FUNCTIONAL            = 0x21,
 147:lib/TinyUSB/src/common/tusb_types.h **** 
 148:lib/TinyUSB/src/common/tusb_types.h ****   // Class Specific Descriptor
 149:lib/TinyUSB/src/common/tusb_types.h ****   TUSB_DESC_CS_DEVICE             = 0x21,
 150:lib/TinyUSB/src/common/tusb_types.h ****   TUSB_DESC_CS_CONFIGURATION      = 0x22,
 151:lib/TinyUSB/src/common/tusb_types.h ****   TUSB_DESC_CS_STRING             = 0x23,
 152:lib/TinyUSB/src/common/tusb_types.h ****   TUSB_DESC_CS_INTERFACE          = 0x24,
 153:lib/TinyUSB/src/common/tusb_types.h ****   TUSB_DESC_CS_ENDPOINT           = 0x25,
 154:lib/TinyUSB/src/common/tusb_types.h **** 
 155:lib/TinyUSB/src/common/tusb_types.h ****   TUSB_DESC_SUPERSPEED_ENDPOINT_COMPANION     = 0x30,
 156:lib/TinyUSB/src/common/tusb_types.h ****   TUSB_DESC_SUPERSPEED_ISO_ENDPOINT_COMPANION = 0x31
 157:lib/TinyUSB/src/common/tusb_types.h **** } tusb_desc_type_t;
 158:lib/TinyUSB/src/common/tusb_types.h **** 
 159:lib/TinyUSB/src/common/tusb_types.h **** typedef enum {
 160:lib/TinyUSB/src/common/tusb_types.h ****   TUSB_REQ_GET_STATUS        = 0  ,
 161:lib/TinyUSB/src/common/tusb_types.h ****   TUSB_REQ_CLEAR_FEATURE     = 1  ,
 162:lib/TinyUSB/src/common/tusb_types.h ****   TUSB_REQ_RESERVED          = 2  ,
 163:lib/TinyUSB/src/common/tusb_types.h ****   TUSB_REQ_SET_FEATURE       = 3  ,
 164:lib/TinyUSB/src/common/tusb_types.h ****   TUSB_REQ_RESERVED2         = 4  ,
 165:lib/TinyUSB/src/common/tusb_types.h ****   TUSB_REQ_SET_ADDRESS       = 5  ,
 166:lib/TinyUSB/src/common/tusb_types.h ****   TUSB_REQ_GET_DESCRIPTOR    = 6  ,
 167:lib/TinyUSB/src/common/tusb_types.h ****   TUSB_REQ_SET_DESCRIPTOR    = 7  ,
 168:lib/TinyUSB/src/common/tusb_types.h ****   TUSB_REQ_GET_CONFIGURATION = 8  ,
 169:lib/TinyUSB/src/common/tusb_types.h ****   TUSB_REQ_SET_CONFIGURATION = 9  ,
 170:lib/TinyUSB/src/common/tusb_types.h ****   TUSB_REQ_GET_INTERFACE     = 10 ,
 171:lib/TinyUSB/src/common/tusb_types.h ****   TUSB_REQ_SET_INTERFACE     = 11 ,
 172:lib/TinyUSB/src/common/tusb_types.h ****   TUSB_REQ_SYNCH_FRAME       = 12
 173:lib/TinyUSB/src/common/tusb_types.h **** } tusb_request_code_t;
 174:lib/TinyUSB/src/common/tusb_types.h **** 
 175:lib/TinyUSB/src/common/tusb_types.h **** typedef enum {
 176:lib/TinyUSB/src/common/tusb_types.h ****   TUSB_REQ_FEATURE_EDPT_HALT     = 0,
 177:lib/TinyUSB/src/common/tusb_types.h ****   TUSB_REQ_FEATURE_REMOTE_WAKEUP = 1,
 178:lib/TinyUSB/src/common/tusb_types.h ****   TUSB_REQ_FEATURE_TEST_MODE     = 2
 179:lib/TinyUSB/src/common/tusb_types.h **** } tusb_request_feature_selector_t;
 180:lib/TinyUSB/src/common/tusb_types.h **** 
 181:lib/TinyUSB/src/common/tusb_types.h **** typedef enum {
 182:lib/TinyUSB/src/common/tusb_types.h ****   TUSB_REQ_TYPE_STANDARD = 0u,
 183:lib/TinyUSB/src/common/tusb_types.h ****   TUSB_REQ_TYPE_CLASS,
 184:lib/TinyUSB/src/common/tusb_types.h ****   TUSB_REQ_TYPE_VENDOR,
 185:lib/TinyUSB/src/common/tusb_types.h ****   TUSB_REQ_TYPE_INVALID
 186:lib/TinyUSB/src/common/tusb_types.h **** } tusb_request_type_t;
 187:lib/TinyUSB/src/common/tusb_types.h **** 
 188:lib/TinyUSB/src/common/tusb_types.h **** typedef enum {
 189:lib/TinyUSB/src/common/tusb_types.h ****   TUSB_REQ_RCPT_DEVICE =0,
 190:lib/TinyUSB/src/common/tusb_types.h ****   TUSB_REQ_RCPT_INTERFACE,
 191:lib/TinyUSB/src/common/tusb_types.h ****   TUSB_REQ_RCPT_ENDPOINT,
 192:lib/TinyUSB/src/common/tusb_types.h ****   TUSB_REQ_RCPT_OTHER
 193:lib/TinyUSB/src/common/tusb_types.h **** } tusb_request_recipient_t;
ARM GAS  C:\Users\krisa\AppData\Local\Temp\ccuohWpS.s 			page 31


 194:lib/TinyUSB/src/common/tusb_types.h **** 
 195:lib/TinyUSB/src/common/tusb_types.h **** // https://www.usb.org/defined-class-codes
 196:lib/TinyUSB/src/common/tusb_types.h **** typedef enum {
 197:lib/TinyUSB/src/common/tusb_types.h ****   TUSB_CLASS_UNSPECIFIED          = 0    ,
 198:lib/TinyUSB/src/common/tusb_types.h ****   TUSB_CLASS_AUDIO                = 1    ,
 199:lib/TinyUSB/src/common/tusb_types.h ****   TUSB_CLASS_CDC                  = 2    ,
 200:lib/TinyUSB/src/common/tusb_types.h ****   TUSB_CLASS_HID                  = 3    ,
 201:lib/TinyUSB/src/common/tusb_types.h ****   TUSB_CLASS_RESERVED_4           = 4    ,
 202:lib/TinyUSB/src/common/tusb_types.h ****   TUSB_CLASS_PHYSICAL             = 5    ,
 203:lib/TinyUSB/src/common/tusb_types.h ****   TUSB_CLASS_IMAGE                = 6    ,
 204:lib/TinyUSB/src/common/tusb_types.h ****   TUSB_CLASS_PRINTER              = 7    ,
 205:lib/TinyUSB/src/common/tusb_types.h ****   TUSB_CLASS_MSC                  = 8    ,
 206:lib/TinyUSB/src/common/tusb_types.h ****   TUSB_CLASS_HUB                  = 9    ,
 207:lib/TinyUSB/src/common/tusb_types.h ****   TUSB_CLASS_CDC_DATA             = 10   ,
 208:lib/TinyUSB/src/common/tusb_types.h ****   TUSB_CLASS_SMART_CARD           = 11   ,
 209:lib/TinyUSB/src/common/tusb_types.h ****   TUSB_CLASS_RESERVED_12          = 12   ,
 210:lib/TinyUSB/src/common/tusb_types.h ****   TUSB_CLASS_CONTENT_SECURITY     = 13   ,
 211:lib/TinyUSB/src/common/tusb_types.h ****   TUSB_CLASS_VIDEO                = 14   ,
 212:lib/TinyUSB/src/common/tusb_types.h ****   TUSB_CLASS_PERSONAL_HEALTHCARE  = 15   ,
 213:lib/TinyUSB/src/common/tusb_types.h ****   TUSB_CLASS_AUDIO_VIDEO          = 16   ,
 214:lib/TinyUSB/src/common/tusb_types.h **** 
 215:lib/TinyUSB/src/common/tusb_types.h ****   TUSB_CLASS_DIAGNOSTIC           = 0xDC ,
 216:lib/TinyUSB/src/common/tusb_types.h ****   TUSB_CLASS_WIRELESS_CONTROLLER  = 0xE0 ,
 217:lib/TinyUSB/src/common/tusb_types.h ****   TUSB_CLASS_MISC                 = 0xEF ,
 218:lib/TinyUSB/src/common/tusb_types.h ****   TUSB_CLASS_APPLICATION_SPECIFIC = 0xFE ,
 219:lib/TinyUSB/src/common/tusb_types.h ****   TUSB_CLASS_VENDOR_SPECIFIC      = 0xFF
 220:lib/TinyUSB/src/common/tusb_types.h **** } tusb_class_code_t;
 221:lib/TinyUSB/src/common/tusb_types.h **** 
 222:lib/TinyUSB/src/common/tusb_types.h **** typedef enum
 223:lib/TinyUSB/src/common/tusb_types.h **** {
 224:lib/TinyUSB/src/common/tusb_types.h ****   MISC_SUBCLASS_COMMON = 2
 225:lib/TinyUSB/src/common/tusb_types.h **** }misc_subclass_type_t;
 226:lib/TinyUSB/src/common/tusb_types.h **** 
 227:lib/TinyUSB/src/common/tusb_types.h **** typedef enum {
 228:lib/TinyUSB/src/common/tusb_types.h ****   MISC_PROTOCOL_IAD = 1
 229:lib/TinyUSB/src/common/tusb_types.h **** } misc_protocol_type_t;
 230:lib/TinyUSB/src/common/tusb_types.h **** 
 231:lib/TinyUSB/src/common/tusb_types.h **** typedef enum {
 232:lib/TinyUSB/src/common/tusb_types.h ****   APP_SUBCLASS_USBTMC = 0x03,
 233:lib/TinyUSB/src/common/tusb_types.h ****   APP_SUBCLASS_DFU_RUNTIME = 0x01
 234:lib/TinyUSB/src/common/tusb_types.h **** } app_subclass_type_t;
 235:lib/TinyUSB/src/common/tusb_types.h **** 
 236:lib/TinyUSB/src/common/tusb_types.h **** typedef enum {
 237:lib/TinyUSB/src/common/tusb_types.h ****   DEVICE_CAPABILITY_WIRELESS_USB               = 0x01,
 238:lib/TinyUSB/src/common/tusb_types.h ****   DEVICE_CAPABILITY_USB20_EXTENSION            = 0x02,
 239:lib/TinyUSB/src/common/tusb_types.h ****   DEVICE_CAPABILITY_SUPERSPEED_USB             = 0x03,
 240:lib/TinyUSB/src/common/tusb_types.h ****   DEVICE_CAPABILITY_CONTAINER_id               = 0x04,
 241:lib/TinyUSB/src/common/tusb_types.h ****   DEVICE_CAPABILITY_PLATFORM                   = 0x05,
 242:lib/TinyUSB/src/common/tusb_types.h ****   DEVICE_CAPABILITY_POWER_DELIVERY             = 0x06,
 243:lib/TinyUSB/src/common/tusb_types.h ****   DEVICE_CAPABILITY_BATTERY_INFO               = 0x07,
 244:lib/TinyUSB/src/common/tusb_types.h ****   DEVICE_CAPABILITY_PD_CONSUMER_PORT           = 0x08,
 245:lib/TinyUSB/src/common/tusb_types.h ****   DEVICE_CAPABILITY_PD_PROVIDER_PORT           = 0x09,
 246:lib/TinyUSB/src/common/tusb_types.h ****   DEVICE_CAPABILITY_SUPERSPEED_PLUS            = 0x0A,
 247:lib/TinyUSB/src/common/tusb_types.h ****   DEVICE_CAPABILITY_PRECESION_TIME_MEASUREMENT = 0x0B,
 248:lib/TinyUSB/src/common/tusb_types.h ****   DEVICE_CAPABILITY_WIRELESS_USB_EXT           = 0x0C,
 249:lib/TinyUSB/src/common/tusb_types.h ****   DEVICE_CAPABILITY_BILLBOARD                  = 0x0D,
 250:lib/TinyUSB/src/common/tusb_types.h ****   DEVICE_CAPABILITY_AUTHENTICATION             = 0x0E,
ARM GAS  C:\Users\krisa\AppData\Local\Temp\ccuohWpS.s 			page 32


 251:lib/TinyUSB/src/common/tusb_types.h ****   DEVICE_CAPABILITY_BILLBOARD_EX               = 0x0F,
 252:lib/TinyUSB/src/common/tusb_types.h ****   DEVICE_CAPABILITY_CONFIGURATION_SUMMARY      = 0x10
 253:lib/TinyUSB/src/common/tusb_types.h **** } device_capability_type_t;
 254:lib/TinyUSB/src/common/tusb_types.h **** 
 255:lib/TinyUSB/src/common/tusb_types.h **** enum {
 256:lib/TinyUSB/src/common/tusb_types.h ****   TUSB_DESC_CONFIG_ATT_REMOTE_WAKEUP = 1 << 5,
 257:lib/TinyUSB/src/common/tusb_types.h ****   TUSB_DESC_CONFIG_ATT_SELF_POWERED  = 1 << 6,
 258:lib/TinyUSB/src/common/tusb_types.h **** };
 259:lib/TinyUSB/src/common/tusb_types.h **** 
 260:lib/TinyUSB/src/common/tusb_types.h **** #define TUSB_DESC_CONFIG_POWER_MA(x)  ((x)/2)
 261:lib/TinyUSB/src/common/tusb_types.h **** 
 262:lib/TinyUSB/src/common/tusb_types.h **** // USB 2.0 Spec Table 9-7: Test Mode Selectors
 263:lib/TinyUSB/src/common/tusb_types.h **** typedef enum {
 264:lib/TinyUSB/src/common/tusb_types.h ****   TUSB_FEATURE_TEST_J = 1,
 265:lib/TinyUSB/src/common/tusb_types.h ****   TUSB_FEATURE_TEST_K = 2,
 266:lib/TinyUSB/src/common/tusb_types.h ****   TUSB_FEATURE_TEST_SE0_NAK = 3,
 267:lib/TinyUSB/src/common/tusb_types.h ****   TUSB_FEATURE_TEST_PACKET = 4,
 268:lib/TinyUSB/src/common/tusb_types.h ****   TUSB_FEATURE_TEST_FORCE_ENABLE = 5,
 269:lib/TinyUSB/src/common/tusb_types.h **** } tusb_feature_test_mode_t;
 270:lib/TinyUSB/src/common/tusb_types.h **** 
 271:lib/TinyUSB/src/common/tusb_types.h **** //--------------------------------------------------------------------+
 272:lib/TinyUSB/src/common/tusb_types.h **** //
 273:lib/TinyUSB/src/common/tusb_types.h **** //--------------------------------------------------------------------+
 274:lib/TinyUSB/src/common/tusb_types.h **** typedef enum {
 275:lib/TinyUSB/src/common/tusb_types.h ****   XFER_RESULT_SUCCESS = 0,
 276:lib/TinyUSB/src/common/tusb_types.h ****   XFER_RESULT_FAILED,
 277:lib/TinyUSB/src/common/tusb_types.h ****   XFER_RESULT_STALLED,
 278:lib/TinyUSB/src/common/tusb_types.h ****   XFER_RESULT_TIMEOUT,
 279:lib/TinyUSB/src/common/tusb_types.h ****   XFER_RESULT_INVALID
 280:lib/TinyUSB/src/common/tusb_types.h **** } xfer_result_t;
 281:lib/TinyUSB/src/common/tusb_types.h **** 
 282:lib/TinyUSB/src/common/tusb_types.h **** #define tusb_xfer_result_t xfer_result_t
 283:lib/TinyUSB/src/common/tusb_types.h **** 
 284:lib/TinyUSB/src/common/tusb_types.h **** // TODO remove
 285:lib/TinyUSB/src/common/tusb_types.h **** enum {
 286:lib/TinyUSB/src/common/tusb_types.h ****   DESC_OFFSET_LEN  = 0,
 287:lib/TinyUSB/src/common/tusb_types.h ****   DESC_OFFSET_TYPE = 1,
 288:lib/TinyUSB/src/common/tusb_types.h ****   DESC_OFFSET_SUBTYPE = 2
 289:lib/TinyUSB/src/common/tusb_types.h **** };
 290:lib/TinyUSB/src/common/tusb_types.h **** 
 291:lib/TinyUSB/src/common/tusb_types.h **** enum {
 292:lib/TinyUSB/src/common/tusb_types.h ****   INTERFACE_INVALID_NUMBER = 0xff
 293:lib/TinyUSB/src/common/tusb_types.h **** };
 294:lib/TinyUSB/src/common/tusb_types.h **** 
 295:lib/TinyUSB/src/common/tusb_types.h **** typedef enum {
 296:lib/TinyUSB/src/common/tusb_types.h ****   MS_OS_20_SET_HEADER_DESCRIPTOR       = 0x00,
 297:lib/TinyUSB/src/common/tusb_types.h ****   MS_OS_20_SUBSET_HEADER_CONFIGURATION = 0x01,
 298:lib/TinyUSB/src/common/tusb_types.h ****   MS_OS_20_SUBSET_HEADER_FUNCTION      = 0x02,
 299:lib/TinyUSB/src/common/tusb_types.h ****   MS_OS_20_FEATURE_COMPATBLE_ID        = 0x03,
 300:lib/TinyUSB/src/common/tusb_types.h ****   MS_OS_20_FEATURE_REG_PROPERTY        = 0x04,
 301:lib/TinyUSB/src/common/tusb_types.h ****   MS_OS_20_FEATURE_MIN_RESUME_TIME     = 0x05,
 302:lib/TinyUSB/src/common/tusb_types.h ****   MS_OS_20_FEATURE_MODEL_ID            = 0x06,
 303:lib/TinyUSB/src/common/tusb_types.h ****   MS_OS_20_FEATURE_CCGP_DEVICE         = 0x07,
 304:lib/TinyUSB/src/common/tusb_types.h ****   MS_OS_20_FEATURE_VENDOR_REVISION     = 0x08
 305:lib/TinyUSB/src/common/tusb_types.h **** } microsoft_os_20_type_t;
 306:lib/TinyUSB/src/common/tusb_types.h **** 
 307:lib/TinyUSB/src/common/tusb_types.h **** enum {
ARM GAS  C:\Users\krisa\AppData\Local\Temp\ccuohWpS.s 			page 33


 308:lib/TinyUSB/src/common/tusb_types.h ****   CONTROL_STAGE_IDLE = 0,
 309:lib/TinyUSB/src/common/tusb_types.h ****   CONTROL_STAGE_SETUP, // 1
 310:lib/TinyUSB/src/common/tusb_types.h ****   CONTROL_STAGE_DATA,  // 2
 311:lib/TinyUSB/src/common/tusb_types.h ****   CONTROL_STAGE_ACK    // 3
 312:lib/TinyUSB/src/common/tusb_types.h **** };
 313:lib/TinyUSB/src/common/tusb_types.h **** 
 314:lib/TinyUSB/src/common/tusb_types.h **** enum {
 315:lib/TinyUSB/src/common/tusb_types.h ****   TUSB_INDEX_INVALID_8 = 0xFF
 316:lib/TinyUSB/src/common/tusb_types.h **** };
 317:lib/TinyUSB/src/common/tusb_types.h **** 
 318:lib/TinyUSB/src/common/tusb_types.h **** //--------------------------------------------------------------------+
 319:lib/TinyUSB/src/common/tusb_types.h **** //
 320:lib/TinyUSB/src/common/tusb_types.h **** //--------------------------------------------------------------------+
 321:lib/TinyUSB/src/common/tusb_types.h **** typedef struct {
 322:lib/TinyUSB/src/common/tusb_types.h ****   tusb_role_t role;
 323:lib/TinyUSB/src/common/tusb_types.h ****   tusb_speed_t speed;
 324:lib/TinyUSB/src/common/tusb_types.h **** } tusb_rhport_init_t;
 325:lib/TinyUSB/src/common/tusb_types.h **** 
 326:lib/TinyUSB/src/common/tusb_types.h **** typedef struct {
 327:lib/TinyUSB/src/common/tusb_types.h ****   uint16_t len;
 328:lib/TinyUSB/src/common/tusb_types.h ****   uint8_t *buffer;
 329:lib/TinyUSB/src/common/tusb_types.h **** } tusb_buffer_t;
 330:lib/TinyUSB/src/common/tusb_types.h **** 
 331:lib/TinyUSB/src/common/tusb_types.h **** //--------------------------------------------------------------------+
 332:lib/TinyUSB/src/common/tusb_types.h **** // USB Descriptors
 333:lib/TinyUSB/src/common/tusb_types.h **** //--------------------------------------------------------------------+
 334:lib/TinyUSB/src/common/tusb_types.h **** 
 335:lib/TinyUSB/src/common/tusb_types.h **** // Start of all packed definitions for compiler without per-type packed
 336:lib/TinyUSB/src/common/tusb_types.h **** TU_ATTR_PACKED_BEGIN
 337:lib/TinyUSB/src/common/tusb_types.h **** TU_ATTR_BIT_FIELD_ORDER_BEGIN
 338:lib/TinyUSB/src/common/tusb_types.h **** 
 339:lib/TinyUSB/src/common/tusb_types.h **** /// USB Device Descriptor
 340:lib/TinyUSB/src/common/tusb_types.h **** typedef struct TU_ATTR_PACKED {
 341:lib/TinyUSB/src/common/tusb_types.h ****   uint8_t  bLength            ; ///< Size of this descriptor in bytes.
 342:lib/TinyUSB/src/common/tusb_types.h ****   uint8_t  bDescriptorType    ; ///< DEVICE Descriptor Type.
 343:lib/TinyUSB/src/common/tusb_types.h ****   uint16_t bcdUSB             ; ///< BUSB Specification Release Number in Binary-Coded Decimal (i.e
 344:lib/TinyUSB/src/common/tusb_types.h **** 
 345:lib/TinyUSB/src/common/tusb_types.h ****   uint8_t  bDeviceClass       ; ///< Class code (assigned by the USB-IF).
 346:lib/TinyUSB/src/common/tusb_types.h ****   uint8_t  bDeviceSubClass    ; ///< Subclass code (assigned by the USB-IF).
 347:lib/TinyUSB/src/common/tusb_types.h ****   uint8_t  bDeviceProtocol    ; ///< Protocol code (assigned by the USB-IF).
 348:lib/TinyUSB/src/common/tusb_types.h ****   uint8_t  bMaxPacketSize0    ; ///< Maximum packet size for endpoint zero (only 8, 16, 32, or 64 a
 349:lib/TinyUSB/src/common/tusb_types.h **** 
 350:lib/TinyUSB/src/common/tusb_types.h ****   uint16_t idVendor           ; ///< Vendor ID (assigned by the USB-IF).
 351:lib/TinyUSB/src/common/tusb_types.h ****   uint16_t idProduct          ; ///< Product ID (assigned by the manufacturer).
 352:lib/TinyUSB/src/common/tusb_types.h ****   uint16_t bcdDevice          ; ///< Device release number in binary-coded decimal.
 353:lib/TinyUSB/src/common/tusb_types.h ****   uint8_t  iManufacturer      ; ///< Index of string descriptor describing manufacturer.
 354:lib/TinyUSB/src/common/tusb_types.h ****   uint8_t  iProduct           ; ///< Index of string descriptor describing product.
 355:lib/TinyUSB/src/common/tusb_types.h ****   uint8_t  iSerialNumber      ; ///< Index of string descriptor describing the device's serial numb
 356:lib/TinyUSB/src/common/tusb_types.h ****   uint8_t  bNumConfigurations ; ///< Number of possible configurations.
 357:lib/TinyUSB/src/common/tusb_types.h **** } tusb_desc_device_t;
 358:lib/TinyUSB/src/common/tusb_types.h **** 
 359:lib/TinyUSB/src/common/tusb_types.h **** TU_VERIFY_STATIC( sizeof(tusb_desc_device_t) == 18u, "size is not correct");
 360:lib/TinyUSB/src/common/tusb_types.h **** 
 361:lib/TinyUSB/src/common/tusb_types.h **** // USB Binary Device Object Store (BOS) Descriptor
 362:lib/TinyUSB/src/common/tusb_types.h **** typedef struct TU_ATTR_PACKED {
 363:lib/TinyUSB/src/common/tusb_types.h ****   uint8_t  bLength         ; ///< Size of this descriptor in bytes
 364:lib/TinyUSB/src/common/tusb_types.h ****   uint8_t  bDescriptorType ; ///< CONFIGURATION Descriptor Type
ARM GAS  C:\Users\krisa\AppData\Local\Temp\ccuohWpS.s 			page 34


 365:lib/TinyUSB/src/common/tusb_types.h ****   uint16_t wTotalLength    ; ///< Total length of data returned for this descriptor
 366:lib/TinyUSB/src/common/tusb_types.h ****   uint8_t  bNumDeviceCaps  ; ///< Number of device capability descriptors in the BOS
 367:lib/TinyUSB/src/common/tusb_types.h **** } tusb_desc_bos_t;
 368:lib/TinyUSB/src/common/tusb_types.h **** 
 369:lib/TinyUSB/src/common/tusb_types.h **** TU_VERIFY_STATIC( sizeof(tusb_desc_bos_t) == 5u, "size is not correct");
 370:lib/TinyUSB/src/common/tusb_types.h **** 
 371:lib/TinyUSB/src/common/tusb_types.h **** /// USB Configuration Descriptor
 372:lib/TinyUSB/src/common/tusb_types.h **** typedef struct TU_ATTR_PACKED {
 373:lib/TinyUSB/src/common/tusb_types.h ****   uint8_t  bLength             ; ///< Size of this descriptor in bytes
 374:lib/TinyUSB/src/common/tusb_types.h ****   uint8_t  bDescriptorType     ; ///< CONFIGURATION Descriptor Type
 375:lib/TinyUSB/src/common/tusb_types.h ****   uint16_t wTotalLength        ; ///< Total length of data returned for this configuration. Include
 376:lib/TinyUSB/src/common/tusb_types.h **** 
 377:lib/TinyUSB/src/common/tusb_types.h ****   uint8_t  bNumInterfaces      ; ///< Number of interfaces supported by this configuration
 378:lib/TinyUSB/src/common/tusb_types.h ****   uint8_t  bConfigurationValue ; ///< Value to use as an argument to the SetConfiguration() request
 379:lib/TinyUSB/src/common/tusb_types.h ****   uint8_t  iConfiguration      ; ///< Index of string descriptor describing this configuration
 380:lib/TinyUSB/src/common/tusb_types.h ****   uint8_t  bmAttributes        ; ///< Configuration characteristics \n D7: Reserved (set to one)\n 
 381:lib/TinyUSB/src/common/tusb_types.h ****   uint8_t  bMaxPower           ; ///< Maximum power consumption of the USB device from the bus in t
 382:lib/TinyUSB/src/common/tusb_types.h **** } tusb_desc_configuration_t;
 383:lib/TinyUSB/src/common/tusb_types.h **** 
 384:lib/TinyUSB/src/common/tusb_types.h **** TU_VERIFY_STATIC( sizeof(tusb_desc_configuration_t) == 9u, "size is not correct");
 385:lib/TinyUSB/src/common/tusb_types.h **** 
 386:lib/TinyUSB/src/common/tusb_types.h **** /// USB Interface Descriptor
 387:lib/TinyUSB/src/common/tusb_types.h **** typedef struct TU_ATTR_PACKED {
 388:lib/TinyUSB/src/common/tusb_types.h ****   uint8_t  bLength            ; ///< Size of this descriptor in bytes
 389:lib/TinyUSB/src/common/tusb_types.h ****   uint8_t  bDescriptorType    ; ///< INTERFACE Descriptor Type
 390:lib/TinyUSB/src/common/tusb_types.h **** 
 391:lib/TinyUSB/src/common/tusb_types.h ****   uint8_t  bInterfaceNumber   ; ///< Number of this interface. Zero-based value identifying the ind
 392:lib/TinyUSB/src/common/tusb_types.h ****   uint8_t  bAlternateSetting  ; ///< Value used to select this alternate setting for the interface 
 393:lib/TinyUSB/src/common/tusb_types.h ****   uint8_t  bNumEndpoints      ; ///< Number of endpoints used by this interface (excluding endpoint
 394:lib/TinyUSB/src/common/tusb_types.h ****   uint8_t  bInterfaceClass    ; ///< Class code (assigned by the USB-IF). \li A value of zero is re
 395:lib/TinyUSB/src/common/tusb_types.h ****   uint8_t  bInterfaceSubClass ; ///< Subclass code (assigned by the USB-IF). \n These codes are qua
 396:lib/TinyUSB/src/common/tusb_types.h ****   uint8_t  bInterfaceProtocol ; ///< Protocol code (assigned by the USB). \n These codes are qualif
 397:lib/TinyUSB/src/common/tusb_types.h ****   uint8_t  iInterface         ; ///< Index of string descriptor describing this interface
 398:lib/TinyUSB/src/common/tusb_types.h **** } tusb_desc_interface_t;
 399:lib/TinyUSB/src/common/tusb_types.h **** 
 400:lib/TinyUSB/src/common/tusb_types.h **** TU_VERIFY_STATIC( sizeof(tusb_desc_interface_t) == 9u, "size is not correct");
 401:lib/TinyUSB/src/common/tusb_types.h **** 
 402:lib/TinyUSB/src/common/tusb_types.h **** /// USB Endpoint Descriptor
 403:lib/TinyUSB/src/common/tusb_types.h **** typedef struct TU_ATTR_PACKED {
 404:lib/TinyUSB/src/common/tusb_types.h ****   uint8_t  bLength          ; // Size of this descriptor in bytes
 405:lib/TinyUSB/src/common/tusb_types.h ****   uint8_t  bDescriptorType  ; // ENDPOINT Descriptor Type
 406:lib/TinyUSB/src/common/tusb_types.h **** 
 407:lib/TinyUSB/src/common/tusb_types.h ****   uint8_t  bEndpointAddress ; // The address of the endpoint
 408:lib/TinyUSB/src/common/tusb_types.h **** 
 409:lib/TinyUSB/src/common/tusb_types.h ****   struct TU_ATTR_PACKED {
 410:lib/TinyUSB/src/common/tusb_types.h ****     uint8_t xfer  : 2;        // Control, ISO, Bulk, Interrupt
 411:lib/TinyUSB/src/common/tusb_types.h ****     uint8_t sync  : 2;        // None, Asynchronous, Adaptive, Synchronous
 412:lib/TinyUSB/src/common/tusb_types.h ****     uint8_t usage : 2;        // Data, Feedback, Implicit feedback
 413:lib/TinyUSB/src/common/tusb_types.h ****     uint8_t       : 2;
 414:lib/TinyUSB/src/common/tusb_types.h ****   } bmAttributes;
 415:lib/TinyUSB/src/common/tusb_types.h **** 
 416:lib/TinyUSB/src/common/tusb_types.h ****   uint16_t wMaxPacketSize   ; // Bit 10..0 : max packet size, bit 12..11 additional transaction per
 417:lib/TinyUSB/src/common/tusb_types.h ****   uint8_t  bInterval        ; // Polling interval, in frames or microframes depending on the operat
 418:lib/TinyUSB/src/common/tusb_types.h **** } tusb_desc_endpoint_t;
 419:lib/TinyUSB/src/common/tusb_types.h **** 
 420:lib/TinyUSB/src/common/tusb_types.h **** TU_VERIFY_STATIC( sizeof(tusb_desc_endpoint_t) == 7u, "size is not correct");
 421:lib/TinyUSB/src/common/tusb_types.h **** 
ARM GAS  C:\Users\krisa\AppData\Local\Temp\ccuohWpS.s 			page 35


 422:lib/TinyUSB/src/common/tusb_types.h **** /// USB Other Speed Configuration Descriptor
 423:lib/TinyUSB/src/common/tusb_types.h **** typedef struct TU_ATTR_PACKED {
 424:lib/TinyUSB/src/common/tusb_types.h ****   uint8_t  bLength             ; ///< Size of descriptor
 425:lib/TinyUSB/src/common/tusb_types.h ****   uint8_t  bDescriptorType     ; ///< Other_speed_Configuration Type
 426:lib/TinyUSB/src/common/tusb_types.h ****   uint16_t wTotalLength        ; ///< Total length of data returned
 427:lib/TinyUSB/src/common/tusb_types.h **** 
 428:lib/TinyUSB/src/common/tusb_types.h ****   uint8_t  bNumInterfaces      ; ///< Number of interfaces supported by this speed configuration
 429:lib/TinyUSB/src/common/tusb_types.h ****   uint8_t  bConfigurationValue ; ///< Value to use to select configuration
 430:lib/TinyUSB/src/common/tusb_types.h ****   uint8_t  iConfiguration      ; ///< Index of string descriptor
 431:lib/TinyUSB/src/common/tusb_types.h ****   uint8_t  bmAttributes        ; ///< Same as Configuration descriptor
 432:lib/TinyUSB/src/common/tusb_types.h ****   uint8_t  bMaxPower           ; ///< Same as Configuration descriptor
 433:lib/TinyUSB/src/common/tusb_types.h **** } tusb_desc_other_speed_t;
 434:lib/TinyUSB/src/common/tusb_types.h **** 
 435:lib/TinyUSB/src/common/tusb_types.h **** /// USB Device Qualifier Descriptor
 436:lib/TinyUSB/src/common/tusb_types.h **** typedef struct TU_ATTR_PACKED {
 437:lib/TinyUSB/src/common/tusb_types.h ****   uint8_t  bLength            ; ///< Size of descriptor
 438:lib/TinyUSB/src/common/tusb_types.h ****   uint8_t  bDescriptorType    ; ///< Device Qualifier Type
 439:lib/TinyUSB/src/common/tusb_types.h ****   uint16_t bcdUSB             ; ///< USB specification version number (e.g., 0200H for V2.00)
 440:lib/TinyUSB/src/common/tusb_types.h **** 
 441:lib/TinyUSB/src/common/tusb_types.h ****   uint8_t  bDeviceClass       ; ///< Class Code
 442:lib/TinyUSB/src/common/tusb_types.h ****   uint8_t  bDeviceSubClass    ; ///< SubClass Code
 443:lib/TinyUSB/src/common/tusb_types.h ****   uint8_t  bDeviceProtocol    ; ///< Protocol Code
 444:lib/TinyUSB/src/common/tusb_types.h **** 
 445:lib/TinyUSB/src/common/tusb_types.h ****   uint8_t  bMaxPacketSize0    ; ///< Maximum packet size for other speed
 446:lib/TinyUSB/src/common/tusb_types.h ****   uint8_t  bNumConfigurations ; ///< Number of Other-speed Configurations
 447:lib/TinyUSB/src/common/tusb_types.h ****   uint8_t  bReserved          ; ///< Reserved for future use, must be zero
 448:lib/TinyUSB/src/common/tusb_types.h **** } tusb_desc_device_qualifier_t;
 449:lib/TinyUSB/src/common/tusb_types.h **** 
 450:lib/TinyUSB/src/common/tusb_types.h **** TU_VERIFY_STATIC( sizeof(tusb_desc_device_qualifier_t) == 10u, "size is not correct");
 451:lib/TinyUSB/src/common/tusb_types.h **** 
 452:lib/TinyUSB/src/common/tusb_types.h **** /// USB Interface Association Descriptor (IAD ECN)
 453:lib/TinyUSB/src/common/tusb_types.h **** typedef struct TU_ATTR_PACKED {
 454:lib/TinyUSB/src/common/tusb_types.h ****   uint8_t bLength           ; ///< Size of descriptor
 455:lib/TinyUSB/src/common/tusb_types.h ****   uint8_t bDescriptorType   ; ///< Other_speed_Configuration Type
 456:lib/TinyUSB/src/common/tusb_types.h **** 
 457:lib/TinyUSB/src/common/tusb_types.h ****   uint8_t bFirstInterface   ; ///< Index of the first associated interface.
 458:lib/TinyUSB/src/common/tusb_types.h ****   uint8_t bInterfaceCount   ; ///< Total number of associated interfaces.
 459:lib/TinyUSB/src/common/tusb_types.h **** 
 460:lib/TinyUSB/src/common/tusb_types.h ****   uint8_t bFunctionClass    ; ///< Interface class ID.
 461:lib/TinyUSB/src/common/tusb_types.h ****   uint8_t bFunctionSubClass ; ///< Interface subclass ID.
 462:lib/TinyUSB/src/common/tusb_types.h ****   uint8_t bFunctionProtocol ; ///< Interface protocol ID.
 463:lib/TinyUSB/src/common/tusb_types.h **** 
 464:lib/TinyUSB/src/common/tusb_types.h ****   uint8_t iFunction         ; ///< Index of the string descriptor describing the interface associat
 465:lib/TinyUSB/src/common/tusb_types.h **** } tusb_desc_interface_assoc_t;
 466:lib/TinyUSB/src/common/tusb_types.h **** 
 467:lib/TinyUSB/src/common/tusb_types.h **** TU_VERIFY_STATIC( sizeof(tusb_desc_interface_assoc_t) == 8u, "size is not correct");
 468:lib/TinyUSB/src/common/tusb_types.h **** 
 469:lib/TinyUSB/src/common/tusb_types.h **** // USB String Descriptor
 470:lib/TinyUSB/src/common/tusb_types.h **** typedef struct TU_ATTR_PACKED {
 471:lib/TinyUSB/src/common/tusb_types.h ****   uint8_t  bLength         ; ///< Size of this descriptor in bytes
 472:lib/TinyUSB/src/common/tusb_types.h ****   uint8_t  bDescriptorType ; ///< Descriptor Type
 473:lib/TinyUSB/src/common/tusb_types.h ****   uint16_t utf16le[];
 474:lib/TinyUSB/src/common/tusb_types.h **** } tusb_desc_string_t;
 475:lib/TinyUSB/src/common/tusb_types.h **** 
 476:lib/TinyUSB/src/common/tusb_types.h **** // USB Binary Device Object Store (BOS)
 477:lib/TinyUSB/src/common/tusb_types.h **** typedef struct TU_ATTR_PACKED {
 478:lib/TinyUSB/src/common/tusb_types.h ****   uint8_t bLength;
ARM GAS  C:\Users\krisa\AppData\Local\Temp\ccuohWpS.s 			page 36


 479:lib/TinyUSB/src/common/tusb_types.h ****   uint8_t bDescriptorType ;
 480:lib/TinyUSB/src/common/tusb_types.h ****   uint8_t bDevCapabilityType;
 481:lib/TinyUSB/src/common/tusb_types.h ****   uint8_t bReserved;
 482:lib/TinyUSB/src/common/tusb_types.h ****   uint8_t PlatformCapabilityUUID[16];
 483:lib/TinyUSB/src/common/tusb_types.h ****   uint8_t CapabilityData[];
 484:lib/TinyUSB/src/common/tusb_types.h **** } tusb_desc_bos_platform_t;
 485:lib/TinyUSB/src/common/tusb_types.h **** 
 486:lib/TinyUSB/src/common/tusb_types.h **** // USB WebUSB URL Descriptor
 487:lib/TinyUSB/src/common/tusb_types.h **** typedef struct TU_ATTR_PACKED {
 488:lib/TinyUSB/src/common/tusb_types.h ****   uint8_t bLength;
 489:lib/TinyUSB/src/common/tusb_types.h ****   uint8_t bDescriptorType;
 490:lib/TinyUSB/src/common/tusb_types.h ****   uint8_t bScheme;
 491:lib/TinyUSB/src/common/tusb_types.h ****   char    url[];
 492:lib/TinyUSB/src/common/tusb_types.h **** } tusb_desc_webusb_url_t;
 493:lib/TinyUSB/src/common/tusb_types.h **** 
 494:lib/TinyUSB/src/common/tusb_types.h **** // DFU Functional Descriptor
 495:lib/TinyUSB/src/common/tusb_types.h **** typedef struct TU_ATTR_PACKED {
 496:lib/TinyUSB/src/common/tusb_types.h ****   uint8_t  bLength;
 497:lib/TinyUSB/src/common/tusb_types.h ****   uint8_t  bDescriptorType;
 498:lib/TinyUSB/src/common/tusb_types.h **** 
 499:lib/TinyUSB/src/common/tusb_types.h ****   union {
 500:lib/TinyUSB/src/common/tusb_types.h ****     struct TU_ATTR_PACKED {
 501:lib/TinyUSB/src/common/tusb_types.h ****       uint8_t bitCanDnload             : 1;
 502:lib/TinyUSB/src/common/tusb_types.h ****       uint8_t bitCanUpload             : 1;
 503:lib/TinyUSB/src/common/tusb_types.h ****       uint8_t bitManifestationTolerant : 1;
 504:lib/TinyUSB/src/common/tusb_types.h ****       uint8_t bitWillDetach            : 1;
 505:lib/TinyUSB/src/common/tusb_types.h ****       uint8_t reserved                 : 4;
 506:lib/TinyUSB/src/common/tusb_types.h ****     } bmAttributes;
 507:lib/TinyUSB/src/common/tusb_types.h **** 
 508:lib/TinyUSB/src/common/tusb_types.h ****     uint8_t bAttributes;
 509:lib/TinyUSB/src/common/tusb_types.h ****   };
 510:lib/TinyUSB/src/common/tusb_types.h **** 
 511:lib/TinyUSB/src/common/tusb_types.h ****   uint16_t wDetachTimeOut;
 512:lib/TinyUSB/src/common/tusb_types.h ****   uint16_t wTransferSize;
 513:lib/TinyUSB/src/common/tusb_types.h ****   uint16_t bcdDFUVersion;
 514:lib/TinyUSB/src/common/tusb_types.h **** } tusb_desc_dfu_functional_t;
 515:lib/TinyUSB/src/common/tusb_types.h **** 
 516:lib/TinyUSB/src/common/tusb_types.h **** //--------------------------------------------------------------------+
 517:lib/TinyUSB/src/common/tusb_types.h **** //
 518:lib/TinyUSB/src/common/tusb_types.h **** //--------------------------------------------------------------------+
 519:lib/TinyUSB/src/common/tusb_types.h **** 
 520:lib/TinyUSB/src/common/tusb_types.h **** typedef struct TU_ATTR_PACKED {
 521:lib/TinyUSB/src/common/tusb_types.h ****   union {
 522:lib/TinyUSB/src/common/tusb_types.h ****     struct TU_ATTR_PACKED {
 523:lib/TinyUSB/src/common/tusb_types.h ****       uint8_t recipient :  5; ///< Recipient type tusb_request_recipient_t.
 524:lib/TinyUSB/src/common/tusb_types.h ****       uint8_t type      :  2; ///< Request type tusb_request_type_t.
 525:lib/TinyUSB/src/common/tusb_types.h ****       uint8_t direction :  1; ///< Direction type. tusb_dir_t
 526:lib/TinyUSB/src/common/tusb_types.h ****     } bmRequestType_bit;
 527:lib/TinyUSB/src/common/tusb_types.h **** 
 528:lib/TinyUSB/src/common/tusb_types.h ****     uint8_t bmRequestType;
 529:lib/TinyUSB/src/common/tusb_types.h ****   };
 530:lib/TinyUSB/src/common/tusb_types.h **** 
 531:lib/TinyUSB/src/common/tusb_types.h ****   uint8_t  bRequest;
 532:lib/TinyUSB/src/common/tusb_types.h ****   uint16_t wValue;
 533:lib/TinyUSB/src/common/tusb_types.h ****   uint16_t wIndex;
 534:lib/TinyUSB/src/common/tusb_types.h ****   uint16_t wLength;
 535:lib/TinyUSB/src/common/tusb_types.h **** } tusb_control_request_t;
ARM GAS  C:\Users\krisa\AppData\Local\Temp\ccuohWpS.s 			page 37


 536:lib/TinyUSB/src/common/tusb_types.h **** 
 537:lib/TinyUSB/src/common/tusb_types.h **** TU_VERIFY_STATIC( sizeof(tusb_control_request_t) == 8u, "size is not correct");
 538:lib/TinyUSB/src/common/tusb_types.h **** 
 539:lib/TinyUSB/src/common/tusb_types.h **** TU_ATTR_PACKED_END  // End of all packed definitions
 540:lib/TinyUSB/src/common/tusb_types.h **** TU_ATTR_BIT_FIELD_ORDER_END
 541:lib/TinyUSB/src/common/tusb_types.h **** 
 542:lib/TinyUSB/src/common/tusb_types.h **** //--------------------------------------------------------------------+
 543:lib/TinyUSB/src/common/tusb_types.h **** // Endpoint helper
 544:lib/TinyUSB/src/common/tusb_types.h **** //--------------------------------------------------------------------+
 545:lib/TinyUSB/src/common/tusb_types.h **** 
 546:lib/TinyUSB/src/common/tusb_types.h **** // Get direction from Endpoint address
 547:lib/TinyUSB/src/common/tusb_types.h **** TU_ATTR_ALWAYS_INLINE static inline tusb_dir_t tu_edpt_dir(uint8_t addr) {
 548:lib/TinyUSB/src/common/tusb_types.h ****   return (addr & TUSB_DIR_IN_MASK) ? TUSB_DIR_IN : TUSB_DIR_OUT;
 549:lib/TinyUSB/src/common/tusb_types.h **** }
 550:lib/TinyUSB/src/common/tusb_types.h **** 
 551:lib/TinyUSB/src/common/tusb_types.h **** // Get Endpoint number from address
 552:lib/TinyUSB/src/common/tusb_types.h **** TU_ATTR_ALWAYS_INLINE static inline uint8_t tu_edpt_number(uint8_t addr) {
 953              		.loc 2 552 45 view .LVU251
 954              	.LBB84:
 553:lib/TinyUSB/src/common/tusb_types.h ****   return (uint8_t) (addr & TUSB_EPNUM_MASK);
 955              		.loc 2 553 3 view .LVU252
 956              		.loc 2 553 10 is_stmt 0 view .LVU253
 957 000e 05F00F0C 		and	ip, r5, #15
 958              	.LVL73:
 959              		.loc 2 553 10 view .LVU254
 960              	.LBE84:
 961              	.LBE83:
 289:lib/TinyUSB/src/tusb.c ****       ep2drv[ep_num][ep_dir] = driver_id;
 962              		.loc 1 289 7 is_stmt 1 view .LVU255
 963              	.LBB85:
 964              	.LBI85:
 547:lib/TinyUSB/src/common/tusb_types.h ****   return (addr & TUSB_DIR_IN_MASK) ? TUSB_DIR_IN : TUSB_DIR_OUT;
 965              		.loc 2 547 48 view .LVU256
 966              	.LBB86:
 548:lib/TinyUSB/src/common/tusb_types.h **** }
 967              		.loc 2 548 3 view .LVU257
 548:lib/TinyUSB/src/common/tusb_types.h **** }
 968              		.loc 2 548 50 is_stmt 0 view .LVU258
 969 0012 ED09     		lsrs	r5, r5, #7
 970              	.LVL74:
 548:lib/TinyUSB/src/common/tusb_types.h **** }
 971              		.loc 2 548 50 view .LVU259
 972              	.LBE86:
 973              	.LBE85:
 290:lib/TinyUSB/src/tusb.c ****     } else if (desc_type == TUSB_DESC_INTERFACE) {
 974              		.loc 1 290 7 is_stmt 1 view .LVU260
 290:lib/TinyUSB/src/tusb.c ****     } else if (desc_type == TUSB_DESC_INTERFACE) {
 975              		.loc 1 290 13 is_stmt 0 view .LVU261
 976 0014 01EB4C0C 		add	ip, r1, ip, lsl #1
 977              	.LVL75:
 290:lib/TinyUSB/src/tusb.c ****     } else if (desc_type == TUSB_DESC_INTERFACE) {
 978              		.loc 1 290 30 view .LVU262
 979 0018 0CF80500 		strb	r0, [ip, r5]
 980              	.LVL76:
 290:lib/TinyUSB/src/tusb.c ****     } else if (desc_type == TUSB_DESC_INTERFACE) {
 981              		.loc 1 290 30 view .LVU263
 982              	.LBE82:
ARM GAS  C:\Users\krisa\AppData\Local\Temp\ccuohWpS.s 			page 38


 983 001c 1AE0     		b	.L103
 984              	.LVL77:
 985              	.L115:
 986              	.LBB87:
 292:lib/TinyUSB/src/tusb.c ****       if (desc_itf->bAlternateSetting == 0) {
 987              		.loc 1 292 7 is_stmt 1 view .LVU264
 293:lib/TinyUSB/src/tusb.c ****         TU_ASSERT(desc_itf->bInterfaceNumber < itf_max);
 988              		.loc 1 293 7 view .LVU265
 293:lib/TinyUSB/src/tusb.c ****         TU_ASSERT(desc_itf->bInterfaceNumber < itf_max);
 989              		.loc 1 293 19 is_stmt 0 view .LVU266
 990 001e E578     		ldrb	r5, [r4, #3]	@ zero_extendqisi2
 293:lib/TinyUSB/src/tusb.c ****         TU_ASSERT(desc_itf->bInterfaceNumber < itf_max);
 991              		.loc 1 293 10 view .LVU267
 992 0020 C5B9     		cbnz	r5, .L103
 294:lib/TinyUSB/src/tusb.c ****         itf2drv[desc_itf->bInterfaceNumber] = driver_id;
 993              		.loc 1 294 9 is_stmt 1 view .LVU268
 294:lib/TinyUSB/src/tusb.c ****         itf2drv[desc_itf->bInterfaceNumber] = driver_id;
 994              		.loc 1 294 9 view .LVU269
 995 0022 A578     		ldrb	r5, [r4, #2]	@ zero_extendqisi2
 996 0024 9D42     		cmp	r5, r3
 997 0026 01D2     		bcs	.L112
 294:lib/TinyUSB/src/tusb.c ****         itf2drv[desc_itf->bInterfaceNumber] = driver_id;
 998              		.loc 1 294 9 discriminator 2 view .LVU270
 295:lib/TinyUSB/src/tusb.c ****       }
 999              		.loc 1 295 9 discriminator 2 view .LVU271
 295:lib/TinyUSB/src/tusb.c ****       }
 1000              		.loc 1 295 45 is_stmt 0 discriminator 2 view .LVU272
 1001 0028 5055     		strb	r0, [r2, r5]
 1002 002a 13E0     		b	.L103
 1003              	.L112:
 294:lib/TinyUSB/src/tusb.c ****         itf2drv[desc_itf->bInterfaceNumber] = driver_id;
 1004              		.loc 1 294 9 is_stmt 1 discriminator 1 view .LVU273
 294:lib/TinyUSB/src/tusb.c ****         itf2drv[desc_itf->bInterfaceNumber] = driver_id;
 1005              		.loc 1 294 9 discriminator 1 view .LVU274
 294:lib/TinyUSB/src/tusb.c ****         itf2drv[desc_itf->bInterfaceNumber] = driver_id;
 1006              		.loc 1 294 9 discriminator 1 view .LVU275
 294:lib/TinyUSB/src/tusb.c ****         itf2drv[desc_itf->bInterfaceNumber] = driver_id;
 1007              		.loc 1 294 9 discriminator 1 view .LVU276
 1008              	.LBB88:
 294:lib/TinyUSB/src/tusb.c ****         itf2drv[desc_itf->bInterfaceNumber] = driver_id;
 1009              		.loc 1 294 9 discriminator 1 view .LVU277
 1010              	.LVL78:
 294:lib/TinyUSB/src/tusb.c ****         itf2drv[desc_itf->bInterfaceNumber] = driver_id;
 1011              		.loc 1 294 9 discriminator 1 view .LVU278
 1012 002c 4FF0E023 		mov	r3, #-536813568
 1013              	.LVL79:
 294:lib/TinyUSB/src/tusb.c ****         itf2drv[desc_itf->bInterfaceNumber] = driver_id;
 1014              		.loc 1 294 9 is_stmt 0 discriminator 1 view .LVU279
 1015 0030 D3F8F03D 		ldr	r3, [r3, #3568]
 1016 0034 13F0010F 		tst	r3, #1
 1017 0038 00D0     		beq	.L105
 294:lib/TinyUSB/src/tusb.c ****         itf2drv[desc_itf->bInterfaceNumber] = driver_id;
 1018              		.loc 1 294 9 is_stmt 1 discriminator 3 view .LVU280
 1019              		.syntax unified
 1020              	@ 294 "lib/TinyUSB/src/tusb.c" 1
 1021 003a 00BE     		BKPT #0
 1022              	
ARM GAS  C:\Users\krisa\AppData\Local\Temp\ccuohWpS.s 			page 39


 1023              	@ 0 "" 2
 1024              		.thumb
 1025              		.syntax unified
 1026              	.L105:
 294:lib/TinyUSB/src/tusb.c ****         itf2drv[desc_itf->bInterfaceNumber] = driver_id;
 1027              		.loc 1 294 9 is_stmt 0 discriminator 3 view .LVU281
 1028              	.LBE88:
 294:lib/TinyUSB/src/tusb.c ****         itf2drv[desc_itf->bInterfaceNumber] = driver_id;
 1029              		.loc 1 294 9 is_stmt 1 discriminator 5 view .LVU282
 294:lib/TinyUSB/src/tusb.c ****         itf2drv[desc_itf->bInterfaceNumber] = driver_id;
 1030              		.loc 1 294 9 discriminator 5 view .LVU283
 1031 003c 0020     		movs	r0, #0
 1032              	.LVL80:
 294:lib/TinyUSB/src/tusb.c ****         itf2drv[desc_itf->bInterfaceNumber] = driver_id;
 1033              		.loc 1 294 9 is_stmt 0 discriminator 5 view .LVU284
 1034 003e 16E0     		b	.L106
 1035              	.LVL81:
 1036              	.L109:
 294:lib/TinyUSB/src/tusb.c ****         itf2drv[desc_itf->bInterfaceNumber] = driver_id;
 1037              		.loc 1 294 9 discriminator 5 view .LVU285
 1038              	.LBE87:
 1039              	.LBE81:
 1040              	.LBB93:
 1041              	.LBB94:
 1042              		.file 3 "lib/TinyUSB/src/common/tusb_common.h"
   1:lib/TinyUSB/src/common/tusb_common.h **** /*
   2:lib/TinyUSB/src/common/tusb_common.h ****  * The MIT License (MIT)
   3:lib/TinyUSB/src/common/tusb_common.h ****  *
   4:lib/TinyUSB/src/common/tusb_common.h ****  * Copyright (c) 2019 Ha Thach (tinyusb.org)
   5:lib/TinyUSB/src/common/tusb_common.h ****  *
   6:lib/TinyUSB/src/common/tusb_common.h ****  * Permission is hereby granted, free of charge, to any person obtaining a copy
   7:lib/TinyUSB/src/common/tusb_common.h ****  * of this software and associated documentation files (the "Software"), to deal
   8:lib/TinyUSB/src/common/tusb_common.h ****  * in the Software without restriction, including without limitation the rights
   9:lib/TinyUSB/src/common/tusb_common.h ****  * to use, copy, modify, merge, publish, distribute, sublicense, and/or sell
  10:lib/TinyUSB/src/common/tusb_common.h ****  * copies of the Software, and to permit persons to whom the Software is
  11:lib/TinyUSB/src/common/tusb_common.h ****  * furnished to do so, subject to the following conditions:
  12:lib/TinyUSB/src/common/tusb_common.h ****  *
  13:lib/TinyUSB/src/common/tusb_common.h ****  * The above copyright notice and this permission notice shall be included in
  14:lib/TinyUSB/src/common/tusb_common.h ****  * all copies or substantial portions of the Software.
  15:lib/TinyUSB/src/common/tusb_common.h ****  *
  16:lib/TinyUSB/src/common/tusb_common.h ****  * THE SOFTWARE IS PROVIDED "AS IS", WITHOUT WARRANTY OF ANY KIND, EXPRESS OR
  17:lib/TinyUSB/src/common/tusb_common.h ****  * IMPLIED, INCLUDING BUT NOT LIMITED TO THE WARRANTIES OF MERCHANTABILITY,
  18:lib/TinyUSB/src/common/tusb_common.h ****  * FITNESS FOR A PARTICULAR PURPOSE AND NONINFRINGEMENT. IN NO EVENT SHALL THE
  19:lib/TinyUSB/src/common/tusb_common.h ****  * AUTHORS OR COPYRIGHT HOLDERS BE LIABLE FOR ANY CLAIM, DAMAGES OR OTHER
  20:lib/TinyUSB/src/common/tusb_common.h ****  * LIABILITY, WHETHER IN AN ACTION OF CONTRACT, TORT OR OTHERWISE, ARISING FROM,
  21:lib/TinyUSB/src/common/tusb_common.h ****  * OUT OF OR IN CONNECTION WITH THE SOFTWARE OR THE USE OR OTHER DEALINGS IN
  22:lib/TinyUSB/src/common/tusb_common.h ****  * THE SOFTWARE.
  23:lib/TinyUSB/src/common/tusb_common.h ****  *
  24:lib/TinyUSB/src/common/tusb_common.h ****  * This file is part of the TinyUSB stack.
  25:lib/TinyUSB/src/common/tusb_common.h ****  */
  26:lib/TinyUSB/src/common/tusb_common.h **** 
  27:lib/TinyUSB/src/common/tusb_common.h **** #ifndef TUSB_COMMON_H_
  28:lib/TinyUSB/src/common/tusb_common.h **** #define TUSB_COMMON_H_
  29:lib/TinyUSB/src/common/tusb_common.h **** 
  30:lib/TinyUSB/src/common/tusb_common.h **** #ifdef __cplusplus
  31:lib/TinyUSB/src/common/tusb_common.h ****  extern "C" {
  32:lib/TinyUSB/src/common/tusb_common.h **** #endif
ARM GAS  C:\Users\krisa\AppData\Local\Temp\ccuohWpS.s 			page 40


  33:lib/TinyUSB/src/common/tusb_common.h **** 
  34:lib/TinyUSB/src/common/tusb_common.h **** //--------------------------------------------------------------------+
  35:lib/TinyUSB/src/common/tusb_common.h **** // Macros Helper
  36:lib/TinyUSB/src/common/tusb_common.h **** //--------------------------------------------------------------------+
  37:lib/TinyUSB/src/common/tusb_common.h **** #define TU_ARRAY_SIZE(_arr)           ( sizeof(_arr) / sizeof(_arr[0]) )
  38:lib/TinyUSB/src/common/tusb_common.h **** #define TU_FIELD_SIZE(_type, _field)  (sizeof(((_type *)0)->_field))
  39:lib/TinyUSB/src/common/tusb_common.h **** #define TU_MIN(_x, _y)                ( ( (_x) < (_y) ) ? (_x) : (_y) )
  40:lib/TinyUSB/src/common/tusb_common.h **** #define TU_MAX(_x, _y)                ( ( (_x) > (_y) ) ? (_x) : (_y) )
  41:lib/TinyUSB/src/common/tusb_common.h **** #define TU_DIV_CEIL(n, d)             (((n) + (d) - 1) / (d))
  42:lib/TinyUSB/src/common/tusb_common.h **** #define TU_DIV_ROUND_NEAREST(v, d)    (((v) + (d)/2) / (d) ) // round to nearest integer
  43:lib/TinyUSB/src/common/tusb_common.h **** 
  44:lib/TinyUSB/src/common/tusb_common.h **** #define TU_U16(_high, _low)           ((uint16_t) ((((uint16_t) (_high)) << 8) | ((uint16_t) (_low)
  45:lib/TinyUSB/src/common/tusb_common.h **** #define TU_U16_HIGH(_u16)             ((uint8_t) (((uint16_t) (_u16) >> 8) & 0x00ffu))
  46:lib/TinyUSB/src/common/tusb_common.h **** #define TU_U16_LOW(_u16)              ((uint8_t) ((uint16_t) (_u16) & 0x00ffu))
  47:lib/TinyUSB/src/common/tusb_common.h **** #define U16_TO_U8S_BE(_u16)           TU_U16_HIGH(_u16), TU_U16_LOW(_u16)
  48:lib/TinyUSB/src/common/tusb_common.h **** #define U16_TO_U8S_LE(_u16)           TU_U16_LOW(_u16), TU_U16_HIGH(_u16)
  49:lib/TinyUSB/src/common/tusb_common.h **** 
  50:lib/TinyUSB/src/common/tusb_common.h **** #define TU_U24(_high, _mid, _low)     ((uint32_t) ((((uint32_t) (_high)) << 16) | (((uint32_t) (_mi
  51:lib/TinyUSB/src/common/tusb_common.h **** #define TU_U24_HIGH(_u24)             ((uint8_t) (((uint32_t) (_u24) >> 16) & 0x0000ffu))
  52:lib/TinyUSB/src/common/tusb_common.h **** #define TU_U24_MID(_u24)              ((uint8_t) (((uint32_t) (_u24) >>  8) & 0x0000ffu))
  53:lib/TinyUSB/src/common/tusb_common.h **** #define TU_U24_LOW(_u24)              ((uint8_t) ((uint32_t) (_u24) & 0x0000ffu))
  54:lib/TinyUSB/src/common/tusb_common.h **** #define U24_TO_U8S_BE(_u24)           TU_U24_HIGH(_u24), TU_U24_MID(_u24), TU_U24_LOW(_u24)
  55:lib/TinyUSB/src/common/tusb_common.h **** #define U24_TO_U8S_LE(_u24)           TU_U24_LOW(_u24), TU_U24_MID(_u24), TU_U24_HIGH(_u24)
  56:lib/TinyUSB/src/common/tusb_common.h **** 
  57:lib/TinyUSB/src/common/tusb_common.h **** #define TU_U32_BYTE3(_u32)            ((uint8_t) ((((uint32_t) _u32) >> 24) & 0x000000ff)) // MSB
  58:lib/TinyUSB/src/common/tusb_common.h **** #define TU_U32_BYTE2(_u32)            ((uint8_t) ((((uint32_t) _u32) >> 16) & 0x000000ff))
  59:lib/TinyUSB/src/common/tusb_common.h **** #define TU_U32_BYTE1(_u32)            ((uint8_t) ((((uint32_t) _u32) >>  8) & 0x000000ff))
  60:lib/TinyUSB/src/common/tusb_common.h **** #define TU_U32_BYTE0(_u32)            ((uint8_t) (((uint32_t)  _u32)        & 0x000000ff)) // LSB
  61:lib/TinyUSB/src/common/tusb_common.h **** 
  62:lib/TinyUSB/src/common/tusb_common.h **** #define U32_TO_U8S_BE(_u32)           TU_U32_BYTE3(_u32), TU_U32_BYTE2(_u32), TU_U32_BYTE1(_u32), T
  63:lib/TinyUSB/src/common/tusb_common.h **** #define U32_TO_U8S_LE(_u32)           TU_U32_BYTE0(_u32), TU_U32_BYTE1(_u32), TU_U32_BYTE2(_u32), T
  64:lib/TinyUSB/src/common/tusb_common.h **** 
  65:lib/TinyUSB/src/common/tusb_common.h **** #define TU_BIT(n)                     (1UL << (n))
  66:lib/TinyUSB/src/common/tusb_common.h **** 
  67:lib/TinyUSB/src/common/tusb_common.h **** // Generate a mask with bit from high (31) to low (0) set, e.g TU_GENMASK(3, 0) = 0b1111
  68:lib/TinyUSB/src/common/tusb_common.h **** #define TU_GENMASK(h, l)              ( (UINT32_MAX << (l)) & (UINT32_MAX >> (31 - (h))) )
  69:lib/TinyUSB/src/common/tusb_common.h **** 
  70:lib/TinyUSB/src/common/tusb_common.h **** //--------------------------------------------------------------------+
  71:lib/TinyUSB/src/common/tusb_common.h **** // Includes
  72:lib/TinyUSB/src/common/tusb_common.h **** //--------------------------------------------------------------------+
  73:lib/TinyUSB/src/common/tusb_common.h **** 
  74:lib/TinyUSB/src/common/tusb_common.h **** // Standard Headers
  75:lib/TinyUSB/src/common/tusb_common.h **** #include <stdbool.h>
  76:lib/TinyUSB/src/common/tusb_common.h **** #include <stdint.h>
  77:lib/TinyUSB/src/common/tusb_common.h **** #include <inttypes.h>
  78:lib/TinyUSB/src/common/tusb_common.h **** #include <stddef.h>
  79:lib/TinyUSB/src/common/tusb_common.h **** #include <string.h>
  80:lib/TinyUSB/src/common/tusb_common.h **** 
  81:lib/TinyUSB/src/common/tusb_common.h **** // Tinyusb Common Headers
  82:lib/TinyUSB/src/common/tusb_common.h **** #include "tusb_option.h"
  83:lib/TinyUSB/src/common/tusb_common.h **** #include "tusb_compiler.h"
  84:lib/TinyUSB/src/common/tusb_common.h **** #include "tusb_verify.h"
  85:lib/TinyUSB/src/common/tusb_common.h **** #include "tusb_types.h"
  86:lib/TinyUSB/src/common/tusb_common.h **** #include "tusb_debug.h"
  87:lib/TinyUSB/src/common/tusb_common.h **** 
  88:lib/TinyUSB/src/common/tusb_common.h **** //--------------------------------------------------------------------+
  89:lib/TinyUSB/src/common/tusb_common.h **** // API implemented by application if needed
ARM GAS  C:\Users\krisa\AppData\Local\Temp\ccuohWpS.s 			page 41


  90:lib/TinyUSB/src/common/tusb_common.h **** // TODO move to a more obvious place/file
  91:lib/TinyUSB/src/common/tusb_common.h **** //--------------------------------------------------------------------+
  92:lib/TinyUSB/src/common/tusb_common.h **** 
  93:lib/TinyUSB/src/common/tusb_common.h **** // Get current milliseconds, required by some port/configuration without RTOS
  94:lib/TinyUSB/src/common/tusb_common.h **** extern uint32_t tusb_time_millis_api(void);
  95:lib/TinyUSB/src/common/tusb_common.h **** 
  96:lib/TinyUSB/src/common/tusb_common.h **** // Delay in milliseconds, use tusb_time_millis_api() by default. required by some port/configuratio
  97:lib/TinyUSB/src/common/tusb_common.h **** extern void tusb_time_delay_ms_api(uint32_t ms);
  98:lib/TinyUSB/src/common/tusb_common.h **** 
  99:lib/TinyUSB/src/common/tusb_common.h **** // flush data cache
 100:lib/TinyUSB/src/common/tusb_common.h **** extern void tusb_app_dcache_flush(uintptr_t addr, uint32_t data_size);
 101:lib/TinyUSB/src/common/tusb_common.h **** 
 102:lib/TinyUSB/src/common/tusb_common.h **** // invalidate data cache
 103:lib/TinyUSB/src/common/tusb_common.h **** extern void tusb_app_dcache_invalidate(uintptr_t addr, uint32_t data_size);
 104:lib/TinyUSB/src/common/tusb_common.h **** 
 105:lib/TinyUSB/src/common/tusb_common.h **** // Optional physical <-> virtual address translation
 106:lib/TinyUSB/src/common/tusb_common.h **** extern void* tusb_app_virt_to_phys(void *virt_addr);
 107:lib/TinyUSB/src/common/tusb_common.h **** extern void* tusb_app_phys_to_virt(void *phys_addr);
 108:lib/TinyUSB/src/common/tusb_common.h **** 
 109:lib/TinyUSB/src/common/tusb_common.h **** //--------------------------------------------------------------------+
 110:lib/TinyUSB/src/common/tusb_common.h **** // Internal Inline Functions
 111:lib/TinyUSB/src/common/tusb_common.h **** //--------------------------------------------------------------------+
 112:lib/TinyUSB/src/common/tusb_common.h **** 
 113:lib/TinyUSB/src/common/tusb_common.h **** //------------- Mem -------------//
 114:lib/TinyUSB/src/common/tusb_common.h **** #define tu_memclr(buffer, size)  (void) memset((buffer), 0, (size))
 115:lib/TinyUSB/src/common/tusb_common.h **** #define tu_varclr(_var)          tu_memclr(_var, sizeof(*(_var)))
 116:lib/TinyUSB/src/common/tusb_common.h **** 
 117:lib/TinyUSB/src/common/tusb_common.h **** // This is a backport of memset_s from c11
 118:lib/TinyUSB/src/common/tusb_common.h **** TU_ATTR_ALWAYS_INLINE static inline int tu_memset_s(void *dest, size_t destsz, int ch, size_t count
 119:lib/TinyUSB/src/common/tusb_common.h ****   // Validate parameters
 120:lib/TinyUSB/src/common/tusb_common.h ****   if (dest == NULL) {
 121:lib/TinyUSB/src/common/tusb_common.h ****     return -1;
 122:lib/TinyUSB/src/common/tusb_common.h ****   }
 123:lib/TinyUSB/src/common/tusb_common.h **** 
 124:lib/TinyUSB/src/common/tusb_common.h ****   if (count == 0u) {
 125:lib/TinyUSB/src/common/tusb_common.h ****     return 0;
 126:lib/TinyUSB/src/common/tusb_common.h ****   }
 127:lib/TinyUSB/src/common/tusb_common.h **** 
 128:lib/TinyUSB/src/common/tusb_common.h ****   if (count > destsz) {
 129:lib/TinyUSB/src/common/tusb_common.h ****     return -1;
 130:lib/TinyUSB/src/common/tusb_common.h ****   }
 131:lib/TinyUSB/src/common/tusb_common.h **** 
 132:lib/TinyUSB/src/common/tusb_common.h ****   (void) memset(dest, ch, count);
 133:lib/TinyUSB/src/common/tusb_common.h ****   return 0;
 134:lib/TinyUSB/src/common/tusb_common.h **** }
 135:lib/TinyUSB/src/common/tusb_common.h **** 
 136:lib/TinyUSB/src/common/tusb_common.h **** // This is a backport of memcpy_s from c11
 137:lib/TinyUSB/src/common/tusb_common.h **** TU_ATTR_ALWAYS_INLINE static inline int tu_memcpy_s(void *dest, size_t destsz, const void *src, siz
 138:lib/TinyUSB/src/common/tusb_common.h ****   if (dest == NULL) {
 139:lib/TinyUSB/src/common/tusb_common.h ****     return -1;
 140:lib/TinyUSB/src/common/tusb_common.h ****   }
 141:lib/TinyUSB/src/common/tusb_common.h **** 
 142:lib/TinyUSB/src/common/tusb_common.h ****   if (count == 0u) {
 143:lib/TinyUSB/src/common/tusb_common.h ****     return 0;
 144:lib/TinyUSB/src/common/tusb_common.h ****   }
 145:lib/TinyUSB/src/common/tusb_common.h **** 
 146:lib/TinyUSB/src/common/tusb_common.h ****   if (src == NULL) {
ARM GAS  C:\Users\krisa\AppData\Local\Temp\ccuohWpS.s 			page 42


 147:lib/TinyUSB/src/common/tusb_common.h ****     return -1;
 148:lib/TinyUSB/src/common/tusb_common.h ****   }
 149:lib/TinyUSB/src/common/tusb_common.h **** 
 150:lib/TinyUSB/src/common/tusb_common.h ****   if (count > destsz) {
 151:lib/TinyUSB/src/common/tusb_common.h ****     return -1;
 152:lib/TinyUSB/src/common/tusb_common.h ****   }
 153:lib/TinyUSB/src/common/tusb_common.h **** 
 154:lib/TinyUSB/src/common/tusb_common.h ****   (void) memcpy(dest, src, count);
 155:lib/TinyUSB/src/common/tusb_common.h ****   return 0;
 156:lib/TinyUSB/src/common/tusb_common.h **** }
 157:lib/TinyUSB/src/common/tusb_common.h **** 
 158:lib/TinyUSB/src/common/tusb_common.h **** TU_ATTR_ALWAYS_INLINE static inline bool tu_mem_is_zero(const void *buffer, size_t size) {
 159:lib/TinyUSB/src/common/tusb_common.h ****   const uint8_t* buf8 = (const uint8_t*) buffer;
 160:lib/TinyUSB/src/common/tusb_common.h ****   for (size_t i = 0; i < size; i++) {
 161:lib/TinyUSB/src/common/tusb_common.h ****     if (buf8[i] != 0) { return false; }
 162:lib/TinyUSB/src/common/tusb_common.h ****   }
 163:lib/TinyUSB/src/common/tusb_common.h ****   return true;
 164:lib/TinyUSB/src/common/tusb_common.h **** }
 165:lib/TinyUSB/src/common/tusb_common.h **** 
 166:lib/TinyUSB/src/common/tusb_common.h **** TU_ATTR_ALWAYS_INLINE static inline bool tu_mem_is_ff(const void *buffer, size_t size) {
 167:lib/TinyUSB/src/common/tusb_common.h ****   const uint8_t* buf8 = (const uint8_t*) buffer;
 168:lib/TinyUSB/src/common/tusb_common.h ****   for (size_t i = 0; i < size; i++) {
 169:lib/TinyUSB/src/common/tusb_common.h ****     if (buf8[i] != 0xff) { return false; }
 170:lib/TinyUSB/src/common/tusb_common.h ****   }
 171:lib/TinyUSB/src/common/tusb_common.h ****   return true;
 172:lib/TinyUSB/src/common/tusb_common.h **** }
 173:lib/TinyUSB/src/common/tusb_common.h **** 
 174:lib/TinyUSB/src/common/tusb_common.h **** 
 175:lib/TinyUSB/src/common/tusb_common.h **** //------------- Bytes -------------//
 176:lib/TinyUSB/src/common/tusb_common.h **** TU_ATTR_ALWAYS_INLINE static inline uint32_t tu_u32(uint8_t b3, uint8_t b2, uint8_t b1, uint8_t b0)
 177:lib/TinyUSB/src/common/tusb_common.h ****   return (((uint32_t)b3) << 24) | (((uint32_t)b2) << 16) | (((uint32_t)b1) << 8) | b0;
 178:lib/TinyUSB/src/common/tusb_common.h **** }
 179:lib/TinyUSB/src/common/tusb_common.h **** 
 180:lib/TinyUSB/src/common/tusb_common.h **** TU_ATTR_ALWAYS_INLINE static inline uint32_t tu_u32_from_u16(uint16_t high, uint16_t low) {
 181:lib/TinyUSB/src/common/tusb_common.h ****   return (((uint32_t)high) << 16) | low;
 182:lib/TinyUSB/src/common/tusb_common.h **** }
 183:lib/TinyUSB/src/common/tusb_common.h **** 
 184:lib/TinyUSB/src/common/tusb_common.h **** TU_ATTR_ALWAYS_INLINE static inline uint16_t tu_u16(uint8_t high, uint8_t low) {
 185:lib/TinyUSB/src/common/tusb_common.h ****   return (uint16_t)((((uint16_t)high) << 8) | low);
 186:lib/TinyUSB/src/common/tusb_common.h **** }
 187:lib/TinyUSB/src/common/tusb_common.h **** 
 188:lib/TinyUSB/src/common/tusb_common.h **** TU_ATTR_ALWAYS_INLINE static inline uint8_t tu_u32_byte3(uint32_t ui32) { return TU_U32_BYTE3(ui32)
 189:lib/TinyUSB/src/common/tusb_common.h **** TU_ATTR_ALWAYS_INLINE static inline uint8_t tu_u32_byte2(uint32_t ui32) { return TU_U32_BYTE2(ui32)
 190:lib/TinyUSB/src/common/tusb_common.h **** TU_ATTR_ALWAYS_INLINE static inline uint8_t tu_u32_byte1(uint32_t ui32) { return TU_U32_BYTE1(ui32)
 191:lib/TinyUSB/src/common/tusb_common.h **** TU_ATTR_ALWAYS_INLINE static inline uint8_t tu_u32_byte0(uint32_t ui32) { return TU_U32_BYTE0(ui32)
 192:lib/TinyUSB/src/common/tusb_common.h **** 
 193:lib/TinyUSB/src/common/tusb_common.h **** TU_ATTR_ALWAYS_INLINE static inline uint16_t tu_u32_high16(uint32_t ui32) { return (uint16_t) (ui32
 194:lib/TinyUSB/src/common/tusb_common.h **** TU_ATTR_ALWAYS_INLINE static inline uint16_t tu_u32_low16 (uint32_t ui32) { return (uint16_t) (ui32
 195:lib/TinyUSB/src/common/tusb_common.h **** 
 196:lib/TinyUSB/src/common/tusb_common.h **** TU_ATTR_ALWAYS_INLINE static inline uint8_t tu_u16_high(uint16_t ui16) { return TU_U16_HIGH(ui16); 
 197:lib/TinyUSB/src/common/tusb_common.h **** TU_ATTR_ALWAYS_INLINE static inline uint8_t tu_u16_low (uint16_t ui16) { return TU_U16_LOW(ui16); }
 198:lib/TinyUSB/src/common/tusb_common.h **** 
 199:lib/TinyUSB/src/common/tusb_common.h **** //------------- Bits -------------//
 200:lib/TinyUSB/src/common/tusb_common.h **** TU_ATTR_ALWAYS_INLINE static inline uint32_t tu_bit_set  (uint32_t value, uint8_t pos) { return val
 201:lib/TinyUSB/src/common/tusb_common.h **** TU_ATTR_ALWAYS_INLINE static inline uint32_t tu_bit_clear(uint32_t value, uint8_t pos) { return val
 202:lib/TinyUSB/src/common/tusb_common.h **** TU_ATTR_ALWAYS_INLINE static inline bool     tu_bit_test (uint32_t value, uint8_t pos) { return (va
 203:lib/TinyUSB/src/common/tusb_common.h **** 
ARM GAS  C:\Users\krisa\AppData\Local\Temp\ccuohWpS.s 			page 43


 204:lib/TinyUSB/src/common/tusb_common.h **** //------------- Min -------------//
 205:lib/TinyUSB/src/common/tusb_common.h **** TU_ATTR_ALWAYS_INLINE static inline uint8_t  tu_min8  (uint8_t  x, uint8_t y ) { return (x < y) ? x
 206:lib/TinyUSB/src/common/tusb_common.h **** TU_ATTR_ALWAYS_INLINE static inline uint16_t tu_min16 (uint16_t x, uint16_t y) { return (x < y) ? x
 207:lib/TinyUSB/src/common/tusb_common.h **** TU_ATTR_ALWAYS_INLINE static inline uint32_t tu_min32 (uint32_t x, uint32_t y) { return (x < y) ? x
 208:lib/TinyUSB/src/common/tusb_common.h **** 
 209:lib/TinyUSB/src/common/tusb_common.h **** //------------- Max -------------//
 210:lib/TinyUSB/src/common/tusb_common.h **** TU_ATTR_ALWAYS_INLINE static inline uint8_t  tu_max8  (uint8_t  x, uint8_t y ) { return (x > y) ? x
 211:lib/TinyUSB/src/common/tusb_common.h **** TU_ATTR_ALWAYS_INLINE static inline uint16_t tu_max16 (uint16_t x, uint16_t y) { return (x > y) ? x
 212:lib/TinyUSB/src/common/tusb_common.h **** TU_ATTR_ALWAYS_INLINE static inline uint32_t tu_max32 (uint32_t x, uint32_t y) { return (x > y) ? x
 213:lib/TinyUSB/src/common/tusb_common.h **** 
 214:lib/TinyUSB/src/common/tusb_common.h **** //------------- Align -------------//
 215:lib/TinyUSB/src/common/tusb_common.h **** TU_ATTR_ALWAYS_INLINE static inline uint32_t tu_align(uint32_t value, uint32_t alignment) {
 216:lib/TinyUSB/src/common/tusb_common.h ****   return value & ((uint32_t) ~(alignment-1));
 217:lib/TinyUSB/src/common/tusb_common.h **** }
 218:lib/TinyUSB/src/common/tusb_common.h **** 
 219:lib/TinyUSB/src/common/tusb_common.h **** TU_ATTR_ALWAYS_INLINE static inline uint32_t tu_align4  (uint32_t value) { return (value & 0xFFFFFF
 220:lib/TinyUSB/src/common/tusb_common.h **** TU_ATTR_ALWAYS_INLINE static inline uint32_t tu_align8  (uint32_t value) { return (value & 0xFFFFFF
 221:lib/TinyUSB/src/common/tusb_common.h **** TU_ATTR_ALWAYS_INLINE static inline uint32_t tu_align16 (uint32_t value) { return (value & 0xFFFFFF
 222:lib/TinyUSB/src/common/tusb_common.h **** TU_ATTR_ALWAYS_INLINE static inline uint32_t tu_align32 (uint32_t value) { return (value & 0xFFFFFF
 223:lib/TinyUSB/src/common/tusb_common.h **** TU_ATTR_ALWAYS_INLINE static inline uint32_t tu_align4k (uint32_t value) { return (value & 0xFFFFF0
 224:lib/TinyUSB/src/common/tusb_common.h **** TU_ATTR_ALWAYS_INLINE static inline uint32_t tu_offset4k(uint32_t value) { return (value & 0xFFFUL)
 225:lib/TinyUSB/src/common/tusb_common.h **** 
 226:lib/TinyUSB/src/common/tusb_common.h **** TU_ATTR_ALWAYS_INLINE static inline bool tu_is_aligned32(uint32_t value) { return (value & 0x1FUL) 
 227:lib/TinyUSB/src/common/tusb_common.h **** TU_ATTR_ALWAYS_INLINE static inline bool tu_is_aligned64(uint64_t value) { return (value & 0x3FUL) 
 228:lib/TinyUSB/src/common/tusb_common.h **** 
 229:lib/TinyUSB/src/common/tusb_common.h **** //------------- Mathematics -------------//
 230:lib/TinyUSB/src/common/tusb_common.h **** TU_ATTR_ALWAYS_INLINE static inline uint32_t tu_div_ceil(uint32_t v, uint32_t d) { return TU_DIV_CE
 231:lib/TinyUSB/src/common/tusb_common.h **** TU_ATTR_ALWAYS_INLINE static inline uint32_t tu_div_round_nearest(uint32_t v, uint32_t d) { return 
 232:lib/TinyUSB/src/common/tusb_common.h **** 
 233:lib/TinyUSB/src/common/tusb_common.h **** TU_ATTR_ALWAYS_INLINE static inline uint32_t tu_round_up(uint32_t v, uint32_t f) { return tu_div_ce
 234:lib/TinyUSB/src/common/tusb_common.h **** 
 235:lib/TinyUSB/src/common/tusb_common.h **** // log2 of a value is its MSB's position
 236:lib/TinyUSB/src/common/tusb_common.h **** // TODO use clz TODO remove
 237:lib/TinyUSB/src/common/tusb_common.h **** TU_ATTR_ALWAYS_INLINE static inline uint8_t tu_log2(uint32_t value) {
 238:lib/TinyUSB/src/common/tusb_common.h ****   uint8_t result = 0;
 239:lib/TinyUSB/src/common/tusb_common.h ****   while ((value >>= 1u) != 0u) {
 240:lib/TinyUSB/src/common/tusb_common.h ****     result++;
 241:lib/TinyUSB/src/common/tusb_common.h ****   }
 242:lib/TinyUSB/src/common/tusb_common.h ****   return result;
 243:lib/TinyUSB/src/common/tusb_common.h **** }
 244:lib/TinyUSB/src/common/tusb_common.h **** 
 245:lib/TinyUSB/src/common/tusb_common.h **** //static inline uint8_t tu_log2(uint32_t value)
 246:lib/TinyUSB/src/common/tusb_common.h **** //{
 247:lib/TinyUSB/src/common/tusb_common.h **** //   return sizeof(uint32_t) * CHAR_BIT - __builtin_clz(x) - 1;
 248:lib/TinyUSB/src/common/tusb_common.h **** //}
 249:lib/TinyUSB/src/common/tusb_common.h **** 
 250:lib/TinyUSB/src/common/tusb_common.h **** TU_ATTR_ALWAYS_INLINE static inline bool tu_is_power_of_two(uint32_t value) {
 251:lib/TinyUSB/src/common/tusb_common.h ****    return (value != 0) && ((value & (value - 1)) == 0);
 252:lib/TinyUSB/src/common/tusb_common.h **** }
 253:lib/TinyUSB/src/common/tusb_common.h **** 
 254:lib/TinyUSB/src/common/tusb_common.h **** //------------- Unaligned Access -------------//
 255:lib/TinyUSB/src/common/tusb_common.h **** #if TUP_ARCH_STRICT_ALIGN
 256:lib/TinyUSB/src/common/tusb_common.h **** 
 257:lib/TinyUSB/src/common/tusb_common.h **** // Rely on compiler to generate correct code for unaligned access
 258:lib/TinyUSB/src/common/tusb_common.h **** typedef struct { uint16_t val; } TU_ATTR_PACKED tu_unaligned_uint16_t;
 259:lib/TinyUSB/src/common/tusb_common.h **** typedef struct { uint32_t val; } TU_ATTR_PACKED tu_unaligned_uint32_t;
 260:lib/TinyUSB/src/common/tusb_common.h **** 
ARM GAS  C:\Users\krisa\AppData\Local\Temp\ccuohWpS.s 			page 44


 261:lib/TinyUSB/src/common/tusb_common.h **** TU_ATTR_ALWAYS_INLINE static inline uint32_t tu_unaligned_read32(const void *mem) {
 262:lib/TinyUSB/src/common/tusb_common.h ****   tu_unaligned_uint32_t const *ua32 = (tu_unaligned_uint32_t const *) mem;
 263:lib/TinyUSB/src/common/tusb_common.h ****   return ua32->val;
 264:lib/TinyUSB/src/common/tusb_common.h **** }
 265:lib/TinyUSB/src/common/tusb_common.h **** 
 266:lib/TinyUSB/src/common/tusb_common.h **** TU_ATTR_ALWAYS_INLINE static inline void tu_unaligned_write32(void *mem, uint32_t value) {
 267:lib/TinyUSB/src/common/tusb_common.h ****   tu_unaligned_uint32_t *ua32 = (tu_unaligned_uint32_t *) mem;
 268:lib/TinyUSB/src/common/tusb_common.h ****   ua32->val = value;
 269:lib/TinyUSB/src/common/tusb_common.h **** }
 270:lib/TinyUSB/src/common/tusb_common.h **** 
 271:lib/TinyUSB/src/common/tusb_common.h **** TU_ATTR_ALWAYS_INLINE static inline uint16_t tu_unaligned_read16(const void *mem) {
 272:lib/TinyUSB/src/common/tusb_common.h ****   tu_unaligned_uint16_t const *ua16 = (tu_unaligned_uint16_t const *) mem;
 273:lib/TinyUSB/src/common/tusb_common.h ****   return ua16->val;
 274:lib/TinyUSB/src/common/tusb_common.h **** }
 275:lib/TinyUSB/src/common/tusb_common.h **** 
 276:lib/TinyUSB/src/common/tusb_common.h **** TU_ATTR_ALWAYS_INLINE static inline void tu_unaligned_write16(void *mem, uint16_t value) {
 277:lib/TinyUSB/src/common/tusb_common.h ****   tu_unaligned_uint16_t *ua16 = (tu_unaligned_uint16_t *) mem;
 278:lib/TinyUSB/src/common/tusb_common.h ****   ua16->val = value;
 279:lib/TinyUSB/src/common/tusb_common.h **** }
 280:lib/TinyUSB/src/common/tusb_common.h **** 
 281:lib/TinyUSB/src/common/tusb_common.h **** #elif TUP_MCU_STRICT_ALIGN
 282:lib/TinyUSB/src/common/tusb_common.h **** 
 283:lib/TinyUSB/src/common/tusb_common.h **** // MCU such as LPC_IP3511 Highspeed cannot access unaligned memory on USB_RAM although it is ARM M4
 284:lib/TinyUSB/src/common/tusb_common.h **** // We have to manually pick up bytes since tu_unaligned_uint32_t will still generate unaligned code
 285:lib/TinyUSB/src/common/tusb_common.h **** // NOTE: volatile cast to memory to prevent compiler to optimize and generate unaligned code
 286:lib/TinyUSB/src/common/tusb_common.h **** // TODO Big Endian may need minor changes
 287:lib/TinyUSB/src/common/tusb_common.h **** TU_ATTR_ALWAYS_INLINE static inline uint32_t tu_unaligned_read32(const void* mem) {
 288:lib/TinyUSB/src/common/tusb_common.h ****   volatile uint8_t const* buf8 = (uint8_t const*) mem;
 289:lib/TinyUSB/src/common/tusb_common.h ****   return tu_u32(buf8[3], buf8[2], buf8[1], buf8[0]);
 290:lib/TinyUSB/src/common/tusb_common.h **** }
 291:lib/TinyUSB/src/common/tusb_common.h **** 
 292:lib/TinyUSB/src/common/tusb_common.h **** TU_ATTR_ALWAYS_INLINE static inline void tu_unaligned_write32(void* mem, uint32_t value) {
 293:lib/TinyUSB/src/common/tusb_common.h ****   volatile uint8_t* buf8 = (uint8_t*) mem;
 294:lib/TinyUSB/src/common/tusb_common.h ****   buf8[0] = tu_u32_byte0(value);
 295:lib/TinyUSB/src/common/tusb_common.h ****   buf8[1] = tu_u32_byte1(value);
 296:lib/TinyUSB/src/common/tusb_common.h ****   buf8[2] = tu_u32_byte2(value);
 297:lib/TinyUSB/src/common/tusb_common.h ****   buf8[3] = tu_u32_byte3(value);
 298:lib/TinyUSB/src/common/tusb_common.h **** }
 299:lib/TinyUSB/src/common/tusb_common.h **** 
 300:lib/TinyUSB/src/common/tusb_common.h **** TU_ATTR_ALWAYS_INLINE static inline uint16_t tu_unaligned_read16(const void* mem) {
 301:lib/TinyUSB/src/common/tusb_common.h ****   volatile uint8_t const* buf8 = (uint8_t const*) mem;
 302:lib/TinyUSB/src/common/tusb_common.h ****   return tu_u16(buf8[1], buf8[0]);
 303:lib/TinyUSB/src/common/tusb_common.h **** }
 304:lib/TinyUSB/src/common/tusb_common.h **** 
 305:lib/TinyUSB/src/common/tusb_common.h **** TU_ATTR_ALWAYS_INLINE static inline void tu_unaligned_write16(void* mem, uint16_t value) {
 306:lib/TinyUSB/src/common/tusb_common.h ****   volatile uint8_t* buf8 = (uint8_t*) mem;
 307:lib/TinyUSB/src/common/tusb_common.h ****   buf8[0] = tu_u16_low(value);
 308:lib/TinyUSB/src/common/tusb_common.h ****   buf8[1] = tu_u16_high(value);
 309:lib/TinyUSB/src/common/tusb_common.h **** }
 310:lib/TinyUSB/src/common/tusb_common.h **** 
 311:lib/TinyUSB/src/common/tusb_common.h **** #else
 312:lib/TinyUSB/src/common/tusb_common.h **** 
 313:lib/TinyUSB/src/common/tusb_common.h **** // MCU that could access unaligned memory natively
 314:lib/TinyUSB/src/common/tusb_common.h **** TU_ATTR_ALWAYS_INLINE static inline uint32_t tu_unaligned_read32(const void *mem) {
 315:lib/TinyUSB/src/common/tusb_common.h ****   return *((uint32_t const *) mem);
 316:lib/TinyUSB/src/common/tusb_common.h **** }
 317:lib/TinyUSB/src/common/tusb_common.h **** 
ARM GAS  C:\Users\krisa\AppData\Local\Temp\ccuohWpS.s 			page 45


 318:lib/TinyUSB/src/common/tusb_common.h **** TU_ATTR_ALWAYS_INLINE static inline uint16_t tu_unaligned_read16(const void *mem) {
 319:lib/TinyUSB/src/common/tusb_common.h ****   return *((uint16_t const *) mem);
 320:lib/TinyUSB/src/common/tusb_common.h **** }
 321:lib/TinyUSB/src/common/tusb_common.h **** 
 322:lib/TinyUSB/src/common/tusb_common.h **** TU_ATTR_ALWAYS_INLINE static inline void tu_unaligned_write32(void *mem, uint32_t value) {
 323:lib/TinyUSB/src/common/tusb_common.h ****   *((uint32_t *) mem) = value;
 324:lib/TinyUSB/src/common/tusb_common.h **** }
 325:lib/TinyUSB/src/common/tusb_common.h **** 
 326:lib/TinyUSB/src/common/tusb_common.h **** TU_ATTR_ALWAYS_INLINE static inline void tu_unaligned_write16(void *mem, uint16_t value) {
 327:lib/TinyUSB/src/common/tusb_common.h ****   *((uint16_t *) mem) = value;
 328:lib/TinyUSB/src/common/tusb_common.h **** }
 329:lib/TinyUSB/src/common/tusb_common.h **** 
 330:lib/TinyUSB/src/common/tusb_common.h **** #endif
 331:lib/TinyUSB/src/common/tusb_common.h **** 
 332:lib/TinyUSB/src/common/tusb_common.h **** // scatter read 4 bytes from two buffers. Parameter are not checked
 333:lib/TinyUSB/src/common/tusb_common.h **** TU_ATTR_ALWAYS_INLINE static inline uint32_t tu_scatter_read32(const uint8_t *buf1, uint8_t len1, c
 334:lib/TinyUSB/src/common/tusb_common.h ****                                                                uint8_t len2) {
 335:lib/TinyUSB/src/common/tusb_common.h ****   uint32_t result = 0;
 336:lib/TinyUSB/src/common/tusb_common.h ****   uint8_t  shift  = 0;
 337:lib/TinyUSB/src/common/tusb_common.h **** 
 338:lib/TinyUSB/src/common/tusb_common.h ****   for (uint8_t i = 0; i < len1; ++i) {
 339:lib/TinyUSB/src/common/tusb_common.h ****     result |= ((uint32_t)buf1[i]) << shift;
 340:lib/TinyUSB/src/common/tusb_common.h ****     shift += 8;
 341:lib/TinyUSB/src/common/tusb_common.h ****   }
 342:lib/TinyUSB/src/common/tusb_common.h **** 
 343:lib/TinyUSB/src/common/tusb_common.h ****   for (uint8_t i = 0; i < len2; ++i) {
 344:lib/TinyUSB/src/common/tusb_common.h ****     result |= ((uint32_t)buf2[i]) << shift;
 345:lib/TinyUSB/src/common/tusb_common.h ****     shift += 8;
 346:lib/TinyUSB/src/common/tusb_common.h ****   }
 347:lib/TinyUSB/src/common/tusb_common.h **** 
 348:lib/TinyUSB/src/common/tusb_common.h ****   return result;
 349:lib/TinyUSB/src/common/tusb_common.h **** }
 350:lib/TinyUSB/src/common/tusb_common.h **** 
 351:lib/TinyUSB/src/common/tusb_common.h **** // scatter write 4 bytes to two buffers. Parameter are not checked
 352:lib/TinyUSB/src/common/tusb_common.h **** TU_ATTR_ALWAYS_INLINE static inline void tu_scatter_write32(uint32_t value, uint8_t *buf1, uint8_t 
 353:lib/TinyUSB/src/common/tusb_common.h ****                                                             uint8_t *buf2, uint8_t len2) {
 354:lib/TinyUSB/src/common/tusb_common.h ****   for (uint8_t i = 0; i < len1; ++i) {
 355:lib/TinyUSB/src/common/tusb_common.h ****     buf1[i] = (uint8_t)(value & 0xFF);
 356:lib/TinyUSB/src/common/tusb_common.h ****     value >>= 8;
 357:lib/TinyUSB/src/common/tusb_common.h ****   }
 358:lib/TinyUSB/src/common/tusb_common.h **** 
 359:lib/TinyUSB/src/common/tusb_common.h ****   for (uint8_t i = 0; i < len2; ++i) {
 360:lib/TinyUSB/src/common/tusb_common.h ****     buf2[i] = (uint8_t)(value & 0xFF);
 361:lib/TinyUSB/src/common/tusb_common.h ****     value >>= 8;
 362:lib/TinyUSB/src/common/tusb_common.h ****   }
 363:lib/TinyUSB/src/common/tusb_common.h **** }
 364:lib/TinyUSB/src/common/tusb_common.h **** 
 365:lib/TinyUSB/src/common/tusb_common.h **** //--------------------------------------------------------------------+
 366:lib/TinyUSB/src/common/tusb_common.h **** // Descriptor helper
 367:lib/TinyUSB/src/common/tusb_common.h **** //--------------------------------------------------------------------+
 368:lib/TinyUSB/src/common/tusb_common.h **** 
 369:lib/TinyUSB/src/common/tusb_common.h **** // return next descriptor
 370:lib/TinyUSB/src/common/tusb_common.h **** TU_ATTR_ALWAYS_INLINE static inline uint8_t const * tu_desc_next(void const* desc) {
 371:lib/TinyUSB/src/common/tusb_common.h ****   uint8_t const* desc8 = (uint8_t const*) desc;
 372:lib/TinyUSB/src/common/tusb_common.h ****   return desc8 + desc8[DESC_OFFSET_LEN];
 373:lib/TinyUSB/src/common/tusb_common.h **** }
 374:lib/TinyUSB/src/common/tusb_common.h **** 
ARM GAS  C:\Users\krisa\AppData\Local\Temp\ccuohWpS.s 			page 46


 375:lib/TinyUSB/src/common/tusb_common.h **** // get descriptor length
 376:lib/TinyUSB/src/common/tusb_common.h **** TU_ATTR_ALWAYS_INLINE static inline uint8_t tu_desc_len(void const* desc) {
 377:lib/TinyUSB/src/common/tusb_common.h ****   return ((uint8_t const*) desc)[DESC_OFFSET_LEN];
 378:lib/TinyUSB/src/common/tusb_common.h **** }
 379:lib/TinyUSB/src/common/tusb_common.h **** 
 380:lib/TinyUSB/src/common/tusb_common.h **** // get descriptor type
 381:lib/TinyUSB/src/common/tusb_common.h **** TU_ATTR_ALWAYS_INLINE static inline uint8_t tu_desc_type(void const* desc) {
 382:lib/TinyUSB/src/common/tusb_common.h ****   return ((uint8_t const*) desc)[DESC_OFFSET_TYPE];
 383:lib/TinyUSB/src/common/tusb_common.h **** }
 384:lib/TinyUSB/src/common/tusb_common.h **** 
 385:lib/TinyUSB/src/common/tusb_common.h **** // get descriptor subtype
 386:lib/TinyUSB/src/common/tusb_common.h **** TU_ATTR_ALWAYS_INLINE static inline uint8_t tu_desc_subtype(void const* desc) {
 387:lib/TinyUSB/src/common/tusb_common.h ****   return ((uint8_t const*) desc)[DESC_OFFSET_SUBTYPE];
 388:lib/TinyUSB/src/common/tusb_common.h **** }
 389:lib/TinyUSB/src/common/tusb_common.h **** 
 390:lib/TinyUSB/src/common/tusb_common.h **** TU_ATTR_ALWAYS_INLINE static inline bool tu_desc_in_bounds(const uint8_t *p_desc, const uint8_t *de
 391:lib/TinyUSB/src/common/tusb_common.h ****   return p_desc < desc_end && tu_desc_next(p_desc) <= desc_end;
 1043              		.loc 3 391 28 view .LVU286
 1044 0040 0025     		movs	r5, #0
 1045              	.L107:
 1046              	.LVL82:
 1047              		.loc 3 391 28 view .LVU287
 1048              	.LBE94:
 1049              	.LBE93:
 283:lib/TinyUSB/src/tusb.c ****     const uint8_t desc_type = tu_desc_type(p_desc);
 1050              		.loc 1 283 9 view .LVU288
 1051 0042 9DB1     		cbz	r5, .L113
 1052              	.LBB98:
 284:lib/TinyUSB/src/tusb.c **** 
 1053              		.loc 1 284 5 is_stmt 1 view .LVU289
 1054              	.LVL83:
 1055              	.LBB89:
 1056              	.LBI89:
 381:lib/TinyUSB/src/common/tusb_common.h ****   return ((uint8_t const*) desc)[DESC_OFFSET_TYPE];
 1057              		.loc 3 381 45 view .LVU290
 1058              	.LBB90:
 382:lib/TinyUSB/src/common/tusb_common.h **** }
 1059              		.loc 3 382 3 view .LVU291
 382:lib/TinyUSB/src/common/tusb_common.h **** }
 1060              		.loc 3 382 33 is_stmt 0 view .LVU292
 1061 0044 94F801C0 		ldrb	ip, [r4, #1]	@ zero_extendqisi2
 1062              	.LVL84:
 382:lib/TinyUSB/src/common/tusb_common.h **** }
 1063              		.loc 3 382 33 view .LVU293
 1064              	.LBE90:
 1065              	.LBE89:
 286:lib/TinyUSB/src/tusb.c ****       const uint8_t ep_addr  = ((const tusb_desc_endpoint_t *)p_desc)->bEndpointAddress;
 1066              		.loc 1 286 5 is_stmt 1 view .LVU294
 286:lib/TinyUSB/src/tusb.c ****       const uint8_t ep_addr  = ((const tusb_desc_endpoint_t *)p_desc)->bEndpointAddress;
 1067              		.loc 1 286 8 is_stmt 0 view .LVU295
 1068 0048 BCF1050F 		cmp	ip, #5
 1069 004c DED0     		beq	.L114
 291:lib/TinyUSB/src/tusb.c ****       const tusb_desc_interface_t *desc_itf = (const tusb_desc_interface_t *)p_desc;
 1070              		.loc 1 291 12 is_stmt 1 view .LVU296
 291:lib/TinyUSB/src/tusb.c ****       const tusb_desc_interface_t *desc_itf = (const tusb_desc_interface_t *)p_desc;
 1071              		.loc 1 291 15 is_stmt 0 view .LVU297
 1072 004e BCF1040F 		cmp	ip, #4
ARM GAS  C:\Users\krisa\AppData\Local\Temp\ccuohWpS.s 			page 47


 1073 0052 E4D0     		beq	.L115
 1074              	.LVL85:
 1075              	.L103:
 299:lib/TinyUSB/src/tusb.c ****   }
 1076              		.loc 1 299 5 is_stmt 1 view .LVU298
 1077              	.LBB91:
 1078              	.LBI91:
 370:lib/TinyUSB/src/common/tusb_common.h ****   uint8_t const* desc8 = (uint8_t const*) desc;
 1079              		.loc 3 370 53 view .LVU299
 1080              	.LBB92:
 371:lib/TinyUSB/src/common/tusb_common.h ****   return desc8 + desc8[DESC_OFFSET_LEN];
 1081              		.loc 3 371 3 view .LVU300
 372:lib/TinyUSB/src/common/tusb_common.h **** }
 1082              		.loc 3 372 3 view .LVU301
 372:lib/TinyUSB/src/common/tusb_common.h **** }
 1083              		.loc 3 372 23 is_stmt 0 view .LVU302
 1084 0054 2578     		ldrb	r5, [r4]	@ zero_extendqisi2
 372:lib/TinyUSB/src/common/tusb_common.h **** }
 1085              		.loc 3 372 16 view .LVU303
 1086 0056 2C44     		add	r4, r4, r5
 1087              	.LVL86:
 1088              	.L101:
 372:lib/TinyUSB/src/common/tusb_common.h **** }
 1089              		.loc 3 372 16 view .LVU304
 1090              	.LBE92:
 1091              	.LBE91:
 1092              	.LBE98:
 283:lib/TinyUSB/src/tusb.c ****     const uint8_t desc_type = tu_desc_type(p_desc);
 1093              		.loc 1 283 9 is_stmt 1 view .LVU305
 1094              	.LBB99:
 1095              	.LBI93:
 390:lib/TinyUSB/src/common/tusb_common.h ****   return p_desc < desc_end && tu_desc_next(p_desc) <= desc_end;
 1096              		.loc 3 390 42 view .LVU306
 1097              	.LBB97:
 1098              		.loc 3 391 3 view .LVU307
 1099              		.loc 3 391 28 is_stmt 0 view .LVU308
 1100 0058 7445     		cmp	r4, lr
 1101 005a F1D2     		bcs	.L109
 1102              	.LVL87:
 1103              	.LBB95:
 1104              	.LBI95:
 370:lib/TinyUSB/src/common/tusb_common.h ****   uint8_t const* desc8 = (uint8_t const*) desc;
 1105              		.loc 3 370 53 is_stmt 1 view .LVU309
 1106              	.LBB96:
 371:lib/TinyUSB/src/common/tusb_common.h ****   return desc8 + desc8[DESC_OFFSET_LEN];
 1107              		.loc 3 371 3 view .LVU310
 372:lib/TinyUSB/src/common/tusb_common.h **** }
 1108              		.loc 3 372 3 view .LVU311
 372:lib/TinyUSB/src/common/tusb_common.h **** }
 1109              		.loc 3 372 23 is_stmt 0 view .LVU312
 1110 005c 2578     		ldrb	r5, [r4]	@ zero_extendqisi2
 372:lib/TinyUSB/src/common/tusb_common.h **** }
 1111              		.loc 3 372 16 view .LVU313
 1112 005e 2544     		add	r5, r5, r4
 1113              	.LVL88:
 372:lib/TinyUSB/src/common/tusb_common.h **** }
 1114              		.loc 3 372 16 view .LVU314
ARM GAS  C:\Users\krisa\AppData\Local\Temp\ccuohWpS.s 			page 48


 1115              	.LBE96:
 1116              	.LBE95:
 1117              		.loc 3 391 28 view .LVU315
 1118 0060 AE45     		cmp	lr, r5
 1119 0062 01D3     		bcc	.L110
 1120 0064 0125     		movs	r5, #1
 1121 0066 ECE7     		b	.L107
 1122              	.L110:
 1123 0068 0025     		movs	r5, #0
 1124 006a EAE7     		b	.L107
 1125              	.LVL89:
 1126              	.L113:
 1127              		.loc 3 391 28 view .LVU316
 1128              	.LBE97:
 1129              	.LBE99:
 301:lib/TinyUSB/src/tusb.c **** }
 1130              		.loc 1 301 10 view .LVU317
 1131 006c 0120     		movs	r0, #1
 1132              	.LVL90:
 1133              	.L106:
 302:lib/TinyUSB/src/tusb.c **** 
 1134              		.loc 1 302 1 view .LVU318
 1135 006e 30BD     		pop	{r4, r5, pc}
 302:lib/TinyUSB/src/tusb.c **** 
 1136              		.loc 1 302 1 view .LVU319
 1137              		.cfi_endproc
 1138              	.LFE122:
 1140              		.section	.text.tu_edpt_stream_init,"ax",%progbits
 1141              		.align	1
 1142              		.global	tu_edpt_stream_init
 1143              		.syntax unified
 1144              		.thumb
 1145              		.thumb_func
 1147              	tu_edpt_stream_init:
 1148              	.LVL91:
 1149              	.LFB123:
 309:lib/TinyUSB/src/tusb.c ****   (void) is_tx;
 1150              		.loc 1 309 85 is_stmt 1 view -0
 1151              		.cfi_startproc
 1152              		@ args = 16, pretend = 0, frame = 0
 1153              		@ frame_needed = 0, uses_anonymous_args = 0
 309:lib/TinyUSB/src/tusb.c ****   (void) is_tx;
 1154              		.loc 1 309 85 is_stmt 0 view .LVU321
 1155 0000 10B5     		push	{r4, lr}
 1156              	.LCFI17:
 1157              		.cfi_def_cfa_offset 8
 1158              		.cfi_offset 4, -8
 1159              		.cfi_offset 14, -4
 1160 0002 82B0     		sub	sp, sp, #8
 1161              	.LCFI18:
 1162              		.cfi_def_cfa_offset 16
 1163 0004 0446     		mov	r4, r0
 1164 0006 0498     		ldr	r0, [sp, #16]
 1165              	.LVL92:
 309:lib/TinyUSB/src/tusb.c ****   (void) is_tx;
 1166              		.loc 1 309 85 view .LVU322
 1167 0008 BDF81420 		ldrh	r2, [sp, #20]
ARM GAS  C:\Users\krisa\AppData\Local\Temp\ccuohWpS.s 			page 49


 1168              	.LVL93:
 310:lib/TinyUSB/src/tusb.c **** 
 1169              		.loc 1 310 3 is_stmt 1 view .LVU323
 313:lib/TinyUSB/src/tusb.c ****     return false;
 1170              		.loc 1 313 3 view .LVU324
 313:lib/TinyUSB/src/tusb.c ****     return false;
 1171              		.loc 1 313 6 is_stmt 0 view .LVU325
 1172 000c 90B1     		cbz	r0, .L118
 313:lib/TinyUSB/src/tusb.c ****     return false;
 1173              		.loc 1 313 22 discriminator 1 view .LVU326
 1174 000e 12B9     		cbnz	r2, .L121
 314:lib/TinyUSB/src/tusb.c ****   }
 1175              		.loc 1 314 12 view .LVU327
 1176 0010 0020     		movs	r0, #0
 1177              	.LVL94:
 1178              	.L117:
 332:lib/TinyUSB/src/tusb.c **** 
 1179              		.loc 1 332 1 view .LVU328
 1180 0012 02B0     		add	sp, sp, #8
 1181              	.LCFI19:
 1182              		.cfi_remember_state
 1183              		.cfi_def_cfa_offset 8
 1184              		@ sp needed
 1185 0014 10BD     		pop	{r4, pc}
 1186              	.LVL95:
 1187              	.L121:
 1188              	.LCFI20:
 1189              		.cfi_restore_state
 318:lib/TinyUSB/src/tusb.c ****   tu_fifo_config(&s->ff, ff_buf, ff_bufsize, 1, overwritable);
 1190              		.loc 1 318 3 is_stmt 1 view .LVU329
 318:lib/TinyUSB/src/tusb.c ****   tu_fifo_config(&s->ff, ff_buf, ff_bufsize, 1, overwritable);
 1191              		.loc 1 318 14 is_stmt 0 view .LVU330
 1192 0016 6170     		strb	r1, [r4, #1]
 319:lib/TinyUSB/src/tusb.c **** 
 1193              		.loc 1 319 3 is_stmt 1 view .LVU331
 1194 0018 0093     		str	r3, [sp]
 1195 001a 0123     		movs	r3, #1
 1196              	.LVL96:
 319:lib/TinyUSB/src/tusb.c **** 
 1197              		.loc 1 319 3 is_stmt 0 view .LVU332
 1198 001c 0146     		mov	r1, r0
 1199              	.LVL97:
 319:lib/TinyUSB/src/tusb.c **** 
 1200              		.loc 1 319 3 view .LVU333
 1201 001e 04F10C00 		add	r0, r4, #12
 1202 0022 FFF7FEFF 		bl	tu_fifo_config
 1203              	.LVL98:
 328:lib/TinyUSB/src/tusb.c ****   s->ep_bufsize = ep_bufsize;
 1204              		.loc 1 328 3 is_stmt 1 view .LVU334
 328:lib/TinyUSB/src/tusb.c ****   s->ep_bufsize = ep_bufsize;
 1205              		.loc 1 328 13 is_stmt 0 view .LVU335
 1206 0026 069B     		ldr	r3, [sp, #24]
 1207 0028 A360     		str	r3, [r4, #8]
 329:lib/TinyUSB/src/tusb.c **** 
 1208              		.loc 1 329 3 is_stmt 1 view .LVU336
 329:lib/TinyUSB/src/tusb.c **** 
 1209              		.loc 1 329 17 is_stmt 0 view .LVU337
ARM GAS  C:\Users\krisa\AppData\Local\Temp\ccuohWpS.s 			page 50


 1210 002a BDF81C30 		ldrh	r3, [sp, #28]
 1211 002e E380     		strh	r3, [r4, #6]	@ movhi
 331:lib/TinyUSB/src/tusb.c **** }
 1212              		.loc 1 331 3 is_stmt 1 view .LVU338
 331:lib/TinyUSB/src/tusb.c **** }
 1213              		.loc 1 331 10 is_stmt 0 view .LVU339
 1214 0030 0120     		movs	r0, #1
 1215 0032 EEE7     		b	.L117
 1216              	.LVL99:
 1217              	.L118:
 314:lib/TinyUSB/src/tusb.c ****   }
 1218              		.loc 1 314 12 view .LVU340
 1219 0034 0020     		movs	r0, #0
 1220 0036 ECE7     		b	.L117
 1221              		.cfi_endproc
 1222              	.LFE123:
 1224              		.section	.text.tu_edpt_stream_write_zlp_if_needed,"ax",%progbits
 1225              		.align	1
 1226              		.global	tu_edpt_stream_write_zlp_if_needed
 1227              		.syntax unified
 1228              		.thumb
 1229              		.thumb_func
 1231              	tu_edpt_stream_write_zlp_if_needed:
 1232              	.LVL100:
 1233              	.LFB127:
 377:lib/TinyUSB/src/tusb.c **** 
 378:lib/TinyUSB/src/tusb.c **** //--------------------------------------------------------------------+
 379:lib/TinyUSB/src/tusb.c **** // Stream Write
 380:lib/TinyUSB/src/tusb.c **** //--------------------------------------------------------------------+
 381:lib/TinyUSB/src/tusb.c **** bool tu_edpt_stream_write_zlp_if_needed(tu_edpt_stream_t *s, uint32_t last_xferred_bytes) {
 1234              		.loc 1 381 91 is_stmt 1 view -0
 1235              		.cfi_startproc
 1236              		@ args = 0, pretend = 0, frame = 0
 1237              		@ frame_needed = 0, uses_anonymous_args = 0
 382:lib/TinyUSB/src/tusb.c ****   // ZLP condition: no pending data, last transferred bytes is multiple of packet size
 383:lib/TinyUSB/src/tusb.c ****   TU_VERIFY(tu_fifo_empty(&s->ff) && last_xferred_bytes > 0 && (0 == (last_xferred_bytes & (s->mps 
 1238              		.loc 1 383 3 view .LVU342
 1239              		.loc 1 383 3 view .LVU343
 1240              	.LBB100:
 1241              	.LBI100:
 1242              		.file 4 "lib/TinyUSB/src/common/tusb_fifo.h"
   1:lib/TinyUSB/src/common/tusb_fifo.h **** /*
   2:lib/TinyUSB/src/common/tusb_fifo.h ****  * The MIT License (MIT)
   3:lib/TinyUSB/src/common/tusb_fifo.h ****  *
   4:lib/TinyUSB/src/common/tusb_fifo.h ****  * Copyright (c) 2019 Ha Thach (tinyusb.org)
   5:lib/TinyUSB/src/common/tusb_fifo.h ****  * Copyright (c) 2020 Reinhard Panhuber - rework to unmasked pointers
   6:lib/TinyUSB/src/common/tusb_fifo.h ****  *
   7:lib/TinyUSB/src/common/tusb_fifo.h ****  * Permission is hereby granted, free of charge, to any person obtaining a copy
   8:lib/TinyUSB/src/common/tusb_fifo.h ****  * of this software and associated documentation files (the "Software"), to deal
   9:lib/TinyUSB/src/common/tusb_fifo.h ****  * in the Software without restriction, including without limitation the rights
  10:lib/TinyUSB/src/common/tusb_fifo.h ****  * to use, copy, modify, merge, publish, distribute, sublicense, and/or sell
  11:lib/TinyUSB/src/common/tusb_fifo.h ****  * copies of the Software, and to permit persons to whom the Software is
  12:lib/TinyUSB/src/common/tusb_fifo.h ****  * furnished to do so, subject to the following conditions:
  13:lib/TinyUSB/src/common/tusb_fifo.h ****  *
  14:lib/TinyUSB/src/common/tusb_fifo.h ****  * The above copyright notice and this permission notice shall be included in
  15:lib/TinyUSB/src/common/tusb_fifo.h ****  * all copies or substantial portions of the Software.
  16:lib/TinyUSB/src/common/tusb_fifo.h ****  *
ARM GAS  C:\Users\krisa\AppData\Local\Temp\ccuohWpS.s 			page 51


  17:lib/TinyUSB/src/common/tusb_fifo.h ****  * THE SOFTWARE IS PROVIDED "AS IS", WITHOUT WARRANTY OF ANY KIND, EXPRESS OR
  18:lib/TinyUSB/src/common/tusb_fifo.h ****  * IMPLIED, INCLUDING BUT NOT LIMITED TO THE WARRANTIES OF MERCHANTABILITY,
  19:lib/TinyUSB/src/common/tusb_fifo.h ****  * FITNESS FOR A PARTICULAR PURPOSE AND NONINFRINGEMENT. IN NO EVENT SHALL THE
  20:lib/TinyUSB/src/common/tusb_fifo.h ****  * AUTHORS OR COPYRIGHT HOLDERS BE LIABLE FOR ANY CLAIM, DAMAGES OR OTHER
  21:lib/TinyUSB/src/common/tusb_fifo.h ****  * LIABILITY, WHETHER IN AN ACTION OF CONTRACT, TORT OR OTHERWISE, ARISING FROM,
  22:lib/TinyUSB/src/common/tusb_fifo.h ****  * OUT OF OR IN CONNECTION WITH THE SOFTWARE OR THE USE OR OTHER DEALINGS IN
  23:lib/TinyUSB/src/common/tusb_fifo.h ****  * THE SOFTWARE.
  24:lib/TinyUSB/src/common/tusb_fifo.h ****  *
  25:lib/TinyUSB/src/common/tusb_fifo.h ****  * This file is part of the TinyUSB stack.
  26:lib/TinyUSB/src/common/tusb_fifo.h ****  */
  27:lib/TinyUSB/src/common/tusb_fifo.h **** 
  28:lib/TinyUSB/src/common/tusb_fifo.h **** #ifndef TUSB_FIFO_H_
  29:lib/TinyUSB/src/common/tusb_fifo.h **** #define TUSB_FIFO_H_
  30:lib/TinyUSB/src/common/tusb_fifo.h **** 
  31:lib/TinyUSB/src/common/tusb_fifo.h **** #ifdef __cplusplus
  32:lib/TinyUSB/src/common/tusb_fifo.h **** extern "C" {
  33:lib/TinyUSB/src/common/tusb_fifo.h **** #endif
  34:lib/TinyUSB/src/common/tusb_fifo.h **** 
  35:lib/TinyUSB/src/common/tusb_fifo.h **** // Due to the use of unmasked pointers, this FIFO does not suffer from losing
  36:lib/TinyUSB/src/common/tusb_fifo.h **** // one item slice. Furthermore, write and read operations are completely
  37:lib/TinyUSB/src/common/tusb_fifo.h **** // decoupled as write and read functions do not modify a common state. Henceforth,
  38:lib/TinyUSB/src/common/tusb_fifo.h **** // writing or reading from the FIFO within an ISR is safe as long as no other
  39:lib/TinyUSB/src/common/tusb_fifo.h **** // process (thread or ISR) interferes.
  40:lib/TinyUSB/src/common/tusb_fifo.h **** // Also, this FIFO is ready to be used in combination with a DMA as the write and
  41:lib/TinyUSB/src/common/tusb_fifo.h **** // read pointers can be updated from within a DMA ISR. Overflows are detectable
  42:lib/TinyUSB/src/common/tusb_fifo.h **** // within a certain number (see tu_fifo_overflow()).
  43:lib/TinyUSB/src/common/tusb_fifo.h **** 
  44:lib/TinyUSB/src/common/tusb_fifo.h **** #include "common/tusb_common.h"
  45:lib/TinyUSB/src/common/tusb_fifo.h **** #include "osal/osal.h"
  46:lib/TinyUSB/src/common/tusb_fifo.h **** 
  47:lib/TinyUSB/src/common/tusb_fifo.h **** // mutex is only needed for RTOS
  48:lib/TinyUSB/src/common/tusb_fifo.h **** // for OS None, we don't get preempted
  49:lib/TinyUSB/src/common/tusb_fifo.h **** #define CFG_FIFO_MUTEX      OSAL_MUTEX_REQUIRED
  50:lib/TinyUSB/src/common/tusb_fifo.h **** 
  51:lib/TinyUSB/src/common/tusb_fifo.h **** #if CFG_TUD_EDPT_DEDICATED_HWFIFO || CFG_TUH_EDPT_DEDICATED_HWFIFO
  52:lib/TinyUSB/src/common/tusb_fifo.h ****   #define CFG_TUSB_FIFO_ACCESS_FIXED_ADDR_RW32
  53:lib/TinyUSB/src/common/tusb_fifo.h **** #endif
  54:lib/TinyUSB/src/common/tusb_fifo.h **** 
  55:lib/TinyUSB/src/common/tusb_fifo.h **** /* Write/Read "pointer" is in the range of: 0 .. depth - 1, and is used to get the fifo data.
  56:lib/TinyUSB/src/common/tusb_fifo.h ****  * Write/Read "index" is always in the range of: 0 .. 2*depth-1
  57:lib/TinyUSB/src/common/tusb_fifo.h ****  *
  58:lib/TinyUSB/src/common/tusb_fifo.h ****  * The extra window allow us to determine the fifo state of empty or full with only 2 indices
  59:lib/TinyUSB/src/common/tusb_fifo.h ****  * Following are examples with depth = 3
  60:lib/TinyUSB/src/common/tusb_fifo.h ****  *
  61:lib/TinyUSB/src/common/tusb_fifo.h ****  * - empty: W = R
  62:lib/TinyUSB/src/common/tusb_fifo.h ****  *                |
  63:lib/TinyUSB/src/common/tusb_fifo.h ****  *    -------------------------
  64:lib/TinyUSB/src/common/tusb_fifo.h ****  *    | 0 | RW| 2 | 3 | 4 | 5 |
  65:lib/TinyUSB/src/common/tusb_fifo.h ****  *
  66:lib/TinyUSB/src/common/tusb_fifo.h ****  * - full 1: W > R
  67:lib/TinyUSB/src/common/tusb_fifo.h ****  *                |
  68:lib/TinyUSB/src/common/tusb_fifo.h ****  *    -------------------------
  69:lib/TinyUSB/src/common/tusb_fifo.h ****  *    | 0 | R | 2 | 3 | W | 5 |
  70:lib/TinyUSB/src/common/tusb_fifo.h ****  *
  71:lib/TinyUSB/src/common/tusb_fifo.h ****  * - full 2: W < R
  72:lib/TinyUSB/src/common/tusb_fifo.h ****  *                |
  73:lib/TinyUSB/src/common/tusb_fifo.h ****  *    -------------------------
ARM GAS  C:\Users\krisa\AppData\Local\Temp\ccuohWpS.s 			page 52


  74:lib/TinyUSB/src/common/tusb_fifo.h ****  *    | 0 | 1 | W | 3 | 4 | R |
  75:lib/TinyUSB/src/common/tusb_fifo.h ****  *
  76:lib/TinyUSB/src/common/tusb_fifo.h ****  * - Number of items in the fifo can be determined in either cases:
  77:lib/TinyUSB/src/common/tusb_fifo.h ****  *    - case W >= R: Count = W - R
  78:lib/TinyUSB/src/common/tusb_fifo.h ****  *    - case W <  R: Count = 2*depth - (R - W)
  79:lib/TinyUSB/src/common/tusb_fifo.h ****  *
  80:lib/TinyUSB/src/common/tusb_fifo.h ****  * In non-overwritable mode, computed Count (in above 2 cases) is at most equal to depth.
  81:lib/TinyUSB/src/common/tusb_fifo.h ****  * However, in over-writable mode, write index can be repeatedly increased and count can be
  82:lib/TinyUSB/src/common/tusb_fifo.h ****  * temporarily larger than depth (overflowed condition) e.g
  83:lib/TinyUSB/src/common/tusb_fifo.h ****  *
  84:lib/TinyUSB/src/common/tusb_fifo.h ****  *  - Overflowed 1: write(3), write(1)
  85:lib/TinyUSB/src/common/tusb_fifo.h ****  *    In this case we will adjust Read index when read()/peek() is called so that count = depth.
  86:lib/TinyUSB/src/common/tusb_fifo.h ****  *                  |
  87:lib/TinyUSB/src/common/tusb_fifo.h ****  *      -------------------------
  88:lib/TinyUSB/src/common/tusb_fifo.h ****  *      | R | 1 | 2 | 3 | W | 5 |
  89:lib/TinyUSB/src/common/tusb_fifo.h ****  *
  90:lib/TinyUSB/src/common/tusb_fifo.h ****  *  - Double Overflowed i.e index is out of allowed range [0,2*depth)
  91:lib/TinyUSB/src/common/tusb_fifo.h ****  *    This occurs when we continue to write after 1st overflowed to 2nd overflowed. e.g:
  92:lib/TinyUSB/src/common/tusb_fifo.h ****  *      write(3), write(1), write(2)
  93:lib/TinyUSB/src/common/tusb_fifo.h ****  *    This must be prevented since it will cause unrecoverable state, in above example
  94:lib/TinyUSB/src/common/tusb_fifo.h ****  *    if not handled the fifo will be empty instead of continue-to-be full. Since we must not modif
  95:lib/TinyUSB/src/common/tusb_fifo.h ****  *    read index in write() function, which cause race condition. We will re-position write index s
  96:lib/TinyUSB/src/common/tusb_fifo.h ****  *    after data is written it is a full fifo i.e W = depth - R
  97:lib/TinyUSB/src/common/tusb_fifo.h ****  *
  98:lib/TinyUSB/src/common/tusb_fifo.h ****  *      re-position W = 1 before write(2)
  99:lib/TinyUSB/src/common/tusb_fifo.h ****  *      Note: we should also move data from mem[3] to read index as well, but deliberately skipped 
 100:lib/TinyUSB/src/common/tusb_fifo.h ****  *      since it is an expensive operation !!!
 101:lib/TinyUSB/src/common/tusb_fifo.h ****  *                  |
 102:lib/TinyUSB/src/common/tusb_fifo.h ****  *      -------------------------
 103:lib/TinyUSB/src/common/tusb_fifo.h ****  *      | R | W | 2 | 3 | 4 | 5 |
 104:lib/TinyUSB/src/common/tusb_fifo.h ****  *
 105:lib/TinyUSB/src/common/tusb_fifo.h ****  *      perform write(2), result is still a full fifo.
 106:lib/TinyUSB/src/common/tusb_fifo.h ****  *
 107:lib/TinyUSB/src/common/tusb_fifo.h ****  *                  |
 108:lib/TinyUSB/src/common/tusb_fifo.h ****  *      -------------------------
 109:lib/TinyUSB/src/common/tusb_fifo.h ****  *      | R | 1 | 2 | W | 4 | 5 |
 110:lib/TinyUSB/src/common/tusb_fifo.h ****  */
 111:lib/TinyUSB/src/common/tusb_fifo.h **** typedef struct {
 112:lib/TinyUSB/src/common/tusb_fifo.h ****   uint8_t *buffer;              // buffer pointer
 113:lib/TinyUSB/src/common/tusb_fifo.h ****   uint16_t depth;               // max items
 114:lib/TinyUSB/src/common/tusb_fifo.h **** 
 115:lib/TinyUSB/src/common/tusb_fifo.h ****   struct TU_ATTR_PACKED {
 116:lib/TinyUSB/src/common/tusb_fifo.h ****     uint16_t item_size    : 15; // size of each item
 117:lib/TinyUSB/src/common/tusb_fifo.h ****     bool     overwritable : 1;  // ovwerwritable when full
 118:lib/TinyUSB/src/common/tusb_fifo.h ****   };
 119:lib/TinyUSB/src/common/tusb_fifo.h **** 
 120:lib/TinyUSB/src/common/tusb_fifo.h ****   volatile uint16_t wr_idx;     // write index
 121:lib/TinyUSB/src/common/tusb_fifo.h ****   volatile uint16_t rd_idx;     // read index
 122:lib/TinyUSB/src/common/tusb_fifo.h **** 
 123:lib/TinyUSB/src/common/tusb_fifo.h **** #if OSAL_MUTEX_REQUIRED
 124:lib/TinyUSB/src/common/tusb_fifo.h ****   osal_mutex_t mutex_wr;
 125:lib/TinyUSB/src/common/tusb_fifo.h ****   osal_mutex_t mutex_rd;
 126:lib/TinyUSB/src/common/tusb_fifo.h **** #endif
 127:lib/TinyUSB/src/common/tusb_fifo.h **** 
 128:lib/TinyUSB/src/common/tusb_fifo.h **** } tu_fifo_t;
 129:lib/TinyUSB/src/common/tusb_fifo.h **** 
 130:lib/TinyUSB/src/common/tusb_fifo.h **** typedef struct {
ARM GAS  C:\Users\krisa\AppData\Local\Temp\ccuohWpS.s 			page 53


 131:lib/TinyUSB/src/common/tusb_fifo.h ****   struct {
 132:lib/TinyUSB/src/common/tusb_fifo.h ****     uint16_t len; // length
 133:lib/TinyUSB/src/common/tusb_fifo.h ****     uint8_t *ptr; // buffer pointer
 134:lib/TinyUSB/src/common/tusb_fifo.h ****   } linear, wrapped;
 135:lib/TinyUSB/src/common/tusb_fifo.h **** } tu_fifo_buffer_info_t;
 136:lib/TinyUSB/src/common/tusb_fifo.h **** 
 137:lib/TinyUSB/src/common/tusb_fifo.h **** #define TU_FIFO_INIT(_buffer, _depth, _type, _overwritable) \
 138:lib/TinyUSB/src/common/tusb_fifo.h ****   {                                                         \
 139:lib/TinyUSB/src/common/tusb_fifo.h ****     .buffer       = _buffer,                                \
 140:lib/TinyUSB/src/common/tusb_fifo.h ****     .depth        = _depth,                                 \
 141:lib/TinyUSB/src/common/tusb_fifo.h ****     .item_size    = sizeof(_type),                          \
 142:lib/TinyUSB/src/common/tusb_fifo.h ****     .overwritable = _overwritable,                          \
 143:lib/TinyUSB/src/common/tusb_fifo.h ****   }
 144:lib/TinyUSB/src/common/tusb_fifo.h **** 
 145:lib/TinyUSB/src/common/tusb_fifo.h **** #define TU_FIFO_DEF(_name, _depth, _type, _overwritable)                      \
 146:lib/TinyUSB/src/common/tusb_fifo.h ****     uint8_t _name##_buf[_depth*sizeof(_type)];                                \
 147:lib/TinyUSB/src/common/tusb_fifo.h ****     tu_fifo_t _name = TU_FIFO_INIT(_name##_buf, _depth, _type, _overwritable)
 148:lib/TinyUSB/src/common/tusb_fifo.h **** 
 149:lib/TinyUSB/src/common/tusb_fifo.h **** // Write modes intended to allow special read and write functions to be able to
 150:lib/TinyUSB/src/common/tusb_fifo.h **** // copy data to and from USB hardware FIFOs as needed for e.g. STM32s and others
 151:lib/TinyUSB/src/common/tusb_fifo.h **** typedef enum {
 152:lib/TinyUSB/src/common/tusb_fifo.h ****   TU_FIFO_INC_ADDR_RW8,    // increased address read/write by bytes - normal (default) mode
 153:lib/TinyUSB/src/common/tusb_fifo.h ****   TU_FIFO_FIXED_ADDR_RW32, // fixed address read/write by 4 bytes (word). Used for STM32 access int
 154:lib/TinyUSB/src/common/tusb_fifo.h **** } tu_fifo_access_mode_t;
 155:lib/TinyUSB/src/common/tusb_fifo.h **** 
 156:lib/TinyUSB/src/common/tusb_fifo.h **** //--------------------------------------------------------------------+
 157:lib/TinyUSB/src/common/tusb_fifo.h **** // Setup API
 158:lib/TinyUSB/src/common/tusb_fifo.h **** //--------------------------------------------------------------------+
 159:lib/TinyUSB/src/common/tusb_fifo.h **** bool tu_fifo_config(tu_fifo_t *f, void *buffer, uint16_t depth, uint16_t item_size, bool overwritab
 160:lib/TinyUSB/src/common/tusb_fifo.h **** void tu_fifo_set_overwritable(tu_fifo_t *f, bool overwritable);
 161:lib/TinyUSB/src/common/tusb_fifo.h **** void tu_fifo_clear(tu_fifo_t *f);
 162:lib/TinyUSB/src/common/tusb_fifo.h **** 
 163:lib/TinyUSB/src/common/tusb_fifo.h **** #if OSAL_MUTEX_REQUIRED
 164:lib/TinyUSB/src/common/tusb_fifo.h **** TU_ATTR_ALWAYS_INLINE static inline
 165:lib/TinyUSB/src/common/tusb_fifo.h **** void tu_fifo_config_mutex(tu_fifo_t *f, osal_mutex_t wr_mutex, osal_mutex_t rd_mutex) {
 166:lib/TinyUSB/src/common/tusb_fifo.h ****   f->mutex_wr = wr_mutex;
 167:lib/TinyUSB/src/common/tusb_fifo.h ****   f->mutex_rd = rd_mutex;
 168:lib/TinyUSB/src/common/tusb_fifo.h **** }
 169:lib/TinyUSB/src/common/tusb_fifo.h **** #else
 170:lib/TinyUSB/src/common/tusb_fifo.h **** #define tu_fifo_config_mutex(_f, _wr_mutex, _rd_mutex)
 171:lib/TinyUSB/src/common/tusb_fifo.h **** #endif
 172:lib/TinyUSB/src/common/tusb_fifo.h **** 
 173:lib/TinyUSB/src/common/tusb_fifo.h **** //--------------------------------------------------------------------+
 174:lib/TinyUSB/src/common/tusb_fifo.h **** // Index API
 175:lib/TinyUSB/src/common/tusb_fifo.h **** //--------------------------------------------------------------------+
 176:lib/TinyUSB/src/common/tusb_fifo.h **** void tu_fifo_correct_read_pointer(tu_fifo_t *f);
 177:lib/TinyUSB/src/common/tusb_fifo.h **** 
 178:lib/TinyUSB/src/common/tusb_fifo.h **** // Pointer modifications intended to be used in combinations with DMAs.
 179:lib/TinyUSB/src/common/tusb_fifo.h **** // USE WITH CARE - NO SAFETY CHECKS CONDUCTED HERE! NOT MUTEX PROTECTED!
 180:lib/TinyUSB/src/common/tusb_fifo.h **** void tu_fifo_advance_write_pointer(tu_fifo_t *f, uint16_t n);
 181:lib/TinyUSB/src/common/tusb_fifo.h **** void tu_fifo_advance_read_pointer(tu_fifo_t *f, uint16_t n);
 182:lib/TinyUSB/src/common/tusb_fifo.h **** 
 183:lib/TinyUSB/src/common/tusb_fifo.h **** // If you want to read/write from/to the FIFO by use of a DMA, you may need to conduct two copies
 184:lib/TinyUSB/src/common/tusb_fifo.h **** // to handle a possible wrapping part. These functions deliver a pointer to start
 185:lib/TinyUSB/src/common/tusb_fifo.h **** // reading/writing from/to and a valid linear length along which no wrap occurs.
 186:lib/TinyUSB/src/common/tusb_fifo.h **** void tu_fifo_get_read_info(tu_fifo_t *f, tu_fifo_buffer_info_t *info);
 187:lib/TinyUSB/src/common/tusb_fifo.h **** void tu_fifo_get_write_info(tu_fifo_t *f, tu_fifo_buffer_info_t *info);
ARM GAS  C:\Users\krisa\AppData\Local\Temp\ccuohWpS.s 			page 54


 188:lib/TinyUSB/src/common/tusb_fifo.h **** 
 189:lib/TinyUSB/src/common/tusb_fifo.h **** //--------------------------------------------------------------------+
 190:lib/TinyUSB/src/common/tusb_fifo.h **** // Peek API
 191:lib/TinyUSB/src/common/tusb_fifo.h **** // peek() will correct/re-index read pointer in case of an overflowed fifo to form a full fifo
 192:lib/TinyUSB/src/common/tusb_fifo.h **** //--------------------------------------------------------------------+
 193:lib/TinyUSB/src/common/tusb_fifo.h **** uint16_t tu_fifo_peek_n_access_mode(tu_fifo_t *f, void *p_buffer, uint16_t n, uint16_t wr_idx, uint
 194:lib/TinyUSB/src/common/tusb_fifo.h ****                                     tu_fifo_access_mode_t access_mode);
 195:lib/TinyUSB/src/common/tusb_fifo.h **** bool     tu_fifo_peek(tu_fifo_t *f, void *p_buffer);
 196:lib/TinyUSB/src/common/tusb_fifo.h **** uint16_t tu_fifo_peek_n(tu_fifo_t *f, void *p_buffer, uint16_t n);
 197:lib/TinyUSB/src/common/tusb_fifo.h **** 
 198:lib/TinyUSB/src/common/tusb_fifo.h **** //--------------------------------------------------------------------+
 199:lib/TinyUSB/src/common/tusb_fifo.h **** // Read API
 200:lib/TinyUSB/src/common/tusb_fifo.h **** // peek() + advance read index
 201:lib/TinyUSB/src/common/tusb_fifo.h **** //--------------------------------------------------------------------+
 202:lib/TinyUSB/src/common/tusb_fifo.h **** uint16_t tu_fifo_read_n_access_mode(tu_fifo_t *f, void *buffer, uint16_t n, tu_fifo_access_mode_t a
 203:lib/TinyUSB/src/common/tusb_fifo.h **** bool     tu_fifo_read(tu_fifo_t *f, void *buffer);
 204:lib/TinyUSB/src/common/tusb_fifo.h **** TU_ATTR_ALWAYS_INLINE static inline uint16_t tu_fifo_read_n(tu_fifo_t *f, void *buffer, uint16_t n)
 205:lib/TinyUSB/src/common/tusb_fifo.h ****   return tu_fifo_read_n_access_mode(f, buffer, n, TU_FIFO_INC_ADDR_RW8);
 206:lib/TinyUSB/src/common/tusb_fifo.h **** }
 207:lib/TinyUSB/src/common/tusb_fifo.h **** 
 208:lib/TinyUSB/src/common/tusb_fifo.h **** // discard first n items from fifo i.e advance read pointer by n with mutex
 209:lib/TinyUSB/src/common/tusb_fifo.h **** // return number of discarded items
 210:lib/TinyUSB/src/common/tusb_fifo.h **** uint16_t tu_fifo_discard_n(tu_fifo_t *f, uint16_t n);
 211:lib/TinyUSB/src/common/tusb_fifo.h **** 
 212:lib/TinyUSB/src/common/tusb_fifo.h **** //--------------------------------------------------------------------+
 213:lib/TinyUSB/src/common/tusb_fifo.h **** // Write API
 214:lib/TinyUSB/src/common/tusb_fifo.h **** //--------------------------------------------------------------------+
 215:lib/TinyUSB/src/common/tusb_fifo.h **** uint16_t tu_fifo_write_n_access_mode(tu_fifo_t *f, const void *data, uint16_t n, tu_fifo_access_mod
 216:lib/TinyUSB/src/common/tusb_fifo.h **** bool     tu_fifo_write(tu_fifo_t *f, const void *data);
 217:lib/TinyUSB/src/common/tusb_fifo.h **** TU_ATTR_ALWAYS_INLINE static inline uint16_t tu_fifo_write_n(tu_fifo_t *f, const void *data, uint16
 218:lib/TinyUSB/src/common/tusb_fifo.h ****   return tu_fifo_write_n_access_mode(f, data, n, TU_FIFO_INC_ADDR_RW8);
 219:lib/TinyUSB/src/common/tusb_fifo.h **** }
 220:lib/TinyUSB/src/common/tusb_fifo.h **** 
 221:lib/TinyUSB/src/common/tusb_fifo.h **** //--------------------------------------------------------------------+
 222:lib/TinyUSB/src/common/tusb_fifo.h **** // Internal Helper Local
 223:lib/TinyUSB/src/common/tusb_fifo.h **** // work on local copies of read/write indices in order to only access them once for re-entrancy
 224:lib/TinyUSB/src/common/tusb_fifo.h **** //--------------------------------------------------------------------+
 225:lib/TinyUSB/src/common/tusb_fifo.h **** // return overflowable count (index difference), which can be used to determine both fifo count and
 226:lib/TinyUSB/src/common/tusb_fifo.h **** TU_ATTR_ALWAYS_INLINE static inline uint16_t tu_ff_overflow_count(uint16_t depth, uint16_t wr_idx, 
 227:lib/TinyUSB/src/common/tusb_fifo.h ****   const int32_t diff = (int32_t)wr_idx - (int32_t)rd_idx;
 228:lib/TinyUSB/src/common/tusb_fifo.h ****   if (diff >= 0) {
 229:lib/TinyUSB/src/common/tusb_fifo.h ****     return (uint16_t)diff;
 230:lib/TinyUSB/src/common/tusb_fifo.h ****   } else {
 231:lib/TinyUSB/src/common/tusb_fifo.h ****     return (uint16_t)(2 * depth + diff);
 232:lib/TinyUSB/src/common/tusb_fifo.h ****   }
 233:lib/TinyUSB/src/common/tusb_fifo.h **** }
 234:lib/TinyUSB/src/common/tusb_fifo.h **** 
 235:lib/TinyUSB/src/common/tusb_fifo.h **** // return remaining slot in fifo
 236:lib/TinyUSB/src/common/tusb_fifo.h **** TU_ATTR_ALWAYS_INLINE static inline uint16_t tu_ff_remaining_local(uint16_t depth, uint16_t wr_idx,
 237:lib/TinyUSB/src/common/tusb_fifo.h ****   const uint16_t ovf_count = tu_ff_overflow_count(depth, wr_idx, rd_idx);
 238:lib/TinyUSB/src/common/tusb_fifo.h ****   return (depth > ovf_count) ? (depth - ovf_count) : 0;
 239:lib/TinyUSB/src/common/tusb_fifo.h **** }
 240:lib/TinyUSB/src/common/tusb_fifo.h **** 
 241:lib/TinyUSB/src/common/tusb_fifo.h **** //--------------------------------------------------------------------+
 242:lib/TinyUSB/src/common/tusb_fifo.h **** // State API
 243:lib/TinyUSB/src/common/tusb_fifo.h **** // Following functions are reentrant since they only access read/write indices once, therefore can 
 244:lib/TinyUSB/src/common/tusb_fifo.h **** // ISRs context without the need of mutexes
ARM GAS  C:\Users\krisa\AppData\Local\Temp\ccuohWpS.s 			page 55


 245:lib/TinyUSB/src/common/tusb_fifo.h **** //--------------------------------------------------------------------+
 246:lib/TinyUSB/src/common/tusb_fifo.h **** TU_ATTR_ALWAYS_INLINE static inline uint16_t tu_fifo_depth(const tu_fifo_t *f) {
 247:lib/TinyUSB/src/common/tusb_fifo.h ****   return f->depth;
 248:lib/TinyUSB/src/common/tusb_fifo.h **** }
 249:lib/TinyUSB/src/common/tusb_fifo.h **** 
 250:lib/TinyUSB/src/common/tusb_fifo.h **** TU_ATTR_ALWAYS_INLINE static inline bool tu_fifo_empty(const tu_fifo_t *f) {
 1243              		.loc 4 250 42 view .LVU344
 1244              	.LBB101:
 251:lib/TinyUSB/src/common/tusb_fifo.h ****   const uint16_t wr_idx = f->wr_idx;
 1245              		.loc 4 251 3 view .LVU345
 1246              		.loc 4 251 18 is_stmt 0 view .LVU346
 1247 0000 828A     		ldrh	r2, [r0, #20]
 1248 0002 92B2     		uxth	r2, r2
 1249              	.LVL101:
 252:lib/TinyUSB/src/common/tusb_fifo.h ****   const uint16_t rd_idx = f->rd_idx;
 1250              		.loc 4 252 3 is_stmt 1 view .LVU347
 1251              		.loc 4 252 18 is_stmt 0 view .LVU348
 1252 0004 C38A     		ldrh	r3, [r0, #22]
 1253 0006 9BB2     		uxth	r3, r3
 1254              	.LVL102:
 253:lib/TinyUSB/src/common/tusb_fifo.h ****   return wr_idx == rd_idx;
 1255              		.loc 4 253 3 is_stmt 1 view .LVU349
 1256              		.loc 4 253 3 is_stmt 0 view .LVU350
 1257              	.LBE101:
 1258              	.LBE100:
 1259              		.loc 1 383 3 view .LVU351
 1260 0008 9A42     		cmp	r2, r3
 1261 000a 19D1     		bne	.L125
 381:lib/TinyUSB/src/tusb.c ****   // ZLP condition: no pending data, last transferred bytes is multiple of packet size
 1262              		.loc 1 381 91 discriminator 2 view .LVU352
 1263 000c 10B5     		push	{r4, lr}
 1264              	.LCFI21:
 1265              		.cfi_def_cfa_offset 8
 1266              		.cfi_offset 4, -8
 1267              		.cfi_offset 14, -4
 1268 000e 0446     		mov	r4, r0
 1269              		.loc 1 383 3 discriminator 2 view .LVU353
 1270 0010 C1B1     		cbz	r1, .L126
 1271              		.loc 1 383 3 discriminator 4 view .LVU354
 1272 0012 8388     		ldrh	r3, [r0, #4]
 1273 0014 013B     		subs	r3, r3, #1
 1274 0016 0B42     		tst	r3, r1
 1275 0018 01D0     		beq	.L132
 1276              		.loc 1 383 3 view .LVU355
 1277 001a 0020     		movs	r0, #0
 1278              	.LVL103:
 1279              		.loc 1 383 3 view .LVU356
 1280 001c 13E0     		b	.L123
 1281              	.LVL104:
 1282              	.L132:
 1283              		.loc 1 383 3 is_stmt 1 discriminator 6 view .LVU357
 384:lib/TinyUSB/src/tusb.c ****   TU_VERIFY(stream_claim(s));
 1284              		.loc 1 384 3 discriminator 6 view .LVU358
 1285              		.loc 1 384 3 discriminator 6 view .LVU359
 1286 001e FFF7FEFF 		bl	stream_claim
 1287              	.LVL105:
 1288              		.loc 1 384 3 is_stmt 0 discriminator 6 view .LVU360
ARM GAS  C:\Users\krisa\AppData\Local\Temp\ccuohWpS.s 			page 56


 1289 0022 80B1     		cbz	r0, .L123
 1290              		.loc 1 384 3 is_stmt 1 discriminator 2 view .LVU361
 385:lib/TinyUSB/src/tusb.c ****   TU_ASSERT(stream_xfer(s, 0));
 1291              		.loc 1 385 3 discriminator 2 view .LVU362
 1292              		.loc 1 385 3 discriminator 2 view .LVU363
 1293 0024 0021     		movs	r1, #0
 1294 0026 2046     		mov	r0, r4
 1295 0028 FFF7FEFF 		bl	stream_xfer
 1296              	.LVL106:
 1297 002c 58B9     		cbnz	r0, .L123
 1298              		.loc 1 385 3 discriminator 1 view .LVU364
 1299              		.loc 1 385 3 discriminator 1 view .LVU365
 1300              		.loc 1 385 3 discriminator 1 view .LVU366
 1301              		.loc 1 385 3 discriminator 1 view .LVU367
 1302              	.LBB102:
 1303              		.loc 1 385 3 discriminator 1 view .LVU368
 1304              	.LVL107:
 1305              		.loc 1 385 3 discriminator 1 view .LVU369
 1306 002e 4FF0E023 		mov	r3, #-536813568
 1307 0032 D3F8F03D 		ldr	r3, [r3, #3568]
 1308 0036 13F0010F 		tst	r3, #1
 1309 003a 04D0     		beq	.L123
 1310              		.loc 1 385 3 discriminator 3 view .LVU370
 1311              		.syntax unified
 1312              	@ 385 "lib/TinyUSB/src/tusb.c" 1
 1313 003c 00BE     		BKPT #0
 1314              	
 1315              	@ 0 "" 2
 1316              		.thumb
 1317              		.syntax unified
 1318              	.LBE102:
 1319              		.loc 1 385 3 discriminator 3 view .LVU371
 1320              		.loc 1 385 3 discriminator 3 view .LVU372
 1321 003e 02E0     		b	.L123
 1322              	.LVL108:
 1323              	.L125:
 1324              	.LCFI22:
 1325              		.cfi_def_cfa_offset 0
 1326              		.cfi_restore 4
 1327              		.cfi_restore 14
 383:lib/TinyUSB/src/tusb.c ****   TU_VERIFY(stream_claim(s));
 1328              		.loc 1 383 3 is_stmt 0 view .LVU373
 1329 0040 0020     		movs	r0, #0
 1330              	.LVL109:
 386:lib/TinyUSB/src/tusb.c ****   return true;
 387:lib/TinyUSB/src/tusb.c **** }
 1331              		.loc 1 387 1 view .LVU374
 1332 0042 7047     		bx	lr
 1333              	.LVL110:
 1334              	.L126:
 1335              	.LCFI23:
 1336              		.cfi_def_cfa_offset 8
 1337              		.cfi_offset 4, -8
 1338              		.cfi_offset 14, -4
 383:lib/TinyUSB/src/tusb.c ****   TU_VERIFY(stream_claim(s));
 1339              		.loc 1 383 3 view .LVU375
 1340 0044 0020     		movs	r0, #0
ARM GAS  C:\Users\krisa\AppData\Local\Temp\ccuohWpS.s 			page 57


 1341              	.LVL111:
 1342              	.L123:
 1343              		.loc 1 387 1 view .LVU376
 1344 0046 10BD     		pop	{r4, pc}
 1345              		.loc 1 387 1 view .LVU377
 1346              		.cfi_endproc
 1347              	.LFE127:
 1349              		.section	.text.tu_edpt_stream_write_xfer,"ax",%progbits
 1350              		.align	1
 1351              		.global	tu_edpt_stream_write_xfer
 1352              		.syntax unified
 1353              		.thumb
 1354              		.thumb_func
 1356              	tu_edpt_stream_write_xfer:
 1357              	.LVL112:
 1358              	.LFB128:
 388:lib/TinyUSB/src/tusb.c **** 
 389:lib/TinyUSB/src/tusb.c **** uint32_t tu_edpt_stream_write_xfer(tu_edpt_stream_t *s) {
 1359              		.loc 1 389 57 is_stmt 1 view -0
 1360              		.cfi_startproc
 1361              		@ args = 0, pretend = 0, frame = 0
 1362              		@ frame_needed = 0, uses_anonymous_args = 0
 1363              		.loc 1 389 57 is_stmt 0 view .LVU379
 1364 0000 38B5     		push	{r3, r4, r5, lr}
 1365              	.LCFI24:
 1366              		.cfi_def_cfa_offset 16
 1367              		.cfi_offset 3, -16
 1368              		.cfi_offset 4, -12
 1369              		.cfi_offset 5, -8
 1370              		.cfi_offset 14, -4
 1371 0002 0546     		mov	r5, r0
 390:lib/TinyUSB/src/tusb.c ****   const uint16_t ff_count = tu_fifo_count(&s->ff);
 1372              		.loc 1 390 3 is_stmt 1 view .LVU380
 1373              	.LVL113:
 1374              	.LBB103:
 1375              	.LBI103:
 254:lib/TinyUSB/src/common/tusb_fifo.h **** }
 255:lib/TinyUSB/src/common/tusb_fifo.h **** 
 256:lib/TinyUSB/src/common/tusb_fifo.h **** // return number of items in fifo, capped to fifo's depth
 257:lib/TinyUSB/src/common/tusb_fifo.h **** TU_ATTR_ALWAYS_INLINE static inline uint16_t tu_fifo_count(const tu_fifo_t *f) {
 1376              		.loc 4 257 46 view .LVU381
 1377              	.LBB104:
 258:lib/TinyUSB/src/common/tusb_fifo.h ****   return tu_min16(tu_ff_overflow_count(f->depth, f->wr_idx, f->rd_idx), f->depth);
 1378              		.loc 4 258 3 view .LVU382
 1379              		.loc 4 258 10 is_stmt 0 view .LVU383
 1380 0004 048A     		ldrh	r4, [r0, #16]
 1381 0006 838A     		ldrh	r3, [r0, #20]
 1382 0008 9BB2     		uxth	r3, r3
 1383 000a C08A     		ldrh	r0, [r0, #22]
 1384              	.LVL114:
 1385              		.loc 4 258 10 view .LVU384
 1386 000c 80B2     		uxth	r0, r0
 1387              	.LVL115:
 1388              	.LBB105:
 1389              	.LBI105:
 226:lib/TinyUSB/src/common/tusb_fifo.h ****   const int32_t diff = (int32_t)wr_idx - (int32_t)rd_idx;
 1390              		.loc 4 226 46 is_stmt 1 view .LVU385
ARM GAS  C:\Users\krisa\AppData\Local\Temp\ccuohWpS.s 			page 58


 1391              	.LBB106:
 227:lib/TinyUSB/src/common/tusb_fifo.h ****   if (diff >= 0) {
 1392              		.loc 4 227 3 view .LVU386
 227:lib/TinyUSB/src/common/tusb_fifo.h ****   if (diff >= 0) {
 1393              		.loc 4 227 17 is_stmt 0 view .LVU387
 1394 000e 1A1A     		subs	r2, r3, r0
 1395              	.LVL116:
 228:lib/TinyUSB/src/common/tusb_fifo.h ****     return (uint16_t)diff;
 1396              		.loc 4 228 3 is_stmt 1 view .LVU388
 228:lib/TinyUSB/src/common/tusb_fifo.h ****     return (uint16_t)diff;
 1397              		.loc 4 228 6 is_stmt 0 view .LVU389
 1398 0010 002A     		cmp	r2, #0
 1399 0012 06DB     		blt	.L134
 229:lib/TinyUSB/src/common/tusb_fifo.h ****   } else {
 1400              		.loc 4 229 5 is_stmt 1 view .LVU390
 229:lib/TinyUSB/src/common/tusb_fifo.h ****   } else {
 1401              		.loc 4 229 12 is_stmt 0 view .LVU391
 1402 0014 93B2     		uxth	r3, r2
 1403              	.LVL117:
 1404              	.L135:
 229:lib/TinyUSB/src/common/tusb_fifo.h ****   } else {
 1405              		.loc 4 229 12 view .LVU392
 1406              	.LBE106:
 1407              	.LBE105:
 1408              	.LBB108:
 1409              	.LBI108:
 206:lib/TinyUSB/src/common/tusb_common.h **** TU_ATTR_ALWAYS_INLINE static inline uint32_t tu_min32 (uint32_t x, uint32_t y) { return (x < y) ? x
 1410              		.loc 3 206 46 is_stmt 1 view .LVU393
 1411              	.LBB109:
 206:lib/TinyUSB/src/common/tusb_common.h **** TU_ATTR_ALWAYS_INLINE static inline uint32_t tu_min32 (uint32_t x, uint32_t y) { return (x < y) ? x
 1412              		.loc 3 206 82 view .LVU394
 206:lib/TinyUSB/src/common/tusb_common.h **** TU_ATTR_ALWAYS_INLINE static inline uint32_t tu_min32 (uint32_t x, uint32_t y) { return (x < y) ? x
 1413              		.loc 3 206 101 is_stmt 0 view .LVU395
 1414 0016 9C42     		cmp	r4, r3
 1415 0018 28BF     		it	cs
 1416 001a 1C46     		movcs	r4, r3
 1417              	.LVL118:
 206:lib/TinyUSB/src/common/tusb_common.h **** TU_ATTR_ALWAYS_INLINE static inline uint32_t tu_min32 (uint32_t x, uint32_t y) { return (x < y) ? x
 1418              		.loc 3 206 101 view .LVU396
 1419              	.LBE109:
 1420              	.LBE108:
 1421              	.LBE104:
 1422              	.LBE103:
 391:lib/TinyUSB/src/tusb.c ****   TU_VERIFY(ff_count > 0, 0); // skip if no data
 1423              		.loc 1 391 3 is_stmt 1 view .LVU397
 1424              		.loc 1 391 3 view .LVU398
 1425 001c 34B9     		cbnz	r4, .L144
 1426 001e 0020     		movs	r0, #0
 1427              	.LVL119:
 1428              	.L133:
 392:lib/TinyUSB/src/tusb.c ****   TU_VERIFY(stream_claim(s), 0);
 393:lib/TinyUSB/src/tusb.c **** 
 394:lib/TinyUSB/src/tusb.c ****   // Pull data from FIFO -> EP buf
 395:lib/TinyUSB/src/tusb.c ****   uint16_t count;
 396:lib/TinyUSB/src/tusb.c ****   if (s->ep_buf == NULL) {
 397:lib/TinyUSB/src/tusb.c ****     count = ff_count;
 398:lib/TinyUSB/src/tusb.c ****   } else {
ARM GAS  C:\Users\krisa\AppData\Local\Temp\ccuohWpS.s 			page 59


 399:lib/TinyUSB/src/tusb.c ****     count = tu_fifo_read_n(&s->ff, s->ep_buf, s->ep_bufsize);
 400:lib/TinyUSB/src/tusb.c ****   }
 401:lib/TinyUSB/src/tusb.c **** 
 402:lib/TinyUSB/src/tusb.c ****   if (count > 0) {
 403:lib/TinyUSB/src/tusb.c ****     TU_ASSERT(stream_xfer(s, count), 0);
 404:lib/TinyUSB/src/tusb.c ****     return count;
 405:lib/TinyUSB/src/tusb.c ****   } else {
 406:lib/TinyUSB/src/tusb.c ****     // Release endpoint since we don't make any transfer
 407:lib/TinyUSB/src/tusb.c ****     // Note: data is dropped if terminal is not connected
 408:lib/TinyUSB/src/tusb.c ****     stream_release(s);
 409:lib/TinyUSB/src/tusb.c ****     return 0;
 410:lib/TinyUSB/src/tusb.c ****   }
 411:lib/TinyUSB/src/tusb.c **** }
 1429              		.loc 1 411 1 is_stmt 0 view .LVU399
 1430 0020 38BD     		pop	{r3, r4, r5, pc}
 1431              	.LVL120:
 1432              	.L134:
 1433              	.LBB112:
 1434              	.LBB111:
 1435              	.LBB110:
 1436              	.LBB107:
 231:lib/TinyUSB/src/common/tusb_fifo.h ****   }
 1437              		.loc 4 231 5 is_stmt 1 view .LVU400
 231:lib/TinyUSB/src/common/tusb_fifo.h ****   }
 1438              		.loc 4 231 12 is_stmt 0 view .LVU401
 1439 0022 1B1A     		subs	r3, r3, r0
 1440              	.LVL121:
 231:lib/TinyUSB/src/common/tusb_fifo.h ****   }
 1441              		.loc 4 231 12 view .LVU402
 1442 0024 03EB4403 		add	r3, r3, r4, lsl #1
 1443 0028 9BB2     		uxth	r3, r3
 1444 002a F4E7     		b	.L135
 1445              	.LVL122:
 1446              	.L144:
 231:lib/TinyUSB/src/common/tusb_fifo.h ****   }
 1447              		.loc 4 231 12 view .LVU403
 1448              	.LBE107:
 1449              	.LBE110:
 1450              	.LBE111:
 1451              	.LBE112:
 391:lib/TinyUSB/src/tusb.c ****   TU_VERIFY(ff_count > 0, 0); // skip if no data
 1452              		.loc 1 391 3 is_stmt 1 discriminator 2 view .LVU404
 392:lib/TinyUSB/src/tusb.c ****   TU_VERIFY(stream_claim(s), 0);
 1453              		.loc 1 392 3 discriminator 2 view .LVU405
 392:lib/TinyUSB/src/tusb.c ****   TU_VERIFY(stream_claim(s), 0);
 1454              		.loc 1 392 3 discriminator 2 view .LVU406
 1455 002c 2846     		mov	r0, r5
 1456 002e FFF7FEFF 		bl	stream_claim
 1457              	.LVL123:
 1458 0032 F8B1     		cbz	r0, .L142
 392:lib/TinyUSB/src/tusb.c ****   TU_VERIFY(stream_claim(s), 0);
 1459              		.loc 1 392 3 discriminator 2 view .LVU407
 395:lib/TinyUSB/src/tusb.c ****   if (s->ep_buf == NULL) {
 1460              		.loc 1 395 3 discriminator 2 view .LVU408
 396:lib/TinyUSB/src/tusb.c ****     count = ff_count;
 1461              		.loc 1 396 3 discriminator 2 view .LVU409
 396:lib/TinyUSB/src/tusb.c ****     count = ff_count;
ARM GAS  C:\Users\krisa\AppData\Local\Temp\ccuohWpS.s 			page 60


 1462              		.loc 1 396 8 is_stmt 0 discriminator 2 view .LVU410
 1463 0034 A968     		ldr	r1, [r5, #8]
 396:lib/TinyUSB/src/tusb.c ****     count = ff_count;
 1464              		.loc 1 396 6 discriminator 2 view .LVU411
 1465 0036 31B1     		cbz	r1, .L137
 399:lib/TinyUSB/src/tusb.c ****   }
 1466              		.loc 1 399 5 is_stmt 1 view .LVU412
 1467              	.LVL124:
 1468              	.LBB113:
 1469              	.LBI113:
 204:lib/TinyUSB/src/common/tusb_fifo.h ****   return tu_fifo_read_n_access_mode(f, buffer, n, TU_FIFO_INC_ADDR_RW8);
 1470              		.loc 4 204 46 view .LVU413
 1471              	.LBB114:
 205:lib/TinyUSB/src/common/tusb_fifo.h **** }
 1472              		.loc 4 205 3 view .LVU414
 205:lib/TinyUSB/src/common/tusb_fifo.h **** }
 1473              		.loc 4 205 10 is_stmt 0 view .LVU415
 1474 0038 0023     		movs	r3, #0
 1475 003a EA88     		ldrh	r2, [r5, #6]
 1476 003c 05F10C00 		add	r0, r5, #12
 1477              	.LVL125:
 205:lib/TinyUSB/src/common/tusb_fifo.h **** }
 1478              		.loc 4 205 10 view .LVU416
 1479 0040 FFF7FEFF 		bl	tu_fifo_read_n_access_mode
 1480              	.LVL126:
 205:lib/TinyUSB/src/common/tusb_fifo.h **** }
 1481              		.loc 4 205 10 view .LVU417
 1482 0044 0446     		mov	r4, r0
 1483              	.LVL127:
 1484              	.L137:
 205:lib/TinyUSB/src/common/tusb_fifo.h **** }
 1485              		.loc 4 205 10 view .LVU418
 1486              	.LBE114:
 1487              	.LBE113:
 402:lib/TinyUSB/src/tusb.c ****     TU_ASSERT(stream_xfer(s, count), 0);
 1488              		.loc 1 402 3 is_stmt 1 view .LVU419
 402:lib/TinyUSB/src/tusb.c ****     TU_ASSERT(stream_xfer(s, count), 0);
 1489              		.loc 1 402 6 is_stmt 0 view .LVU420
 1490 0046 84B1     		cbz	r4, .L138
 403:lib/TinyUSB/src/tusb.c ****     return count;
 1491              		.loc 1 403 5 is_stmt 1 view .LVU421
 403:lib/TinyUSB/src/tusb.c ****     return count;
 1492              		.loc 1 403 5 view .LVU422
 1493 0048 2146     		mov	r1, r4
 1494 004a 2846     		mov	r0, r5
 1495 004c FFF7FEFF 		bl	stream_xfer
 1496              	.LVL128:
 1497 0050 48B9     		cbnz	r0, .L139
 403:lib/TinyUSB/src/tusb.c ****     return count;
 1498              		.loc 1 403 5 discriminator 1 view .LVU423
 403:lib/TinyUSB/src/tusb.c ****     return count;
 1499              		.loc 1 403 5 discriminator 1 view .LVU424
 403:lib/TinyUSB/src/tusb.c ****     return count;
 1500              		.loc 1 403 5 discriminator 1 view .LVU425
 403:lib/TinyUSB/src/tusb.c ****     return count;
 1501              		.loc 1 403 5 discriminator 1 view .LVU426
 1502              	.LBB115:
ARM GAS  C:\Users\krisa\AppData\Local\Temp\ccuohWpS.s 			page 61


 403:lib/TinyUSB/src/tusb.c ****     return count;
 1503              		.loc 1 403 5 discriminator 1 view .LVU427
 1504              	.LVL129:
 403:lib/TinyUSB/src/tusb.c ****     return count;
 1505              		.loc 1 403 5 discriminator 1 view .LVU428
 1506 0052 4FF0E023 		mov	r3, #-536813568
 1507 0056 D3F8F03D 		ldr	r3, [r3, #3568]
 1508 005a 13F0010F 		tst	r3, #1
 1509 005e 00D0     		beq	.L140
 403:lib/TinyUSB/src/tusb.c ****     return count;
 1510              		.loc 1 403 5 discriminator 3 view .LVU429
 1511              		.syntax unified
 1512              	@ 403 "lib/TinyUSB/src/tusb.c" 1
 1513 0060 00BE     		BKPT #0
 1514              	
 1515              	@ 0 "" 2
 1516              		.thumb
 1517              		.syntax unified
 1518              	.L140:
 1519              	.LBE115:
 403:lib/TinyUSB/src/tusb.c ****     return count;
 1520              		.loc 1 403 5 discriminator 5 view .LVU430
 403:lib/TinyUSB/src/tusb.c ****     return count;
 1521              		.loc 1 403 5 discriminator 5 view .LVU431
 1522 0062 0020     		movs	r0, #0
 1523 0064 DCE7     		b	.L133
 1524              	.LVL130:
 1525              	.L139:
 403:lib/TinyUSB/src/tusb.c ****     return count;
 1526              		.loc 1 403 5 discriminator 2 view .LVU432
 404:lib/TinyUSB/src/tusb.c ****   } else {
 1527              		.loc 1 404 5 discriminator 2 view .LVU433
 404:lib/TinyUSB/src/tusb.c ****   } else {
 1528              		.loc 1 404 12 is_stmt 0 discriminator 2 view .LVU434
 1529 0066 2046     		mov	r0, r4
 1530 0068 DAE7     		b	.L133
 1531              	.L138:
 408:lib/TinyUSB/src/tusb.c ****     return 0;
 1532              		.loc 1 408 5 is_stmt 1 view .LVU435
 1533 006a 2846     		mov	r0, r5
 1534 006c FFF7FEFF 		bl	stream_release
 1535              	.LVL131:
 409:lib/TinyUSB/src/tusb.c ****   }
 1536              		.loc 1 409 5 view .LVU436
 409:lib/TinyUSB/src/tusb.c ****   }
 1537              		.loc 1 409 12 is_stmt 0 view .LVU437
 1538 0070 0020     		movs	r0, #0
 1539 0072 D5E7     		b	.L133
 1540              	.LVL132:
 1541              	.L142:
 392:lib/TinyUSB/src/tusb.c **** 
 1542              		.loc 1 392 3 view .LVU438
 1543 0074 0020     		movs	r0, #0
 1544 0076 D3E7     		b	.L133
 1545              		.cfi_endproc
 1546              	.LFE128:
 1548              		.section	.text.tu_edpt_stream_write,"ax",%progbits
ARM GAS  C:\Users\krisa\AppData\Local\Temp\ccuohWpS.s 			page 62


 1549              		.align	1
 1550              		.global	tu_edpt_stream_write
 1551              		.syntax unified
 1552              		.thumb
 1553              		.thumb_func
 1555              	tu_edpt_stream_write:
 1556              	.LVL133:
 1557              	.LFB129:
 412:lib/TinyUSB/src/tusb.c **** 
 413:lib/TinyUSB/src/tusb.c **** uint32_t tu_edpt_stream_write(tu_edpt_stream_t *s, const void *buffer, uint32_t bufsize) {
 1558              		.loc 1 413 90 is_stmt 1 view -0
 1559              		.cfi_startproc
 1560              		@ args = 0, pretend = 0, frame = 0
 1561              		@ frame_needed = 0, uses_anonymous_args = 0
 1562              		.loc 1 413 90 is_stmt 0 view .LVU440
 1563 0000 38B5     		push	{r3, r4, r5, lr}
 1564              	.LCFI25:
 1565              		.cfi_def_cfa_offset 16
 1566              		.cfi_offset 3, -16
 1567              		.cfi_offset 4, -12
 1568              		.cfi_offset 5, -8
 1569              		.cfi_offset 14, -4
 1570 0002 0446     		mov	r4, r0
 414:lib/TinyUSB/src/tusb.c ****   TU_VERIFY(bufsize > 0);
 1571              		.loc 1 414 3 is_stmt 1 view .LVU441
 1572              		.loc 1 414 3 view .LVU442
 1573 0004 1046     		mov	r0, r2
 1574              	.LVL134:
 1575              		.loc 1 414 3 is_stmt 0 view .LVU443
 1576 0006 02B9     		cbnz	r2, .L152
 1577              	.LVL135:
 1578              	.L146:
 415:lib/TinyUSB/src/tusb.c **** 
 416:lib/TinyUSB/src/tusb.c ****   #if CFG_TUSB_EDPT_STREAM_NO_FIFO_ENABLED
 417:lib/TinyUSB/src/tusb.c ****   if (0 == tu_fifo_depth(&s->ff)) {
 418:lib/TinyUSB/src/tusb.c ****     // non-fifo mode
 419:lib/TinyUSB/src/tusb.c ****     TU_VERIFY(stream_claim(s), 0);
 420:lib/TinyUSB/src/tusb.c ****     uint32_t xact_len;
 421:lib/TinyUSB/src/tusb.c ****     if (s->ep_buf != NULL) {
 422:lib/TinyUSB/src/tusb.c ****       // using ep buf
 423:lib/TinyUSB/src/tusb.c ****       xact_len = tu_min32(bufsize, s->ep_bufsize);
 424:lib/TinyUSB/src/tusb.c ****       memcpy(s->ep_buf, buffer, xact_len);
 425:lib/TinyUSB/src/tusb.c ****     } else {
 426:lib/TinyUSB/src/tusb.c ****       // using hwfifo
 427:lib/TinyUSB/src/tusb.c ****       xact_len = bufsize;
 428:lib/TinyUSB/src/tusb.c ****     }
 429:lib/TinyUSB/src/tusb.c ****     TU_ASSERT(stream_xfer(s, (uint16_t)xact_len), 0);
 430:lib/TinyUSB/src/tusb.c **** 
 431:lib/TinyUSB/src/tusb.c ****     return xact_len;
 432:lib/TinyUSB/src/tusb.c ****   } else
 433:lib/TinyUSB/src/tusb.c ****   #endif
 434:lib/TinyUSB/src/tusb.c ****   {
 435:lib/TinyUSB/src/tusb.c ****     const uint16_t ret = tu_fifo_write_n(&s->ff, buffer, (uint16_t) bufsize);
 436:lib/TinyUSB/src/tusb.c **** 
 437:lib/TinyUSB/src/tusb.c ****     // flush if fifo has more than packet size or
 438:lib/TinyUSB/src/tusb.c ****     // in rare case: fifo depth is configured too small (which never reach packet size)
 439:lib/TinyUSB/src/tusb.c ****     if ((tu_fifo_count(&s->ff) >= s->mps) || (tu_fifo_depth(&s->ff) < s->mps)) {
ARM GAS  C:\Users\krisa\AppData\Local\Temp\ccuohWpS.s 			page 63


 440:lib/TinyUSB/src/tusb.c ****       tu_edpt_stream_write_xfer(s);
 441:lib/TinyUSB/src/tusb.c ****     }
 442:lib/TinyUSB/src/tusb.c ****     return ret;
 443:lib/TinyUSB/src/tusb.c ****   }
 444:lib/TinyUSB/src/tusb.c **** }
 1579              		.loc 1 444 1 view .LVU444
 1580 0008 38BD     		pop	{r3, r4, r5, pc}
 1581              	.LVL136:
 1582              	.L152:
 414:lib/TinyUSB/src/tusb.c ****   TU_VERIFY(bufsize > 0);
 1583              		.loc 1 414 3 is_stmt 1 discriminator 2 view .LVU445
 1584              	.LBB116:
 435:lib/TinyUSB/src/tusb.c **** 
 1585              		.loc 1 435 5 discriminator 2 view .LVU446
 1586              	.LBB117:
 1587              	.LBI117:
 217:lib/TinyUSB/src/common/tusb_fifo.h ****   return tu_fifo_write_n_access_mode(f, data, n, TU_FIFO_INC_ADDR_RW8);
 1588              		.loc 4 217 46 discriminator 2 view .LVU447
 1589              	.LBB118:
 218:lib/TinyUSB/src/common/tusb_fifo.h **** }
 1590              		.loc 4 218 3 discriminator 2 view .LVU448
 218:lib/TinyUSB/src/common/tusb_fifo.h **** }
 1591              		.loc 4 218 10 is_stmt 0 discriminator 2 view .LVU449
 1592 000a 0023     		movs	r3, #0
 1593 000c 92B2     		uxth	r2, r2
 218:lib/TinyUSB/src/common/tusb_fifo.h **** }
 1594              		.loc 4 218 10 discriminator 2 view .LVU450
 1595 000e 04F10C00 		add	r0, r4, #12
 1596              	.LVL137:
 218:lib/TinyUSB/src/common/tusb_fifo.h **** }
 1597              		.loc 4 218 10 discriminator 2 view .LVU451
 1598 0012 FFF7FEFF 		bl	tu_fifo_write_n_access_mode
 1599              	.LVL138:
 218:lib/TinyUSB/src/common/tusb_fifo.h **** }
 1600              		.loc 4 218 10 discriminator 2 view .LVU452
 1601 0016 0546     		mov	r5, r0
 1602              	.LVL139:
 218:lib/TinyUSB/src/common/tusb_fifo.h **** }
 1603              		.loc 4 218 10 discriminator 2 view .LVU453
 1604              	.LBE118:
 1605              	.LBE117:
 439:lib/TinyUSB/src/tusb.c ****       tu_edpt_stream_write_xfer(s);
 1606              		.loc 1 439 5 is_stmt 1 discriminator 2 view .LVU454
 1607              	.LBB119:
 1608              	.LBI119:
 257:lib/TinyUSB/src/common/tusb_fifo.h ****   return tu_min16(tu_ff_overflow_count(f->depth, f->wr_idx, f->rd_idx), f->depth);
 1609              		.loc 4 257 46 discriminator 2 view .LVU455
 1610              	.LBB120:
 1611              		.loc 4 258 3 discriminator 2 view .LVU456
 1612              		.loc 4 258 10 is_stmt 0 discriminator 2 view .LVU457
 1613 0018 218A     		ldrh	r1, [r4, #16]
 1614 001a A38A     		ldrh	r3, [r4, #20]
 1615 001c 9BB2     		uxth	r3, r3
 1616 001e E28A     		ldrh	r2, [r4, #22]
 1617 0020 92B2     		uxth	r2, r2
 1618              	.LVL140:
 1619              	.LBB121:
ARM GAS  C:\Users\krisa\AppData\Local\Temp\ccuohWpS.s 			page 64


 1620              	.LBI121:
 226:lib/TinyUSB/src/common/tusb_fifo.h ****   const int32_t diff = (int32_t)wr_idx - (int32_t)rd_idx;
 1621              		.loc 4 226 46 is_stmt 1 discriminator 2 view .LVU458
 1622              	.LBB122:
 227:lib/TinyUSB/src/common/tusb_fifo.h ****   if (diff >= 0) {
 1623              		.loc 4 227 3 discriminator 2 view .LVU459
 227:lib/TinyUSB/src/common/tusb_fifo.h ****   if (diff >= 0) {
 1624              		.loc 4 227 17 is_stmt 0 discriminator 2 view .LVU460
 1625 0022 981A     		subs	r0, r3, r2
 1626              	.LVL141:
 228:lib/TinyUSB/src/common/tusb_fifo.h ****     return (uint16_t)diff;
 1627              		.loc 4 228 3 is_stmt 1 discriminator 2 view .LVU461
 228:lib/TinyUSB/src/common/tusb_fifo.h ****     return (uint16_t)diff;
 1628              		.loc 4 228 6 is_stmt 0 discriminator 2 view .LVU462
 1629 0024 0028     		cmp	r0, #0
 1630 0026 0DDB     		blt	.L147
 229:lib/TinyUSB/src/common/tusb_fifo.h ****   } else {
 1631              		.loc 4 229 5 is_stmt 1 view .LVU463
 229:lib/TinyUSB/src/common/tusb_fifo.h ****   } else {
 1632              		.loc 4 229 12 is_stmt 0 view .LVU464
 1633 0028 83B2     		uxth	r3, r0
 1634              	.LVL142:
 1635              	.L148:
 229:lib/TinyUSB/src/common/tusb_fifo.h ****   } else {
 1636              		.loc 4 229 12 view .LVU465
 1637              	.LBE122:
 1638              	.LBE121:
 1639              	.LBB124:
 1640              	.LBI124:
 206:lib/TinyUSB/src/common/tusb_common.h **** TU_ATTR_ALWAYS_INLINE static inline uint32_t tu_min32 (uint32_t x, uint32_t y) { return (x < y) ? x
 1641              		.loc 3 206 46 is_stmt 1 view .LVU466
 1642              	.LBB125:
 206:lib/TinyUSB/src/common/tusb_common.h **** TU_ATTR_ALWAYS_INLINE static inline uint32_t tu_min32 (uint32_t x, uint32_t y) { return (x < y) ? x
 1643              		.loc 3 206 82 view .LVU467
 206:lib/TinyUSB/src/common/tusb_common.h **** TU_ATTR_ALWAYS_INLINE static inline uint32_t tu_min32 (uint32_t x, uint32_t y) { return (x < y) ? x
 1644              		.loc 3 206 101 is_stmt 0 view .LVU468
 1645 002a 8B42     		cmp	r3, r1
 1646 002c 28BF     		it	cs
 1647 002e 0B46     		movcs	r3, r1
 1648              	.LVL143:
 206:lib/TinyUSB/src/common/tusb_common.h **** TU_ATTR_ALWAYS_INLINE static inline uint32_t tu_min32 (uint32_t x, uint32_t y) { return (x < y) ? x
 1649              		.loc 3 206 101 view .LVU469
 1650              	.LBE125:
 1651              	.LBE124:
 1652              	.LBE120:
 1653              	.LBE119:
 439:lib/TinyUSB/src/tusb.c ****       tu_edpt_stream_write_xfer(s);
 1654              		.loc 1 439 36 view .LVU470
 1655 0030 A288     		ldrh	r2, [r4, #4]
 439:lib/TinyUSB/src/tusb.c ****       tu_edpt_stream_write_xfer(s);
 1656              		.loc 1 439 8 view .LVU471
 1657 0032 9A42     		cmp	r2, r3
 1658 0034 01D9     		bls	.L149
 1659              	.LVL144:
 439:lib/TinyUSB/src/tusb.c ****       tu_edpt_stream_write_xfer(s);
 1660              		.loc 1 439 8 view .LVU472
 1661              	.LBE116:
ARM GAS  C:\Users\krisa\AppData\Local\Temp\ccuohWpS.s 			page 65


 247:lib/TinyUSB/src/common/tusb_fifo.h **** }
 1662              		.loc 4 247 3 is_stmt 1 discriminator 1 view .LVU473
 1663              	.LBB129:
 439:lib/TinyUSB/src/tusb.c ****       tu_edpt_stream_write_xfer(s);
 1664              		.loc 1 439 43 is_stmt 0 discriminator 1 view .LVU474
 1665 0036 8A42     		cmp	r2, r1
 1666 0038 02D9     		bls	.L150
 1667              	.L149:
 440:lib/TinyUSB/src/tusb.c ****     }
 1668              		.loc 1 440 7 is_stmt 1 view .LVU475
 1669 003a 2046     		mov	r0, r4
 1670 003c FFF7FEFF 		bl	tu_edpt_stream_write_xfer
 1671              	.LVL145:
 1672              	.L150:
 442:lib/TinyUSB/src/tusb.c ****   }
 1673              		.loc 1 442 5 view .LVU476
 442:lib/TinyUSB/src/tusb.c ****   }
 1674              		.loc 1 442 12 is_stmt 0 view .LVU477
 1675 0040 2846     		mov	r0, r5
 1676 0042 E1E7     		b	.L146
 1677              	.LVL146:
 1678              	.L147:
 1679              	.LBB128:
 1680              	.LBB127:
 1681              	.LBB126:
 1682              	.LBB123:
 231:lib/TinyUSB/src/common/tusb_fifo.h ****   }
 1683              		.loc 4 231 5 is_stmt 1 view .LVU478
 231:lib/TinyUSB/src/common/tusb_fifo.h ****   }
 1684              		.loc 4 231 12 is_stmt 0 view .LVU479
 1685 0044 9B1A     		subs	r3, r3, r2
 1686              	.LVL147:
 231:lib/TinyUSB/src/common/tusb_fifo.h ****   }
 1687              		.loc 4 231 12 view .LVU480
 1688 0046 03EB4103 		add	r3, r3, r1, lsl #1
 1689 004a 9BB2     		uxth	r3, r3
 1690 004c EDE7     		b	.L148
 1691              	.LBE123:
 1692              	.LBE126:
 1693              	.LBE127:
 1694              	.LBE128:
 1695              	.LBE129:
 1696              		.cfi_endproc
 1697              	.LFE129:
 1699              		.section	.text.tu_edpt_stream_write_available,"ax",%progbits
 1700              		.align	1
 1701              		.global	tu_edpt_stream_write_available
 1702              		.syntax unified
 1703              		.thumb
 1704              		.thumb_func
 1706              	tu_edpt_stream_write_available:
 1707              	.LVL148:
 1708              	.LFB130:
 445:lib/TinyUSB/src/tusb.c **** 
 446:lib/TinyUSB/src/tusb.c **** uint32_t tu_edpt_stream_write_available(tu_edpt_stream_t *s) {
 1709              		.loc 1 446 62 is_stmt 1 view -0
 1710              		.cfi_startproc
ARM GAS  C:\Users\krisa\AppData\Local\Temp\ccuohWpS.s 			page 66


 1711              		@ args = 0, pretend = 0, frame = 0
 1712              		@ frame_needed = 0, uses_anonymous_args = 0
 1713              		@ link register save eliminated.
 447:lib/TinyUSB/src/tusb.c ****   #if CFG_TUSB_EDPT_STREAM_NO_FIFO_ENABLED
 448:lib/TinyUSB/src/tusb.c ****   if (0 == tu_fifo_depth(&s->ff)) {
 449:lib/TinyUSB/src/tusb.c ****     // non-fifo mode
 450:lib/TinyUSB/src/tusb.c ****     TU_VERIFY(s->ep_addr > 0); // must be opened
 451:lib/TinyUSB/src/tusb.c ****     bool is_busy = true;
 452:lib/TinyUSB/src/tusb.c ****     if (s->is_host) {
 453:lib/TinyUSB/src/tusb.c ****       #if CFG_TUH_ENABLED
 454:lib/TinyUSB/src/tusb.c ****       is_busy = usbh_edpt_busy(s->hwid, s->ep_addr);
 455:lib/TinyUSB/src/tusb.c ****     #endif
 456:lib/TinyUSB/src/tusb.c ****     } else {
 457:lib/TinyUSB/src/tusb.c ****       #if CFG_TUD_ENABLED
 458:lib/TinyUSB/src/tusb.c ****       is_busy = usbd_edpt_busy(s->hwid, s->ep_addr);
 459:lib/TinyUSB/src/tusb.c ****     #endif
 460:lib/TinyUSB/src/tusb.c ****     }
 461:lib/TinyUSB/src/tusb.c ****     return is_busy ? 0 : s->ep_bufsize;
 462:lib/TinyUSB/src/tusb.c ****   } else
 463:lib/TinyUSB/src/tusb.c ****   #endif
 464:lib/TinyUSB/src/tusb.c ****   {
 465:lib/TinyUSB/src/tusb.c ****     return (uint32_t)tu_fifo_remaining(&s->ff);
 1714              		.loc 1 465 5 view .LVU482
 1715              	.LBB130:
 1716              	.LBI130:
 259:lib/TinyUSB/src/common/tusb_fifo.h **** }
 260:lib/TinyUSB/src/common/tusb_fifo.h **** 
 261:lib/TinyUSB/src/common/tusb_fifo.h **** // check if fifo is full
 262:lib/TinyUSB/src/common/tusb_fifo.h **** TU_ATTR_ALWAYS_INLINE static inline bool tu_fifo_full(const tu_fifo_t *f) {
 263:lib/TinyUSB/src/common/tusb_fifo.h ****   return tu_ff_overflow_count(f->depth, f->wr_idx, f->rd_idx) >= f->depth;
 264:lib/TinyUSB/src/common/tusb_fifo.h **** }
 265:lib/TinyUSB/src/common/tusb_fifo.h **** 
 266:lib/TinyUSB/src/common/tusb_fifo.h **** TU_ATTR_ALWAYS_INLINE static inline uint16_t tu_fifo_remaining(const tu_fifo_t *f) {
 1717              		.loc 4 266 46 view .LVU483
 1718              	.LBB131:
 267:lib/TinyUSB/src/common/tusb_fifo.h ****   return tu_ff_remaining_local(f->depth, f->wr_idx, f->rd_idx);
 1719              		.loc 4 267 3 view .LVU484
 1720              		.loc 4 267 10 is_stmt 0 view .LVU485
 1721 0000 028A     		ldrh	r2, [r0, #16]
 1722 0002 838A     		ldrh	r3, [r0, #20]
 1723 0004 9BB2     		uxth	r3, r3
 1724 0006 C08A     		ldrh	r0, [r0, #22]
 1725              	.LVL149:
 1726              		.loc 4 267 10 view .LVU486
 1727 0008 80B2     		uxth	r0, r0
 1728              	.LVL150:
 1729              	.LBB132:
 1730              	.LBI132:
 236:lib/TinyUSB/src/common/tusb_fifo.h ****   const uint16_t ovf_count = tu_ff_overflow_count(depth, wr_idx, rd_idx);
 1731              		.loc 4 236 46 is_stmt 1 view .LVU487
 1732              	.LBB133:
 237:lib/TinyUSB/src/common/tusb_fifo.h ****   return (depth > ovf_count) ? (depth - ovf_count) : 0;
 1733              		.loc 4 237 3 view .LVU488
 1734              	.LBB134:
 1735              	.LBI134:
 226:lib/TinyUSB/src/common/tusb_fifo.h ****   const int32_t diff = (int32_t)wr_idx - (int32_t)rd_idx;
 1736              		.loc 4 226 46 view .LVU489
ARM GAS  C:\Users\krisa\AppData\Local\Temp\ccuohWpS.s 			page 67


 1737              	.LBB135:
 227:lib/TinyUSB/src/common/tusb_fifo.h ****   if (diff >= 0) {
 1738              		.loc 4 227 3 view .LVU490
 227:lib/TinyUSB/src/common/tusb_fifo.h ****   if (diff >= 0) {
 1739              		.loc 4 227 17 is_stmt 0 view .LVU491
 1740 000a 191A     		subs	r1, r3, r0
 1741              	.LVL151:
 228:lib/TinyUSB/src/common/tusb_fifo.h ****     return (uint16_t)diff;
 1742              		.loc 4 228 3 is_stmt 1 view .LVU492
 228:lib/TinyUSB/src/common/tusb_fifo.h ****     return (uint16_t)diff;
 1743              		.loc 4 228 6 is_stmt 0 view .LVU493
 1744 000c 0029     		cmp	r1, #0
 1745 000e 05DB     		blt	.L154
 229:lib/TinyUSB/src/common/tusb_fifo.h ****   } else {
 1746              		.loc 4 229 5 is_stmt 1 view .LVU494
 229:lib/TinyUSB/src/common/tusb_fifo.h ****   } else {
 1747              		.loc 4 229 12 is_stmt 0 view .LVU495
 1748 0010 8BB2     		uxth	r3, r1
 1749              	.LVL152:
 1750              	.L155:
 229:lib/TinyUSB/src/common/tusb_fifo.h ****   } else {
 1751              		.loc 4 229 12 view .LVU496
 1752              	.LBE135:
 1753              	.LBE134:
 238:lib/TinyUSB/src/common/tusb_fifo.h **** }
 1754              		.loc 4 238 3 is_stmt 1 view .LVU497
 238:lib/TinyUSB/src/common/tusb_fifo.h **** }
 1755              		.loc 4 238 52 is_stmt 0 view .LVU498
 1756 0012 9A42     		cmp	r2, r3
 1757 0014 07D9     		bls	.L157
 1758 0016 D31A     		subs	r3, r2, r3
 1759              	.LVL153:
 238:lib/TinyUSB/src/common/tusb_fifo.h **** }
 1760              		.loc 4 238 52 view .LVU499
 1761 0018 98B2     		uxth	r0, r3
 1762              	.LVL154:
 238:lib/TinyUSB/src/common/tusb_fifo.h **** }
 1763              		.loc 4 238 52 view .LVU500
 1764 001a 7047     		bx	lr
 1765              	.LVL155:
 1766              	.L154:
 1767              	.LBB137:
 1768              	.LBB136:
 231:lib/TinyUSB/src/common/tusb_fifo.h ****   }
 1769              		.loc 4 231 5 is_stmt 1 view .LVU501
 231:lib/TinyUSB/src/common/tusb_fifo.h ****   }
 1770              		.loc 4 231 12 is_stmt 0 view .LVU502
 1771 001c 1B1A     		subs	r3, r3, r0
 1772              	.LVL156:
 231:lib/TinyUSB/src/common/tusb_fifo.h ****   }
 1773              		.loc 4 231 12 view .LVU503
 1774 001e 03EB4203 		add	r3, r3, r2, lsl #1
 1775 0022 9BB2     		uxth	r3, r3
 1776 0024 F5E7     		b	.L155
 1777              	.LVL157:
 1778              	.L157:
 231:lib/TinyUSB/src/common/tusb_fifo.h ****   }
ARM GAS  C:\Users\krisa\AppData\Local\Temp\ccuohWpS.s 			page 68


 1779              		.loc 4 231 12 view .LVU504
 1780              	.LBE136:
 1781              	.LBE137:
 238:lib/TinyUSB/src/common/tusb_fifo.h **** }
 1782              		.loc 4 238 52 view .LVU505
 1783 0026 0020     		movs	r0, #0
 1784              	.LVL158:
 238:lib/TinyUSB/src/common/tusb_fifo.h **** }
 1785              		.loc 4 238 52 view .LVU506
 1786              	.LBE133:
 1787              	.LBE132:
 1788              	.LBE131:
 1789              	.LBE130:
 466:lib/TinyUSB/src/tusb.c ****   }
 467:lib/TinyUSB/src/tusb.c **** }
 1790              		.loc 1 467 1 view .LVU507
 1791 0028 7047     		bx	lr
 1792              		.cfi_endproc
 1793              	.LFE130:
 1795              		.section	.text.tu_edpt_stream_read_xfer,"ax",%progbits
 1796              		.align	1
 1797              		.global	tu_edpt_stream_read_xfer
 1798              		.syntax unified
 1799              		.thumb
 1800              		.thumb_func
 1802              	tu_edpt_stream_read_xfer:
 1803              	.LVL159:
 1804              	.LFB131:
 468:lib/TinyUSB/src/tusb.c **** 
 469:lib/TinyUSB/src/tusb.c **** //--------------------------------------------------------------------+
 470:lib/TinyUSB/src/tusb.c **** // Stream Read
 471:lib/TinyUSB/src/tusb.c **** //--------------------------------------------------------------------+
 472:lib/TinyUSB/src/tusb.c **** uint32_t tu_edpt_stream_read_xfer(tu_edpt_stream_t *s) {
 1805              		.loc 1 472 56 is_stmt 1 view -0
 1806              		.cfi_startproc
 1807              		@ args = 0, pretend = 0, frame = 0
 1808              		@ frame_needed = 0, uses_anonymous_args = 0
 1809              		.loc 1 472 56 is_stmt 0 view .LVU509
 1810 0000 38B5     		push	{r3, r4, r5, lr}
 1811              	.LCFI26:
 1812              		.cfi_def_cfa_offset 16
 1813              		.cfi_offset 3, -16
 1814              		.cfi_offset 4, -12
 1815              		.cfi_offset 5, -8
 1816              		.cfi_offset 14, -4
 1817 0002 0446     		mov	r4, r0
 1818              	.LBB138:
 473:lib/TinyUSB/src/tusb.c ****   #if CFG_TUSB_EDPT_STREAM_NO_FIFO_ENABLED
 474:lib/TinyUSB/src/tusb.c ****   if (0 == tu_fifo_depth(&s->ff)) {
 475:lib/TinyUSB/src/tusb.c ****     // non-fifo mode: RX need ep buffer
 476:lib/TinyUSB/src/tusb.c ****     TU_VERIFY(s->ep_buf != NULL, 0);
 477:lib/TinyUSB/src/tusb.c ****     TU_VERIFY(stream_claim(s), 0);
 478:lib/TinyUSB/src/tusb.c ****     TU_ASSERT(stream_xfer(s, s->ep_bufsize), 0);
 479:lib/TinyUSB/src/tusb.c ****     return s->ep_bufsize;
 480:lib/TinyUSB/src/tusb.c ****   } else
 481:lib/TinyUSB/src/tusb.c ****   #endif
 482:lib/TinyUSB/src/tusb.c ****   {
ARM GAS  C:\Users\krisa\AppData\Local\Temp\ccuohWpS.s 			page 69


 483:lib/TinyUSB/src/tusb.c ****     uint16_t available = tu_fifo_remaining(&s->ff);
 1819              		.loc 1 483 5 is_stmt 1 view .LVU510
 1820              	.LVL160:
 1821              	.LBB139:
 1822              	.LBI139:
 266:lib/TinyUSB/src/common/tusb_fifo.h ****   return tu_ff_remaining_local(f->depth, f->wr_idx, f->rd_idx);
 1823              		.loc 4 266 46 view .LVU511
 1824              	.LBB140:
 1825              		.loc 4 267 3 view .LVU512
 1826              		.loc 4 267 10 is_stmt 0 view .LVU513
 1827 0004 028A     		ldrh	r2, [r0, #16]
 1828 0006 838A     		ldrh	r3, [r0, #20]
 1829 0008 9BB2     		uxth	r3, r3
 1830 000a C18A     		ldrh	r1, [r0, #22]
 1831 000c 89B2     		uxth	r1, r1
 1832              	.LVL161:
 1833              	.LBB141:
 1834              	.LBI141:
 236:lib/TinyUSB/src/common/tusb_fifo.h ****   const uint16_t ovf_count = tu_ff_overflow_count(depth, wr_idx, rd_idx);
 1835              		.loc 4 236 46 is_stmt 1 view .LVU514
 1836              	.LBB142:
 237:lib/TinyUSB/src/common/tusb_fifo.h ****   return (depth > ovf_count) ? (depth - ovf_count) : 0;
 1837              		.loc 4 237 3 view .LVU515
 1838              	.LBB143:
 1839              	.LBI143:
 226:lib/TinyUSB/src/common/tusb_fifo.h ****   const int32_t diff = (int32_t)wr_idx - (int32_t)rd_idx;
 1840              		.loc 4 226 46 view .LVU516
 1841              	.LBB144:
 227:lib/TinyUSB/src/common/tusb_fifo.h ****   if (diff >= 0) {
 1842              		.loc 4 227 3 view .LVU517
 227:lib/TinyUSB/src/common/tusb_fifo.h ****   if (diff >= 0) {
 1843              		.loc 4 227 17 is_stmt 0 view .LVU518
 1844 000e 581A     		subs	r0, r3, r1
 1845              	.LVL162:
 228:lib/TinyUSB/src/common/tusb_fifo.h ****     return (uint16_t)diff;
 1846              		.loc 4 228 3 is_stmt 1 view .LVU519
 228:lib/TinyUSB/src/common/tusb_fifo.h ****     return (uint16_t)diff;
 1847              		.loc 4 228 6 is_stmt 0 view .LVU520
 1848 0010 0028     		cmp	r0, #0
 1849 0012 09DB     		blt	.L159
 229:lib/TinyUSB/src/common/tusb_fifo.h ****   } else {
 1850              		.loc 4 229 5 is_stmt 1 view .LVU521
 229:lib/TinyUSB/src/common/tusb_fifo.h ****   } else {
 1851              		.loc 4 229 12 is_stmt 0 view .LVU522
 1852 0014 83B2     		uxth	r3, r0
 1853              	.LVL163:
 1854              	.L160:
 229:lib/TinyUSB/src/common/tusb_fifo.h ****   } else {
 1855              		.loc 4 229 12 view .LVU523
 1856              	.LBE144:
 1857              	.LBE143:
 238:lib/TinyUSB/src/common/tusb_fifo.h **** }
 1858              		.loc 4 238 3 is_stmt 1 view .LVU524
 238:lib/TinyUSB/src/common/tusb_fifo.h **** }
 1859              		.loc 4 238 52 is_stmt 0 view .LVU525
 1860 0016 9A42     		cmp	r2, r3
 1861 0018 0BD9     		bls	.L170
ARM GAS  C:\Users\krisa\AppData\Local\Temp\ccuohWpS.s 			page 70


 1862 001a D31A     		subs	r3, r2, r3
 1863              	.LVL164:
 238:lib/TinyUSB/src/common/tusb_fifo.h **** }
 1864              		.loc 4 238 52 view .LVU526
 1865 001c 9BB2     		uxth	r3, r3
 1866              	.L161:
 1867              	.LVL165:
 238:lib/TinyUSB/src/common/tusb_fifo.h **** }
 1868              		.loc 4 238 52 view .LVU527
 1869              	.LBE142:
 1870              	.LBE141:
 1871              	.LBE140:
 1872              	.LBE139:
 484:lib/TinyUSB/src/tusb.c **** 
 485:lib/TinyUSB/src/tusb.c ****     // Prepare for incoming data but only allow what we can store in the ring buffer.
 486:lib/TinyUSB/src/tusb.c ****     // TODO Actually we can still carry out the transfer, keeping count of received bytes
 487:lib/TinyUSB/src/tusb.c ****     // and slowly move it to the FIFO when read().
 488:lib/TinyUSB/src/tusb.c ****     // This pre-check reduces endpoint claiming
 489:lib/TinyUSB/src/tusb.c ****     TU_VERIFY(available >= s->mps);
 1873              		.loc 1 489 5 is_stmt 1 view .LVU528
 1874              		.loc 1 489 5 view .LVU529
 1875 001e A288     		ldrh	r2, [r4, #4]
 1876 0020 9A42     		cmp	r2, r3
 1877 0022 08D9     		bls	.L175
 1878 0024 0020     		movs	r0, #0
 1879              	.LVL166:
 1880              	.L158:
 1881              		.loc 1 489 5 is_stmt 0 view .LVU530
 1882              	.LBE138:
 490:lib/TinyUSB/src/tusb.c ****     TU_VERIFY(stream_claim(s), 0);
 491:lib/TinyUSB/src/tusb.c ****     available = tu_fifo_remaining(&s->ff); // re-get available since fifo can be changed
 492:lib/TinyUSB/src/tusb.c **** 
 493:lib/TinyUSB/src/tusb.c ****     if (available >= s->mps) {
 494:lib/TinyUSB/src/tusb.c ****       // multiple of packet size limit by ep bufsize
 495:lib/TinyUSB/src/tusb.c ****       uint16_t count = (uint16_t) (available & ~(s->mps - 1));
 496:lib/TinyUSB/src/tusb.c ****       if (s->ep_buf != NULL) {
 497:lib/TinyUSB/src/tusb.c ****         count = tu_min16(count, s->ep_bufsize);
 498:lib/TinyUSB/src/tusb.c ****       }
 499:lib/TinyUSB/src/tusb.c ****       TU_ASSERT(stream_xfer(s, count), 0);
 500:lib/TinyUSB/src/tusb.c ****       return count;
 501:lib/TinyUSB/src/tusb.c ****     } else {
 502:lib/TinyUSB/src/tusb.c ****       // Release endpoint since we don't make any transfer
 503:lib/TinyUSB/src/tusb.c ****       stream_release(s);
 504:lib/TinyUSB/src/tusb.c ****       return 0;
 505:lib/TinyUSB/src/tusb.c ****     }
 506:lib/TinyUSB/src/tusb.c ****   }
 507:lib/TinyUSB/src/tusb.c **** }
 1883              		.loc 1 507 1 view .LVU531
 1884 0026 38BD     		pop	{r3, r4, r5, pc}
 1885              	.LVL167:
 1886              	.L159:
 1887              	.LBB168:
 1888              	.LBB150:
 1889              	.LBB149:
 1890              	.LBB148:
 1891              	.LBB147:
 1892              	.LBB146:
ARM GAS  C:\Users\krisa\AppData\Local\Temp\ccuohWpS.s 			page 71


 1893              	.LBB145:
 231:lib/TinyUSB/src/common/tusb_fifo.h ****   }
 1894              		.loc 4 231 5 is_stmt 1 view .LVU532
 231:lib/TinyUSB/src/common/tusb_fifo.h ****   }
 1895              		.loc 4 231 12 is_stmt 0 view .LVU533
 1896 0028 5B1A     		subs	r3, r3, r1
 1897              	.LVL168:
 231:lib/TinyUSB/src/common/tusb_fifo.h ****   }
 1898              		.loc 4 231 12 view .LVU534
 1899 002a 03EB4203 		add	r3, r3, r2, lsl #1
 1900 002e 9BB2     		uxth	r3, r3
 1901 0030 F1E7     		b	.L160
 1902              	.LVL169:
 1903              	.L170:
 231:lib/TinyUSB/src/common/tusb_fifo.h ****   }
 1904              		.loc 4 231 12 view .LVU535
 1905              	.LBE145:
 1906              	.LBE146:
 238:lib/TinyUSB/src/common/tusb_fifo.h **** }
 1907              		.loc 4 238 52 view .LVU536
 1908 0032 0023     		movs	r3, #0
 1909              	.LVL170:
 238:lib/TinyUSB/src/common/tusb_fifo.h **** }
 1910              		.loc 4 238 52 view .LVU537
 1911 0034 F3E7     		b	.L161
 1912              	.LVL171:
 1913              	.L175:
 238:lib/TinyUSB/src/common/tusb_fifo.h **** }
 1914              		.loc 4 238 52 view .LVU538
 1915              	.LBE147:
 1916              	.LBE148:
 1917              	.LBE149:
 1918              	.LBE150:
 489:lib/TinyUSB/src/tusb.c ****     TU_VERIFY(stream_claim(s), 0);
 1919              		.loc 1 489 5 is_stmt 1 discriminator 2 view .LVU539
 490:lib/TinyUSB/src/tusb.c ****     available = tu_fifo_remaining(&s->ff); // re-get available since fifo can be changed
 1920              		.loc 1 490 5 discriminator 2 view .LVU540
 490:lib/TinyUSB/src/tusb.c ****     available = tu_fifo_remaining(&s->ff); // re-get available since fifo can be changed
 1921              		.loc 1 490 5 discriminator 2 view .LVU541
 1922 0036 2046     		mov	r0, r4
 1923 0038 FFF7FEFF 		bl	stream_claim
 1924              	.LVL172:
 490:lib/TinyUSB/src/tusb.c ****     available = tu_fifo_remaining(&s->ff); // re-get available since fifo can be changed
 1925              		.loc 1 490 5 is_stmt 0 discriminator 2 view .LVU542
 1926 003c 0028     		cmp	r0, #0
 1927 003e 34D0     		beq	.L172
 490:lib/TinyUSB/src/tusb.c ****     available = tu_fifo_remaining(&s->ff); // re-get available since fifo can be changed
 1928              		.loc 1 490 5 is_stmt 1 discriminator 2 view .LVU543
 491:lib/TinyUSB/src/tusb.c **** 
 1929              		.loc 1 491 5 discriminator 2 view .LVU544
 1930              	.LVL173:
 1931              	.LBB151:
 1932              	.LBI151:
 266:lib/TinyUSB/src/common/tusb_fifo.h ****   return tu_ff_remaining_local(f->depth, f->wr_idx, f->rd_idx);
 1933              		.loc 4 266 46 discriminator 2 view .LVU545
 1934              	.LBB152:
 1935              		.loc 4 267 3 discriminator 2 view .LVU546
ARM GAS  C:\Users\krisa\AppData\Local\Temp\ccuohWpS.s 			page 72


 1936              		.loc 4 267 10 is_stmt 0 discriminator 2 view .LVU547
 1937 0040 208A     		ldrh	r0, [r4, #16]
 1938 0042 A38A     		ldrh	r3, [r4, #20]
 1939 0044 9BB2     		uxth	r3, r3
 1940 0046 E28A     		ldrh	r2, [r4, #22]
 1941 0048 92B2     		uxth	r2, r2
 1942              	.LVL174:
 1943              	.LBB153:
 1944              	.LBI153:
 236:lib/TinyUSB/src/common/tusb_fifo.h ****   const uint16_t ovf_count = tu_ff_overflow_count(depth, wr_idx, rd_idx);
 1945              		.loc 4 236 46 is_stmt 1 discriminator 2 view .LVU548
 1946              	.LBB154:
 237:lib/TinyUSB/src/common/tusb_fifo.h ****   return (depth > ovf_count) ? (depth - ovf_count) : 0;
 1947              		.loc 4 237 3 discriminator 2 view .LVU549
 1948              	.LBB155:
 1949              	.LBI155:
 226:lib/TinyUSB/src/common/tusb_fifo.h ****   const int32_t diff = (int32_t)wr_idx - (int32_t)rd_idx;
 1950              		.loc 4 226 46 discriminator 2 view .LVU550
 1951              	.LBB156:
 227:lib/TinyUSB/src/common/tusb_fifo.h ****   if (diff >= 0) {
 1952              		.loc 4 227 3 discriminator 2 view .LVU551
 227:lib/TinyUSB/src/common/tusb_fifo.h ****   if (diff >= 0) {
 1953              		.loc 4 227 17 is_stmt 0 discriminator 2 view .LVU552
 1954 004a 991A     		subs	r1, r3, r2
 1955              	.LVL175:
 228:lib/TinyUSB/src/common/tusb_fifo.h ****     return (uint16_t)diff;
 1956              		.loc 4 228 3 is_stmt 1 discriminator 2 view .LVU553
 228:lib/TinyUSB/src/common/tusb_fifo.h ****     return (uint16_t)diff;
 1957              		.loc 4 228 6 is_stmt 0 discriminator 2 view .LVU554
 1958 004c 0029     		cmp	r1, #0
 1959 004e 1EDB     		blt	.L163
 229:lib/TinyUSB/src/common/tusb_fifo.h ****   } else {
 1960              		.loc 4 229 5 is_stmt 1 view .LVU555
 229:lib/TinyUSB/src/common/tusb_fifo.h ****   } else {
 1961              		.loc 4 229 12 is_stmt 0 view .LVU556
 1962 0050 8BB2     		uxth	r3, r1
 1963              	.LVL176:
 1964              	.L164:
 229:lib/TinyUSB/src/common/tusb_fifo.h ****   } else {
 1965              		.loc 4 229 12 view .LVU557
 1966              	.LBE156:
 1967              	.LBE155:
 238:lib/TinyUSB/src/common/tusb_fifo.h **** }
 1968              		.loc 4 238 3 is_stmt 1 view .LVU558
 238:lib/TinyUSB/src/common/tusb_fifo.h **** }
 1969              		.loc 4 238 52 is_stmt 0 view .LVU559
 1970 0052 9842     		cmp	r0, r3
 1971 0054 20D9     		bls	.L173
 1972 0056 C51A     		subs	r5, r0, r3
 1973 0058 ADB2     		uxth	r5, r5
 1974              	.L165:
 1975              	.LVL177:
 238:lib/TinyUSB/src/common/tusb_fifo.h **** }
 1976              		.loc 4 238 52 view .LVU560
 1977              	.LBE154:
 1978              	.LBE153:
 1979              	.LBE152:
ARM GAS  C:\Users\krisa\AppData\Local\Temp\ccuohWpS.s 			page 73


 1980              	.LBE151:
 493:lib/TinyUSB/src/tusb.c ****       // multiple of packet size limit by ep bufsize
 1981              		.loc 1 493 5 is_stmt 1 view .LVU561
 493:lib/TinyUSB/src/tusb.c ****       // multiple of packet size limit by ep bufsize
 1982              		.loc 1 493 23 is_stmt 0 view .LVU562
 1983 005a A388     		ldrh	r3, [r4, #4]
 1984              	.LVL178:
 493:lib/TinyUSB/src/tusb.c ****       // multiple of packet size limit by ep bufsize
 1985              		.loc 1 493 8 view .LVU563
 1986 005c AB42     		cmp	r3, r5
 1987 005e 1FD8     		bhi	.L166
 1988              	.LBB162:
 495:lib/TinyUSB/src/tusb.c ****       if (s->ep_buf != NULL) {
 1989              		.loc 1 495 7 is_stmt 1 view .LVU564
 495:lib/TinyUSB/src/tusb.c ****       if (s->ep_buf != NULL) {
 1990              		.loc 1 495 46 is_stmt 0 view .LVU565
 1991 0060 5842     		rsbs	r0, r3, #0
 495:lib/TinyUSB/src/tusb.c ****       if (s->ep_buf != NULL) {
 1992              		.loc 1 495 16 view .LVU566
 1993 0062 0540     		ands	r5, r5, r0
 1994              	.LVL179:
 496:lib/TinyUSB/src/tusb.c ****         count = tu_min16(count, s->ep_bufsize);
 1995              		.loc 1 496 7 is_stmt 1 view .LVU567
 496:lib/TinyUSB/src/tusb.c ****         count = tu_min16(count, s->ep_bufsize);
 1996              		.loc 1 496 12 is_stmt 0 view .LVU568
 1997 0064 A368     		ldr	r3, [r4, #8]
 496:lib/TinyUSB/src/tusb.c ****         count = tu_min16(count, s->ep_bufsize);
 1998              		.loc 1 496 10 view .LVU569
 1999 0066 1BB1     		cbz	r3, .L167
 497:lib/TinyUSB/src/tusb.c ****       }
 2000              		.loc 1 497 9 is_stmt 1 view .LVU570
 497:lib/TinyUSB/src/tusb.c ****       }
 2001              		.loc 1 497 17 is_stmt 0 view .LVU571
 2002 0068 E388     		ldrh	r3, [r4, #6]
 2003              	.LVL180:
 2004              	.LBB163:
 2005              	.LBI163:
 206:lib/TinyUSB/src/common/tusb_common.h **** TU_ATTR_ALWAYS_INLINE static inline uint32_t tu_min32 (uint32_t x, uint32_t y) { return (x < y) ? x
 2006              		.loc 3 206 46 is_stmt 1 view .LVU572
 2007              	.LBB164:
 206:lib/TinyUSB/src/common/tusb_common.h **** TU_ATTR_ALWAYS_INLINE static inline uint32_t tu_min32 (uint32_t x, uint32_t y) { return (x < y) ? x
 2008              		.loc 3 206 82 view .LVU573
 206:lib/TinyUSB/src/common/tusb_common.h **** TU_ATTR_ALWAYS_INLINE static inline uint32_t tu_min32 (uint32_t x, uint32_t y) { return (x < y) ? x
 2009              		.loc 3 206 101 is_stmt 0 view .LVU574
 2010 006a 9D42     		cmp	r5, r3
 2011 006c 28BF     		it	cs
 2012 006e 1D46     		movcs	r5, r3
 2013              	.LVL181:
 2014              	.L167:
 206:lib/TinyUSB/src/common/tusb_common.h **** TU_ATTR_ALWAYS_INLINE static inline uint32_t tu_min32 (uint32_t x, uint32_t y) { return (x < y) ? x
 2015              		.loc 3 206 101 view .LVU575
 2016              	.LBE164:
 2017              	.LBE163:
 499:lib/TinyUSB/src/tusb.c ****       return count;
 2018              		.loc 1 499 7 is_stmt 1 view .LVU576
 499:lib/TinyUSB/src/tusb.c ****       return count;
 2019              		.loc 1 499 7 view .LVU577
ARM GAS  C:\Users\krisa\AppData\Local\Temp\ccuohWpS.s 			page 74


 2020 0070 2946     		mov	r1, r5
 2021 0072 2046     		mov	r0, r4
 2022 0074 FFF7FEFF 		bl	stream_xfer
 2023              	.LVL182:
 2024 0078 80B9     		cbnz	r0, .L168
 499:lib/TinyUSB/src/tusb.c ****       return count;
 2025              		.loc 1 499 7 discriminator 1 view .LVU578
 499:lib/TinyUSB/src/tusb.c ****       return count;
 2026              		.loc 1 499 7 discriminator 1 view .LVU579
 499:lib/TinyUSB/src/tusb.c ****       return count;
 2027              		.loc 1 499 7 discriminator 1 view .LVU580
 499:lib/TinyUSB/src/tusb.c ****       return count;
 2028              		.loc 1 499 7 discriminator 1 view .LVU581
 2029              	.LBB165:
 499:lib/TinyUSB/src/tusb.c ****       return count;
 2030              		.loc 1 499 7 discriminator 1 view .LVU582
 2031              	.LVL183:
 499:lib/TinyUSB/src/tusb.c ****       return count;
