ARM GAS  C:\Users\krisa\AppData\Local\Temp\ccBxAPKY.s 			page 1


   1              		.cpu cortex-m4
   2              		.arch armv7e-m
   3              		.fpu fpv4-sp-d16
   4              		.eabi_attribute 27, 1
   5              		.eabi_attribute 28, 1
   6              		.eabi_attribute 20, 1
   7              		.eabi_attribute 21, 1
   8              		.eabi_attribute 23, 3
   9              		.eabi_attribute 24, 1
  10              		.eabi_attribute 25, 1
  11              		.eabi_attribute 26, 1
  12              		.eabi_attribute 30, 1
  13              		.eabi_attribute 34, 1
  14              		.eabi_attribute 18, 4
  15              		.file	"usbd_control.c"
  16              		.text
  17              	.Ltext0:
  18              		.cfi_sections	.debug_frame
  19              		.section	.text.data_stage_xact,"ax",%progbits
  20              		.align	1
  21              		.syntax unified
  22              		.thumb
  23              		.thumb_func
  25              	data_stage_xact:
  26              	.LVL0:
  27              	.LFB118:
  28              		.file 1 "lib/TinyUSB/src/device/usbd_control.c"
   1:lib/TinyUSB/src/device/usbd_control.c **** /*
   2:lib/TinyUSB/src/device/usbd_control.c ****  * The MIT License (MIT)
   3:lib/TinyUSB/src/device/usbd_control.c ****  *
   4:lib/TinyUSB/src/device/usbd_control.c ****  * Copyright (c) 2019 Ha Thach (tinyusb.org)
   5:lib/TinyUSB/src/device/usbd_control.c ****  *
   6:lib/TinyUSB/src/device/usbd_control.c ****  * Permission is hereby granted, free of charge, to any person obtaining a copy
   7:lib/TinyUSB/src/device/usbd_control.c ****  * of this software and associated documentation files (the "Software"), to deal
   8:lib/TinyUSB/src/device/usbd_control.c ****  * in the Software without restriction, including without limitation the rights
   9:lib/TinyUSB/src/device/usbd_control.c ****  * to use, copy, modify, merge, publish, distribute, sublicense, and/or sell
  10:lib/TinyUSB/src/device/usbd_control.c ****  * copies of the Software, and to permit persons to whom the Software is
  11:lib/TinyUSB/src/device/usbd_control.c ****  * furnished to do so, subject to the following conditions:
  12:lib/TinyUSB/src/device/usbd_control.c ****  *
  13:lib/TinyUSB/src/device/usbd_control.c ****  * The above copyright notice and this permission notice shall be included in
  14:lib/TinyUSB/src/device/usbd_control.c ****  * all copies or substantial portions of the Software.
  15:lib/TinyUSB/src/device/usbd_control.c ****  *
  16:lib/TinyUSB/src/device/usbd_control.c ****  * THE SOFTWARE IS PROVIDED "AS IS", WITHOUT WARRANTY OF ANY KIND, EXPRESS OR
  17:lib/TinyUSB/src/device/usbd_control.c ****  * IMPLIED, INCLUDING BUT NOT LIMITED TO THE WARRANTIES OF MERCHANTABILITY,
  18:lib/TinyUSB/src/device/usbd_control.c ****  * FITNESS FOR A PARTICULAR PURPOSE AND NONINFRINGEMENT. IN NO EVENT SHALL THE
  19:lib/TinyUSB/src/device/usbd_control.c ****  * AUTHORS OR COPYRIGHT HOLDERS BE LIABLE FOR ANY CLAIM, DAMAGES OR OTHER
  20:lib/TinyUSB/src/device/usbd_control.c ****  * LIABILITY, WHETHER IN AN ACTION OF CONTRACT, TORT OR OTHERWISE, ARISING FROM,
  21:lib/TinyUSB/src/device/usbd_control.c ****  * OUT OF OR IN CONNECTION WITH THE SOFTWARE OR THE USE OR OTHER DEALINGS IN
  22:lib/TinyUSB/src/device/usbd_control.c ****  * THE SOFTWARE.
  23:lib/TinyUSB/src/device/usbd_control.c ****  *
  24:lib/TinyUSB/src/device/usbd_control.c ****  * This file is part of the TinyUSB stack.
  25:lib/TinyUSB/src/device/usbd_control.c ****  */
  26:lib/TinyUSB/src/device/usbd_control.c **** 
  27:lib/TinyUSB/src/device/usbd_control.c **** #include "tusb_option.h"
  28:lib/TinyUSB/src/device/usbd_control.c **** 
  29:lib/TinyUSB/src/device/usbd_control.c **** #if CFG_TUD_ENABLED
  30:lib/TinyUSB/src/device/usbd_control.c **** 
ARM GAS  C:\Users\krisa\AppData\Local\Temp\ccBxAPKY.s 			page 2


  31:lib/TinyUSB/src/device/usbd_control.c **** #include "dcd.h"
  32:lib/TinyUSB/src/device/usbd_control.c **** #include "tusb.h"
  33:lib/TinyUSB/src/device/usbd_control.c **** #include "device/usbd_pvt.h"
  34:lib/TinyUSB/src/device/usbd_control.c **** 
  35:lib/TinyUSB/src/device/usbd_control.c **** //--------------------------------------------------------------------+
  36:lib/TinyUSB/src/device/usbd_control.c **** // Callback weak stubs (called if application does not provide)
  37:lib/TinyUSB/src/device/usbd_control.c **** //--------------------------------------------------------------------+
  38:lib/TinyUSB/src/device/usbd_control.c **** TU_ATTR_WEAK void dcd_edpt0_status_complete(uint8_t rhport, const tusb_control_request_t* request) 
  39:lib/TinyUSB/src/device/usbd_control.c ****   (void) rhport;
  40:lib/TinyUSB/src/device/usbd_control.c ****   (void) request;
  41:lib/TinyUSB/src/device/usbd_control.c **** }
  42:lib/TinyUSB/src/device/usbd_control.c **** 
  43:lib/TinyUSB/src/device/usbd_control.c **** //--------------------------------------------------------------------+
  44:lib/TinyUSB/src/device/usbd_control.c **** // MACRO CONSTANT TYPEDEF
  45:lib/TinyUSB/src/device/usbd_control.c **** //--------------------------------------------------------------------+
  46:lib/TinyUSB/src/device/usbd_control.c **** 
  47:lib/TinyUSB/src/device/usbd_control.c **** enum {
  48:lib/TinyUSB/src/device/usbd_control.c ****   EDPT_CTRL_OUT = 0x00,
  49:lib/TinyUSB/src/device/usbd_control.c ****   EDPT_CTRL_IN = 0x80
  50:lib/TinyUSB/src/device/usbd_control.c **** };
  51:lib/TinyUSB/src/device/usbd_control.c **** 
  52:lib/TinyUSB/src/device/usbd_control.c **** typedef struct {
  53:lib/TinyUSB/src/device/usbd_control.c ****   tusb_control_request_t request;
  54:lib/TinyUSB/src/device/usbd_control.c ****   uint8_t* buffer;
  55:lib/TinyUSB/src/device/usbd_control.c ****   uint16_t data_len;
  56:lib/TinyUSB/src/device/usbd_control.c ****   uint16_t total_xferred;
  57:lib/TinyUSB/src/device/usbd_control.c ****   usbd_control_xfer_cb_t complete_cb;
  58:lib/TinyUSB/src/device/usbd_control.c **** } usbd_control_xfer_t;
  59:lib/TinyUSB/src/device/usbd_control.c **** 
  60:lib/TinyUSB/src/device/usbd_control.c **** static usbd_control_xfer_t _ctrl_xfer;
  61:lib/TinyUSB/src/device/usbd_control.c **** 
  62:lib/TinyUSB/src/device/usbd_control.c **** CFG_TUD_MEM_SECTION static struct {
  63:lib/TinyUSB/src/device/usbd_control.c ****   TUD_EPBUF_DEF(buf, CFG_TUD_ENDPOINT0_BUFSIZE);
  64:lib/TinyUSB/src/device/usbd_control.c **** } _ctrl_epbuf;
  65:lib/TinyUSB/src/device/usbd_control.c **** 
  66:lib/TinyUSB/src/device/usbd_control.c **** //--------------------------------------------------------------------+
  67:lib/TinyUSB/src/device/usbd_control.c **** // Application API
  68:lib/TinyUSB/src/device/usbd_control.c **** //--------------------------------------------------------------------+
  69:lib/TinyUSB/src/device/usbd_control.c **** 
  70:lib/TinyUSB/src/device/usbd_control.c **** // Queue ZLP status transaction
  71:lib/TinyUSB/src/device/usbd_control.c **** static inline bool status_stage_xact(uint8_t rhport, const tusb_control_request_t* request) {
  72:lib/TinyUSB/src/device/usbd_control.c ****   // Opposite to endpoint in Data Phase
  73:lib/TinyUSB/src/device/usbd_control.c ****   const uint8_t ep_addr = request->bmRequestType_bit.direction ? EDPT_CTRL_OUT : EDPT_CTRL_IN;
  74:lib/TinyUSB/src/device/usbd_control.c ****   return usbd_edpt_xfer(rhport, ep_addr, NULL, 0, false);
  75:lib/TinyUSB/src/device/usbd_control.c **** }
  76:lib/TinyUSB/src/device/usbd_control.c **** 
  77:lib/TinyUSB/src/device/usbd_control.c **** // Status phase
  78:lib/TinyUSB/src/device/usbd_control.c **** bool tud_control_status(uint8_t rhport, const tusb_control_request_t* request) {
  79:lib/TinyUSB/src/device/usbd_control.c ****   _ctrl_xfer.request = (*request);
  80:lib/TinyUSB/src/device/usbd_control.c ****   _ctrl_xfer.buffer = NULL;
  81:lib/TinyUSB/src/device/usbd_control.c ****   _ctrl_xfer.total_xferred = 0;
  82:lib/TinyUSB/src/device/usbd_control.c ****   _ctrl_xfer.data_len = 0;
  83:lib/TinyUSB/src/device/usbd_control.c **** 
  84:lib/TinyUSB/src/device/usbd_control.c ****   return status_stage_xact(rhport, request);
  85:lib/TinyUSB/src/device/usbd_control.c **** }
  86:lib/TinyUSB/src/device/usbd_control.c **** 
  87:lib/TinyUSB/src/device/usbd_control.c **** // Queue a transaction in Data Stage
ARM GAS  C:\Users\krisa\AppData\Local\Temp\ccBxAPKY.s 			page 3


  88:lib/TinyUSB/src/device/usbd_control.c **** // Each transaction has up to Endpoint0's max packet size.
  89:lib/TinyUSB/src/device/usbd_control.c **** // This function can also transfer an zero-length packet
  90:lib/TinyUSB/src/device/usbd_control.c **** static bool data_stage_xact(uint8_t rhport) {
  29              		.loc 1 90 45 view -0
  30              		.cfi_startproc
  31              		@ args = 0, pretend = 0, frame = 0
  32              		@ frame_needed = 0, uses_anonymous_args = 0
  33              		.loc 1 90 45 is_stmt 0 view .LVU1
  34 0000 F0B5     		push	{r4, r5, r6, r7, lr}
  35              	.LCFI0:
  36              		.cfi_def_cfa_offset 20
  37              		.cfi_offset 4, -20
  38              		.cfi_offset 5, -16
  39              		.cfi_offset 6, -12
  40              		.cfi_offset 7, -8
  41              		.cfi_offset 14, -4
  42 0002 83B0     		sub	sp, sp, #12
  43              	.LCFI1:
  44              		.cfi_def_cfa_offset 32
  45 0004 0546     		mov	r5, r0
  91:lib/TinyUSB/src/device/usbd_control.c ****   const uint16_t xact_len = tu_min16(_ctrl_xfer.data_len - _ctrl_xfer.total_xferred, CFG_TUD_ENDPOI
  46              		.loc 1 91 3 is_stmt 1 view .LVU2
  47              		.loc 1 91 48 is_stmt 0 view .LVU3
  48 0006 184B     		ldr	r3, .L13
  49 0008 9F89     		ldrh	r7, [r3, #12]
  50              		.loc 1 91 70 view .LVU4
  51 000a DE89     		ldrh	r6, [r3, #14]
  52              		.loc 1 91 29 view .LVU5
  53 000c BC1B     		subs	r4, r7, r6
  54 000e A4B2     		uxth	r4, r4
  55              	.LVL1:
  56              	.LBB17:
  57              	.LBI17:
  58              		.file 2 "lib/TinyUSB/src/common/tusb_common.h"
   1:lib/TinyUSB/src/common/tusb_common.h **** /*
   2:lib/TinyUSB/src/common/tusb_common.h ****  * The MIT License (MIT)
   3:lib/TinyUSB/src/common/tusb_common.h ****  *
   4:lib/TinyUSB/src/common/tusb_common.h ****  * Copyright (c) 2019 Ha Thach (tinyusb.org)
   5:lib/TinyUSB/src/common/tusb_common.h ****  *
   6:lib/TinyUSB/src/common/tusb_common.h ****  * Permission is hereby granted, free of charge, to any person obtaining a copy
   7:lib/TinyUSB/src/common/tusb_common.h ****  * of this software and associated documentation files (the "Software"), to deal
   8:lib/TinyUSB/src/common/tusb_common.h ****  * in the Software without restriction, including without limitation the rights
   9:lib/TinyUSB/src/common/tusb_common.h ****  * to use, copy, modify, merge, publish, distribute, sublicense, and/or sell
  10:lib/TinyUSB/src/common/tusb_common.h ****  * copies of the Software, and to permit persons to whom the Software is
  11:lib/TinyUSB/src/common/tusb_common.h ****  * furnished to do so, subject to the following conditions:
  12:lib/TinyUSB/src/common/tusb_common.h ****  *
  13:lib/TinyUSB/src/common/tusb_common.h ****  * The above copyright notice and this permission notice shall be included in
  14:lib/TinyUSB/src/common/tusb_common.h ****  * all copies or substantial portions of the Software.
  15:lib/TinyUSB/src/common/tusb_common.h ****  *
  16:lib/TinyUSB/src/common/tusb_common.h ****  * THE SOFTWARE IS PROVIDED "AS IS", WITHOUT WARRANTY OF ANY KIND, EXPRESS OR
  17:lib/TinyUSB/src/common/tusb_common.h ****  * IMPLIED, INCLUDING BUT NOT LIMITED TO THE WARRANTIES OF MERCHANTABILITY,
  18:lib/TinyUSB/src/common/tusb_common.h ****  * FITNESS FOR A PARTICULAR PURPOSE AND NONINFRINGEMENT. IN NO EVENT SHALL THE
  19:lib/TinyUSB/src/common/tusb_common.h ****  * AUTHORS OR COPYRIGHT HOLDERS BE LIABLE FOR ANY CLAIM, DAMAGES OR OTHER
  20:lib/TinyUSB/src/common/tusb_common.h ****  * LIABILITY, WHETHER IN AN ACTION OF CONTRACT, TORT OR OTHERWISE, ARISING FROM,
  21:lib/TinyUSB/src/common/tusb_common.h ****  * OUT OF OR IN CONNECTION WITH THE SOFTWARE OR THE USE OR OTHER DEALINGS IN
  22:lib/TinyUSB/src/common/tusb_common.h ****  * THE SOFTWARE.
  23:lib/TinyUSB/src/common/tusb_common.h ****  *
ARM GAS  C:\Users\krisa\AppData\Local\Temp\ccBxAPKY.s 			page 4


  24:lib/TinyUSB/src/common/tusb_common.h ****  * This file is part of the TinyUSB stack.
  25:lib/TinyUSB/src/common/tusb_common.h ****  */
  26:lib/TinyUSB/src/common/tusb_common.h **** 
  27:lib/TinyUSB/src/common/tusb_common.h **** #ifndef TUSB_COMMON_H_
  28:lib/TinyUSB/src/common/tusb_common.h **** #define TUSB_COMMON_H_
  29:lib/TinyUSB/src/common/tusb_common.h **** 
  30:lib/TinyUSB/src/common/tusb_common.h **** #ifdef __cplusplus
  31:lib/TinyUSB/src/common/tusb_common.h ****  extern "C" {
  32:lib/TinyUSB/src/common/tusb_common.h **** #endif
  33:lib/TinyUSB/src/common/tusb_common.h **** 
  34:lib/TinyUSB/src/common/tusb_common.h **** //--------------------------------------------------------------------+
  35:lib/TinyUSB/src/common/tusb_common.h **** // Macros Helper
  36:lib/TinyUSB/src/common/tusb_common.h **** //--------------------------------------------------------------------+
  37:lib/TinyUSB/src/common/tusb_common.h **** #define TU_ARRAY_SIZE(_arr)           ( sizeof(_arr) / sizeof(_arr[0]) )
  38:lib/TinyUSB/src/common/tusb_common.h **** #define TU_FIELD_SIZE(_type, _field)  (sizeof(((_type *)0)->_field))
  39:lib/TinyUSB/src/common/tusb_common.h **** #define TU_MIN(_x, _y)                ( ( (_x) < (_y) ) ? (_x) : (_y) )
  40:lib/TinyUSB/src/common/tusb_common.h **** #define TU_MAX(_x, _y)                ( ( (_x) > (_y) ) ? (_x) : (_y) )
  41:lib/TinyUSB/src/common/tusb_common.h **** #define TU_DIV_CEIL(n, d)             (((n) + (d) - 1) / (d))
  42:lib/TinyUSB/src/common/tusb_common.h **** #define TU_DIV_ROUND_NEAREST(v, d)    (((v) + (d)/2) / (d) ) // round to nearest integer
  43:lib/TinyUSB/src/common/tusb_common.h **** 
  44:lib/TinyUSB/src/common/tusb_common.h **** #define TU_U16(_high, _low)           ((uint16_t) ((((uint16_t) (_high)) << 8) | ((uint16_t) (_low)
  45:lib/TinyUSB/src/common/tusb_common.h **** #define TU_U16_HIGH(_u16)             ((uint8_t) (((uint16_t) (_u16) >> 8) & 0x00ffu))
  46:lib/TinyUSB/src/common/tusb_common.h **** #define TU_U16_LOW(_u16)              ((uint8_t) ((uint16_t) (_u16) & 0x00ffu))
  47:lib/TinyUSB/src/common/tusb_common.h **** #define U16_TO_U8S_BE(_u16)           TU_U16_HIGH(_u16), TU_U16_LOW(_u16)
  48:lib/TinyUSB/src/common/tusb_common.h **** #define U16_TO_U8S_LE(_u16)           TU_U16_LOW(_u16), TU_U16_HIGH(_u16)
  49:lib/TinyUSB/src/common/tusb_common.h **** 
  50:lib/TinyUSB/src/common/tusb_common.h **** #define TU_U24(_high, _mid, _low)     ((uint32_t) ((((uint32_t) (_high)) << 16) | (((uint32_t) (_mi
  51:lib/TinyUSB/src/common/tusb_common.h **** #define TU_U24_HIGH(_u24)             ((uint8_t) (((uint32_t) (_u24) >> 16) & 0x0000ffu))
  52:lib/TinyUSB/src/common/tusb_common.h **** #define TU_U24_MID(_u24)              ((uint8_t) (((uint32_t) (_u24) >>  8) & 0x0000ffu))
  53:lib/TinyUSB/src/common/tusb_common.h **** #define TU_U24_LOW(_u24)              ((uint8_t) ((uint32_t) (_u24) & 0x0000ffu))
  54:lib/TinyUSB/src/common/tusb_common.h **** #define U24_TO_U8S_BE(_u24)           TU_U24_HIGH(_u24), TU_U24_MID(_u24), TU_U24_LOW(_u24)
  55:lib/TinyUSB/src/common/tusb_common.h **** #define U24_TO_U8S_LE(_u24)           TU_U24_LOW(_u24), TU_U24_MID(_u24), TU_U24_HIGH(_u24)
  56:lib/TinyUSB/src/common/tusb_common.h **** 
  57:lib/TinyUSB/src/common/tusb_common.h **** #define TU_U32_BYTE3(_u32)            ((uint8_t) ((((uint32_t) _u32) >> 24) & 0x000000ff)) // MSB
  58:lib/TinyUSB/src/common/tusb_common.h **** #define TU_U32_BYTE2(_u32)            ((uint8_t) ((((uint32_t) _u32) >> 16) & 0x000000ff))
  59:lib/TinyUSB/src/common/tusb_common.h **** #define TU_U32_BYTE1(_u32)            ((uint8_t) ((((uint32_t) _u32) >>  8) & 0x000000ff))
  60:lib/TinyUSB/src/common/tusb_common.h **** #define TU_U32_BYTE0(_u32)            ((uint8_t) (((uint32_t)  _u32)        & 0x000000ff)) // LSB
  61:lib/TinyUSB/src/common/tusb_common.h **** 
  62:lib/TinyUSB/src/common/tusb_common.h **** #define U32_TO_U8S_BE(_u32)           TU_U32_BYTE3(_u32), TU_U32_BYTE2(_u32), TU_U32_BYTE1(_u32), T
  63:lib/TinyUSB/src/common/tusb_common.h **** #define U32_TO_U8S_LE(_u32)           TU_U32_BYTE0(_u32), TU_U32_BYTE1(_u32), TU_U32_BYTE2(_u32), T
  64:lib/TinyUSB/src/common/tusb_common.h **** 
  65:lib/TinyUSB/src/common/tusb_common.h **** #define TU_BIT(n)                     (1UL << (n))
  66:lib/TinyUSB/src/common/tusb_common.h **** 
  67:lib/TinyUSB/src/common/tusb_common.h **** // Generate a mask with bit from high (31) to low (0) set, e.g TU_GENMASK(3, 0) = 0b1111
  68:lib/TinyUSB/src/common/tusb_common.h **** #define TU_GENMASK(h, l)              ( (UINT32_MAX << (l)) & (UINT32_MAX >> (31 - (h))) )
  69:lib/TinyUSB/src/common/tusb_common.h **** 
  70:lib/TinyUSB/src/common/tusb_common.h **** //--------------------------------------------------------------------+
  71:lib/TinyUSB/src/common/tusb_common.h **** // Includes
  72:lib/TinyUSB/src/common/tusb_common.h **** //--------------------------------------------------------------------+
  73:lib/TinyUSB/src/common/tusb_common.h **** 
  74:lib/TinyUSB/src/common/tusb_common.h **** // Standard Headers
  75:lib/TinyUSB/src/common/tusb_common.h **** #include <stdbool.h>
  76:lib/TinyUSB/src/common/tusb_common.h **** #include <stdint.h>
  77:lib/TinyUSB/src/common/tusb_common.h **** #include <inttypes.h>
  78:lib/TinyUSB/src/common/tusb_common.h **** #include <stddef.h>
  79:lib/TinyUSB/src/common/tusb_common.h **** #include <string.h>
  80:lib/TinyUSB/src/common/tusb_common.h **** 
ARM GAS  C:\Users\krisa\AppData\Local\Temp\ccBxAPKY.s 			page 5


  81:lib/TinyUSB/src/common/tusb_common.h **** // Tinyusb Common Headers
  82:lib/TinyUSB/src/common/tusb_common.h **** #include "tusb_option.h"
  83:lib/TinyUSB/src/common/tusb_common.h **** #include "tusb_compiler.h"
  84:lib/TinyUSB/src/common/tusb_common.h **** #include "tusb_verify.h"
  85:lib/TinyUSB/src/common/tusb_common.h **** #include "tusb_types.h"
  86:lib/TinyUSB/src/common/tusb_common.h **** #include "tusb_debug.h"
  87:lib/TinyUSB/src/common/tusb_common.h **** 
  88:lib/TinyUSB/src/common/tusb_common.h **** //--------------------------------------------------------------------+
  89:lib/TinyUSB/src/common/tusb_common.h **** // API implemented by application if needed
  90:lib/TinyUSB/src/common/tusb_common.h **** // TODO move to a more obvious place/file
  91:lib/TinyUSB/src/common/tusb_common.h **** //--------------------------------------------------------------------+
  92:lib/TinyUSB/src/common/tusb_common.h **** 
  93:lib/TinyUSB/src/common/tusb_common.h **** // Get current milliseconds, required by some port/configuration without RTOS
  94:lib/TinyUSB/src/common/tusb_common.h **** extern uint32_t tusb_time_millis_api(void);
  95:lib/TinyUSB/src/common/tusb_common.h **** 
  96:lib/TinyUSB/src/common/tusb_common.h **** // Delay in milliseconds, use tusb_time_millis_api() by default. required by some port/configuratio
  97:lib/TinyUSB/src/common/tusb_common.h **** extern void tusb_time_delay_ms_api(uint32_t ms);
  98:lib/TinyUSB/src/common/tusb_common.h **** 
  99:lib/TinyUSB/src/common/tusb_common.h **** // flush data cache
 100:lib/TinyUSB/src/common/tusb_common.h **** extern void tusb_app_dcache_flush(uintptr_t addr, uint32_t data_size);
 101:lib/TinyUSB/src/common/tusb_common.h **** 
 102:lib/TinyUSB/src/common/tusb_common.h **** // invalidate data cache
 103:lib/TinyUSB/src/common/tusb_common.h **** extern void tusb_app_dcache_invalidate(uintptr_t addr, uint32_t data_size);
 104:lib/TinyUSB/src/common/tusb_common.h **** 
 105:lib/TinyUSB/src/common/tusb_common.h **** // Optional physical <-> virtual address translation
 106:lib/TinyUSB/src/common/tusb_common.h **** extern void* tusb_app_virt_to_phys(void *virt_addr);
 107:lib/TinyUSB/src/common/tusb_common.h **** extern void* tusb_app_phys_to_virt(void *phys_addr);
 108:lib/TinyUSB/src/common/tusb_common.h **** 
 109:lib/TinyUSB/src/common/tusb_common.h **** //--------------------------------------------------------------------+
 110:lib/TinyUSB/src/common/tusb_common.h **** // Internal Inline Functions
 111:lib/TinyUSB/src/common/tusb_common.h **** //--------------------------------------------------------------------+
 112:lib/TinyUSB/src/common/tusb_common.h **** 
 113:lib/TinyUSB/src/common/tusb_common.h **** //------------- Mem -------------//
 114:lib/TinyUSB/src/common/tusb_common.h **** #define tu_memclr(buffer, size)  (void) memset((buffer), 0, (size))
 115:lib/TinyUSB/src/common/tusb_common.h **** #define tu_varclr(_var)          tu_memclr(_var, sizeof(*(_var)))
 116:lib/TinyUSB/src/common/tusb_common.h **** 
 117:lib/TinyUSB/src/common/tusb_common.h **** // This is a backport of memset_s from c11
 118:lib/TinyUSB/src/common/tusb_common.h **** TU_ATTR_ALWAYS_INLINE static inline int tu_memset_s(void *dest, size_t destsz, int ch, size_t count
 119:lib/TinyUSB/src/common/tusb_common.h ****   // Validate parameters
 120:lib/TinyUSB/src/common/tusb_common.h ****   if (dest == NULL) {
 121:lib/TinyUSB/src/common/tusb_common.h ****     return -1;
 122:lib/TinyUSB/src/common/tusb_common.h ****   }
 123:lib/TinyUSB/src/common/tusb_common.h **** 
 124:lib/TinyUSB/src/common/tusb_common.h ****   if (count == 0u) {
 125:lib/TinyUSB/src/common/tusb_common.h ****     return 0;
 126:lib/TinyUSB/src/common/tusb_common.h ****   }
 127:lib/TinyUSB/src/common/tusb_common.h **** 
 128:lib/TinyUSB/src/common/tusb_common.h ****   if (count > destsz) {
 129:lib/TinyUSB/src/common/tusb_common.h ****     return -1;
 130:lib/TinyUSB/src/common/tusb_common.h ****   }
 131:lib/TinyUSB/src/common/tusb_common.h **** 
 132:lib/TinyUSB/src/common/tusb_common.h ****   (void) memset(dest, ch, count);
 133:lib/TinyUSB/src/common/tusb_common.h ****   return 0;
 134:lib/TinyUSB/src/common/tusb_common.h **** }
 135:lib/TinyUSB/src/common/tusb_common.h **** 
 136:lib/TinyUSB/src/common/tusb_common.h **** // This is a backport of memcpy_s from c11
 137:lib/TinyUSB/src/common/tusb_common.h **** TU_ATTR_ALWAYS_INLINE static inline int tu_memcpy_s(void *dest, size_t destsz, const void *src, siz
ARM GAS  C:\Users\krisa\AppData\Local\Temp\ccBxAPKY.s 			page 6


 138:lib/TinyUSB/src/common/tusb_common.h ****   if (dest == NULL) {
 139:lib/TinyUSB/src/common/tusb_common.h ****     return -1;
 140:lib/TinyUSB/src/common/tusb_common.h ****   }
 141:lib/TinyUSB/src/common/tusb_common.h **** 
 142:lib/TinyUSB/src/common/tusb_common.h ****   if (count == 0u) {
 143:lib/TinyUSB/src/common/tusb_common.h ****     return 0;
 144:lib/TinyUSB/src/common/tusb_common.h ****   }
 145:lib/TinyUSB/src/common/tusb_common.h **** 
 146:lib/TinyUSB/src/common/tusb_common.h ****   if (src == NULL) {
 147:lib/TinyUSB/src/common/tusb_common.h ****     return -1;
 148:lib/TinyUSB/src/common/tusb_common.h ****   }
 149:lib/TinyUSB/src/common/tusb_common.h **** 
 150:lib/TinyUSB/src/common/tusb_common.h ****   if (count > destsz) {
 151:lib/TinyUSB/src/common/tusb_common.h ****     return -1;
 152:lib/TinyUSB/src/common/tusb_common.h ****   }
 153:lib/TinyUSB/src/common/tusb_common.h **** 
 154:lib/TinyUSB/src/common/tusb_common.h ****   (void) memcpy(dest, src, count);
 155:lib/TinyUSB/src/common/tusb_common.h ****   return 0;
 156:lib/TinyUSB/src/common/tusb_common.h **** }
 157:lib/TinyUSB/src/common/tusb_common.h **** 
 158:lib/TinyUSB/src/common/tusb_common.h **** TU_ATTR_ALWAYS_INLINE static inline bool tu_mem_is_zero(const void *buffer, size_t size) {
 159:lib/TinyUSB/src/common/tusb_common.h ****   const uint8_t* buf8 = (const uint8_t*) buffer;
 160:lib/TinyUSB/src/common/tusb_common.h ****   for (size_t i = 0; i < size; i++) {
 161:lib/TinyUSB/src/common/tusb_common.h ****     if (buf8[i] != 0) { return false; }
 162:lib/TinyUSB/src/common/tusb_common.h ****   }
 163:lib/TinyUSB/src/common/tusb_common.h ****   return true;
 164:lib/TinyUSB/src/common/tusb_common.h **** }
 165:lib/TinyUSB/src/common/tusb_common.h **** 
 166:lib/TinyUSB/src/common/tusb_common.h **** TU_ATTR_ALWAYS_INLINE static inline bool tu_mem_is_ff(const void *buffer, size_t size) {
 167:lib/TinyUSB/src/common/tusb_common.h ****   const uint8_t* buf8 = (const uint8_t*) buffer;
 168:lib/TinyUSB/src/common/tusb_common.h ****   for (size_t i = 0; i < size; i++) {
 169:lib/TinyUSB/src/common/tusb_common.h ****     if (buf8[i] != 0xff) { return false; }
 170:lib/TinyUSB/src/common/tusb_common.h ****   }
 171:lib/TinyUSB/src/common/tusb_common.h ****   return true;
 172:lib/TinyUSB/src/common/tusb_common.h **** }
 173:lib/TinyUSB/src/common/tusb_common.h **** 
 174:lib/TinyUSB/src/common/tusb_common.h **** 
 175:lib/TinyUSB/src/common/tusb_common.h **** //------------- Bytes -------------//
 176:lib/TinyUSB/src/common/tusb_common.h **** TU_ATTR_ALWAYS_INLINE static inline uint32_t tu_u32(uint8_t b3, uint8_t b2, uint8_t b1, uint8_t b0)
 177:lib/TinyUSB/src/common/tusb_common.h ****   return (((uint32_t)b3) << 24) | (((uint32_t)b2) << 16) | (((uint32_t)b1) << 8) | b0;
 178:lib/TinyUSB/src/common/tusb_common.h **** }
 179:lib/TinyUSB/src/common/tusb_common.h **** 
 180:lib/TinyUSB/src/common/tusb_common.h **** TU_ATTR_ALWAYS_INLINE static inline uint32_t tu_u32_from_u16(uint16_t high, uint16_t low) {
 181:lib/TinyUSB/src/common/tusb_common.h ****   return (((uint32_t)high) << 16) | low;
 182:lib/TinyUSB/src/common/tusb_common.h **** }
 183:lib/TinyUSB/src/common/tusb_common.h **** 
 184:lib/TinyUSB/src/common/tusb_common.h **** TU_ATTR_ALWAYS_INLINE static inline uint16_t tu_u16(uint8_t high, uint8_t low) {
 185:lib/TinyUSB/src/common/tusb_common.h ****   return (uint16_t)((((uint16_t)high) << 8) | low);
 186:lib/TinyUSB/src/common/tusb_common.h **** }
 187:lib/TinyUSB/src/common/tusb_common.h **** 
 188:lib/TinyUSB/src/common/tusb_common.h **** TU_ATTR_ALWAYS_INLINE static inline uint8_t tu_u32_byte3(uint32_t ui32) { return TU_U32_BYTE3(ui32)
 189:lib/TinyUSB/src/common/tusb_common.h **** TU_ATTR_ALWAYS_INLINE static inline uint8_t tu_u32_byte2(uint32_t ui32) { return TU_U32_BYTE2(ui32)
 190:lib/TinyUSB/src/common/tusb_common.h **** TU_ATTR_ALWAYS_INLINE static inline uint8_t tu_u32_byte1(uint32_t ui32) { return TU_U32_BYTE1(ui32)
 191:lib/TinyUSB/src/common/tusb_common.h **** TU_ATTR_ALWAYS_INLINE static inline uint8_t tu_u32_byte0(uint32_t ui32) { return TU_U32_BYTE0(ui32)
 192:lib/TinyUSB/src/common/tusb_common.h **** 
 193:lib/TinyUSB/src/common/tusb_common.h **** TU_ATTR_ALWAYS_INLINE static inline uint16_t tu_u32_high16(uint32_t ui32) { return (uint16_t) (ui32
 194:lib/TinyUSB/src/common/tusb_common.h **** TU_ATTR_ALWAYS_INLINE static inline uint16_t tu_u32_low16 (uint32_t ui32) { return (uint16_t) (ui32
ARM GAS  C:\Users\krisa\AppData\Local\Temp\ccBxAPKY.s 			page 7


 195:lib/TinyUSB/src/common/tusb_common.h **** 
 196:lib/TinyUSB/src/common/tusb_common.h **** TU_ATTR_ALWAYS_INLINE static inline uint8_t tu_u16_high(uint16_t ui16) { return TU_U16_HIGH(ui16); 
 197:lib/TinyUSB/src/common/tusb_common.h **** TU_ATTR_ALWAYS_INLINE static inline uint8_t tu_u16_low (uint16_t ui16) { return TU_U16_LOW(ui16); }
 198:lib/TinyUSB/src/common/tusb_common.h **** 
 199:lib/TinyUSB/src/common/tusb_common.h **** //------------- Bits -------------//
 200:lib/TinyUSB/src/common/tusb_common.h **** TU_ATTR_ALWAYS_INLINE static inline uint32_t tu_bit_set  (uint32_t value, uint8_t pos) { return val
 201:lib/TinyUSB/src/common/tusb_common.h **** TU_ATTR_ALWAYS_INLINE static inline uint32_t tu_bit_clear(uint32_t value, uint8_t pos) { return val
 202:lib/TinyUSB/src/common/tusb_common.h **** TU_ATTR_ALWAYS_INLINE static inline bool     tu_bit_test (uint32_t value, uint8_t pos) { return (va
 203:lib/TinyUSB/src/common/tusb_common.h **** 
 204:lib/TinyUSB/src/common/tusb_common.h **** //------------- Min -------------//
 205:lib/TinyUSB/src/common/tusb_common.h **** TU_ATTR_ALWAYS_INLINE static inline uint8_t  tu_min8  (uint8_t  x, uint8_t y ) { return (x < y) ? x
 206:lib/TinyUSB/src/common/tusb_common.h **** TU_ATTR_ALWAYS_INLINE static inline uint16_t tu_min16 (uint16_t x, uint16_t y) { return (x < y) ? x
  59              		.loc 2 206 46 is_stmt 1 view .LVU6
  60              	.LBB18:
  61              		.loc 2 206 82 view .LVU7
  62              		.loc 2 206 101 is_stmt 0 view .LVU8
  63 0010 402C     		cmp	r4, #64
  64 0012 28BF     		it	cs
  65 0014 4024     		movcs	r4, #64
  66              	.LVL2:
  67              		.loc 2 206 101 view .LVU9
  68              	.LBE18:
  69              	.LBE17:
  92:lib/TinyUSB/src/device/usbd_control.c ****   uint8_t ep_addr = EDPT_CTRL_OUT;
  70              		.loc 1 92 3 is_stmt 1 view .LVU10
  93:lib/TinyUSB/src/device/usbd_control.c **** 
  94:lib/TinyUSB/src/device/usbd_control.c ****   if (_ctrl_xfer.request.bmRequestType_bit.direction == TUSB_DIR_IN) {
  71              		.loc 1 94 3 view .LVU11
  72              		.loc 1 94 6 is_stmt 0 view .LVU12
  73 0016 93F90030 		ldrsb	r3, [r3]
  74 001a 002B     		cmp	r3, #0
  75 001c 0BDB     		blt	.L12
  92:lib/TinyUSB/src/device/usbd_control.c ****   uint8_t ep_addr = EDPT_CTRL_OUT;
  76              		.loc 1 92 11 view .LVU13
  77 001e 0021     		movs	r1, #0
  78              	.LVL3:
  79              	.L2:
  95:lib/TinyUSB/src/device/usbd_control.c ****     ep_addr = EDPT_CTRL_IN;
  96:lib/TinyUSB/src/device/usbd_control.c ****     if (0u != xact_len) {
  97:lib/TinyUSB/src/device/usbd_control.c ****       TU_VERIFY(0 == tu_memcpy_s(_ctrl_epbuf.buf, CFG_TUD_ENDPOINT0_BUFSIZE, _ctrl_xfer.buffer, xac
  80              		.loc 1 97 7 is_stmt 1 discriminator 2 view .LVU14
  98:lib/TinyUSB/src/device/usbd_control.c ****     }
  99:lib/TinyUSB/src/device/usbd_control.c ****   }
 100:lib/TinyUSB/src/device/usbd_control.c **** 
 101:lib/TinyUSB/src/device/usbd_control.c ****   return usbd_edpt_xfer(rhport, ep_addr, xact_len ? _ctrl_epbuf.buf : NULL, xact_len, false);
  81              		.loc 1 101 3 discriminator 2 view .LVU15
  82              		.loc 1 101 10 is_stmt 0 discriminator 2 view .LVU16
  83 0020 B742     		cmp	r7, r6
  84 0022 1AD0     		beq	.L10
  85              		.loc 1 101 10 view .LVU17
  86 0024 114A     		ldr	r2, .L13+4
  87              	.L4:
  88              		.loc 1 101 10 discriminator 4 view .LVU18
  89 0026 0023     		movs	r3, #0
  90 0028 0093     		str	r3, [sp]
  91 002a 2346     		mov	r3, r4
  92 002c 2846     		mov	r0, r5
ARM GAS  C:\Users\krisa\AppData\Local\Temp\ccBxAPKY.s 			page 8


  93 002e FFF7FEFF 		bl	usbd_edpt_xfer
  94              	.LVL4:
  95              	.L3:
 102:lib/TinyUSB/src/device/usbd_control.c **** }
  96              		.loc 1 102 1 view .LVU19
  97 0032 03B0     		add	sp, sp, #12
  98              	.LCFI2:
  99              		.cfi_remember_state
 100              		.cfi_def_cfa_offset 20
 101              		@ sp needed
 102 0034 F0BD     		pop	{r4, r5, r6, r7, pc}
 103              	.LVL5:
 104              	.L12:
 105              	.LCFI3:
 106              		.cfi_restore_state
  95:lib/TinyUSB/src/device/usbd_control.c ****     ep_addr = EDPT_CTRL_IN;
 107              		.loc 1 95 5 is_stmt 1 view .LVU20
  96:lib/TinyUSB/src/device/usbd_control.c ****       TU_VERIFY(0 == tu_memcpy_s(_ctrl_epbuf.buf, CFG_TUD_ENDPOINT0_BUFSIZE, _ctrl_xfer.buffer, xac
 108              		.loc 1 96 5 view .LVU21
  96:lib/TinyUSB/src/device/usbd_control.c ****       TU_VERIFY(0 == tu_memcpy_s(_ctrl_epbuf.buf, CFG_TUD_ENDPOINT0_BUFSIZE, _ctrl_xfer.buffer, xac
 109              		.loc 1 96 8 is_stmt 0 view .LVU22
 110 0036 B742     		cmp	r7, r6
 111 0038 0BD0     		beq	.L6
  97:lib/TinyUSB/src/device/usbd_control.c ****     }
 112              		.loc 1 97 7 is_stmt 1 view .LVU23
  97:lib/TinyUSB/src/device/usbd_control.c ****     }
 113              		.loc 1 97 7 view .LVU24
 114 003a 0B4B     		ldr	r3, .L13
 115 003c 9968     		ldr	r1, [r3, #8]
 116              	.LVL6:
 117              	.LBB19:
 118              	.LBI19:
 137:lib/TinyUSB/src/common/tusb_common.h ****   if (dest == NULL) {
 119              		.loc 2 137 41 view .LVU25
 120              	.LBB20:
 138:lib/TinyUSB/src/common/tusb_common.h ****     return -1;
 121              		.loc 2 138 3 view .LVU26
 142:lib/TinyUSB/src/common/tusb_common.h ****     return 0;
 122              		.loc 2 142 3 view .LVU27
 142:lib/TinyUSB/src/common/tusb_common.h ****     return 0;
 123              		.loc 2 142 6 is_stmt 0 view .LVU28
 124 003e 54B1     		cbz	r4, .L7
 146:lib/TinyUSB/src/common/tusb_common.h ****     return -1;
 125              		.loc 2 146 3 is_stmt 1 view .LVU29
 146:lib/TinyUSB/src/common/tusb_common.h ****     return -1;
 126              		.loc 2 146 6 is_stmt 0 view .LVU30
 127 0040 69B1     		cbz	r1, .L8
 150:lib/TinyUSB/src/common/tusb_common.h ****     return -1;
 128              		.loc 2 150 3 is_stmt 1 view .LVU31
 150:lib/TinyUSB/src/common/tusb_common.h ****     return -1;
 129              		.loc 2 150 6 is_stmt 0 view .LVU32
 130 0042 402C     		cmp	r4, #64
 131 0044 0DD8     		bhi	.L9
 154:lib/TinyUSB/src/common/tusb_common.h ****   return 0;
 132              		.loc 2 154 3 is_stmt 1 view .LVU33
 154:lib/TinyUSB/src/common/tusb_common.h ****   return 0;
 133              		.loc 2 154 10 is_stmt 0 view .LVU34
ARM GAS  C:\Users\krisa\AppData\Local\Temp\ccBxAPKY.s 			page 9


 134 0046 2246     		mov	r2, r4
 135 0048 0848     		ldr	r0, .L13+4
 136              	.LVL7:
 154:lib/TinyUSB/src/common/tusb_common.h ****   return 0;
 137              		.loc 2 154 10 view .LVU35
 138 004a FFF7FEFF 		bl	memcpy
 139              	.LVL8:
 155:lib/TinyUSB/src/common/tusb_common.h **** }
 140              		.loc 2 155 3 is_stmt 1 view .LVU36
 155:lib/TinyUSB/src/common/tusb_common.h **** }
 141              		.loc 2 155 3 is_stmt 0 view .LVU37
 142              	.LBE20:
 143              	.LBE19:
  95:lib/TinyUSB/src/device/usbd_control.c ****     if (0u != xact_len) {
 144              		.loc 1 95 13 view .LVU38
 145 004e 8021     		movs	r1, #128
 146 0050 E6E7     		b	.L2
 147              	.LVL9:
 148              	.L6:
  95:lib/TinyUSB/src/device/usbd_control.c ****     if (0u != xact_len) {
 149              		.loc 1 95 13 view .LVU39
 150 0052 8021     		movs	r1, #128
 151 0054 E4E7     		b	.L2
 152              	.LVL10:
 153              	.L7:
  95:lib/TinyUSB/src/device/usbd_control.c ****     if (0u != xact_len) {
 154              		.loc 1 95 13 view .LVU40
 155 0056 8021     		movs	r1, #128
 156              	.LVL11:
  95:lib/TinyUSB/src/device/usbd_control.c ****     if (0u != xact_len) {
 157              		.loc 1 95 13 view .LVU41
 158 0058 E2E7     		b	.L2
 159              	.LVL12:
 160              	.L10:
 101:lib/TinyUSB/src/device/usbd_control.c **** }
 161              		.loc 1 101 10 view .LVU42
 162 005a 0022     		movs	r2, #0
 163 005c E3E7     		b	.L4
 164              	.LVL13:
 165              	.L8:
  97:lib/TinyUSB/src/device/usbd_control.c ****     }
 166              		.loc 1 97 7 view .LVU43
 167 005e 0020     		movs	r0, #0
 168              	.LVL14:
  97:lib/TinyUSB/src/device/usbd_control.c ****     }
 169              		.loc 1 97 7 view .LVU44
 170 0060 E7E7     		b	.L3
 171              	.LVL15:
 172              	.L9:
  97:lib/TinyUSB/src/device/usbd_control.c ****     }
 173              		.loc 1 97 7 view .LVU45
 174 0062 0020     		movs	r0, #0
 175              	.LVL16:
  97:lib/TinyUSB/src/device/usbd_control.c ****     }
 176              		.loc 1 97 7 view .LVU46
 177 0064 E5E7     		b	.L3
 178              	.L14:
ARM GAS  C:\Users\krisa\AppData\Local\Temp\ccBxAPKY.s 			page 10


 179 0066 00BF     		.align	2
 180              	.L13:
 181 0068 00000000 		.word	.LANCHOR1
 182 006c 00000000 		.word	.LANCHOR0
 183              		.cfi_endproc
 184              	.LFE118:
 186              		.section	.text.dcd_edpt0_status_complete,"ax",%progbits
 187              		.align	1
 188              		.weak	dcd_edpt0_status_complete
 189              		.syntax unified
 190              		.thumb
 191              		.thumb_func
 193              	dcd_edpt0_status_complete:
 194              	.LVL17:
 195              	.LFB115:
  38:lib/TinyUSB/src/device/usbd_control.c ****   (void) rhport;
 196              		.loc 1 38 100 is_stmt 1 view -0
 197              		.cfi_startproc
 198              		@ args = 0, pretend = 0, frame = 0
 199              		@ frame_needed = 0, uses_anonymous_args = 0
 200              		@ link register save eliminated.
  39:lib/TinyUSB/src/device/usbd_control.c ****   (void) request;
 201              		.loc 1 39 3 view .LVU48
  40:lib/TinyUSB/src/device/usbd_control.c **** }
 202              		.loc 1 40 3 view .LVU49
  41:lib/TinyUSB/src/device/usbd_control.c **** 
 203              		.loc 1 41 1 is_stmt 0 view .LVU50
 204 0000 7047     		bx	lr
 205              		.cfi_endproc
 206              	.LFE115:
 208              		.section	.text.tud_control_status,"ax",%progbits
 209              		.align	1
 210              		.global	tud_control_status
 211              		.syntax unified
 212              		.thumb
 213              		.thumb_func
 215              	tud_control_status:
 216              	.LVL18:
 217              	.LFB117:
  78:lib/TinyUSB/src/device/usbd_control.c ****   _ctrl_xfer.request = (*request);
 218              		.loc 1 78 80 is_stmt 1 view -0
 219              		.cfi_startproc
 220              		@ args = 0, pretend = 0, frame = 0
 221              		@ frame_needed = 0, uses_anonymous_args = 0
  78:lib/TinyUSB/src/device/usbd_control.c ****   _ctrl_xfer.request = (*request);
 222              		.loc 1 78 80 is_stmt 0 view .LVU52
 223 0000 00B5     		push	{lr}
 224              	.LCFI4:
 225              		.cfi_def_cfa_offset 4
 226              		.cfi_offset 14, -4
 227 0002 83B0     		sub	sp, sp, #12
 228              	.LCFI5:
 229              		.cfi_def_cfa_offset 16
 230 0004 8646     		mov	lr, r0
 231 0006 0B46     		mov	r3, r1
  79:lib/TinyUSB/src/device/usbd_control.c ****   _ctrl_xfer.buffer = NULL;
 232              		.loc 1 79 3 is_stmt 1 view .LVU53
ARM GAS  C:\Users\krisa\AppData\Local\Temp\ccBxAPKY.s 			page 11


  79:lib/TinyUSB/src/device/usbd_control.c ****   _ctrl_xfer.buffer = NULL;
 233              		.loc 1 79 22 is_stmt 0 view .LVU54
 234 0008 0B4A     		ldr	r2, .L20
 235 000a 9446     		mov	ip, r2
 236 000c 0868     		ldr	r0, [r1]	@ unaligned
 237              	.LVL19:
  79:lib/TinyUSB/src/device/usbd_control.c ****   _ctrl_xfer.buffer = NULL;
 238              		.loc 1 79 22 view .LVU55
 239 000e 4968     		ldr	r1, [r1, #4]	@ unaligned
 240              	.LVL20:
  79:lib/TinyUSB/src/device/usbd_control.c ****   _ctrl_xfer.buffer = NULL;
 241              		.loc 1 79 22 view .LVU56
 242 0010 ACE80300 		stmia	ip!, {r0, r1}
  80:lib/TinyUSB/src/device/usbd_control.c ****   _ctrl_xfer.total_xferred = 0;
 243              		.loc 1 80 3 is_stmt 1 view .LVU57
  80:lib/TinyUSB/src/device/usbd_control.c ****   _ctrl_xfer.total_xferred = 0;
 244              		.loc 1 80 21 is_stmt 0 view .LVU58
 245 0014 0021     		movs	r1, #0
 246 0016 9160     		str	r1, [r2, #8]
  81:lib/TinyUSB/src/device/usbd_control.c ****   _ctrl_xfer.data_len = 0;
 247              		.loc 1 81 3 is_stmt 1 view .LVU59
  81:lib/TinyUSB/src/device/usbd_control.c ****   _ctrl_xfer.data_len = 0;
 248              		.loc 1 81 28 is_stmt 0 view .LVU60
 249 0018 D181     		strh	r1, [r2, #14]	@ movhi
  82:lib/TinyUSB/src/device/usbd_control.c **** 
 250              		.loc 1 82 3 is_stmt 1 view .LVU61
  82:lib/TinyUSB/src/device/usbd_control.c **** 
 251              		.loc 1 82 23 is_stmt 0 view .LVU62
 252 001a 9181     		strh	r1, [r2, #12]	@ movhi
  84:lib/TinyUSB/src/device/usbd_control.c **** }
 253              		.loc 1 84 3 is_stmt 1 view .LVU63
 254              	.LVL21:
 255              	.LBB23:
 256              	.LBI23:
  71:lib/TinyUSB/src/device/usbd_control.c ****   // Opposite to endpoint in Data Phase
 257              		.loc 1 71 20 view .LVU64
 258              	.LBB24:
  73:lib/TinyUSB/src/device/usbd_control.c ****   return usbd_edpt_xfer(rhport, ep_addr, NULL, 0, false);
 259              		.loc 1 73 3 view .LVU65
  73:lib/TinyUSB/src/device/usbd_control.c ****   return usbd_edpt_xfer(rhport, ep_addr, NULL, 0, false);
 260              		.loc 1 73 17 is_stmt 0 view .LVU66
 261 001c 93F90030 		ldrsb	r3, [r3]
 262              	.LVL22:
  73:lib/TinyUSB/src/device/usbd_control.c ****   return usbd_edpt_xfer(rhport, ep_addr, NULL, 0, false);
 263              		.loc 1 73 17 view .LVU67
 264 0020 8B42     		cmp	r3, r1
 265 0022 00DB     		blt	.L17
 266 0024 8021     		movs	r1, #128
 267              	.L17:
 268              	.LVL23:
  74:lib/TinyUSB/src/device/usbd_control.c **** }
 269              		.loc 1 74 3 is_stmt 1 view .LVU68
  74:lib/TinyUSB/src/device/usbd_control.c **** }
 270              		.loc 1 74 10 is_stmt 0 view .LVU69
 271 0026 0022     		movs	r2, #0
 272 0028 0092     		str	r2, [sp]
 273 002a 1346     		mov	r3, r2
ARM GAS  C:\Users\krisa\AppData\Local\Temp\ccBxAPKY.s 			page 12


 274 002c 7046     		mov	r0, lr
 275 002e FFF7FEFF 		bl	usbd_edpt_xfer
 276              	.LVL24:
  74:lib/TinyUSB/src/device/usbd_control.c **** }
 277              		.loc 1 74 10 view .LVU70
 278              	.LBE24:
 279              	.LBE23:
  85:lib/TinyUSB/src/device/usbd_control.c **** 
 280              		.loc 1 85 1 view .LVU71
 281 0032 03B0     		add	sp, sp, #12
 282              	.LCFI6:
 283              		.cfi_def_cfa_offset 4
 284              		@ sp needed
 285 0034 5DF804FB 		ldr	pc, [sp], #4
 286              	.L21:
 287              		.align	2
 288              	.L20:
 289 0038 00000000 		.word	.LANCHOR1
 290              		.cfi_endproc
 291              	.LFE117:
 293              		.section	.text.tud_control_xfer,"ax",%progbits
 294              		.align	1
 295              		.global	tud_control_xfer
 296              		.syntax unified
 297              		.thumb
 298              		.thumb_func
 300              	tud_control_xfer:
 301              	.LVL25:
 302              	.LFB119:
 103:lib/TinyUSB/src/device/usbd_control.c **** 
 104:lib/TinyUSB/src/device/usbd_control.c **** // Transmit data to/from the control endpoint.
 105:lib/TinyUSB/src/device/usbd_control.c **** // If the request's wLength is zero, a status packet is sent instead.
 106:lib/TinyUSB/src/device/usbd_control.c **** bool tud_control_xfer(uint8_t rhport, const tusb_control_request_t* request, void* buffer, uint16_t
 303              		.loc 1 106 106 is_stmt 1 view -0
 304              		.cfi_startproc
 305              		@ args = 0, pretend = 0, frame = 0
 306              		@ frame_needed = 0, uses_anonymous_args = 0
 307              		.loc 1 106 106 is_stmt 0 view .LVU73
 308 0000 30B5     		push	{r4, r5, lr}
 309              	.LCFI7:
 310              		.cfi_def_cfa_offset 12
 311              		.cfi_offset 4, -12
 312              		.cfi_offset 5, -8
 313              		.cfi_offset 14, -4
 314 0002 83B0     		sub	sp, sp, #12
 315              	.LCFI8:
 316              		.cfi_def_cfa_offset 24
 317 0004 0546     		mov	r5, r0
 318 0006 8C46     		mov	ip, r1
 107:lib/TinyUSB/src/device/usbd_control.c ****   _ctrl_xfer.request = (*request);
 319              		.loc 1 107 3 is_stmt 1 view .LVU74
 320              		.loc 1 107 22 is_stmt 0 view .LVU75
 321 0008 224C     		ldr	r4, .L35
 322 000a A646     		mov	lr, r4
 323 000c 0868     		ldr	r0, [r1]	@ unaligned
 324              	.LVL26:
 325              		.loc 1 107 22 view .LVU76
ARM GAS  C:\Users\krisa\AppData\Local\Temp\ccBxAPKY.s 			page 13


 326 000e 4968     		ldr	r1, [r1, #4]	@ unaligned
 327              	.LVL27:
 328              		.loc 1 107 22 view .LVU77
 329 0010 AEE80300 		stmia	lr!, {r0, r1}
 108:lib/TinyUSB/src/device/usbd_control.c ****   _ctrl_xfer.buffer = (uint8_t*) buffer;
 330              		.loc 1 108 3 is_stmt 1 view .LVU78
 331              		.loc 1 108 21 is_stmt 0 view .LVU79
 332 0014 A260     		str	r2, [r4, #8]
 109:lib/TinyUSB/src/device/usbd_control.c ****   _ctrl_xfer.total_xferred = 0U;
 333              		.loc 1 109 3 is_stmt 1 view .LVU80
 334              		.loc 1 109 28 is_stmt 0 view .LVU81
 335 0016 0021     		movs	r1, #0
 336 0018 E181     		strh	r1, [r4, #14]	@ movhi
 110:lib/TinyUSB/src/device/usbd_control.c ****   _ctrl_xfer.data_len = tu_min16(len, request->wLength);
 337              		.loc 1 110 3 is_stmt 1 view .LVU82
 338              		.loc 1 110 25 is_stmt 0 view .LVU83
 339 001a BCF80610 		ldrh	r1, [ip, #6]	@ unaligned
 340              	.LVL28:
 341              	.LBB32:
 342              	.LBI32:
 343              		.loc 2 206 46 is_stmt 1 view .LVU84
 344              	.LBB33:
 345              		.loc 2 206 82 view .LVU85
 346              		.loc 2 206 101 is_stmt 0 view .LVU86
 347 001e 8B42     		cmp	r3, r1
 348 0020 28BF     		it	cs
 349 0022 0B46     		movcs	r3, r1
 350              	.LVL29:
 351              		.loc 2 206 101 view .LVU87
 352              	.LBE33:
 353              	.LBE32:
 354              		.loc 1 110 23 view .LVU88
 355 0024 A381     		strh	r3, [r4, #12]	@ movhi
 111:lib/TinyUSB/src/device/usbd_control.c **** 
 112:lib/TinyUSB/src/device/usbd_control.c ****   if (request->wLength > 0U) {
 356              		.loc 1 112 3 is_stmt 1 view .LVU89
 357              		.loc 1 112 14 is_stmt 0 view .LVU90
 358 0026 BCF80610 		ldrh	r1, [ip, #6]	@ unaligned
 359              		.loc 1 112 6 view .LVU91
 360 002a D1B1     		cbz	r1, .L23
 113:lib/TinyUSB/src/device/usbd_control.c ****     if (_ctrl_xfer.data_len > 0U) {
 361              		.loc 1 113 5 is_stmt 1 view .LVU92
 362              		.loc 1 113 8 is_stmt 0 view .LVU93
 363 002c 03B1     		cbz	r3, .L24
 114:lib/TinyUSB/src/device/usbd_control.c ****       TU_ASSERT(buffer);
 364              		.loc 1 114 7 is_stmt 1 view .LVU94
 365              		.loc 1 114 7 view .LVU95
 366 002e 2AB1     		cbz	r2, .L32
 367              	.L24:
 368              		.loc 1 114 7 discriminator 2 view .LVU96
 115:lib/TinyUSB/src/device/usbd_control.c ****     }
 116:lib/TinyUSB/src/device/usbd_control.c ****     TU_ASSERT(data_stage_xact(rhport));
 369              		.loc 1 116 5 discriminator 2 view .LVU97
 370              		.loc 1 116 5 discriminator 2 view .LVU98
 371 0030 2846     		mov	r0, r5
 372 0032 FFF7FEFF 		bl	data_stage_xact
 373              	.LVL30:
ARM GAS  C:\Users\krisa\AppData\Local\Temp\ccBxAPKY.s 			page 14


 374              		.loc 1 116 5 is_stmt 0 discriminator 2 view .LVU99
 375 0036 58B1     		cbz	r0, .L33
 376              	.L26:
 117:lib/TinyUSB/src/device/usbd_control.c ****   } else {
 118:lib/TinyUSB/src/device/usbd_control.c ****     TU_ASSERT(status_stage_xact(rhport, request));
 119:lib/TinyUSB/src/device/usbd_control.c ****   }
 120:lib/TinyUSB/src/device/usbd_control.c **** 
 121:lib/TinyUSB/src/device/usbd_control.c ****   return true;
 122:lib/TinyUSB/src/device/usbd_control.c **** }
 377              		.loc 1 122 1 view .LVU100
 378 0038 03B0     		add	sp, sp, #12
 379              	.LCFI9:
 380              		.cfi_remember_state
 381              		.cfi_def_cfa_offset 12
 382              		@ sp needed
 383 003a 30BD     		pop	{r4, r5, pc}
 384              	.LVL31:
 385              	.L32:
 386              	.LCFI10:
 387              		.cfi_restore_state
 114:lib/TinyUSB/src/device/usbd_control.c ****     }
 388              		.loc 1 114 7 is_stmt 1 discriminator 1 view .LVU101
 114:lib/TinyUSB/src/device/usbd_control.c ****     }
 389              		.loc 1 114 7 discriminator 1 view .LVU102
 114:lib/TinyUSB/src/device/usbd_control.c ****     }
 390              		.loc 1 114 7 discriminator 1 view .LVU103
 114:lib/TinyUSB/src/device/usbd_control.c ****     }
 391              		.loc 1 114 7 discriminator 1 view .LVU104
 392              	.LBB34:
 114:lib/TinyUSB/src/device/usbd_control.c ****     }
 393              		.loc 1 114 7 discriminator 1 view .LVU105
 114:lib/TinyUSB/src/device/usbd_control.c ****     }
 394              		.loc 1 114 7 discriminator 1 view .LVU106
 395 003c 4FF0E023 		mov	r3, #-536813568
 396 0040 D3F8F03D 		ldr	r3, [r3, #3568]
 397 0044 13F0010F 		tst	r3, #1
 398 0048 00D0     		beq	.L25
 114:lib/TinyUSB/src/device/usbd_control.c ****     }
 399              		.loc 1 114 7 discriminator 3 view .LVU107
 400              		.syntax unified
 401              	@ 114 "lib/TinyUSB/src/device/usbd_control.c" 1
 402 004a 00BE     		BKPT #0
 403              	
 404              	@ 0 "" 2
 405              		.thumb
 406              		.syntax unified
 407              	.L25:
 408              	.LBE34:
 114:lib/TinyUSB/src/device/usbd_control.c ****     }
 409              		.loc 1 114 7 discriminator 5 view .LVU108
 114:lib/TinyUSB/src/device/usbd_control.c ****     }
 410              		.loc 1 114 7 discriminator 5 view .LVU109
 411 004c 0020     		movs	r0, #0
 412 004e F3E7     		b	.L26
 413              	.LVL32:
 414              	.L33:
 116:lib/TinyUSB/src/device/usbd_control.c ****   } else {
ARM GAS  C:\Users\krisa\AppData\Local\Temp\ccBxAPKY.s 			page 15


 415              		.loc 1 116 5 discriminator 1 view .LVU110
 116:lib/TinyUSB/src/device/usbd_control.c ****   } else {
 416              		.loc 1 116 5 discriminator 1 view .LVU111
 116:lib/TinyUSB/src/device/usbd_control.c ****   } else {
 417              		.loc 1 116 5 discriminator 1 view .LVU112
 116:lib/TinyUSB/src/device/usbd_control.c ****   } else {
 418              		.loc 1 116 5 discriminator 1 view .LVU113
 419              	.LBB35:
 116:lib/TinyUSB/src/device/usbd_control.c ****   } else {
 420              		.loc 1 116 5 discriminator 1 view .LVU114
 116:lib/TinyUSB/src/device/usbd_control.c ****   } else {
 421              		.loc 1 116 5 discriminator 1 view .LVU115
 422 0050 4FF0E023 		mov	r3, #-536813568
 423 0054 D3F8F03D 		ldr	r3, [r3, #3568]
 424 0058 13F0010F 		tst	r3, #1
 425 005c ECD0     		beq	.L26
 116:lib/TinyUSB/src/device/usbd_control.c ****   } else {
 426              		.loc 1 116 5 discriminator 3 view .LVU116
 427              		.syntax unified
 428              	@ 116 "lib/TinyUSB/src/device/usbd_control.c" 1
 429 005e 00BE     		BKPT #0
 430              	
 431              	@ 0 "" 2
 432              		.thumb
 433              		.syntax unified
 434              	.LBE35:
 116:lib/TinyUSB/src/device/usbd_control.c ****   } else {
 435              		.loc 1 116 5 discriminator 3 view .LVU117
 116:lib/TinyUSB/src/device/usbd_control.c ****   } else {
 436              		.loc 1 116 5 discriminator 3 view .LVU118
 437 0060 EAE7     		b	.L26
 438              	.LVL33:
 439              	.L23:
 118:lib/TinyUSB/src/device/usbd_control.c ****   }
 440              		.loc 1 118 5 view .LVU119
 118:lib/TinyUSB/src/device/usbd_control.c ****   }
 441              		.loc 1 118 5 view .LVU120
 442              	.LBB36:
 443              	.LBI36:
  71:lib/TinyUSB/src/device/usbd_control.c ****   // Opposite to endpoint in Data Phase
 444              		.loc 1 71 20 view .LVU121
 445              	.LBB37:
  73:lib/TinyUSB/src/device/usbd_control.c ****   return usbd_edpt_xfer(rhport, ep_addr, NULL, 0, false);
 446              		.loc 1 73 3 view .LVU122
  73:lib/TinyUSB/src/device/usbd_control.c ****   return usbd_edpt_xfer(rhport, ep_addr, NULL, 0, false);
 447              		.loc 1 73 17 is_stmt 0 view .LVU123
 448 0062 9CF90030 		ldrsb	r3, [ip]
 449 0066 002B     		cmp	r3, #0
 450 0068 11DB     		blt	.L34
 451 006a 8021     		movs	r1, #128
 452              	.L28:
 453              	.LVL34:
  74:lib/TinyUSB/src/device/usbd_control.c **** }
 454              		.loc 1 74 3 is_stmt 1 view .LVU124
  74:lib/TinyUSB/src/device/usbd_control.c **** }
 455              		.loc 1 74 10 is_stmt 0 view .LVU125
 456 006c 0022     		movs	r2, #0
ARM GAS  C:\Users\krisa\AppData\Local\Temp\ccBxAPKY.s 			page 16


 457              	.LVL35:
  74:lib/TinyUSB/src/device/usbd_control.c **** }
 458              		.loc 1 74 10 view .LVU126
 459 006e 0092     		str	r2, [sp]
 460 0070 1346     		mov	r3, r2
 461 0072 2846     		mov	r0, r5
 462 0074 FFF7FEFF 		bl	usbd_edpt_xfer
 463              	.LVL36:
  74:lib/TinyUSB/src/device/usbd_control.c **** }
 464              		.loc 1 74 10 view .LVU127
 465              	.LBE37:
 466              	.LBE36:
 118:lib/TinyUSB/src/device/usbd_control.c ****   }
 467              		.loc 1 118 5 view .LVU128
 468 0078 0028     		cmp	r0, #0
 469 007a DDD1     		bne	.L26
 118:lib/TinyUSB/src/device/usbd_control.c ****   }
 470              		.loc 1 118 5 is_stmt 1 discriminator 1 view .LVU129
 118:lib/TinyUSB/src/device/usbd_control.c ****   }
 471              		.loc 1 118 5 discriminator 1 view .LVU130
 118:lib/TinyUSB/src/device/usbd_control.c ****   }
 472              		.loc 1 118 5 discriminator 1 view .LVU131
 118:lib/TinyUSB/src/device/usbd_control.c ****   }
 473              		.loc 1 118 5 discriminator 1 view .LVU132
 474              	.LBB39:
 118:lib/TinyUSB/src/device/usbd_control.c ****   }
 475              		.loc 1 118 5 discriminator 1 view .LVU133
 476              	.LVL37:
 118:lib/TinyUSB/src/device/usbd_control.c ****   }
 477              		.loc 1 118 5 discriminator 1 view .LVU134
 478 007c 4FF0E023 		mov	r3, #-536813568
 479 0080 D3F8F03D 		ldr	r3, [r3, #3568]
 480 0084 13F0010F 		tst	r3, #1
 481 0088 D6D0     		beq	.L26
 118:lib/TinyUSB/src/device/usbd_control.c ****   }
 482              		.loc 1 118 5 discriminator 3 view .LVU135
 483              		.syntax unified
 484              	@ 118 "lib/TinyUSB/src/device/usbd_control.c" 1
 485 008a 00BE     		BKPT #0
 486              	
 487              	@ 0 "" 2
 488              		.thumb
 489              		.syntax unified
 490              	.LBE39:
 118:lib/TinyUSB/src/device/usbd_control.c ****   }
 491              		.loc 1 118 5 discriminator 3 view .LVU136
 118:lib/TinyUSB/src/device/usbd_control.c ****   }
 492              		.loc 1 118 5 discriminator 3 view .LVU137
 493 008c D4E7     		b	.L26
 494              	.LVL38:
 495              	.L34:
 496              	.LBB40:
 497              	.LBB38:
  73:lib/TinyUSB/src/device/usbd_control.c ****   return usbd_edpt_xfer(rhport, ep_addr, NULL, 0, false);
 498              		.loc 1 73 17 is_stmt 0 view .LVU138
 499 008e 0021     		movs	r1, #0
 500 0090 ECE7     		b	.L28
ARM GAS  C:\Users\krisa\AppData\Local\Temp\ccBxAPKY.s 			page 17


 501              	.L36:
 502 0092 00BF     		.align	2
 503              	.L35:
 504 0094 00000000 		.word	.LANCHOR1
 505              	.LBE38:
 506              	.LBE40:
 507              		.cfi_endproc
 508              	.LFE119:
 510              		.section	.text.usbd_control_reset,"ax",%progbits
 511              		.align	1
 512              		.global	usbd_control_reset
 513              		.syntax unified
 514              		.thumb
 515              		.thumb_func
 517              	usbd_control_reset:
 518              	.LFB120:
 123:lib/TinyUSB/src/device/usbd_control.c **** 
 124:lib/TinyUSB/src/device/usbd_control.c **** //--------------------------------------------------------------------+
 125:lib/TinyUSB/src/device/usbd_control.c **** // USBD API
 126:lib/TinyUSB/src/device/usbd_control.c **** //--------------------------------------------------------------------+
 127:lib/TinyUSB/src/device/usbd_control.c **** void usbd_control_reset(void);
 128:lib/TinyUSB/src/device/usbd_control.c **** void usbd_control_set_request(const tusb_control_request_t* request);
 129:lib/TinyUSB/src/device/usbd_control.c **** void usbd_control_set_complete_callback(usbd_control_xfer_cb_t fp);
 130:lib/TinyUSB/src/device/usbd_control.c **** bool usbd_control_xfer_cb(uint8_t rhport, uint8_t ep_addr, xfer_result_t result, uint32_t xferred_b
 131:lib/TinyUSB/src/device/usbd_control.c **** 
 132:lib/TinyUSB/src/device/usbd_control.c **** void usbd_control_reset(void) {
 519              		.loc 1 132 31 is_stmt 1 view -0
 520              		.cfi_startproc
 521              		@ args = 0, pretend = 0, frame = 0
 522              		@ frame_needed = 0, uses_anonymous_args = 0
 523              		@ link register save eliminated.
 133:lib/TinyUSB/src/device/usbd_control.c ****   tu_varclr(&_ctrl_xfer);
 524              		.loc 1 133 3 view .LVU140
 525 0000 034B     		ldr	r3, .L38
 526 0002 0022     		movs	r2, #0
 527 0004 1A60     		str	r2, [r3]
 528 0006 5A60     		str	r2, [r3, #4]
 529 0008 9A60     		str	r2, [r3, #8]
 530 000a DA60     		str	r2, [r3, #12]
 531 000c 1A61     		str	r2, [r3, #16]
 134:lib/TinyUSB/src/device/usbd_control.c **** }
 532              		.loc 1 134 1 is_stmt 0 view .LVU141
 533 000e 7047     		bx	lr
 534              	.L39:
 535              		.align	2
 536              	.L38:
 537 0010 00000000 		.word	.LANCHOR1
 538              		.cfi_endproc
 539              	.LFE120:
 541              		.section	.text.usbd_control_set_complete_callback,"ax",%progbits
 542              		.align	1
 543              		.global	usbd_control_set_complete_callback
 544              		.syntax unified
 545              		.thumb
 546              		.thumb_func
 548              	usbd_control_set_complete_callback:
 549              	.LVL39:
ARM GAS  C:\Users\krisa\AppData\Local\Temp\ccBxAPKY.s 			page 18


 550              	.LFB121:
 135:lib/TinyUSB/src/device/usbd_control.c **** 
 136:lib/TinyUSB/src/device/usbd_control.c **** // Set complete callback
 137:lib/TinyUSB/src/device/usbd_control.c **** void usbd_control_set_complete_callback(usbd_control_xfer_cb_t fp) {
 551              		.loc 1 137 68 is_stmt 1 view -0
 552              		.cfi_startproc
 553              		@ args = 0, pretend = 0, frame = 0
 554              		@ frame_needed = 0, uses_anonymous_args = 0
 555              		@ link register save eliminated.
 138:lib/TinyUSB/src/device/usbd_control.c ****   _ctrl_xfer.complete_cb = fp;
 556              		.loc 1 138 3 view .LVU143
 557              		.loc 1 138 26 is_stmt 0 view .LVU144
 558 0000 014B     		ldr	r3, .L41
 559 0002 1861     		str	r0, [r3, #16]
 139:lib/TinyUSB/src/device/usbd_control.c **** }
 560              		.loc 1 139 1 view .LVU145
 561 0004 7047     		bx	lr
 562              	.L42:
 563 0006 00BF     		.align	2
 564              	.L41:
 565 0008 00000000 		.word	.LANCHOR1
 566              		.cfi_endproc
 567              	.LFE121:
 569              		.section	.text.usbd_control_set_request,"ax",%progbits
 570              		.align	1
 571              		.global	usbd_control_set_request
 572              		.syntax unified
 573              		.thumb
 574              		.thumb_func
 576              	usbd_control_set_request:
 577              	.LVL40:
 578              	.LFB122:
 140:lib/TinyUSB/src/device/usbd_control.c **** 
 141:lib/TinyUSB/src/device/usbd_control.c **** // for dcd_set_address where DCD is responsible for status response
 142:lib/TinyUSB/src/device/usbd_control.c **** void usbd_control_set_request(const tusb_control_request_t* request) {
 579              		.loc 1 142 70 is_stmt 1 view -0
 580              		.cfi_startproc
 581              		@ args = 0, pretend = 0, frame = 0
 582              		@ frame_needed = 0, uses_anonymous_args = 0
 583              		@ link register save eliminated.
 584              		.loc 1 142 70 is_stmt 0 view .LVU147
 585 0000 0146     		mov	r1, r0
 143:lib/TinyUSB/src/device/usbd_control.c ****   _ctrl_xfer.request = (*request);
 586              		.loc 1 143 3 is_stmt 1 view .LVU148
 587              		.loc 1 143 22 is_stmt 0 view .LVU149
 588 0002 054B     		ldr	r3, .L44
 589 0004 1A46     		mov	r2, r3
 590 0006 0068     		ldr	r0, [r0]	@ unaligned
 591              	.LVL41:
 592              		.loc 1 143 22 view .LVU150
 593 0008 4968     		ldr	r1, [r1, #4]	@ unaligned
 594              	.LVL42:
 595              		.loc 1 143 22 view .LVU151
 596 000a 03C2     		stmia	r2!, {r0, r1}
 144:lib/TinyUSB/src/device/usbd_control.c ****   _ctrl_xfer.buffer = NULL;
 597              		.loc 1 144 3 is_stmt 1 view .LVU152
 598              		.loc 1 144 21 is_stmt 0 view .LVU153
ARM GAS  C:\Users\krisa\AppData\Local\Temp\ccBxAPKY.s 			page 19


 599 000c 0022     		movs	r2, #0
 600 000e 9A60     		str	r2, [r3, #8]
 145:lib/TinyUSB/src/device/usbd_control.c ****   _ctrl_xfer.total_xferred = 0;
 601              		.loc 1 145 3 is_stmt 1 view .LVU154
 602              		.loc 1 145 28 is_stmt 0 view .LVU155
 603 0010 DA81     		strh	r2, [r3, #14]	@ movhi
 146:lib/TinyUSB/src/device/usbd_control.c ****   _ctrl_xfer.data_len = 0;
 604              		.loc 1 146 3 is_stmt 1 view .LVU156
 605              		.loc 1 146 23 is_stmt 0 view .LVU157
 606 0012 9A81     		strh	r2, [r3, #12]	@ movhi
 147:lib/TinyUSB/src/device/usbd_control.c **** }
 607              		.loc 1 147 1 view .LVU158
 608 0014 7047     		bx	lr
 609              	.L45:
 610 0016 00BF     		.align	2
 611              	.L44:
 612 0018 00000000 		.word	.LANCHOR1
 613              		.cfi_endproc
 614              	.LFE122:
 616              		.section	.text.usbd_control_xfer_cb,"ax",%progbits
 617              		.align	1
 618              		.global	usbd_control_xfer_cb
 619              		.syntax unified
 620              		.thumb
 621              		.thumb_func
 623              	usbd_control_xfer_cb:
 624              	.LVL43:
 625              	.LFB123:
 148:lib/TinyUSB/src/device/usbd_control.c **** 
 149:lib/TinyUSB/src/device/usbd_control.c **** // callback when a transaction complete on
 150:lib/TinyUSB/src/device/usbd_control.c **** // - DATA stage of control endpoint or
 151:lib/TinyUSB/src/device/usbd_control.c **** // - Status stage
 152:lib/TinyUSB/src/device/usbd_control.c **** bool usbd_control_xfer_cb(uint8_t rhport, uint8_t ep_addr, xfer_result_t result, uint32_t xferred_b
 626              		.loc 1 152 106 is_stmt 1 view -0
 627              		.cfi_startproc
 628              		@ args = 0, pretend = 0, frame = 0
 629              		@ frame_needed = 0, uses_anonymous_args = 0
 630              		.loc 1 152 106 is_stmt 0 view .LVU160
 631 0000 30B5     		push	{r4, r5, lr}
 632              	.LCFI11:
 633              		.cfi_def_cfa_offset 12
 634              		.cfi_offset 4, -12
 635              		.cfi_offset 5, -8
 636              		.cfi_offset 14, -4
 637 0002 83B0     		sub	sp, sp, #12
 638              	.LCFI12:
 639              		.cfi_def_cfa_offset 24
 640 0004 0546     		mov	r5, r0
 641 0006 1C46     		mov	r4, r3
 153:lib/TinyUSB/src/device/usbd_control.c ****   (void) result;
 642              		.loc 1 153 3 is_stmt 1 view .LVU161
 154:lib/TinyUSB/src/device/usbd_control.c **** 
 155:lib/TinyUSB/src/device/usbd_control.c ****   // Endpoint Address is opposite to direction bit, this is Status Stage complete event
 156:lib/TinyUSB/src/device/usbd_control.c ****   if (tu_edpt_dir(ep_addr) != _ctrl_xfer.request.bmRequestType_bit.direction) {
 643              		.loc 1 156 3 view .LVU162
 644              	.LVL44:
 645              	.LBB49:
ARM GAS  C:\Users\krisa\AppData\Local\Temp\ccBxAPKY.s 			page 20


 646              	.LBI49:
 647              		.file 3 "lib/TinyUSB/src/common/tusb_types.h"
   1:lib/TinyUSB/src/common/tusb_types.h **** /*
   2:lib/TinyUSB/src/common/tusb_types.h ****  * The MIT License (MIT)
   3:lib/TinyUSB/src/common/tusb_types.h ****  *
   4:lib/TinyUSB/src/common/tusb_types.h ****  * Copyright (c) 2019 Ha Thach (tinyusb.org)
   5:lib/TinyUSB/src/common/tusb_types.h ****  *
   6:lib/TinyUSB/src/common/tusb_types.h ****  * Permission is hereby granted, free of charge, to any person obtaining a copy
   7:lib/TinyUSB/src/common/tusb_types.h ****  * of this software and associated documentation files (the "Software"), to deal
   8:lib/TinyUSB/src/common/tusb_types.h ****  * in the Software without restriction, including without limitation the rights
   9:lib/TinyUSB/src/common/tusb_types.h ****  * to use, copy, modify, merge, publish, distribute, sublicense, and/or sell
  10:lib/TinyUSB/src/common/tusb_types.h ****  * copies of the Software, and to permit persons to whom the Software is
  11:lib/TinyUSB/src/common/tusb_types.h ****  * furnished to do so, subject to the following conditions:
  12:lib/TinyUSB/src/common/tusb_types.h ****  *
  13:lib/TinyUSB/src/common/tusb_types.h ****  * The above copyright notice and this permission notice shall be included in
  14:lib/TinyUSB/src/common/tusb_types.h ****  * all copies or substantial portions of the Software.
  15:lib/TinyUSB/src/common/tusb_types.h ****  *
  16:lib/TinyUSB/src/common/tusb_types.h ****  * THE SOFTWARE IS PROVIDED "AS IS", WITHOUT WARRANTY OF ANY KIND, EXPRESS OR
  17:lib/TinyUSB/src/common/tusb_types.h ****  * IMPLIED, INCLUDING BUT NOT LIMITED TO THE WARRANTIES OF MERCHANTABILITY,
  18:lib/TinyUSB/src/common/tusb_types.h ****  * FITNESS FOR A PARTICULAR PURPOSE AND NONINFRINGEMENT. IN NO EVENT SHALL THE
  19:lib/TinyUSB/src/common/tusb_types.h ****  * AUTHORS OR COPYRIGHT HOLDERS BE LIABLE FOR ANY CLAIM, DAMAGES OR OTHER
  20:lib/TinyUSB/src/common/tusb_types.h ****  * LIABILITY, WHETHER IN AN ACTION OF CONTRACT, TORT OR OTHERWISE, ARISING FROM,
  21:lib/TinyUSB/src/common/tusb_types.h ****  * OUT OF OR IN CONNECTION WITH THE SOFTWARE OR THE USE OR OTHER DEALINGS IN
  22:lib/TinyUSB/src/common/tusb_types.h ****  * THE SOFTWARE.
  23:lib/TinyUSB/src/common/tusb_types.h ****  *
  24:lib/TinyUSB/src/common/tusb_types.h ****  * This file is part of the TinyUSB stack.
  25:lib/TinyUSB/src/common/tusb_types.h ****  */
  26:lib/TinyUSB/src/common/tusb_types.h **** 
  27:lib/TinyUSB/src/common/tusb_types.h **** #ifndef TUSB_TYPES_H_
  28:lib/TinyUSB/src/common/tusb_types.h **** #define TUSB_TYPES_H_
  29:lib/TinyUSB/src/common/tusb_types.h **** 
  30:lib/TinyUSB/src/common/tusb_types.h **** #include <stdbool.h>
  31:lib/TinyUSB/src/common/tusb_types.h **** #include <stdint.h>
  32:lib/TinyUSB/src/common/tusb_types.h **** #include "tusb_compiler.h"
  33:lib/TinyUSB/src/common/tusb_types.h **** 
  34:lib/TinyUSB/src/common/tusb_types.h **** #ifdef __cplusplus
  35:lib/TinyUSB/src/common/tusb_types.h ****  extern "C" {
  36:lib/TinyUSB/src/common/tusb_types.h **** #endif
  37:lib/TinyUSB/src/common/tusb_types.h **** 
  38:lib/TinyUSB/src/common/tusb_types.h **** //------------- Device DCache declaration -------------//
  39:lib/TinyUSB/src/common/tusb_types.h **** #define TUD_EPBUF_DCACHE_SIZE(_size) (CFG_TUD_MEM_DCACHE_ENABLE ? \
  40:lib/TinyUSB/src/common/tusb_types.h ****   (TU_DIV_CEIL(_size, CFG_TUD_MEM_DCACHE_LINE_SIZE) * CFG_TUD_MEM_DCACHE_LINE_SIZE) : (_size))
  41:lib/TinyUSB/src/common/tusb_types.h **** 
  42:lib/TinyUSB/src/common/tusb_types.h **** // Declare an endpoint buffer with uint8_t[size]
  43:lib/TinyUSB/src/common/tusb_types.h **** #define TUD_EPBUF_DEF(_name, _size) \
  44:lib/TinyUSB/src/common/tusb_types.h ****   union { \
  45:lib/TinyUSB/src/common/tusb_types.h ****     CFG_TUD_MEM_ALIGN uint8_t _name[_size]; \
  46:lib/TinyUSB/src/common/tusb_types.h ****     TU_ATTR_ALIGNED(CFG_TUD_MEM_DCACHE_ENABLE ? CFG_TUD_MEM_DCACHE_LINE_SIZE : 1) uint8_t _name##_d
  47:lib/TinyUSB/src/common/tusb_types.h ****   }
  48:lib/TinyUSB/src/common/tusb_types.h **** 
  49:lib/TinyUSB/src/common/tusb_types.h **** // Declare an endpoint buffer with a type
  50:lib/TinyUSB/src/common/tusb_types.h **** #define TUD_EPBUF_TYPE_DEF(_type, _name) \
  51:lib/TinyUSB/src/common/tusb_types.h ****   union { \
  52:lib/TinyUSB/src/common/tusb_types.h ****     CFG_TUD_MEM_ALIGN _type _name; \
  53:lib/TinyUSB/src/common/tusb_types.h ****     TU_ATTR_ALIGNED(CFG_TUD_MEM_DCACHE_ENABLE ? CFG_TUD_MEM_DCACHE_LINE_SIZE : 1) uint8_t _name##_d
  54:lib/TinyUSB/src/common/tusb_types.h ****   }
  55:lib/TinyUSB/src/common/tusb_types.h **** 
ARM GAS  C:\Users\krisa\AppData\Local\Temp\ccBxAPKY.s 			page 21


  56:lib/TinyUSB/src/common/tusb_types.h **** //------------- Host DCache declaration -------------//
  57:lib/TinyUSB/src/common/tusb_types.h **** #define TUH_EPBUF_DCACHE_SIZE(_size) (CFG_TUH_MEM_DCACHE_ENABLE ? \
  58:lib/TinyUSB/src/common/tusb_types.h ****   (TU_DIV_CEIL(_size, CFG_TUH_MEM_DCACHE_LINE_SIZE) * CFG_TUH_MEM_DCACHE_LINE_SIZE) : (_size))
  59:lib/TinyUSB/src/common/tusb_types.h **** 
  60:lib/TinyUSB/src/common/tusb_types.h **** // Declare an endpoint buffer with uint8_t[size]
  61:lib/TinyUSB/src/common/tusb_types.h **** #define TUH_EPBUF_DEF(_name, _size) \
  62:lib/TinyUSB/src/common/tusb_types.h ****   union { \
  63:lib/TinyUSB/src/common/tusb_types.h ****     CFG_TUH_MEM_ALIGN uint8_t _name[_size]; \
  64:lib/TinyUSB/src/common/tusb_types.h ****     TU_ATTR_ALIGNED(CFG_TUH_MEM_DCACHE_ENABLE ? CFG_TUH_MEM_DCACHE_LINE_SIZE : 1) uint8_t _name##_d
  65:lib/TinyUSB/src/common/tusb_types.h ****   }
  66:lib/TinyUSB/src/common/tusb_types.h **** 
  67:lib/TinyUSB/src/common/tusb_types.h **** // Declare an endpoint buffer with a type
  68:lib/TinyUSB/src/common/tusb_types.h **** #define TUH_EPBUF_TYPE_DEF(_type, _name) \
  69:lib/TinyUSB/src/common/tusb_types.h ****   union { \
  70:lib/TinyUSB/src/common/tusb_types.h ****     CFG_TUH_MEM_ALIGN _type _name; \
  71:lib/TinyUSB/src/common/tusb_types.h ****     TU_ATTR_ALIGNED(CFG_TUH_MEM_DCACHE_ENABLE ? CFG_TUH_MEM_DCACHE_LINE_SIZE : 1) uint8_t _name##_d
  72:lib/TinyUSB/src/common/tusb_types.h ****   }
  73:lib/TinyUSB/src/common/tusb_types.h **** 
  74:lib/TinyUSB/src/common/tusb_types.h **** 
  75:lib/TinyUSB/src/common/tusb_types.h **** /*------------------------------------------------------------------*/
  76:lib/TinyUSB/src/common/tusb_types.h **** /* CONSTANTS
  77:lib/TinyUSB/src/common/tusb_types.h ****  *------------------------------------------------------------------*/
  78:lib/TinyUSB/src/common/tusb_types.h **** 
  79:lib/TinyUSB/src/common/tusb_types.h **** typedef enum {
  80:lib/TinyUSB/src/common/tusb_types.h ****   TUSB_ROLE_INVALID = 0u,
  81:lib/TinyUSB/src/common/tusb_types.h ****   TUSB_ROLE_DEVICE  = 0x1,
  82:lib/TinyUSB/src/common/tusb_types.h ****   TUSB_ROLE_HOST    = 0x2,
  83:lib/TinyUSB/src/common/tusb_types.h **** } tusb_role_t;
  84:lib/TinyUSB/src/common/tusb_types.h **** 
  85:lib/TinyUSB/src/common/tusb_types.h **** /// defined base on EHCI specs value for Endpoint Speed
  86:lib/TinyUSB/src/common/tusb_types.h **** typedef enum {
  87:lib/TinyUSB/src/common/tusb_types.h ****   TUSB_SPEED_FULL = 0,
  88:lib/TinyUSB/src/common/tusb_types.h ****   TUSB_SPEED_LOW  = 1,
  89:lib/TinyUSB/src/common/tusb_types.h ****   TUSB_SPEED_HIGH = 2,
  90:lib/TinyUSB/src/common/tusb_types.h ****   TUSB_SPEED_AUTO = 0xaa,
  91:lib/TinyUSB/src/common/tusb_types.h ****   TUSB_SPEED_INVALID = 0xff,
  92:lib/TinyUSB/src/common/tusb_types.h **** } tusb_speed_t;
  93:lib/TinyUSB/src/common/tusb_types.h **** 
  94:lib/TinyUSB/src/common/tusb_types.h **** /// defined base on USB Specs Endpoint's bmAttributes
  95:lib/TinyUSB/src/common/tusb_types.h **** typedef enum {
  96:lib/TinyUSB/src/common/tusb_types.h ****   TUSB_XFER_CONTROL     = 0,
  97:lib/TinyUSB/src/common/tusb_types.h ****   TUSB_XFER_ISOCHRONOUS = 1,
  98:lib/TinyUSB/src/common/tusb_types.h ****   TUSB_XFER_BULK        = 2,
  99:lib/TinyUSB/src/common/tusb_types.h ****   TUSB_XFER_INTERRUPT   = 3
 100:lib/TinyUSB/src/common/tusb_types.h **** } tusb_xfer_type_t;
 101:lib/TinyUSB/src/common/tusb_types.h **** 
 102:lib/TinyUSB/src/common/tusb_types.h **** typedef enum {
 103:lib/TinyUSB/src/common/tusb_types.h ****   TUSB_DIR_OUT = 0,
 104:lib/TinyUSB/src/common/tusb_types.h ****   TUSB_DIR_IN  = 1,
 105:lib/TinyUSB/src/common/tusb_types.h **** 
 106:lib/TinyUSB/src/common/tusb_types.h ****   TUSB_EPNUM_MASK = 0x0F,
 107:lib/TinyUSB/src/common/tusb_types.h ****   TUSB_DIR_IN_MASK = 0x80
 108:lib/TinyUSB/src/common/tusb_types.h **** } tusb_dir_t;
 109:lib/TinyUSB/src/common/tusb_types.h **** 
 110:lib/TinyUSB/src/common/tusb_types.h **** enum {
 111:lib/TinyUSB/src/common/tusb_types.h ****   TUSB_EPSIZE_BULK_FS = 64,
 112:lib/TinyUSB/src/common/tusb_types.h ****   TUSB_EPSIZE_BULK_HS = 512,
ARM GAS  C:\Users\krisa\AppData\Local\Temp\ccBxAPKY.s 			page 22


 113:lib/TinyUSB/src/common/tusb_types.h **** 
 114:lib/TinyUSB/src/common/tusb_types.h ****   TUSB_EPSIZE_ISO_FS_MAX = 1023,
 115:lib/TinyUSB/src/common/tusb_types.h ****   TUSB_EPSIZE_ISO_HS_MAX = 1024,
 116:lib/TinyUSB/src/common/tusb_types.h **** };
 117:lib/TinyUSB/src/common/tusb_types.h **** 
 118:lib/TinyUSB/src/common/tusb_types.h **** /// Isochronous Endpoint Attributes
 119:lib/TinyUSB/src/common/tusb_types.h **** typedef enum {
 120:lib/TinyUSB/src/common/tusb_types.h ****   TUSB_ISO_EP_ATT_NO_SYNC         = 0x00,
 121:lib/TinyUSB/src/common/tusb_types.h ****   TUSB_ISO_EP_ATT_ASYNCHRONOUS    = 0x04,
 122:lib/TinyUSB/src/common/tusb_types.h ****   TUSB_ISO_EP_ATT_ADAPTIVE        = 0x08,
 123:lib/TinyUSB/src/common/tusb_types.h ****   TUSB_ISO_EP_ATT_SYNCHRONOUS     = 0x0C,
 124:lib/TinyUSB/src/common/tusb_types.h ****   TUSB_ISO_EP_ATT_DATA            = 0x00, ///< Data End Point
 125:lib/TinyUSB/src/common/tusb_types.h ****   TUSB_ISO_EP_ATT_EXPLICIT_FB     = 0x10, ///< Feedback End Point
 126:lib/TinyUSB/src/common/tusb_types.h ****   TUSB_ISO_EP_ATT_IMPLICIT_FB     = 0x20, ///< Data endpoint that also serves as an implicit feedba
 127:lib/TinyUSB/src/common/tusb_types.h **** } tusb_iso_ep_attribute_t;
 128:lib/TinyUSB/src/common/tusb_types.h **** 
 129:lib/TinyUSB/src/common/tusb_types.h **** /// USB Descriptor Types
 130:lib/TinyUSB/src/common/tusb_types.h **** typedef enum {
 131:lib/TinyUSB/src/common/tusb_types.h ****   TUSB_DESC_DEVICE                = 0x01,
 132:lib/TinyUSB/src/common/tusb_types.h ****   TUSB_DESC_CONFIGURATION         = 0x02,
 133:lib/TinyUSB/src/common/tusb_types.h ****   TUSB_DESC_STRING                = 0x03,
 134:lib/TinyUSB/src/common/tusb_types.h ****   TUSB_DESC_INTERFACE             = 0x04,
 135:lib/TinyUSB/src/common/tusb_types.h ****   TUSB_DESC_ENDPOINT              = 0x05,
 136:lib/TinyUSB/src/common/tusb_types.h ****   TUSB_DESC_DEVICE_QUALIFIER      = 0x06,
 137:lib/TinyUSB/src/common/tusb_types.h ****   TUSB_DESC_OTHER_SPEED_CONFIG    = 0x07,
 138:lib/TinyUSB/src/common/tusb_types.h ****   TUSB_DESC_INTERFACE_POWER       = 0x08,
 139:lib/TinyUSB/src/common/tusb_types.h ****   TUSB_DESC_OTG                   = 0x09,
 140:lib/TinyUSB/src/common/tusb_types.h ****   TUSB_DESC_DEBUG                 = 0x0A,
 141:lib/TinyUSB/src/common/tusb_types.h ****   TUSB_DESC_INTERFACE_ASSOCIATION = 0x0B,
 142:lib/TinyUSB/src/common/tusb_types.h **** 
 143:lib/TinyUSB/src/common/tusb_types.h ****   TUSB_DESC_BOS                   = 0x0F,
 144:lib/TinyUSB/src/common/tusb_types.h ****   TUSB_DESC_DEVICE_CAPABILITY     = 0x10,
 145:lib/TinyUSB/src/common/tusb_types.h **** 
 146:lib/TinyUSB/src/common/tusb_types.h ****   TUSB_DESC_FUNCTIONAL            = 0x21,
 147:lib/TinyUSB/src/common/tusb_types.h **** 
 148:lib/TinyUSB/src/common/tusb_types.h ****   // Class Specific Descriptor
 149:lib/TinyUSB/src/common/tusb_types.h ****   TUSB_DESC_CS_DEVICE             = 0x21,
 150:lib/TinyUSB/src/common/tusb_types.h ****   TUSB_DESC_CS_CONFIGURATION      = 0x22,
 151:lib/TinyUSB/src/common/tusb_types.h ****   TUSB_DESC_CS_STRING             = 0x23,
 152:lib/TinyUSB/src/common/tusb_types.h ****   TUSB_DESC_CS_INTERFACE          = 0x24,
 153:lib/TinyUSB/src/common/tusb_types.h ****   TUSB_DESC_CS_ENDPOINT           = 0x25,
 154:lib/TinyUSB/src/common/tusb_types.h **** 
 155:lib/TinyUSB/src/common/tusb_types.h ****   TUSB_DESC_SUPERSPEED_ENDPOINT_COMPANION     = 0x30,
 156:lib/TinyUSB/src/common/tusb_types.h ****   TUSB_DESC_SUPERSPEED_ISO_ENDPOINT_COMPANION = 0x31
 157:lib/TinyUSB/src/common/tusb_types.h **** } tusb_desc_type_t;
 158:lib/TinyUSB/src/common/tusb_types.h **** 
 159:lib/TinyUSB/src/common/tusb_types.h **** typedef enum {
 160:lib/TinyUSB/src/common/tusb_types.h ****   TUSB_REQ_GET_STATUS        = 0  ,
 161:lib/TinyUSB/src/common/tusb_types.h ****   TUSB_REQ_CLEAR_FEATURE     = 1  ,
 162:lib/TinyUSB/src/common/tusb_types.h ****   TUSB_REQ_RESERVED          = 2  ,
 163:lib/TinyUSB/src/common/tusb_types.h ****   TUSB_REQ_SET_FEATURE       = 3  ,
 164:lib/TinyUSB/src/common/tusb_types.h ****   TUSB_REQ_RESERVED2         = 4  ,
 165:lib/TinyUSB/src/common/tusb_types.h ****   TUSB_REQ_SET_ADDRESS       = 5  ,
 166:lib/TinyUSB/src/common/tusb_types.h ****   TUSB_REQ_GET_DESCRIPTOR    = 6  ,
 167:lib/TinyUSB/src/common/tusb_types.h ****   TUSB_REQ_SET_DESCRIPTOR    = 7  ,
 168:lib/TinyUSB/src/common/tusb_types.h ****   TUSB_REQ_GET_CONFIGURATION = 8  ,
 169:lib/TinyUSB/src/common/tusb_types.h ****   TUSB_REQ_SET_CONFIGURATION = 9  ,
ARM GAS  C:\Users\krisa\AppData\Local\Temp\ccBxAPKY.s 			page 23


 170:lib/TinyUSB/src/common/tusb_types.h ****   TUSB_REQ_GET_INTERFACE     = 10 ,
 171:lib/TinyUSB/src/common/tusb_types.h ****   TUSB_REQ_SET_INTERFACE     = 11 ,
 172:lib/TinyUSB/src/common/tusb_types.h ****   TUSB_REQ_SYNCH_FRAME       = 12
 173:lib/TinyUSB/src/common/tusb_types.h **** } tusb_request_code_t;
 174:lib/TinyUSB/src/common/tusb_types.h **** 
 175:lib/TinyUSB/src/common/tusb_types.h **** typedef enum {
 176:lib/TinyUSB/src/common/tusb_types.h ****   TUSB_REQ_FEATURE_EDPT_HALT     = 0,
 177:lib/TinyUSB/src/common/tusb_types.h ****   TUSB_REQ_FEATURE_REMOTE_WAKEUP = 1,
 178:lib/TinyUSB/src/common/tusb_types.h ****   TUSB_REQ_FEATURE_TEST_MODE     = 2
 179:lib/TinyUSB/src/common/tusb_types.h **** } tusb_request_feature_selector_t;
 180:lib/TinyUSB/src/common/tusb_types.h **** 
 181:lib/TinyUSB/src/common/tusb_types.h **** typedef enum {
 182:lib/TinyUSB/src/common/tusb_types.h ****   TUSB_REQ_TYPE_STANDARD = 0u,
 183:lib/TinyUSB/src/common/tusb_types.h ****   TUSB_REQ_TYPE_CLASS,
 184:lib/TinyUSB/src/common/tusb_types.h ****   TUSB_REQ_TYPE_VENDOR,
 185:lib/TinyUSB/src/common/tusb_types.h ****   TUSB_REQ_TYPE_INVALID
 186:lib/TinyUSB/src/common/tusb_types.h **** } tusb_request_type_t;
 187:lib/TinyUSB/src/common/tusb_types.h **** 
 188:lib/TinyUSB/src/common/tusb_types.h **** typedef enum {
 189:lib/TinyUSB/src/common/tusb_types.h ****   TUSB_REQ_RCPT_DEVICE =0,
 190:lib/TinyUSB/src/common/tusb_types.h ****   TUSB_REQ_RCPT_INTERFACE,
 191:lib/TinyUSB/src/common/tusb_types.h ****   TUSB_REQ_RCPT_ENDPOINT,
 192:lib/TinyUSB/src/common/tusb_types.h ****   TUSB_REQ_RCPT_OTHER
 193:lib/TinyUSB/src/common/tusb_types.h **** } tusb_request_recipient_t;
 194:lib/TinyUSB/src/common/tusb_types.h **** 
 195:lib/TinyUSB/src/common/tusb_types.h **** // https://www.usb.org/defined-class-codes
 196:lib/TinyUSB/src/common/tusb_types.h **** typedef enum {
 197:lib/TinyUSB/src/common/tusb_types.h ****   TUSB_CLASS_UNSPECIFIED          = 0    ,
 198:lib/TinyUSB/src/common/tusb_types.h ****   TUSB_CLASS_AUDIO                = 1    ,
 199:lib/TinyUSB/src/common/tusb_types.h ****   TUSB_CLASS_CDC                  = 2    ,
 200:lib/TinyUSB/src/common/tusb_types.h ****   TUSB_CLASS_HID                  = 3    ,
 201:lib/TinyUSB/src/common/tusb_types.h ****   TUSB_CLASS_RESERVED_4           = 4    ,
 202:lib/TinyUSB/src/common/tusb_types.h ****   TUSB_CLASS_PHYSICAL             = 5    ,
 203:lib/TinyUSB/src/common/tusb_types.h ****   TUSB_CLASS_IMAGE                = 6    ,
 204:lib/TinyUSB/src/common/tusb_types.h ****   TUSB_CLASS_PRINTER              = 7    ,
 205:lib/TinyUSB/src/common/tusb_types.h ****   TUSB_CLASS_MSC                  = 8    ,
 206:lib/TinyUSB/src/common/tusb_types.h ****   TUSB_CLASS_HUB                  = 9    ,
 207:lib/TinyUSB/src/common/tusb_types.h ****   TUSB_CLASS_CDC_DATA             = 10   ,
 208:lib/TinyUSB/src/common/tusb_types.h ****   TUSB_CLASS_SMART_CARD           = 11   ,
 209:lib/TinyUSB/src/common/tusb_types.h ****   TUSB_CLASS_RESERVED_12          = 12   ,
 210:lib/TinyUSB/src/common/tusb_types.h ****   TUSB_CLASS_CONTENT_SECURITY     = 13   ,
 211:lib/TinyUSB/src/common/tusb_types.h ****   TUSB_CLASS_VIDEO                = 14   ,
 212:lib/TinyUSB/src/common/tusb_types.h ****   TUSB_CLASS_PERSONAL_HEALTHCARE  = 15   ,
 213:lib/TinyUSB/src/common/tusb_types.h ****   TUSB_CLASS_AUDIO_VIDEO          = 16   ,
 214:lib/TinyUSB/src/common/tusb_types.h **** 
 215:lib/TinyUSB/src/common/tusb_types.h ****   TUSB_CLASS_DIAGNOSTIC           = 0xDC ,
 216:lib/TinyUSB/src/common/tusb_types.h ****   TUSB_CLASS_WIRELESS_CONTROLLER  = 0xE0 ,
 217:lib/TinyUSB/src/common/tusb_types.h ****   TUSB_CLASS_MISC                 = 0xEF ,
 218:lib/TinyUSB/src/common/tusb_types.h ****   TUSB_CLASS_APPLICATION_SPECIFIC = 0xFE ,
 219:lib/TinyUSB/src/common/tusb_types.h ****   TUSB_CLASS_VENDOR_SPECIFIC      = 0xFF
 220:lib/TinyUSB/src/common/tusb_types.h **** } tusb_class_code_t;
 221:lib/TinyUSB/src/common/tusb_types.h **** 
 222:lib/TinyUSB/src/common/tusb_types.h **** typedef enum
 223:lib/TinyUSB/src/common/tusb_types.h **** {
 224:lib/TinyUSB/src/common/tusb_types.h ****   MISC_SUBCLASS_COMMON = 2
 225:lib/TinyUSB/src/common/tusb_types.h **** }misc_subclass_type_t;
 226:lib/TinyUSB/src/common/tusb_types.h **** 
ARM GAS  C:\Users\krisa\AppData\Local\Temp\ccBxAPKY.s 			page 24


 227:lib/TinyUSB/src/common/tusb_types.h **** typedef enum {
 228:lib/TinyUSB/src/common/tusb_types.h ****   MISC_PROTOCOL_IAD = 1
 229:lib/TinyUSB/src/common/tusb_types.h **** } misc_protocol_type_t;
 230:lib/TinyUSB/src/common/tusb_types.h **** 
 231:lib/TinyUSB/src/common/tusb_types.h **** typedef enum {
 232:lib/TinyUSB/src/common/tusb_types.h ****   APP_SUBCLASS_USBTMC = 0x03,
 233:lib/TinyUSB/src/common/tusb_types.h ****   APP_SUBCLASS_DFU_RUNTIME = 0x01
 234:lib/TinyUSB/src/common/tusb_types.h **** } app_subclass_type_t;
 235:lib/TinyUSB/src/common/tusb_types.h **** 
 236:lib/TinyUSB/src/common/tusb_types.h **** typedef enum {
 237:lib/TinyUSB/src/common/tusb_types.h ****   DEVICE_CAPABILITY_WIRELESS_USB               = 0x01,
 238:lib/TinyUSB/src/common/tusb_types.h ****   DEVICE_CAPABILITY_USB20_EXTENSION            = 0x02,
 239:lib/TinyUSB/src/common/tusb_types.h ****   DEVICE_CAPABILITY_SUPERSPEED_USB             = 0x03,
 240:lib/TinyUSB/src/common/tusb_types.h ****   DEVICE_CAPABILITY_CONTAINER_id               = 0x04,
 241:lib/TinyUSB/src/common/tusb_types.h ****   DEVICE_CAPABILITY_PLATFORM                   = 0x05,
 242:lib/TinyUSB/src/common/tusb_types.h ****   DEVICE_CAPABILITY_POWER_DELIVERY             = 0x06,
 243:lib/TinyUSB/src/common/tusb_types.h ****   DEVICE_CAPABILITY_BATTERY_INFO               = 0x07,
 244:lib/TinyUSB/src/common/tusb_types.h ****   DEVICE_CAPABILITY_PD_CONSUMER_PORT           = 0x08,
 245:lib/TinyUSB/src/common/tusb_types.h ****   DEVICE_CAPABILITY_PD_PROVIDER_PORT           = 0x09,
 246:lib/TinyUSB/src/common/tusb_types.h ****   DEVICE_CAPABILITY_SUPERSPEED_PLUS            = 0x0A,
 247:lib/TinyUSB/src/common/tusb_types.h ****   DEVICE_CAPABILITY_PRECESION_TIME_MEASUREMENT = 0x0B,
 248:lib/TinyUSB/src/common/tusb_types.h ****   DEVICE_CAPABILITY_WIRELESS_USB_EXT           = 0x0C,
 249:lib/TinyUSB/src/common/tusb_types.h ****   DEVICE_CAPABILITY_BILLBOARD                  = 0x0D,
 250:lib/TinyUSB/src/common/tusb_types.h ****   DEVICE_CAPABILITY_AUTHENTICATION             = 0x0E,
 251:lib/TinyUSB/src/common/tusb_types.h ****   DEVICE_CAPABILITY_BILLBOARD_EX               = 0x0F,
 252:lib/TinyUSB/src/common/tusb_types.h ****   DEVICE_CAPABILITY_CONFIGURATION_SUMMARY      = 0x10
 253:lib/TinyUSB/src/common/tusb_types.h **** } device_capability_type_t;
 254:lib/TinyUSB/src/common/tusb_types.h **** 
 255:lib/TinyUSB/src/common/tusb_types.h **** enum {
 256:lib/TinyUSB/src/common/tusb_types.h ****   TUSB_DESC_CONFIG_ATT_REMOTE_WAKEUP = 1 << 5,
 257:lib/TinyUSB/src/common/tusb_types.h ****   TUSB_DESC_CONFIG_ATT_SELF_POWERED  = 1 << 6,
 258:lib/TinyUSB/src/common/tusb_types.h **** };
 259:lib/TinyUSB/src/common/tusb_types.h **** 
 260:lib/TinyUSB/src/common/tusb_types.h **** #define TUSB_DESC_CONFIG_POWER_MA(x)  ((x)/2)
 261:lib/TinyUSB/src/common/tusb_types.h **** 
 262:lib/TinyUSB/src/common/tusb_types.h **** // USB 2.0 Spec Table 9-7: Test Mode Selectors
 263:lib/TinyUSB/src/common/tusb_types.h **** typedef enum {
 264:lib/TinyUSB/src/common/tusb_types.h ****   TUSB_FEATURE_TEST_J = 1,
 265:lib/TinyUSB/src/common/tusb_types.h ****   TUSB_FEATURE_TEST_K = 2,
 266:lib/TinyUSB/src/common/tusb_types.h ****   TUSB_FEATURE_TEST_SE0_NAK = 3,
 267:lib/TinyUSB/src/common/tusb_types.h ****   TUSB_FEATURE_TEST_PACKET = 4,
 268:lib/TinyUSB/src/common/tusb_types.h ****   TUSB_FEATURE_TEST_FORCE_ENABLE = 5,
 269:lib/TinyUSB/src/common/tusb_types.h **** } tusb_feature_test_mode_t;
 270:lib/TinyUSB/src/common/tusb_types.h **** 
 271:lib/TinyUSB/src/common/tusb_types.h **** //--------------------------------------------------------------------+
 272:lib/TinyUSB/src/common/tusb_types.h **** //
 273:lib/TinyUSB/src/common/tusb_types.h **** //--------------------------------------------------------------------+
 274:lib/TinyUSB/src/common/tusb_types.h **** typedef enum {
 275:lib/TinyUSB/src/common/tusb_types.h ****   XFER_RESULT_SUCCESS = 0,
 276:lib/TinyUSB/src/common/tusb_types.h ****   XFER_RESULT_FAILED,
 277:lib/TinyUSB/src/common/tusb_types.h ****   XFER_RESULT_STALLED,
 278:lib/TinyUSB/src/common/tusb_types.h ****   XFER_RESULT_TIMEOUT,
 279:lib/TinyUSB/src/common/tusb_types.h ****   XFER_RESULT_INVALID
 280:lib/TinyUSB/src/common/tusb_types.h **** } xfer_result_t;
 281:lib/TinyUSB/src/common/tusb_types.h **** 
 282:lib/TinyUSB/src/common/tusb_types.h **** #define tusb_xfer_result_t xfer_result_t
 283:lib/TinyUSB/src/common/tusb_types.h **** 
ARM GAS  C:\Users\krisa\AppData\Local\Temp\ccBxAPKY.s 			page 25


 284:lib/TinyUSB/src/common/tusb_types.h **** // TODO remove
 285:lib/TinyUSB/src/common/tusb_types.h **** enum {
 286:lib/TinyUSB/src/common/tusb_types.h ****   DESC_OFFSET_LEN  = 0,
 287:lib/TinyUSB/src/common/tusb_types.h ****   DESC_OFFSET_TYPE = 1,
 288:lib/TinyUSB/src/common/tusb_types.h ****   DESC_OFFSET_SUBTYPE = 2
 289:lib/TinyUSB/src/common/tusb_types.h **** };
 290:lib/TinyUSB/src/common/tusb_types.h **** 
 291:lib/TinyUSB/src/common/tusb_types.h **** enum {
 292:lib/TinyUSB/src/common/tusb_types.h ****   INTERFACE_INVALID_NUMBER = 0xff
 293:lib/TinyUSB/src/common/tusb_types.h **** };
 294:lib/TinyUSB/src/common/tusb_types.h **** 
 295:lib/TinyUSB/src/common/tusb_types.h **** typedef enum {
 296:lib/TinyUSB/src/common/tusb_types.h ****   MS_OS_20_SET_HEADER_DESCRIPTOR       = 0x00,
 297:lib/TinyUSB/src/common/tusb_types.h ****   MS_OS_20_SUBSET_HEADER_CONFIGURATION = 0x01,
 298:lib/TinyUSB/src/common/tusb_types.h ****   MS_OS_20_SUBSET_HEADER_FUNCTION      = 0x02,
 299:lib/TinyUSB/src/common/tusb_types.h ****   MS_OS_20_FEATURE_COMPATBLE_ID        = 0x03,
 300:lib/TinyUSB/src/common/tusb_types.h ****   MS_OS_20_FEATURE_REG_PROPERTY        = 0x04,
 301:lib/TinyUSB/src/common/tusb_types.h ****   MS_OS_20_FEATURE_MIN_RESUME_TIME     = 0x05,
 302:lib/TinyUSB/src/common/tusb_types.h ****   MS_OS_20_FEATURE_MODEL_ID            = 0x06,
 303:lib/TinyUSB/src/common/tusb_types.h ****   MS_OS_20_FEATURE_CCGP_DEVICE         = 0x07,
 304:lib/TinyUSB/src/common/tusb_types.h ****   MS_OS_20_FEATURE_VENDOR_REVISION     = 0x08
 305:lib/TinyUSB/src/common/tusb_types.h **** } microsoft_os_20_type_t;
 306:lib/TinyUSB/src/common/tusb_types.h **** 
 307:lib/TinyUSB/src/common/tusb_types.h **** enum {
 308:lib/TinyUSB/src/common/tusb_types.h ****   CONTROL_STAGE_IDLE = 0,
 309:lib/TinyUSB/src/common/tusb_types.h ****   CONTROL_STAGE_SETUP, // 1
 310:lib/TinyUSB/src/common/tusb_types.h ****   CONTROL_STAGE_DATA,  // 2
 311:lib/TinyUSB/src/common/tusb_types.h ****   CONTROL_STAGE_ACK    // 3
 312:lib/TinyUSB/src/common/tusb_types.h **** };
 313:lib/TinyUSB/src/common/tusb_types.h **** 
 314:lib/TinyUSB/src/common/tusb_types.h **** enum {
 315:lib/TinyUSB/src/common/tusb_types.h ****   TUSB_INDEX_INVALID_8 = 0xFF
 316:lib/TinyUSB/src/common/tusb_types.h **** };
 317:lib/TinyUSB/src/common/tusb_types.h **** 
 318:lib/TinyUSB/src/common/tusb_types.h **** //--------------------------------------------------------------------+
 319:lib/TinyUSB/src/common/tusb_types.h **** //
 320:lib/TinyUSB/src/common/tusb_types.h **** //--------------------------------------------------------------------+
 321:lib/TinyUSB/src/common/tusb_types.h **** typedef struct {
 322:lib/TinyUSB/src/common/tusb_types.h ****   tusb_role_t role;
 323:lib/TinyUSB/src/common/tusb_types.h ****   tusb_speed_t speed;
 324:lib/TinyUSB/src/common/tusb_types.h **** } tusb_rhport_init_t;
 325:lib/TinyUSB/src/common/tusb_types.h **** 
 326:lib/TinyUSB/src/common/tusb_types.h **** typedef struct {
 327:lib/TinyUSB/src/common/tusb_types.h ****   uint16_t len;
 328:lib/TinyUSB/src/common/tusb_types.h ****   uint8_t *buffer;
 329:lib/TinyUSB/src/common/tusb_types.h **** } tusb_buffer_t;
 330:lib/TinyUSB/src/common/tusb_types.h **** 
 331:lib/TinyUSB/src/common/tusb_types.h **** //--------------------------------------------------------------------+
 332:lib/TinyUSB/src/common/tusb_types.h **** // USB Descriptors
 333:lib/TinyUSB/src/common/tusb_types.h **** //--------------------------------------------------------------------+
 334:lib/TinyUSB/src/common/tusb_types.h **** 
 335:lib/TinyUSB/src/common/tusb_types.h **** // Start of all packed definitions for compiler without per-type packed
 336:lib/TinyUSB/src/common/tusb_types.h **** TU_ATTR_PACKED_BEGIN
 337:lib/TinyUSB/src/common/tusb_types.h **** TU_ATTR_BIT_FIELD_ORDER_BEGIN
 338:lib/TinyUSB/src/common/tusb_types.h **** 
 339:lib/TinyUSB/src/common/tusb_types.h **** /// USB Device Descriptor
 340:lib/TinyUSB/src/common/tusb_types.h **** typedef struct TU_ATTR_PACKED {
ARM GAS  C:\Users\krisa\AppData\Local\Temp\ccBxAPKY.s 			page 26


 341:lib/TinyUSB/src/common/tusb_types.h ****   uint8_t  bLength            ; ///< Size of this descriptor in bytes.
 342:lib/TinyUSB/src/common/tusb_types.h ****   uint8_t  bDescriptorType    ; ///< DEVICE Descriptor Type.
 343:lib/TinyUSB/src/common/tusb_types.h ****   uint16_t bcdUSB             ; ///< BUSB Specification Release Number in Binary-Coded Decimal (i.e
 344:lib/TinyUSB/src/common/tusb_types.h **** 
 345:lib/TinyUSB/src/common/tusb_types.h ****   uint8_t  bDeviceClass       ; ///< Class code (assigned by the USB-IF).
 346:lib/TinyUSB/src/common/tusb_types.h ****   uint8_t  bDeviceSubClass    ; ///< Subclass code (assigned by the USB-IF).
 347:lib/TinyUSB/src/common/tusb_types.h ****   uint8_t  bDeviceProtocol    ; ///< Protocol code (assigned by the USB-IF).
 348:lib/TinyUSB/src/common/tusb_types.h ****   uint8_t  bMaxPacketSize0    ; ///< Maximum packet size for endpoint zero (only 8, 16, 32, or 64 a
 349:lib/TinyUSB/src/common/tusb_types.h **** 
 350:lib/TinyUSB/src/common/tusb_types.h ****   uint16_t idVendor           ; ///< Vendor ID (assigned by the USB-IF).
 351:lib/TinyUSB/src/common/tusb_types.h ****   uint16_t idProduct          ; ///< Product ID (assigned by the manufacturer).
 352:lib/TinyUSB/src/common/tusb_types.h ****   uint16_t bcdDevice          ; ///< Device release number in binary-coded decimal.
 353:lib/TinyUSB/src/common/tusb_types.h ****   uint8_t  iManufacturer      ; ///< Index of string descriptor describing manufacturer.
 354:lib/TinyUSB/src/common/tusb_types.h ****   uint8_t  iProduct           ; ///< Index of string descriptor describing product.
 355:lib/TinyUSB/src/common/tusb_types.h ****   uint8_t  iSerialNumber      ; ///< Index of string descriptor describing the device's serial numb
 356:lib/TinyUSB/src/common/tusb_types.h ****   uint8_t  bNumConfigurations ; ///< Number of possible configurations.
 357:lib/TinyUSB/src/common/tusb_types.h **** } tusb_desc_device_t;
 358:lib/TinyUSB/src/common/tusb_types.h **** 
 359:lib/TinyUSB/src/common/tusb_types.h **** TU_VERIFY_STATIC( sizeof(tusb_desc_device_t) == 18u, "size is not correct");
 360:lib/TinyUSB/src/common/tusb_types.h **** 
 361:lib/TinyUSB/src/common/tusb_types.h **** // USB Binary Device Object Store (BOS) Descriptor
 362:lib/TinyUSB/src/common/tusb_types.h **** typedef struct TU_ATTR_PACKED {
 363:lib/TinyUSB/src/common/tusb_types.h ****   uint8_t  bLength         ; ///< Size of this descriptor in bytes
 364:lib/TinyUSB/src/common/tusb_types.h ****   uint8_t  bDescriptorType ; ///< CONFIGURATION Descriptor Type
 365:lib/TinyUSB/src/common/tusb_types.h ****   uint16_t wTotalLength    ; ///< Total length of data returned for this descriptor
 366:lib/TinyUSB/src/common/tusb_types.h ****   uint8_t  bNumDeviceCaps  ; ///< Number of device capability descriptors in the BOS
 367:lib/TinyUSB/src/common/tusb_types.h **** } tusb_desc_bos_t;
 368:lib/TinyUSB/src/common/tusb_types.h **** 
 369:lib/TinyUSB/src/common/tusb_types.h **** TU_VERIFY_STATIC( sizeof(tusb_desc_bos_t) == 5u, "size is not correct");
 370:lib/TinyUSB/src/common/tusb_types.h **** 
 371:lib/TinyUSB/src/common/tusb_types.h **** /// USB Configuration Descriptor
 372:lib/TinyUSB/src/common/tusb_types.h **** typedef struct TU_ATTR_PACKED {
 373:lib/TinyUSB/src/common/tusb_types.h ****   uint8_t  bLength             ; ///< Size of this descriptor in bytes
 374:lib/TinyUSB/src/common/tusb_types.h ****   uint8_t  bDescriptorType     ; ///< CONFIGURATION Descriptor Type
 375:lib/TinyUSB/src/common/tusb_types.h ****   uint16_t wTotalLength        ; ///< Total length of data returned for this configuration. Include
 376:lib/TinyUSB/src/common/tusb_types.h **** 
 377:lib/TinyUSB/src/common/tusb_types.h ****   uint8_t  bNumInterfaces      ; ///< Number of interfaces supported by this configuration
 378:lib/TinyUSB/src/common/tusb_types.h ****   uint8_t  bConfigurationValue ; ///< Value to use as an argument to the SetConfiguration() request
 379:lib/TinyUSB/src/common/tusb_types.h ****   uint8_t  iConfiguration      ; ///< Index of string descriptor describing this configuration
 380:lib/TinyUSB/src/common/tusb_types.h ****   uint8_t  bmAttributes        ; ///< Configuration characteristics \n D7: Reserved (set to one)\n 
 381:lib/TinyUSB/src/common/tusb_types.h ****   uint8_t  bMaxPower           ; ///< Maximum power consumption of the USB device from the bus in t
 382:lib/TinyUSB/src/common/tusb_types.h **** } tusb_desc_configuration_t;
 383:lib/TinyUSB/src/common/tusb_types.h **** 
 384:lib/TinyUSB/src/common/tusb_types.h **** TU_VERIFY_STATIC( sizeof(tusb_desc_configuration_t) == 9u, "size is not correct");
 385:lib/TinyUSB/src/common/tusb_types.h **** 
 386:lib/TinyUSB/src/common/tusb_types.h **** /// USB Interface Descriptor
 387:lib/TinyUSB/src/common/tusb_types.h **** typedef struct TU_ATTR_PACKED {
 388:lib/TinyUSB/src/common/tusb_types.h ****   uint8_t  bLength            ; ///< Size of this descriptor in bytes
 389:lib/TinyUSB/src/common/tusb_types.h ****   uint8_t  bDescriptorType    ; ///< INTERFACE Descriptor Type
 390:lib/TinyUSB/src/common/tusb_types.h **** 
 391:lib/TinyUSB/src/common/tusb_types.h ****   uint8_t  bInterfaceNumber   ; ///< Number of this interface. Zero-based value identifying the ind
 392:lib/TinyUSB/src/common/tusb_types.h ****   uint8_t  bAlternateSetting  ; ///< Value used to select this alternate setting for the interface 
 393:lib/TinyUSB/src/common/tusb_types.h ****   uint8_t  bNumEndpoints      ; ///< Number of endpoints used by this interface (excluding endpoint
 394:lib/TinyUSB/src/common/tusb_types.h ****   uint8_t  bInterfaceClass    ; ///< Class code (assigned by the USB-IF). \li A value of zero is re
 395:lib/TinyUSB/src/common/tusb_types.h ****   uint8_t  bInterfaceSubClass ; ///< Subclass code (assigned by the USB-IF). \n These codes are qua
 396:lib/TinyUSB/src/common/tusb_types.h ****   uint8_t  bInterfaceProtocol ; ///< Protocol code (assigned by the USB). \n These codes are qualif
 397:lib/TinyUSB/src/common/tusb_types.h ****   uint8_t  iInterface         ; ///< Index of string descriptor describing this interface
ARM GAS  C:\Users\krisa\AppData\Local\Temp\ccBxAPKY.s 			page 27


 398:lib/TinyUSB/src/common/tusb_types.h **** } tusb_desc_interface_t;
 399:lib/TinyUSB/src/common/tusb_types.h **** 
 400:lib/TinyUSB/src/common/tusb_types.h **** TU_VERIFY_STATIC( sizeof(tusb_desc_interface_t) == 9u, "size is not correct");
 401:lib/TinyUSB/src/common/tusb_types.h **** 
 402:lib/TinyUSB/src/common/tusb_types.h **** /// USB Endpoint Descriptor
 403:lib/TinyUSB/src/common/tusb_types.h **** typedef struct TU_ATTR_PACKED {
 404:lib/TinyUSB/src/common/tusb_types.h ****   uint8_t  bLength          ; // Size of this descriptor in bytes
 405:lib/TinyUSB/src/common/tusb_types.h ****   uint8_t  bDescriptorType  ; // ENDPOINT Descriptor Type
 406:lib/TinyUSB/src/common/tusb_types.h **** 
 407:lib/TinyUSB/src/common/tusb_types.h ****   uint8_t  bEndpointAddress ; // The address of the endpoint
 408:lib/TinyUSB/src/common/tusb_types.h **** 
 409:lib/TinyUSB/src/common/tusb_types.h ****   struct TU_ATTR_PACKED {
 410:lib/TinyUSB/src/common/tusb_types.h ****     uint8_t xfer  : 2;        // Control, ISO, Bulk, Interrupt
 411:lib/TinyUSB/src/common/tusb_types.h ****     uint8_t sync  : 2;        // None, Asynchronous, Adaptive, Synchronous
 412:lib/TinyUSB/src/common/tusb_types.h ****     uint8_t usage : 2;        // Data, Feedback, Implicit feedback
 413:lib/TinyUSB/src/common/tusb_types.h ****     uint8_t       : 2;
 414:lib/TinyUSB/src/common/tusb_types.h ****   } bmAttributes;
 415:lib/TinyUSB/src/common/tusb_types.h **** 
 416:lib/TinyUSB/src/common/tusb_types.h ****   uint16_t wMaxPacketSize   ; // Bit 10..0 : max packet size, bit 12..11 additional transaction per
 417:lib/TinyUSB/src/common/tusb_types.h ****   uint8_t  bInterval        ; // Polling interval, in frames or microframes depending on the operat
 418:lib/TinyUSB/src/common/tusb_types.h **** } tusb_desc_endpoint_t;
 419:lib/TinyUSB/src/common/tusb_types.h **** 
 420:lib/TinyUSB/src/common/tusb_types.h **** TU_VERIFY_STATIC( sizeof(tusb_desc_endpoint_t) == 7u, "size is not correct");
 421:lib/TinyUSB/src/common/tusb_types.h **** 
 422:lib/TinyUSB/src/common/tusb_types.h **** /// USB Other Speed Configuration Descriptor
 423:lib/TinyUSB/src/common/tusb_types.h **** typedef struct TU_ATTR_PACKED {
 424:lib/TinyUSB/src/common/tusb_types.h ****   uint8_t  bLength             ; ///< Size of descriptor
 425:lib/TinyUSB/src/common/tusb_types.h ****   uint8_t  bDescriptorType     ; ///< Other_speed_Configuration Type
 426:lib/TinyUSB/src/common/tusb_types.h ****   uint16_t wTotalLength        ; ///< Total length of data returned
 427:lib/TinyUSB/src/common/tusb_types.h **** 
 428:lib/TinyUSB/src/common/tusb_types.h ****   uint8_t  bNumInterfaces      ; ///< Number of interfaces supported by this speed configuration
 429:lib/TinyUSB/src/common/tusb_types.h ****   uint8_t  bConfigurationValue ; ///< Value to use to select configuration
 430:lib/TinyUSB/src/common/tusb_types.h ****   uint8_t  iConfiguration      ; ///< Index of string descriptor
 431:lib/TinyUSB/src/common/tusb_types.h ****   uint8_t  bmAttributes        ; ///< Same as Configuration descriptor
 432:lib/TinyUSB/src/common/tusb_types.h ****   uint8_t  bMaxPower           ; ///< Same as Configuration descriptor
 433:lib/TinyUSB/src/common/tusb_types.h **** } tusb_desc_other_speed_t;
 434:lib/TinyUSB/src/common/tusb_types.h **** 
 435:lib/TinyUSB/src/common/tusb_types.h **** /// USB Device Qualifier Descriptor
 436:lib/TinyUSB/src/common/tusb_types.h **** typedef struct TU_ATTR_PACKED {
 437:lib/TinyUSB/src/common/tusb_types.h ****   uint8_t  bLength            ; ///< Size of descriptor
 438:lib/TinyUSB/src/common/tusb_types.h ****   uint8_t  bDescriptorType    ; ///< Device Qualifier Type
 439:lib/TinyUSB/src/common/tusb_types.h ****   uint16_t bcdUSB             ; ///< USB specification version number (e.g., 0200H for V2.00)
 440:lib/TinyUSB/src/common/tusb_types.h **** 
 441:lib/TinyUSB/src/common/tusb_types.h ****   uint8_t  bDeviceClass       ; ///< Class Code
 442:lib/TinyUSB/src/common/tusb_types.h ****   uint8_t  bDeviceSubClass    ; ///< SubClass Code
 443:lib/TinyUSB/src/common/tusb_types.h ****   uint8_t  bDeviceProtocol    ; ///< Protocol Code
 444:lib/TinyUSB/src/common/tusb_types.h **** 
 445:lib/TinyUSB/src/common/tusb_types.h ****   uint8_t  bMaxPacketSize0    ; ///< Maximum packet size for other speed
 446:lib/TinyUSB/src/common/tusb_types.h ****   uint8_t  bNumConfigurations ; ///< Number of Other-speed Configurations
 447:lib/TinyUSB/src/common/tusb_types.h ****   uint8_t  bReserved          ; ///< Reserved for future use, must be zero
 448:lib/TinyUSB/src/common/tusb_types.h **** } tusb_desc_device_qualifier_t;
 449:lib/TinyUSB/src/common/tusb_types.h **** 
 450:lib/TinyUSB/src/common/tusb_types.h **** TU_VERIFY_STATIC( sizeof(tusb_desc_device_qualifier_t) == 10u, "size is not correct");
 451:lib/TinyUSB/src/common/tusb_types.h **** 
 452:lib/TinyUSB/src/common/tusb_types.h **** /// USB Interface Association Descriptor (IAD ECN)
 453:lib/TinyUSB/src/common/tusb_types.h **** typedef struct TU_ATTR_PACKED {
 454:lib/TinyUSB/src/common/tusb_types.h ****   uint8_t bLength           ; ///< Size of descriptor
ARM GAS  C:\Users\krisa\AppData\Local\Temp\ccBxAPKY.s 			page 28


 455:lib/TinyUSB/src/common/tusb_types.h ****   uint8_t bDescriptorType   ; ///< Other_speed_Configuration Type
 456:lib/TinyUSB/src/common/tusb_types.h **** 
 457:lib/TinyUSB/src/common/tusb_types.h ****   uint8_t bFirstInterface   ; ///< Index of the first associated interface.
 458:lib/TinyUSB/src/common/tusb_types.h ****   uint8_t bInterfaceCount   ; ///< Total number of associated interfaces.
 459:lib/TinyUSB/src/common/tusb_types.h **** 
 460:lib/TinyUSB/src/common/tusb_types.h ****   uint8_t bFunctionClass    ; ///< Interface class ID.
 461:lib/TinyUSB/src/common/tusb_types.h ****   uint8_t bFunctionSubClass ; ///< Interface subclass ID.
 462:lib/TinyUSB/src/common/tusb_types.h ****   uint8_t bFunctionProtocol ; ///< Interface protocol ID.
 463:lib/TinyUSB/src/common/tusb_types.h **** 
 464:lib/TinyUSB/src/common/tusb_types.h ****   uint8_t iFunction         ; ///< Index of the string descriptor describing the interface associat
 465:lib/TinyUSB/src/common/tusb_types.h **** } tusb_desc_interface_assoc_t;
 466:lib/TinyUSB/src/common/tusb_types.h **** 
 467:lib/TinyUSB/src/common/tusb_types.h **** TU_VERIFY_STATIC( sizeof(tusb_desc_interface_assoc_t) == 8u, "size is not correct");
 468:lib/TinyUSB/src/common/tusb_types.h **** 
 469:lib/TinyUSB/src/common/tusb_types.h **** // USB String Descriptor
 470:lib/TinyUSB/src/common/tusb_types.h **** typedef struct TU_ATTR_PACKED {
 471:lib/TinyUSB/src/common/tusb_types.h ****   uint8_t  bLength         ; ///< Size of this descriptor in bytes
 472:lib/TinyUSB/src/common/tusb_types.h ****   uint8_t  bDescriptorType ; ///< Descriptor Type
 473:lib/TinyUSB/src/common/tusb_types.h ****   uint16_t utf16le[];
 474:lib/TinyUSB/src/common/tusb_types.h **** } tusb_desc_string_t;
 475:lib/TinyUSB/src/common/tusb_types.h **** 
 476:lib/TinyUSB/src/common/tusb_types.h **** // USB Binary Device Object Store (BOS)
 477:lib/TinyUSB/src/common/tusb_types.h **** typedef struct TU_ATTR_PACKED {
 478:lib/TinyUSB/src/common/tusb_types.h ****   uint8_t bLength;
 479:lib/TinyUSB/src/common/tusb_types.h ****   uint8_t bDescriptorType ;
 480:lib/TinyUSB/src/common/tusb_types.h ****   uint8_t bDevCapabilityType;
 481:lib/TinyUSB/src/common/tusb_types.h ****   uint8_t bReserved;
 482:lib/TinyUSB/src/common/tusb_types.h ****   uint8_t PlatformCapabilityUUID[16];
 483:lib/TinyUSB/src/common/tusb_types.h ****   uint8_t CapabilityData[];
 484:lib/TinyUSB/src/common/tusb_types.h **** } tusb_desc_bos_platform_t;
 485:lib/TinyUSB/src/common/tusb_types.h **** 
 486:lib/TinyUSB/src/common/tusb_types.h **** // USB WebUSB URL Descriptor
 487:lib/TinyUSB/src/common/tusb_types.h **** typedef struct TU_ATTR_PACKED {
 488:lib/TinyUSB/src/common/tusb_types.h ****   uint8_t bLength;
 489:lib/TinyUSB/src/common/tusb_types.h ****   uint8_t bDescriptorType;
 490:lib/TinyUSB/src/common/tusb_types.h ****   uint8_t bScheme;
 491:lib/TinyUSB/src/common/tusb_types.h ****   char    url[];
 492:lib/TinyUSB/src/common/tusb_types.h **** } tusb_desc_webusb_url_t;
 493:lib/TinyUSB/src/common/tusb_types.h **** 
 494:lib/TinyUSB/src/common/tusb_types.h **** // DFU Functional Descriptor
 495:lib/TinyUSB/src/common/tusb_types.h **** typedef struct TU_ATTR_PACKED {
 496:lib/TinyUSB/src/common/tusb_types.h ****   uint8_t  bLength;
 497:lib/TinyUSB/src/common/tusb_types.h ****   uint8_t  bDescriptorType;
 498:lib/TinyUSB/src/common/tusb_types.h **** 
 499:lib/TinyUSB/src/common/tusb_types.h ****   union {
 500:lib/TinyUSB/src/common/tusb_types.h ****     struct TU_ATTR_PACKED {
 501:lib/TinyUSB/src/common/tusb_types.h ****       uint8_t bitCanDnload             : 1;
 502:lib/TinyUSB/src/common/tusb_types.h ****       uint8_t bitCanUpload             : 1;
 503:lib/TinyUSB/src/common/tusb_types.h ****       uint8_t bitManifestationTolerant : 1;
 504:lib/TinyUSB/src/common/tusb_types.h ****       uint8_t bitWillDetach            : 1;
 505:lib/TinyUSB/src/common/tusb_types.h ****       uint8_t reserved                 : 4;
 506:lib/TinyUSB/src/common/tusb_types.h ****     } bmAttributes;
 507:lib/TinyUSB/src/common/tusb_types.h **** 
 508:lib/TinyUSB/src/common/tusb_types.h ****     uint8_t bAttributes;
 509:lib/TinyUSB/src/common/tusb_types.h ****   };
 510:lib/TinyUSB/src/common/tusb_types.h **** 
 511:lib/TinyUSB/src/common/tusb_types.h ****   uint16_t wDetachTimeOut;
ARM GAS  C:\Users\krisa\AppData\Local\Temp\ccBxAPKY.s 			page 29


 512:lib/TinyUSB/src/common/tusb_types.h ****   uint16_t wTransferSize;
 513:lib/TinyUSB/src/common/tusb_types.h ****   uint16_t bcdDFUVersion;
 514:lib/TinyUSB/src/common/tusb_types.h **** } tusb_desc_dfu_functional_t;
 515:lib/TinyUSB/src/common/tusb_types.h **** 
 516:lib/TinyUSB/src/common/tusb_types.h **** //--------------------------------------------------------------------+
 517:lib/TinyUSB/src/common/tusb_types.h **** //
 518:lib/TinyUSB/src/common/tusb_types.h **** //--------------------------------------------------------------------+
 519:lib/TinyUSB/src/common/tusb_types.h **** 
 520:lib/TinyUSB/src/common/tusb_types.h **** typedef struct TU_ATTR_PACKED {
 521:lib/TinyUSB/src/common/tusb_types.h ****   union {
 522:lib/TinyUSB/src/common/tusb_types.h ****     struct TU_ATTR_PACKED {
 523:lib/TinyUSB/src/common/tusb_types.h ****       uint8_t recipient :  5; ///< Recipient type tusb_request_recipient_t.
 524:lib/TinyUSB/src/common/tusb_types.h ****       uint8_t type      :  2; ///< Request type tusb_request_type_t.
 525:lib/TinyUSB/src/common/tusb_types.h ****       uint8_t direction :  1; ///< Direction type. tusb_dir_t
 526:lib/TinyUSB/src/common/tusb_types.h ****     } bmRequestType_bit;
 527:lib/TinyUSB/src/common/tusb_types.h **** 
 528:lib/TinyUSB/src/common/tusb_types.h ****     uint8_t bmRequestType;
 529:lib/TinyUSB/src/common/tusb_types.h ****   };
 530:lib/TinyUSB/src/common/tusb_types.h **** 
 531:lib/TinyUSB/src/common/tusb_types.h ****   uint8_t  bRequest;
 532:lib/TinyUSB/src/common/tusb_types.h ****   uint16_t wValue;
 533:lib/TinyUSB/src/common/tusb_types.h ****   uint16_t wIndex;
 534:lib/TinyUSB/src/common/tusb_types.h ****   uint16_t wLength;
 535:lib/TinyUSB/src/common/tusb_types.h **** } tusb_control_request_t;
 536:lib/TinyUSB/src/common/tusb_types.h **** 
 537:lib/TinyUSB/src/common/tusb_types.h **** TU_VERIFY_STATIC( sizeof(tusb_control_request_t) == 8u, "size is not correct");
 538:lib/TinyUSB/src/common/tusb_types.h **** 
 539:lib/TinyUSB/src/common/tusb_types.h **** TU_ATTR_PACKED_END  // End of all packed definitions
 540:lib/TinyUSB/src/common/tusb_types.h **** TU_ATTR_BIT_FIELD_ORDER_END
 541:lib/TinyUSB/src/common/tusb_types.h **** 
 542:lib/TinyUSB/src/common/tusb_types.h **** //--------------------------------------------------------------------+
 543:lib/TinyUSB/src/common/tusb_types.h **** // Endpoint helper
 544:lib/TinyUSB/src/common/tusb_types.h **** //--------------------------------------------------------------------+
 545:lib/TinyUSB/src/common/tusb_types.h **** 
 546:lib/TinyUSB/src/common/tusb_types.h **** // Get direction from Endpoint address
 547:lib/TinyUSB/src/common/tusb_types.h **** TU_ATTR_ALWAYS_INLINE static inline tusb_dir_t tu_edpt_dir(uint8_t addr) {
 648              		.loc 3 547 48 view .LVU163
 649              	.LBB50:
 548:lib/TinyUSB/src/common/tusb_types.h ****   return (addr & TUSB_DIR_IN_MASK) ? TUSB_DIR_IN : TUSB_DIR_OUT;
 650              		.loc 3 548 3 view .LVU164
 651              		.loc 3 548 3 is_stmt 0 view .LVU165
 652              	.LBE50:
 653              	.LBE49:
 654              		.loc 1 156 67 view .LVU166
 655 0008 394B     		ldr	r3, .L64
 656              	.LVL45:
 657              		.loc 1 156 67 view .LVU167
 658 000a 1B78     		ldrb	r3, [r3]	@ zero_extendqisi2
 659 000c DB09     		lsrs	r3, r3, #7
 660              		.loc 1 156 6 view .LVU168
 661 000e B3EBD11F 		cmp	r3, r1, lsr #7
 662 0012 17D0     		beq	.L47
 157:lib/TinyUSB/src/device/usbd_control.c ****     TU_ASSERT(0 == xferred_bytes);
 663              		.loc 1 157 5 is_stmt 1 view .LVU169
 664              		.loc 1 157 5 view .LVU170
 665 0014 54B1     		cbz	r4, .L48
 666              		.loc 1 157 5 discriminator 1 view .LVU171
ARM GAS  C:\Users\krisa\AppData\Local\Temp\ccBxAPKY.s 			page 30


 667              		.loc 1 157 5 discriminator 1 view .LVU172
 668              		.loc 1 157 5 discriminator 1 view .LVU173
 669              		.loc 1 157 5 discriminator 1 view .LVU174
 670              	.LBB51:
 671              		.loc 1 157 5 discriminator 1 view .LVU175
 672              	.LVL46:
 673              		.loc 1 157 5 discriminator 1 view .LVU176
 674 0016 4FF0E023 		mov	r3, #-536813568
 675 001a D3F8F03D 		ldr	r3, [r3, #3568]
 676 001e 13F0010F 		tst	r3, #1
 677 0022 00D0     		beq	.L49
 678              		.loc 1 157 5 discriminator 3 view .LVU177
 679              		.syntax unified
 680              	@ 157 "lib/TinyUSB/src/device/usbd_control.c" 1
 681 0024 00BE     		BKPT #0
 682              	
 683              	@ 0 "" 2
 684              		.thumb
 685              		.syntax unified
 686              	.L49:
 687              	.LBE51:
 688              		.loc 1 157 5 discriminator 5 view .LVU178
 689              		.loc 1 157 5 discriminator 5 view .LVU179
 690 0026 0020     		movs	r0, #0
 691              	.LVL47:
 692              	.L50:
 158:lib/TinyUSB/src/device/usbd_control.c **** 
 159:lib/TinyUSB/src/device/usbd_control.c ****     // invoke optional dcd hook if available
 160:lib/TinyUSB/src/device/usbd_control.c ****     dcd_edpt0_status_complete(rhport, &_ctrl_xfer.request);
 161:lib/TinyUSB/src/device/usbd_control.c **** 
 162:lib/TinyUSB/src/device/usbd_control.c ****     if (NULL != _ctrl_xfer.complete_cb) {
 163:lib/TinyUSB/src/device/usbd_control.c ****       // TODO refactor with usbd_driver_print_control_complete_name
 164:lib/TinyUSB/src/device/usbd_control.c ****       _ctrl_xfer.complete_cb(rhport, CONTROL_STAGE_ACK, &_ctrl_xfer.request);
 165:lib/TinyUSB/src/device/usbd_control.c ****     }
 166:lib/TinyUSB/src/device/usbd_control.c **** 
 167:lib/TinyUSB/src/device/usbd_control.c ****     return true;
 168:lib/TinyUSB/src/device/usbd_control.c ****   }
 169:lib/TinyUSB/src/device/usbd_control.c **** 
 170:lib/TinyUSB/src/device/usbd_control.c ****   if (_ctrl_xfer.request.bmRequestType_bit.direction == TUSB_DIR_OUT) {
 171:lib/TinyUSB/src/device/usbd_control.c ****     TU_VERIFY(_ctrl_xfer.buffer);
 172:lib/TinyUSB/src/device/usbd_control.c ****     memcpy(_ctrl_xfer.buffer, _ctrl_epbuf.buf, xferred_bytes);
 173:lib/TinyUSB/src/device/usbd_control.c ****     TU_LOG_MEM(CFG_TUD_LOG_LEVEL, _ctrl_xfer.buffer, xferred_bytes, 2);
 174:lib/TinyUSB/src/device/usbd_control.c ****   }
 175:lib/TinyUSB/src/device/usbd_control.c **** 
 176:lib/TinyUSB/src/device/usbd_control.c ****   _ctrl_xfer.total_xferred += (uint16_t) xferred_bytes;
 177:lib/TinyUSB/src/device/usbd_control.c ****   _ctrl_xfer.buffer += xferred_bytes;
 178:lib/TinyUSB/src/device/usbd_control.c **** 
 179:lib/TinyUSB/src/device/usbd_control.c ****   // Data Stage is complete when all request's length are transferred or
 180:lib/TinyUSB/src/device/usbd_control.c ****   // a short packet is sent including zero-length packet.
 181:lib/TinyUSB/src/device/usbd_control.c ****   if ((_ctrl_xfer.request.wLength == _ctrl_xfer.total_xferred) ||
 182:lib/TinyUSB/src/device/usbd_control.c ****       (xferred_bytes < CFG_TUD_ENDPOINT0_BUFSIZE)) {
 183:lib/TinyUSB/src/device/usbd_control.c ****     // DATA stage is complete
 184:lib/TinyUSB/src/device/usbd_control.c ****     bool is_ok = true;
 185:lib/TinyUSB/src/device/usbd_control.c **** 
 186:lib/TinyUSB/src/device/usbd_control.c ****     // invoke complete callback if set
 187:lib/TinyUSB/src/device/usbd_control.c ****     // callback can still stall control in status phase e.g out data does not make sense
 188:lib/TinyUSB/src/device/usbd_control.c ****     if (NULL != _ctrl_xfer.complete_cb) {
ARM GAS  C:\Users\krisa\AppData\Local\Temp\ccBxAPKY.s 			page 31


 189:lib/TinyUSB/src/device/usbd_control.c ****       #if CFG_TUSB_DEBUG >= CFG_TUD_LOG_LEVEL
 190:lib/TinyUSB/src/device/usbd_control.c ****       usbd_driver_print_control_complete_name(_ctrl_xfer.complete_cb);
 191:lib/TinyUSB/src/device/usbd_control.c ****       #endif
 192:lib/TinyUSB/src/device/usbd_control.c **** 
 193:lib/TinyUSB/src/device/usbd_control.c ****       is_ok = _ctrl_xfer.complete_cb(rhport, CONTROL_STAGE_DATA, &_ctrl_xfer.request);
 194:lib/TinyUSB/src/device/usbd_control.c ****     }
 195:lib/TinyUSB/src/device/usbd_control.c **** 
 196:lib/TinyUSB/src/device/usbd_control.c ****     if (is_ok) {
 197:lib/TinyUSB/src/device/usbd_control.c ****       TU_ASSERT(status_stage_xact(rhport, &_ctrl_xfer.request));
 198:lib/TinyUSB/src/device/usbd_control.c ****     } else {
 199:lib/TinyUSB/src/device/usbd_control.c ****       // Stall both IN and OUT control endpoint
 200:lib/TinyUSB/src/device/usbd_control.c ****       dcd_edpt_stall(rhport, EDPT_CTRL_OUT);
 201:lib/TinyUSB/src/device/usbd_control.c ****       dcd_edpt_stall(rhport, EDPT_CTRL_IN);
 202:lib/TinyUSB/src/device/usbd_control.c ****     }
 203:lib/TinyUSB/src/device/usbd_control.c ****   } else {
 204:lib/TinyUSB/src/device/usbd_control.c ****     // More data to transfer
 205:lib/TinyUSB/src/device/usbd_control.c ****     TU_ASSERT(data_stage_xact(rhport));
 206:lib/TinyUSB/src/device/usbd_control.c ****   }
 207:lib/TinyUSB/src/device/usbd_control.c **** 
 208:lib/TinyUSB/src/device/usbd_control.c ****   return true;
 209:lib/TinyUSB/src/device/usbd_control.c **** }
 693              		.loc 1 209 1 is_stmt 0 view .LVU180
 694 0028 03B0     		add	sp, sp, #12
 695              	.LCFI13:
 696              		.cfi_remember_state
 697              		.cfi_def_cfa_offset 12
 698              		@ sp needed
 699 002a 30BD     		pop	{r4, r5, pc}
 700              	.LVL48:
 701              	.L48:
 702              	.LCFI14:
 703              		.cfi_restore_state
 157:lib/TinyUSB/src/device/usbd_control.c ****     TU_ASSERT(0 == xferred_bytes);
 704              		.loc 1 157 5 is_stmt 1 discriminator 2 view .LVU181
 160:lib/TinyUSB/src/device/usbd_control.c **** 
 705              		.loc 1 160 5 discriminator 2 view .LVU182
 706 002c 304C     		ldr	r4, .L64
 707              	.LVL49:
 160:lib/TinyUSB/src/device/usbd_control.c **** 
 708              		.loc 1 160 5 is_stmt 0 discriminator 2 view .LVU183
 709 002e 2146     		mov	r1, r4
 710              	.LVL50:
 160:lib/TinyUSB/src/device/usbd_control.c **** 
 711              		.loc 1 160 5 discriminator 2 view .LVU184
 712 0030 FFF7FEFF 		bl	dcd_edpt0_status_complete
 713              	.LVL51:
 162:lib/TinyUSB/src/device/usbd_control.c ****       // TODO refactor with usbd_driver_print_control_complete_name
 714              		.loc 1 162 5 is_stmt 1 discriminator 2 view .LVU185
 162:lib/TinyUSB/src/device/usbd_control.c ****       // TODO refactor with usbd_driver_print_control_complete_name
 715              		.loc 1 162 27 is_stmt 0 discriminator 2 view .LVU186
 716 0034 2369     		ldr	r3, [r4, #16]
 162:lib/TinyUSB/src/device/usbd_control.c ****       // TODO refactor with usbd_driver_print_control_complete_name
 717              		.loc 1 162 8 discriminator 2 view .LVU187
 718 0036 1BB1     		cbz	r3, .L51
 164:lib/TinyUSB/src/device/usbd_control.c ****     }
 719              		.loc 1 164 7 is_stmt 1 view .LVU188
 720 0038 2246     		mov	r2, r4
ARM GAS  C:\Users\krisa\AppData\Local\Temp\ccBxAPKY.s 			page 32


 721 003a 0321     		movs	r1, #3
 722 003c 2846     		mov	r0, r5
 723 003e 9847     		blx	r3
 724              	.LVL52:
 725              	.L51:
 167:lib/TinyUSB/src/device/usbd_control.c ****   }
 726              		.loc 1 167 5 view .LVU189
 167:lib/TinyUSB/src/device/usbd_control.c ****   }
 727              		.loc 1 167 12 is_stmt 0 view .LVU190
 728 0040 0120     		movs	r0, #1
 729 0042 F1E7     		b	.L50
 730              	.LVL53:
 731              	.L47:
 170:lib/TinyUSB/src/device/usbd_control.c ****     TU_VERIFY(_ctrl_xfer.buffer);
 732              		.loc 1 170 3 is_stmt 1 view .LVU191
 170:lib/TinyUSB/src/device/usbd_control.c ****     TU_VERIFY(_ctrl_xfer.buffer);
 733              		.loc 1 170 6 is_stmt 0 view .LVU192
 734 0044 2A4B     		ldr	r3, .L64
 735 0046 93F90030 		ldrsb	r3, [r3]
 736 004a 002B     		cmp	r3, #0
 737 004c 07DB     		blt	.L52
 171:lib/TinyUSB/src/device/usbd_control.c ****     memcpy(_ctrl_xfer.buffer, _ctrl_epbuf.buf, xferred_bytes);
 738              		.loc 1 171 5 is_stmt 1 view .LVU193
 171:lib/TinyUSB/src/device/usbd_control.c ****     memcpy(_ctrl_xfer.buffer, _ctrl_epbuf.buf, xferred_bytes);
 739              		.loc 1 171 5 view .LVU194
 740 004e 284B     		ldr	r3, .L64
 741 0050 9868     		ldr	r0, [r3, #8]
 742              	.LVL54:
 171:lib/TinyUSB/src/device/usbd_control.c ****     memcpy(_ctrl_xfer.buffer, _ctrl_epbuf.buf, xferred_bytes);
 743              		.loc 1 171 5 is_stmt 0 view .LVU195
 744 0052 0028     		cmp	r0, #0
 745 0054 4AD0     		beq	.L60
 171:lib/TinyUSB/src/device/usbd_control.c ****     memcpy(_ctrl_xfer.buffer, _ctrl_epbuf.buf, xferred_bytes);
 746              		.loc 1 171 5 is_stmt 1 discriminator 2 view .LVU196
 172:lib/TinyUSB/src/device/usbd_control.c ****     TU_LOG_MEM(CFG_TUD_LOG_LEVEL, _ctrl_xfer.buffer, xferred_bytes, 2);
 747              		.loc 1 172 5 discriminator 2 view .LVU197
 748 0056 2246     		mov	r2, r4
 749              	.LVL55:
 172:lib/TinyUSB/src/device/usbd_control.c ****     TU_LOG_MEM(CFG_TUD_LOG_LEVEL, _ctrl_xfer.buffer, xferred_bytes, 2);
 750              		.loc 1 172 5 is_stmt 0 discriminator 2 view .LVU198
 751 0058 2649     		ldr	r1, .L64+4
 752              	.LVL56:
 172:lib/TinyUSB/src/device/usbd_control.c ****     TU_LOG_MEM(CFG_TUD_LOG_LEVEL, _ctrl_xfer.buffer, xferred_bytes, 2);
 753              		.loc 1 172 5 discriminator 2 view .LVU199
 754 005a FFF7FEFF 		bl	memcpy
 755              	.LVL57:
 756              	.L52:
 173:lib/TinyUSB/src/device/usbd_control.c ****   }
 757              		.loc 1 173 71 is_stmt 1 view .LVU200
 176:lib/TinyUSB/src/device/usbd_control.c ****   _ctrl_xfer.buffer += xferred_bytes;
 758              		.loc 1 176 3 view .LVU201
 176:lib/TinyUSB/src/device/usbd_control.c ****   _ctrl_xfer.buffer += xferred_bytes;
 759              		.loc 1 176 28 is_stmt 0 view .LVU202
 760 005e 244A     		ldr	r2, .L64
 761 0060 D389     		ldrh	r3, [r2, #14]
 762 0062 13FA84F3 		uxtah	r3, r3, r4
 763 0066 9BB2     		uxth	r3, r3
ARM GAS  C:\Users\krisa\AppData\Local\Temp\ccBxAPKY.s 			page 33


 764 0068 D381     		strh	r3, [r2, #14]	@ movhi
 177:lib/TinyUSB/src/device/usbd_control.c **** 
 765              		.loc 1 177 3 is_stmt 1 view .LVU203
 177:lib/TinyUSB/src/device/usbd_control.c **** 
 766              		.loc 1 177 21 is_stmt 0 view .LVU204
 767 006a 9168     		ldr	r1, [r2, #8]
 768 006c 2144     		add	r1, r1, r4
 769 006e 9160     		str	r1, [r2, #8]
 181:lib/TinyUSB/src/device/usbd_control.c ****       (xferred_bytes < CFG_TUD_ENDPOINT0_BUFSIZE)) {
 770              		.loc 1 181 3 is_stmt 1 view .LVU205
 181:lib/TinyUSB/src/device/usbd_control.c ****       (xferred_bytes < CFG_TUD_ENDPOINT0_BUFSIZE)) {
 771              		.loc 1 181 26 is_stmt 0 view .LVU206
 772 0070 D288     		ldrh	r2, [r2, #6]
 181:lib/TinyUSB/src/device/usbd_control.c ****       (xferred_bytes < CFG_TUD_ENDPOINT0_BUFSIZE)) {
 773              		.loc 1 181 6 view .LVU207
 774 0072 9342     		cmp	r3, r2
 775 0074 01D0     		beq	.L53
 181:lib/TinyUSB/src/device/usbd_control.c ****       (xferred_bytes < CFG_TUD_ENDPOINT0_BUFSIZE)) {
 776              		.loc 1 181 64 discriminator 1 view .LVU208
 777 0076 3F2C     		cmp	r4, #63
 778 0078 2AD8     		bhi	.L54
 779              	.L53:
 780              	.LBB52:
 184:lib/TinyUSB/src/device/usbd_control.c **** 
 781              		.loc 1 184 5 is_stmt 1 view .LVU209
 782              	.LVL58:
 188:lib/TinyUSB/src/device/usbd_control.c ****       #if CFG_TUSB_DEBUG >= CFG_TUD_LOG_LEVEL
 783              		.loc 1 188 5 view .LVU210
 188:lib/TinyUSB/src/device/usbd_control.c ****       #if CFG_TUSB_DEBUG >= CFG_TUD_LOG_LEVEL
 784              		.loc 1 188 27 is_stmt 0 view .LVU211
 785 007a 1D4B     		ldr	r3, .L64
 786 007c 1B69     		ldr	r3, [r3, #16]
 188:lib/TinyUSB/src/device/usbd_control.c ****       #if CFG_TUSB_DEBUG >= CFG_TUD_LOG_LEVEL
 787              		.loc 1 188 8 view .LVU212
 788 007e 23B1     		cbz	r3, .L55
 193:lib/TinyUSB/src/device/usbd_control.c ****     }
 789              		.loc 1 193 7 is_stmt 1 view .LVU213
 193:lib/TinyUSB/src/device/usbd_control.c ****     }
 790              		.loc 1 193 15 is_stmt 0 view .LVU214
 791 0080 1B4A     		ldr	r2, .L64
 792 0082 0221     		movs	r1, #2
 793 0084 2846     		mov	r0, r5
 794 0086 9847     		blx	r3
 795              	.LVL59:
 196:lib/TinyUSB/src/device/usbd_control.c ****       TU_ASSERT(status_stage_xact(rhport, &_ctrl_xfer.request));
 796              		.loc 1 196 5 is_stmt 1 view .LVU215
 196:lib/TinyUSB/src/device/usbd_control.c ****       TU_ASSERT(status_stage_xact(rhport, &_ctrl_xfer.request));
 797              		.loc 1 196 8 is_stmt 0 view .LVU216
 798 0088 C0B1     		cbz	r0, .L56
 799              	.LVL60:
 800              	.L55:
 197:lib/TinyUSB/src/device/usbd_control.c ****     } else {
 801              		.loc 1 197 7 is_stmt 1 view .LVU217
 197:lib/TinyUSB/src/device/usbd_control.c ****     } else {
 802              		.loc 1 197 7 view .LVU218
 803              	.LBB53:
 804              	.LBI53:
ARM GAS  C:\Users\krisa\AppData\Local\Temp\ccBxAPKY.s 			page 34


  71:lib/TinyUSB/src/device/usbd_control.c ****   // Opposite to endpoint in Data Phase
 805              		.loc 1 71 20 view .LVU219
 806              	.LBB54:
  73:lib/TinyUSB/src/device/usbd_control.c ****   return usbd_edpt_xfer(rhport, ep_addr, NULL, 0, false);
 807              		.loc 1 73 3 view .LVU220
  73:lib/TinyUSB/src/device/usbd_control.c ****   return usbd_edpt_xfer(rhport, ep_addr, NULL, 0, false);
 808              		.loc 1 73 17 is_stmt 0 view .LVU221
 809 008a 194B     		ldr	r3, .L64
 810 008c 93F90030 		ldrsb	r3, [r3]
 811 0090 002B     		cmp	r3, #0
 812 0092 11DB     		blt	.L63
 813 0094 8021     		movs	r1, #128
 814              	.L57:
 815              	.LVL61:
  74:lib/TinyUSB/src/device/usbd_control.c **** }
 816              		.loc 1 74 3 is_stmt 1 view .LVU222
  74:lib/TinyUSB/src/device/usbd_control.c **** }
 817              		.loc 1 74 10 is_stmt 0 view .LVU223
 818 0096 0022     		movs	r2, #0
 819 0098 0092     		str	r2, [sp]
 820 009a 1346     		mov	r3, r2
 821 009c 2846     		mov	r0, r5
 822 009e FFF7FEFF 		bl	usbd_edpt_xfer
 823              	.LVL62:
  74:lib/TinyUSB/src/device/usbd_control.c **** }
 824              		.loc 1 74 10 view .LVU224
 825              	.LBE54:
 826              	.LBE53:
 197:lib/TinyUSB/src/device/usbd_control.c ****     } else {
 827              		.loc 1 197 7 view .LVU225
 828 00a2 0028     		cmp	r0, #0
 829 00a4 C0D1     		bne	.L50
 197:lib/TinyUSB/src/device/usbd_control.c ****     } else {
 830              		.loc 1 197 7 is_stmt 1 discriminator 1 view .LVU226
 197:lib/TinyUSB/src/device/usbd_control.c ****     } else {
 831              		.loc 1 197 7 discriminator 1 view .LVU227
 197:lib/TinyUSB/src/device/usbd_control.c ****     } else {
 832              		.loc 1 197 7 discriminator 1 view .LVU228
 197:lib/TinyUSB/src/device/usbd_control.c ****     } else {
 833              		.loc 1 197 7 discriminator 1 view .LVU229
 834              	.LBB56:
 197:lib/TinyUSB/src/device/usbd_control.c ****     } else {
 835              		.loc 1 197 7 discriminator 1 view .LVU230
 836              	.LVL63:
 197:lib/TinyUSB/src/device/usbd_control.c ****     } else {
 837              		.loc 1 197 7 discriminator 1 view .LVU231
 838 00a6 4FF0E023 		mov	r3, #-536813568
 839 00aa D3F8F03D 		ldr	r3, [r3, #3568]
 840 00ae 13F0010F 		tst	r3, #1
 841 00b2 B9D0     		beq	.L50
 197:lib/TinyUSB/src/device/usbd_control.c ****     } else {
 842              		.loc 1 197 7 discriminator 3 view .LVU232
 843              		.syntax unified
 844              	@ 197 "lib/TinyUSB/src/device/usbd_control.c" 1
 845 00b4 00BE     		BKPT #0
 846              	
 847              	@ 0 "" 2
ARM GAS  C:\Users\krisa\AppData\Local\Temp\ccBxAPKY.s 			page 35


 848              		.thumb
 849              		.syntax unified
 850              	.LBE56:
 197:lib/TinyUSB/src/device/usbd_control.c ****     } else {
 851              		.loc 1 197 7 discriminator 3 view .LVU233
 197:lib/TinyUSB/src/device/usbd_control.c ****     } else {
 852              		.loc 1 197 7 discriminator 3 view .LVU234
 853 00b6 B7E7     		b	.L50
 854              	.LVL64:
 855              	.L63:
 856              	.LBB57:
 857              	.LBB55:
  73:lib/TinyUSB/src/device/usbd_control.c ****   return usbd_edpt_xfer(rhport, ep_addr, NULL, 0, false);
 858              		.loc 1 73 17 is_stmt 0 view .LVU235
 859 00b8 0021     		movs	r1, #0
 860 00ba ECE7     		b	.L57
 861              	.LVL65:
 862              	.L56:
  73:lib/TinyUSB/src/device/usbd_control.c ****   return usbd_edpt_xfer(rhport, ep_addr, NULL, 0, false);
 863              		.loc 1 73 17 view .LVU236
 864              	.LBE55:
 865              	.LBE57:
 200:lib/TinyUSB/src/device/usbd_control.c ****       dcd_edpt_stall(rhport, EDPT_CTRL_IN);
 866              		.loc 1 200 7 is_stmt 1 view .LVU237
 867 00bc 0021     		movs	r1, #0
 868 00be 2846     		mov	r0, r5
 869              	.LVL66:
 200:lib/TinyUSB/src/device/usbd_control.c ****       dcd_edpt_stall(rhport, EDPT_CTRL_IN);
 870              		.loc 1 200 7 is_stmt 0 view .LVU238
 871 00c0 FFF7FEFF 		bl	dcd_edpt_stall
 872              	.LVL67:
 201:lib/TinyUSB/src/device/usbd_control.c ****     }
 873              		.loc 1 201 7 is_stmt 1 view .LVU239
 874 00c4 8021     		movs	r1, #128
 875 00c6 2846     		mov	r0, r5
 876 00c8 FFF7FEFF 		bl	dcd_edpt_stall
 877              	.LVL68:
 878              	.LBE52:
 208:lib/TinyUSB/src/device/usbd_control.c **** }
 879              		.loc 1 208 10 is_stmt 0 view .LVU240
 880 00cc 0120     		movs	r0, #1
 881 00ce ABE7     		b	.L50
 882              	.L54:
 205:lib/TinyUSB/src/device/usbd_control.c ****   }
 883              		.loc 1 205 5 is_stmt 1 view .LVU241
 205:lib/TinyUSB/src/device/usbd_control.c ****   }
 884              		.loc 1 205 5 view .LVU242
 885 00d0 2846     		mov	r0, r5
 886 00d2 FFF7FEFF 		bl	data_stage_xact
 887              	.LVL69:
 888 00d6 0028     		cmp	r0, #0
 889 00d8 A6D1     		bne	.L50
 205:lib/TinyUSB/src/device/usbd_control.c ****   }
 890              		.loc 1 205 5 discriminator 1 view .LVU243
 205:lib/TinyUSB/src/device/usbd_control.c ****   }
 891              		.loc 1 205 5 discriminator 1 view .LVU244
 205:lib/TinyUSB/src/device/usbd_control.c ****   }
ARM GAS  C:\Users\krisa\AppData\Local\Temp\ccBxAPKY.s 			page 36


 892              		.loc 1 205 5 discriminator 1 view .LVU245
 205:lib/TinyUSB/src/device/usbd_control.c ****   }
 893              		.loc 1 205 5 discriminator 1 view .LVU246
 894              	.LBB58:
 205:lib/TinyUSB/src/device/usbd_control.c ****   }
 895              		.loc 1 205 5 discriminator 1 view .LVU247
 896              	.LVL70:
 205:lib/TinyUSB/src/device/usbd_control.c ****   }
 897              		.loc 1 205 5 discriminator 1 view .LVU248
 898 00da 4FF0E023 		mov	r3, #-536813568
 899 00de D3F8F03D 		ldr	r3, [r3, #3568]
 900 00e2 13F0010F 		tst	r3, #1
 901 00e6 9FD0     		beq	.L50
 205:lib/TinyUSB/src/device/usbd_control.c ****   }
 902              		.loc 1 205 5 discriminator 3 view .LVU249
 903              		.syntax unified
 904              	@ 205 "lib/TinyUSB/src/device/usbd_control.c" 1
 905 00e8 00BE     		BKPT #0
 906              	
 907              	@ 0 "" 2
 908              		.thumb
 909              		.syntax unified
 910              	.LBE58:
 205:lib/TinyUSB/src/device/usbd_control.c ****   }
 911              		.loc 1 205 5 discriminator 3 view .LVU250
 205:lib/TinyUSB/src/device/usbd_control.c ****   }
 912              		.loc 1 205 5 discriminator 3 view .LVU251
 913 00ea 9DE7     		b	.L50
 914              	.LVL71:
 915              	.L60:
 171:lib/TinyUSB/src/device/usbd_control.c ****     memcpy(_ctrl_xfer.buffer, _ctrl_epbuf.buf, xferred_bytes);
 916              		.loc 1 171 5 is_stmt 0 view .LVU252
 917 00ec 0020     		movs	r0, #0
 918 00ee 9BE7     		b	.L50
 919              	.L65:
 920              		.align	2
 921              	.L64:
 922 00f0 00000000 		.word	.LANCHOR1
 923 00f4 00000000 		.word	.LANCHOR0
 924              		.cfi_endproc
 925              	.LFE123:
 927              		.section	.bss._ctrl_epbuf,"aw",%nobits
 928              		.align	2
 929              		.set	.LANCHOR0,. + 0
 932              	_ctrl_epbuf:
 933 0000 00000000 		.space	64
 933      00000000 
 933      00000000 
 933      00000000 
 933      00000000 
 934              		.section	.bss._ctrl_xfer,"aw",%nobits
 935              		.align	2
 936              		.set	.LANCHOR1,. + 0
 939              	_ctrl_xfer:
 940 0000 00000000 		.space	20
 940      00000000 
 940      00000000 
ARM GAS  C:\Users\krisa\AppData\Local\Temp\ccBxAPKY.s 			page 37


 940      00000000 
 940      00000000 
 941              		.text
 942              	.Letext0:
 943              		.file 4 "c:\\program files (x86)\\gnu arm embedded toolchain\\10 2021.10\\arm-none-eabi\\include\\
 944              		.file 5 "c:\\program files (x86)\\gnu arm embedded toolchain\\10 2021.10\\arm-none-eabi\\include\\
 945              		.file 6 "c:\\program files (x86)\\gnu arm embedded toolchain\\10 2021.10\\lib\\gcc\\arm-none-eabi\
 946              		.file 7 "lib/TinyUSB/src/device/usbd_pvt.h"
 947              		.file 8 "lib/TinyUSB/src/device/dcd.h"
 948              		.file 9 "<built-in>"
ARM GAS  C:\Users\krisa\AppData\Local\Temp\ccBxAPKY.s 			page 38

