ARM GAS  C:\Users\krisa\AppData\Local\Temp\cc7LeJkl.s 			page 1


   1              		.cpu cortex-m4
   2              		.arch armv7e-m
   3              		.fpu fpv4-sp-d16
   4              		.eabi_attribute 27, 1
   5              		.eabi_attribute 28, 1
   6              		.eabi_attribute 20, 1
   7              		.eabi_attribute 21, 1
   8              		.eabi_attribute 23, 3
   9              		.eabi_attribute 24, 1
  10              		.eabi_attribute 25, 1
  11              		.eabi_attribute 26, 1
  12              		.eabi_attribute 30, 1
  13              		.eabi_attribute 34, 1
  14              		.eabi_attribute 18, 4
  15              		.file	"usbd.c"
  16              		.text
  17              	.Ltext0:
  18              		.cfi_sections	.debug_frame
  19              		.section	.text.tud_vendor_control_xfer_cb,"ax",%progbits
  20              		.align	1
  21              		.weak	tud_vendor_control_xfer_cb
  22              		.syntax unified
  23              		.thumb
  24              		.thumb_func
  26              	tud_vendor_control_xfer_cb:
  27              	.LVL0:
  28              	.LFB124:
  29              		.file 1 "lib/TinyUSB/src/device/usbd.c"
   1:lib/TinyUSB/src/device/usbd.c **** /*
   2:lib/TinyUSB/src/device/usbd.c ****  * The MIT License (MIT)
   3:lib/TinyUSB/src/device/usbd.c ****  *
   4:lib/TinyUSB/src/device/usbd.c ****  * Copyright (c) 2019 Ha Thach (tinyusb.org)
   5:lib/TinyUSB/src/device/usbd.c ****  *
   6:lib/TinyUSB/src/device/usbd.c ****  * Permission is hereby granted, free of charge, to any person obtaining a copy
   7:lib/TinyUSB/src/device/usbd.c ****  * of this software and associated documentation files (the "Software"), to deal
   8:lib/TinyUSB/src/device/usbd.c ****  * in the Software without restriction, including without limitation the rights
   9:lib/TinyUSB/src/device/usbd.c ****  * to use, copy, modify, merge, publish, distribute, sublicense, and/or sell
  10:lib/TinyUSB/src/device/usbd.c ****  * copies of the Software, and to permit persons to whom the Software is
  11:lib/TinyUSB/src/device/usbd.c ****  * furnished to do so, subject to the following conditions:
  12:lib/TinyUSB/src/device/usbd.c ****  *
  13:lib/TinyUSB/src/device/usbd.c ****  * The above copyright notice and this permission notice shall be included in
  14:lib/TinyUSB/src/device/usbd.c ****  * all copies or substantial portions of the Software.
  15:lib/TinyUSB/src/device/usbd.c ****  *
  16:lib/TinyUSB/src/device/usbd.c ****  * THE SOFTWARE IS PROVIDED "AS IS", WITHOUT WARRANTY OF ANY KIND, EXPRESS OR
  17:lib/TinyUSB/src/device/usbd.c ****  * IMPLIED, INCLUDING BUT NOT LIMITED TO THE WARRANTIES OF MERCHANTABILITY,
  18:lib/TinyUSB/src/device/usbd.c ****  * FITNESS FOR A PARTICULAR PURPOSE AND NONINFRINGEMENT. IN NO EVENT SHALL THE
  19:lib/TinyUSB/src/device/usbd.c ****  * AUTHORS OR COPYRIGHT HOLDERS BE LIABLE FOR ANY CLAIM, DAMAGES OR OTHER
  20:lib/TinyUSB/src/device/usbd.c ****  * LIABILITY, WHETHER IN AN ACTION OF CONTRACT, TORT OR OTHERWISE, ARISING FROM,
  21:lib/TinyUSB/src/device/usbd.c ****  * OUT OF OR IN CONNECTION WITH THE SOFTWARE OR THE USE OR OTHER DEALINGS IN
  22:lib/TinyUSB/src/device/usbd.c ****  * THE SOFTWARE.
  23:lib/TinyUSB/src/device/usbd.c ****  *
  24:lib/TinyUSB/src/device/usbd.c ****  * This file is part of the TinyUSB stack.
  25:lib/TinyUSB/src/device/usbd.c ****  */
  26:lib/TinyUSB/src/device/usbd.c **** 
  27:lib/TinyUSB/src/device/usbd.c **** #include "tusb_option.h"
  28:lib/TinyUSB/src/device/usbd.c **** 
  29:lib/TinyUSB/src/device/usbd.c **** #if CFG_TUD_ENABLED
ARM GAS  C:\Users\krisa\AppData\Local\Temp\cc7LeJkl.s 			page 2


  30:lib/TinyUSB/src/device/usbd.c **** 
  31:lib/TinyUSB/src/device/usbd.c **** #include "device/dcd.h"
  32:lib/TinyUSB/src/device/usbd.c **** #include "tusb.h"
  33:lib/TinyUSB/src/device/usbd.c **** #include "common/tusb_private.h"
  34:lib/TinyUSB/src/device/usbd.c **** 
  35:lib/TinyUSB/src/device/usbd.c **** #include "device/usbd.h"
  36:lib/TinyUSB/src/device/usbd.c **** #include "device/usbd_pvt.h"
  37:lib/TinyUSB/src/device/usbd.c **** 
  38:lib/TinyUSB/src/device/usbd.c **** //--------------------------------------------------------------------+
  39:lib/TinyUSB/src/device/usbd.c **** // USBD Configuration
  40:lib/TinyUSB/src/device/usbd.c **** //--------------------------------------------------------------------+
  41:lib/TinyUSB/src/device/usbd.c **** #ifndef CFG_TUD_TASK_QUEUE_SZ
  42:lib/TinyUSB/src/device/usbd.c ****   #define CFG_TUD_TASK_QUEUE_SZ   16
  43:lib/TinyUSB/src/device/usbd.c **** #endif
  44:lib/TinyUSB/src/device/usbd.c **** 
  45:lib/TinyUSB/src/device/usbd.c **** //--------------------------------------------------------------------+
  46:lib/TinyUSB/src/device/usbd.c **** // Weak stubs: invoked if no strong implementation is available
  47:lib/TinyUSB/src/device/usbd.c **** //--------------------------------------------------------------------+
  48:lib/TinyUSB/src/device/usbd.c **** TU_ATTR_WEAK void tud_event_hook_cb(uint8_t rhport, uint32_t eventid, bool in_isr) {
  49:lib/TinyUSB/src/device/usbd.c ****   (void) rhport; (void) eventid; (void) in_isr;
  50:lib/TinyUSB/src/device/usbd.c **** }
  51:lib/TinyUSB/src/device/usbd.c **** 
  52:lib/TinyUSB/src/device/usbd.c **** TU_ATTR_WEAK void tud_sof_cb(uint32_t frame_count) {
  53:lib/TinyUSB/src/device/usbd.c ****   (void) frame_count;
  54:lib/TinyUSB/src/device/usbd.c **** }
  55:lib/TinyUSB/src/device/usbd.c **** 
  56:lib/TinyUSB/src/device/usbd.c **** TU_ATTR_WEAK uint8_t const* tud_descriptor_bos_cb(void) {
  57:lib/TinyUSB/src/device/usbd.c ****   return NULL;
  58:lib/TinyUSB/src/device/usbd.c **** }
  59:lib/TinyUSB/src/device/usbd.c **** 
  60:lib/TinyUSB/src/device/usbd.c **** TU_ATTR_WEAK uint8_t const* tud_descriptor_device_qualifier_cb(void) {
  61:lib/TinyUSB/src/device/usbd.c ****   return NULL;
  62:lib/TinyUSB/src/device/usbd.c **** }
  63:lib/TinyUSB/src/device/usbd.c **** 
  64:lib/TinyUSB/src/device/usbd.c **** TU_ATTR_WEAK uint8_t const* tud_descriptor_other_speed_configuration_cb(uint8_t index) {
  65:lib/TinyUSB/src/device/usbd.c ****   (void) index;
  66:lib/TinyUSB/src/device/usbd.c ****   return NULL;
  67:lib/TinyUSB/src/device/usbd.c **** }
  68:lib/TinyUSB/src/device/usbd.c **** 
  69:lib/TinyUSB/src/device/usbd.c **** TU_ATTR_WEAK void tud_mount_cb(void) {
  70:lib/TinyUSB/src/device/usbd.c **** }
  71:lib/TinyUSB/src/device/usbd.c **** 
  72:lib/TinyUSB/src/device/usbd.c **** TU_ATTR_WEAK void tud_umount_cb(void) {
  73:lib/TinyUSB/src/device/usbd.c **** }
  74:lib/TinyUSB/src/device/usbd.c **** 
  75:lib/TinyUSB/src/device/usbd.c **** TU_ATTR_WEAK void tud_suspend_cb(bool remote_wakeup_en) {
  76:lib/TinyUSB/src/device/usbd.c ****   (void) remote_wakeup_en;
  77:lib/TinyUSB/src/device/usbd.c **** }
  78:lib/TinyUSB/src/device/usbd.c **** 
  79:lib/TinyUSB/src/device/usbd.c **** TU_ATTR_WEAK void tud_resume_cb(void) {
  80:lib/TinyUSB/src/device/usbd.c **** }
  81:lib/TinyUSB/src/device/usbd.c **** 
  82:lib/TinyUSB/src/device/usbd.c **** TU_ATTR_WEAK bool tud_vendor_control_xfer_cb(uint8_t rhport, uint8_t stage, tusb_control_request_t 
  30              		.loc 1 82 116 view -0
  31              		.cfi_startproc
  32              		@ args = 0, pretend = 0, frame = 0
  33              		@ frame_needed = 0, uses_anonymous_args = 0
ARM GAS  C:\Users\krisa\AppData\Local\Temp\cc7LeJkl.s 			page 3


  34              		@ link register save eliminated.
  83:lib/TinyUSB/src/device/usbd.c ****   (void) rhport; (void) stage; (void) request;
  35              		.loc 1 83 3 view .LVU1
  36              		.loc 1 83 18 view .LVU2
  37              		.loc 1 83 32 view .LVU3
  84:lib/TinyUSB/src/device/usbd.c ****   return false;
  38              		.loc 1 84 3 view .LVU4
  85:lib/TinyUSB/src/device/usbd.c **** }
  39              		.loc 1 85 1 is_stmt 0 view .LVU5
  40 0000 0020     		movs	r0, #0
  41              	.LVL1:
  42              		.loc 1 85 1 view .LVU6
  43 0002 7047     		bx	lr
  44              		.cfi_endproc
  45              	.LFE124:
  47              		.section	.text.configuration_reset,"ax",%progbits
  48              		.align	1
  49              		.syntax unified
  50              		.thumb
  51              		.thumb_func
  53              	configuration_reset:
  54              	.LVL2:
  55              	.LFB148:
  86:lib/TinyUSB/src/device/usbd.c **** 
  87:lib/TinyUSB/src/device/usbd.c **** TU_ATTR_WEAK bool dcd_deinit(uint8_t rhport) {
  88:lib/TinyUSB/src/device/usbd.c ****   (void) rhport;
  89:lib/TinyUSB/src/device/usbd.c ****   return false;
  90:lib/TinyUSB/src/device/usbd.c **** }
  91:lib/TinyUSB/src/device/usbd.c **** 
  92:lib/TinyUSB/src/device/usbd.c **** TU_ATTR_WEAK void dcd_connect(uint8_t rhport) {
  93:lib/TinyUSB/src/device/usbd.c ****   (void) rhport;
  94:lib/TinyUSB/src/device/usbd.c **** }
  95:lib/TinyUSB/src/device/usbd.c **** 
  96:lib/TinyUSB/src/device/usbd.c **** TU_ATTR_WEAK void dcd_disconnect(uint8_t rhport) {
  97:lib/TinyUSB/src/device/usbd.c ****   (void) rhport;
  98:lib/TinyUSB/src/device/usbd.c **** }
  99:lib/TinyUSB/src/device/usbd.c **** 
 100:lib/TinyUSB/src/device/usbd.c **** TU_ATTR_WEAK bool dcd_dcache_clean(const void* addr, uint32_t data_size) {
 101:lib/TinyUSB/src/device/usbd.c ****   (void) addr; (void) data_size;
 102:lib/TinyUSB/src/device/usbd.c ****   return true;
 103:lib/TinyUSB/src/device/usbd.c **** }
 104:lib/TinyUSB/src/device/usbd.c **** 
 105:lib/TinyUSB/src/device/usbd.c **** TU_ATTR_WEAK bool dcd_dcache_invalidate(const void* addr, uint32_t data_size) {
 106:lib/TinyUSB/src/device/usbd.c ****   (void) addr; (void) data_size;
 107:lib/TinyUSB/src/device/usbd.c ****   return true;
 108:lib/TinyUSB/src/device/usbd.c **** }
 109:lib/TinyUSB/src/device/usbd.c **** 
 110:lib/TinyUSB/src/device/usbd.c **** TU_ATTR_WEAK bool dcd_dcache_clean_invalidate(const void* addr, uint32_t data_size) {
 111:lib/TinyUSB/src/device/usbd.c ****   (void) addr; (void) data_size;
 112:lib/TinyUSB/src/device/usbd.c ****   return true;
 113:lib/TinyUSB/src/device/usbd.c **** }
 114:lib/TinyUSB/src/device/usbd.c **** 
 115:lib/TinyUSB/src/device/usbd.c **** //--------------------------------------------------------------------+
 116:lib/TinyUSB/src/device/usbd.c **** // Device Data
 117:lib/TinyUSB/src/device/usbd.c **** //--------------------------------------------------------------------+
 118:lib/TinyUSB/src/device/usbd.c **** typedef struct {
 119:lib/TinyUSB/src/device/usbd.c ****   // Note: these may share an enum state
ARM GAS  C:\Users\krisa\AppData\Local\Temp\cc7LeJkl.s 			page 4


 120:lib/TinyUSB/src/device/usbd.c ****   volatile uint8_t connected;
 121:lib/TinyUSB/src/device/usbd.c ****   volatile uint8_t addressed;
 122:lib/TinyUSB/src/device/usbd.c ****   volatile uint8_t suspended;
 123:lib/TinyUSB/src/device/usbd.c **** 
 124:lib/TinyUSB/src/device/usbd.c ****   union {
 125:lib/TinyUSB/src/device/usbd.c ****     struct TU_ATTR_PACKED {
 126:lib/TinyUSB/src/device/usbd.c ****       uint8_t self_powered     : 1; // configuration descriptor's attribute;
 127:lib/TinyUSB/src/device/usbd.c ****       uint8_t remote_wakeup_en : 1; // enable/disable by host
 128:lib/TinyUSB/src/device/usbd.c ****     };
 129:lib/TinyUSB/src/device/usbd.c ****     uint8_t dev_state_bm;
 130:lib/TinyUSB/src/device/usbd.c ****   };
 131:lib/TinyUSB/src/device/usbd.c **** 
 132:lib/TinyUSB/src/device/usbd.c ****   uint8_t          cfg_num; // current active configuration (0x00 is not configured)
 133:lib/TinyUSB/src/device/usbd.c ****   uint8_t          speed;
 134:lib/TinyUSB/src/device/usbd.c ****   volatile uint8_t sof_consumer;
 135:lib/TinyUSB/src/device/usbd.c **** 
 136:lib/TinyUSB/src/device/usbd.c ****   uint8_t itf2drv[CFG_TUD_INTERFACE_MAX];   // map interface number to driver (0xff is invalid)
 137:lib/TinyUSB/src/device/usbd.c ****   uint8_t ep2drv[CFG_TUD_ENDPPOINT_MAX][2]; // map endpoint to driver ( 0xff is invalid ), can use 
 138:lib/TinyUSB/src/device/usbd.c **** 
 139:lib/TinyUSB/src/device/usbd.c ****   tu_edpt_state_t ep_status[CFG_TUD_ENDPPOINT_MAX][2];
 140:lib/TinyUSB/src/device/usbd.c **** } usbd_device_t;
 141:lib/TinyUSB/src/device/usbd.c **** 
 142:lib/TinyUSB/src/device/usbd.c **** static usbd_device_t    _usbd_dev;
 143:lib/TinyUSB/src/device/usbd.c **** static volatile uint8_t _usbd_queued_setup;
 144:lib/TinyUSB/src/device/usbd.c **** 
 145:lib/TinyUSB/src/device/usbd.c **** //--------------------------------------------------------------------+
 146:lib/TinyUSB/src/device/usbd.c **** // Class Driver
 147:lib/TinyUSB/src/device/usbd.c **** //--------------------------------------------------------------------+
 148:lib/TinyUSB/src/device/usbd.c ****   #if CFG_TUSB_DEBUG >= CFG_TUD_LOG_LEVEL
 149:lib/TinyUSB/src/device/usbd.c ****     #define DRIVER_NAME(_name) _name
 150:lib/TinyUSB/src/device/usbd.c ****   #else
 151:lib/TinyUSB/src/device/usbd.c ****     #define DRIVER_NAME(_name) NULL
 152:lib/TinyUSB/src/device/usbd.c ****   #endif
 153:lib/TinyUSB/src/device/usbd.c **** 
 154:lib/TinyUSB/src/device/usbd.c **** // Built-in class drivers
 155:lib/TinyUSB/src/device/usbd.c **** static const usbd_class_driver_t _usbd_driver[] = {
 156:lib/TinyUSB/src/device/usbd.c ****   #if CFG_TUD_CDC
 157:lib/TinyUSB/src/device/usbd.c ****     {
 158:lib/TinyUSB/src/device/usbd.c ****         .name             = DRIVER_NAME("CDC"),
 159:lib/TinyUSB/src/device/usbd.c ****         .init             = cdcd_init,
 160:lib/TinyUSB/src/device/usbd.c ****         .deinit           = cdcd_deinit,
 161:lib/TinyUSB/src/device/usbd.c ****         .reset            = cdcd_reset,
 162:lib/TinyUSB/src/device/usbd.c ****         .open             = cdcd_open,
 163:lib/TinyUSB/src/device/usbd.c ****         .control_xfer_cb  = cdcd_control_xfer_cb,
 164:lib/TinyUSB/src/device/usbd.c ****         .xfer_cb          = cdcd_xfer_cb,
 165:lib/TinyUSB/src/device/usbd.c ****         .xfer_isr         = NULL,
 166:lib/TinyUSB/src/device/usbd.c ****         .sof              = NULL
 167:lib/TinyUSB/src/device/usbd.c ****     },
 168:lib/TinyUSB/src/device/usbd.c ****     #endif
 169:lib/TinyUSB/src/device/usbd.c **** 
 170:lib/TinyUSB/src/device/usbd.c ****     #if CFG_TUD_MSC
 171:lib/TinyUSB/src/device/usbd.c ****     {
 172:lib/TinyUSB/src/device/usbd.c ****         .name             = DRIVER_NAME("MSC"),
 173:lib/TinyUSB/src/device/usbd.c ****         .init             = mscd_init,
 174:lib/TinyUSB/src/device/usbd.c ****         .deinit           = NULL,
 175:lib/TinyUSB/src/device/usbd.c ****         .reset            = mscd_reset,
 176:lib/TinyUSB/src/device/usbd.c ****         .open             = mscd_open,
ARM GAS  C:\Users\krisa\AppData\Local\Temp\cc7LeJkl.s 			page 5


 177:lib/TinyUSB/src/device/usbd.c ****         .control_xfer_cb  = mscd_control_xfer_cb,
 178:lib/TinyUSB/src/device/usbd.c ****         .xfer_cb          = mscd_xfer_cb,
 179:lib/TinyUSB/src/device/usbd.c ****         .xfer_isr         = NULL,
 180:lib/TinyUSB/src/device/usbd.c ****         .sof              = NULL
 181:lib/TinyUSB/src/device/usbd.c ****     },
 182:lib/TinyUSB/src/device/usbd.c ****     #endif
 183:lib/TinyUSB/src/device/usbd.c **** 
 184:lib/TinyUSB/src/device/usbd.c ****     #if CFG_TUD_HID
 185:lib/TinyUSB/src/device/usbd.c ****     {
 186:lib/TinyUSB/src/device/usbd.c ****         .name             = DRIVER_NAME("HID"),
 187:lib/TinyUSB/src/device/usbd.c ****         .init             = hidd_init,
 188:lib/TinyUSB/src/device/usbd.c ****         .deinit           = hidd_deinit,
 189:lib/TinyUSB/src/device/usbd.c ****         .reset            = hidd_reset,
 190:lib/TinyUSB/src/device/usbd.c ****         .open             = hidd_open,
 191:lib/TinyUSB/src/device/usbd.c ****         .control_xfer_cb  = hidd_control_xfer_cb,
 192:lib/TinyUSB/src/device/usbd.c ****         .xfer_cb          = hidd_xfer_cb,
 193:lib/TinyUSB/src/device/usbd.c ****         .xfer_isr         = NULL,
 194:lib/TinyUSB/src/device/usbd.c ****         .sof              = NULL
 195:lib/TinyUSB/src/device/usbd.c ****     },
 196:lib/TinyUSB/src/device/usbd.c ****     #endif
 197:lib/TinyUSB/src/device/usbd.c **** 
 198:lib/TinyUSB/src/device/usbd.c ****     #if CFG_TUD_AUDIO
 199:lib/TinyUSB/src/device/usbd.c ****     {
 200:lib/TinyUSB/src/device/usbd.c ****         .name             = DRIVER_NAME("AUDIO"),
 201:lib/TinyUSB/src/device/usbd.c ****         .init             = audiod_init,
 202:lib/TinyUSB/src/device/usbd.c ****         .deinit           = audiod_deinit,
 203:lib/TinyUSB/src/device/usbd.c ****         .reset            = audiod_reset,
 204:lib/TinyUSB/src/device/usbd.c ****         .open             = audiod_open,
 205:lib/TinyUSB/src/device/usbd.c ****         .control_xfer_cb  = audiod_control_xfer_cb,
 206:lib/TinyUSB/src/device/usbd.c ****         .xfer_cb          = audiod_xfer_cb,
 207:lib/TinyUSB/src/device/usbd.c ****         .xfer_isr         = audiod_xfer_isr,
 208:lib/TinyUSB/src/device/usbd.c ****         .sof              = audiod_sof_isr
 209:lib/TinyUSB/src/device/usbd.c ****     },
 210:lib/TinyUSB/src/device/usbd.c ****     #endif
 211:lib/TinyUSB/src/device/usbd.c **** 
 212:lib/TinyUSB/src/device/usbd.c ****     #if CFG_TUD_VIDEO
 213:lib/TinyUSB/src/device/usbd.c ****     {
 214:lib/TinyUSB/src/device/usbd.c ****         .name             = DRIVER_NAME("VIDEO"),
 215:lib/TinyUSB/src/device/usbd.c ****         .init             = videod_init,
 216:lib/TinyUSB/src/device/usbd.c ****         .deinit           = videod_deinit,
 217:lib/TinyUSB/src/device/usbd.c ****         .reset            = videod_reset,
 218:lib/TinyUSB/src/device/usbd.c ****         .open             = videod_open,
 219:lib/TinyUSB/src/device/usbd.c ****         .control_xfer_cb  = videod_control_xfer_cb,
 220:lib/TinyUSB/src/device/usbd.c ****         .xfer_cb          = videod_xfer_cb,
 221:lib/TinyUSB/src/device/usbd.c ****         .xfer_isr         = NULL,
 222:lib/TinyUSB/src/device/usbd.c ****         .sof              = NULL
 223:lib/TinyUSB/src/device/usbd.c ****     },
 224:lib/TinyUSB/src/device/usbd.c ****     #endif
 225:lib/TinyUSB/src/device/usbd.c **** 
 226:lib/TinyUSB/src/device/usbd.c ****     #if CFG_TUD_MIDI
 227:lib/TinyUSB/src/device/usbd.c ****     {
 228:lib/TinyUSB/src/device/usbd.c ****         .name             = DRIVER_NAME("MIDI"),
 229:lib/TinyUSB/src/device/usbd.c ****         .init             = midid_init,
 230:lib/TinyUSB/src/device/usbd.c ****         .deinit           = midid_deinit,
 231:lib/TinyUSB/src/device/usbd.c ****         .open             = midid_open,
 232:lib/TinyUSB/src/device/usbd.c ****         .reset            = midid_reset,
 233:lib/TinyUSB/src/device/usbd.c ****         .control_xfer_cb  = midid_control_xfer_cb,
ARM GAS  C:\Users\krisa\AppData\Local\Temp\cc7LeJkl.s 			page 6


 234:lib/TinyUSB/src/device/usbd.c ****         .xfer_cb          = midid_xfer_cb,
 235:lib/TinyUSB/src/device/usbd.c ****         .xfer_isr         = NULL,
 236:lib/TinyUSB/src/device/usbd.c ****         .sof              = NULL
 237:lib/TinyUSB/src/device/usbd.c ****     },
 238:lib/TinyUSB/src/device/usbd.c ****     #endif
 239:lib/TinyUSB/src/device/usbd.c **** 
 240:lib/TinyUSB/src/device/usbd.c ****     #if CFG_TUD_VENDOR
 241:lib/TinyUSB/src/device/usbd.c ****     {
 242:lib/TinyUSB/src/device/usbd.c ****         .name             = DRIVER_NAME("VENDOR"),
 243:lib/TinyUSB/src/device/usbd.c ****         .init             = vendord_init,
 244:lib/TinyUSB/src/device/usbd.c ****         .deinit           = vendord_deinit,
 245:lib/TinyUSB/src/device/usbd.c ****         .reset            = vendord_reset,
 246:lib/TinyUSB/src/device/usbd.c ****         .open             = vendord_open,
 247:lib/TinyUSB/src/device/usbd.c ****         .control_xfer_cb  = tud_vendor_control_xfer_cb,
 248:lib/TinyUSB/src/device/usbd.c ****         .xfer_cb          = vendord_xfer_cb,
 249:lib/TinyUSB/src/device/usbd.c ****         .xfer_isr         = NULL,
 250:lib/TinyUSB/src/device/usbd.c ****         .sof              = NULL
 251:lib/TinyUSB/src/device/usbd.c ****     },
 252:lib/TinyUSB/src/device/usbd.c ****     #endif
 253:lib/TinyUSB/src/device/usbd.c **** 
 254:lib/TinyUSB/src/device/usbd.c ****     #if CFG_TUD_USBTMC
 255:lib/TinyUSB/src/device/usbd.c ****     {
 256:lib/TinyUSB/src/device/usbd.c ****         .name             = DRIVER_NAME("TMC"),
 257:lib/TinyUSB/src/device/usbd.c ****         .init             = usbtmcd_init_cb,
 258:lib/TinyUSB/src/device/usbd.c ****         .deinit           = usbtmcd_deinit,
 259:lib/TinyUSB/src/device/usbd.c ****         .reset            = usbtmcd_reset_cb,
 260:lib/TinyUSB/src/device/usbd.c ****         .open             = usbtmcd_open_cb,
 261:lib/TinyUSB/src/device/usbd.c ****         .control_xfer_cb  = usbtmcd_control_xfer_cb,
 262:lib/TinyUSB/src/device/usbd.c ****         .xfer_cb          = usbtmcd_xfer_cb,
 263:lib/TinyUSB/src/device/usbd.c ****         .xfer_isr         = NULL,
 264:lib/TinyUSB/src/device/usbd.c ****         .sof              = NULL
 265:lib/TinyUSB/src/device/usbd.c ****     },
 266:lib/TinyUSB/src/device/usbd.c ****     #endif
 267:lib/TinyUSB/src/device/usbd.c **** 
 268:lib/TinyUSB/src/device/usbd.c ****     #if CFG_TUD_DFU_RUNTIME
 269:lib/TinyUSB/src/device/usbd.c ****     {
 270:lib/TinyUSB/src/device/usbd.c ****         .name             = DRIVER_NAME("DFU-RUNTIME"),
 271:lib/TinyUSB/src/device/usbd.c ****         .init             = dfu_rtd_init,
 272:lib/TinyUSB/src/device/usbd.c ****         .deinit           = dfu_rtd_deinit,
 273:lib/TinyUSB/src/device/usbd.c ****         .reset            = dfu_rtd_reset,
 274:lib/TinyUSB/src/device/usbd.c ****         .open             = dfu_rtd_open,
 275:lib/TinyUSB/src/device/usbd.c ****         .control_xfer_cb  = dfu_rtd_control_xfer_cb,
 276:lib/TinyUSB/src/device/usbd.c ****         .xfer_cb          = NULL,
 277:lib/TinyUSB/src/device/usbd.c ****         .xfer_isr         = NULL,
 278:lib/TinyUSB/src/device/usbd.c ****         .sof              = NULL
 279:lib/TinyUSB/src/device/usbd.c ****     },
 280:lib/TinyUSB/src/device/usbd.c ****     #endif
 281:lib/TinyUSB/src/device/usbd.c **** 
 282:lib/TinyUSB/src/device/usbd.c ****     #if CFG_TUD_DFU
 283:lib/TinyUSB/src/device/usbd.c ****     {
 284:lib/TinyUSB/src/device/usbd.c ****         .name             = DRIVER_NAME("DFU"),
 285:lib/TinyUSB/src/device/usbd.c ****         .init             = dfu_moded_init,
 286:lib/TinyUSB/src/device/usbd.c ****         .deinit           = dfu_moded_deinit,
 287:lib/TinyUSB/src/device/usbd.c ****         .reset            = dfu_moded_reset,
 288:lib/TinyUSB/src/device/usbd.c ****         .open             = dfu_moded_open,
 289:lib/TinyUSB/src/device/usbd.c ****         .control_xfer_cb  = dfu_moded_control_xfer_cb,
 290:lib/TinyUSB/src/device/usbd.c ****         .xfer_cb          = NULL,
ARM GAS  C:\Users\krisa\AppData\Local\Temp\cc7LeJkl.s 			page 7


 291:lib/TinyUSB/src/device/usbd.c ****         .xfer_isr         = NULL,
 292:lib/TinyUSB/src/device/usbd.c ****         .sof              = NULL
 293:lib/TinyUSB/src/device/usbd.c ****     },
 294:lib/TinyUSB/src/device/usbd.c ****     #endif
 295:lib/TinyUSB/src/device/usbd.c **** 
 296:lib/TinyUSB/src/device/usbd.c ****     #if CFG_TUD_ECM_RNDIS || CFG_TUD_NCM
 297:lib/TinyUSB/src/device/usbd.c ****     {
 298:lib/TinyUSB/src/device/usbd.c ****         .name             = DRIVER_NAME("NET"),
 299:lib/TinyUSB/src/device/usbd.c ****         .init             = netd_init,
 300:lib/TinyUSB/src/device/usbd.c ****         .deinit           = netd_deinit,
 301:lib/TinyUSB/src/device/usbd.c ****         .reset            = netd_reset,
 302:lib/TinyUSB/src/device/usbd.c ****         .open             = netd_open,
 303:lib/TinyUSB/src/device/usbd.c ****         .control_xfer_cb  = netd_control_xfer_cb,
 304:lib/TinyUSB/src/device/usbd.c ****         .xfer_cb          = netd_xfer_cb,
 305:lib/TinyUSB/src/device/usbd.c ****         .xfer_isr         = NULL,
 306:lib/TinyUSB/src/device/usbd.c ****         .sof              = NULL,
 307:lib/TinyUSB/src/device/usbd.c ****     },
 308:lib/TinyUSB/src/device/usbd.c ****     #endif
 309:lib/TinyUSB/src/device/usbd.c **** 
 310:lib/TinyUSB/src/device/usbd.c ****     #if CFG_TUD_BTH
 311:lib/TinyUSB/src/device/usbd.c ****     {
 312:lib/TinyUSB/src/device/usbd.c ****         .name             = DRIVER_NAME("BTH"),
 313:lib/TinyUSB/src/device/usbd.c ****         .init             = btd_init,
 314:lib/TinyUSB/src/device/usbd.c ****         .deinit           = btd_deinit,
 315:lib/TinyUSB/src/device/usbd.c ****         .reset            = btd_reset,
 316:lib/TinyUSB/src/device/usbd.c ****         .open             = btd_open,
 317:lib/TinyUSB/src/device/usbd.c ****         .control_xfer_cb  = btd_control_xfer_cb,
 318:lib/TinyUSB/src/device/usbd.c ****         .xfer_cb          = btd_xfer_cb,
 319:lib/TinyUSB/src/device/usbd.c ****         .xfer_isr         = NULL,
 320:lib/TinyUSB/src/device/usbd.c ****         .sof              = NULL
 321:lib/TinyUSB/src/device/usbd.c ****     },
 322:lib/TinyUSB/src/device/usbd.c ****     #endif
 323:lib/TinyUSB/src/device/usbd.c **** 
 324:lib/TinyUSB/src/device/usbd.c ****     #if CFG_TUD_MTP
 325:lib/TinyUSB/src/device/usbd.c ****     {
 326:lib/TinyUSB/src/device/usbd.c ****         .name             = DRIVER_NAME("MTP"),
 327:lib/TinyUSB/src/device/usbd.c ****         .init             = mtpd_init,
 328:lib/TinyUSB/src/device/usbd.c ****         .deinit           = mtpd_deinit,
 329:lib/TinyUSB/src/device/usbd.c ****         .reset            = mtpd_reset,
 330:lib/TinyUSB/src/device/usbd.c ****         .open             = mtpd_open,
 331:lib/TinyUSB/src/device/usbd.c ****         .control_xfer_cb  = mtpd_control_xfer_cb,
 332:lib/TinyUSB/src/device/usbd.c ****         .xfer_cb          = mtpd_xfer_cb,
 333:lib/TinyUSB/src/device/usbd.c ****         .xfer_isr         = NULL,
 334:lib/TinyUSB/src/device/usbd.c ****         .sof              = NULL
 335:lib/TinyUSB/src/device/usbd.c ****     },
 336:lib/TinyUSB/src/device/usbd.c ****     #endif
 337:lib/TinyUSB/src/device/usbd.c **** };
 338:lib/TinyUSB/src/device/usbd.c **** 
 339:lib/TinyUSB/src/device/usbd.c **** enum { BUILTIN_DRIVER_COUNT = TU_ARRAY_SIZE(_usbd_driver) };
 340:lib/TinyUSB/src/device/usbd.c **** 
 341:lib/TinyUSB/src/device/usbd.c **** // Additional class drivers implemented by application
 342:lib/TinyUSB/src/device/usbd.c **** static const usbd_class_driver_t *_app_driver       = NULL;
 343:lib/TinyUSB/src/device/usbd.c **** static uint8_t                    _app_driver_count = 0;
 344:lib/TinyUSB/src/device/usbd.c **** 
 345:lib/TinyUSB/src/device/usbd.c **** #define TOTAL_DRIVER_COUNT    ((uint8_t) (_app_driver_count + BUILTIN_DRIVER_COUNT))
 346:lib/TinyUSB/src/device/usbd.c **** 
 347:lib/TinyUSB/src/device/usbd.c **** // virtually joins built-in and application drivers together.
ARM GAS  C:\Users\krisa\AppData\Local\Temp\cc7LeJkl.s 			page 8


 348:lib/TinyUSB/src/device/usbd.c **** // Application is positioned first to allow overwriting built-in ones.
 349:lib/TinyUSB/src/device/usbd.c **** TU_ATTR_ALWAYS_INLINE static inline usbd_class_driver_t const * get_driver(uint8_t drvid) {
 350:lib/TinyUSB/src/device/usbd.c ****   usbd_class_driver_t const *driver = NULL;
 351:lib/TinyUSB/src/device/usbd.c ****   if (drvid < _app_driver_count) {
 352:lib/TinyUSB/src/device/usbd.c ****     // Application drivers
 353:lib/TinyUSB/src/device/usbd.c ****     driver = &_app_driver[drvid];
 354:lib/TinyUSB/src/device/usbd.c ****   } else{
 355:lib/TinyUSB/src/device/usbd.c ****     drvid -= _app_driver_count;
 356:lib/TinyUSB/src/device/usbd.c ****     if (drvid < BUILTIN_DRIVER_COUNT) {
 357:lib/TinyUSB/src/device/usbd.c ****       driver = &_usbd_driver[drvid];
 358:lib/TinyUSB/src/device/usbd.c ****     }
 359:lib/TinyUSB/src/device/usbd.c ****   }
 360:lib/TinyUSB/src/device/usbd.c **** 
 361:lib/TinyUSB/src/device/usbd.c ****   return driver;
 362:lib/TinyUSB/src/device/usbd.c **** }
 363:lib/TinyUSB/src/device/usbd.c **** 
 364:lib/TinyUSB/src/device/usbd.c **** //--------------------------------------------------------------------+
 365:lib/TinyUSB/src/device/usbd.c **** // DCD Event
 366:lib/TinyUSB/src/device/usbd.c **** //--------------------------------------------------------------------+
 367:lib/TinyUSB/src/device/usbd.c **** enum {
 368:lib/TinyUSB/src/device/usbd.c ****   RHPORT_INVALID = 0xFFu
 369:lib/TinyUSB/src/device/usbd.c **** };
 370:lib/TinyUSB/src/device/usbd.c **** static uint8_t _usbd_rhport = RHPORT_INVALID;
 371:lib/TinyUSB/src/device/usbd.c **** 
 372:lib/TinyUSB/src/device/usbd.c **** static OSAL_SPINLOCK_DEF(_usbd_spin, usbd_int_set);
 373:lib/TinyUSB/src/device/usbd.c **** 
 374:lib/TinyUSB/src/device/usbd.c **** // Event queue: usbd_int_set() is used as mutex in OS NONE config
 375:lib/TinyUSB/src/device/usbd.c **** OSAL_QUEUE_DEF(usbd_int_set, _usbd_qdef, CFG_TUD_TASK_QUEUE_SZ, dcd_event_t);
 376:lib/TinyUSB/src/device/usbd.c **** static osal_queue_t _usbd_q;
 377:lib/TinyUSB/src/device/usbd.c **** 
 378:lib/TinyUSB/src/device/usbd.c **** // Mutex for claiming endpoint
 379:lib/TinyUSB/src/device/usbd.c **** #if OSAL_MUTEX_REQUIRED
 380:lib/TinyUSB/src/device/usbd.c ****   static osal_mutex_def_t _ubsd_mutexdef;
 381:lib/TinyUSB/src/device/usbd.c ****   static osal_mutex_t _usbd_mutex;
 382:lib/TinyUSB/src/device/usbd.c **** #else
 383:lib/TinyUSB/src/device/usbd.c ****   #define _usbd_mutex   NULL
 384:lib/TinyUSB/src/device/usbd.c **** #endif
 385:lib/TinyUSB/src/device/usbd.c **** 
 386:lib/TinyUSB/src/device/usbd.c **** TU_ATTR_ALWAYS_INLINE static inline bool queue_event(dcd_event_t const * event, bool in_isr) {
 387:lib/TinyUSB/src/device/usbd.c ****   TU_ASSERT(osal_queue_send(_usbd_q, event, in_isr));
 388:lib/TinyUSB/src/device/usbd.c ****   tud_event_hook_cb(event->rhport, event->event_id, in_isr);
 389:lib/TinyUSB/src/device/usbd.c ****   return true;
 390:lib/TinyUSB/src/device/usbd.c **** }
 391:lib/TinyUSB/src/device/usbd.c **** 
 392:lib/TinyUSB/src/device/usbd.c **** //--------------------------------------------------------------------+
 393:lib/TinyUSB/src/device/usbd.c **** // Prototypes
 394:lib/TinyUSB/src/device/usbd.c **** //--------------------------------------------------------------------+
 395:lib/TinyUSB/src/device/usbd.c **** static bool process_control_request(uint8_t rhport, tusb_control_request_t const * p_request);
 396:lib/TinyUSB/src/device/usbd.c **** static bool process_set_config(uint8_t rhport, uint8_t cfg_num);
 397:lib/TinyUSB/src/device/usbd.c **** static bool process_get_descriptor(uint8_t rhport, tusb_control_request_t const * p_request);
 398:lib/TinyUSB/src/device/usbd.c **** 
 399:lib/TinyUSB/src/device/usbd.c **** #if CFG_TUD_TEST_MODE
 400:lib/TinyUSB/src/device/usbd.c **** static bool process_test_mode_cb(uint8_t rhport, uint8_t stage, tusb_control_request_t const * requ
 401:lib/TinyUSB/src/device/usbd.c ****   TU_VERIFY(CONTROL_STAGE_ACK == stage);
 402:lib/TinyUSB/src/device/usbd.c ****   uint8_t const selector = tu_u16_high(request->wIndex);
 403:lib/TinyUSB/src/device/usbd.c ****   TU_LOG_USBD("    Enter Test Mode (test selector index: %d)\r\n", selector);
 404:lib/TinyUSB/src/device/usbd.c ****   dcd_enter_test_mode(rhport, (tusb_feature_test_mode_t) selector);
ARM GAS  C:\Users\krisa\AppData\Local\Temp\cc7LeJkl.s 			page 9


 405:lib/TinyUSB/src/device/usbd.c ****   return true;
 406:lib/TinyUSB/src/device/usbd.c **** }
 407:lib/TinyUSB/src/device/usbd.c **** #endif
 408:lib/TinyUSB/src/device/usbd.c **** 
 409:lib/TinyUSB/src/device/usbd.c **** // from usbd_control.c
 410:lib/TinyUSB/src/device/usbd.c **** void usbd_control_reset(void);
 411:lib/TinyUSB/src/device/usbd.c **** void usbd_control_set_request(tusb_control_request_t const *request);
 412:lib/TinyUSB/src/device/usbd.c **** void usbd_control_set_complete_callback( usbd_control_xfer_cb_t fp );
 413:lib/TinyUSB/src/device/usbd.c **** bool usbd_control_xfer_cb (uint8_t rhport, uint8_t ep_addr, xfer_result_t event, uint32_t xferred_b
 414:lib/TinyUSB/src/device/usbd.c **** 
 415:lib/TinyUSB/src/device/usbd.c **** //--------------------------------------------------------------------+
 416:lib/TinyUSB/src/device/usbd.c **** // Weak stubs: invoked if no strong implementation is available
 417:lib/TinyUSB/src/device/usbd.c **** //--------------------------------------------------------------------+
 418:lib/TinyUSB/src/device/usbd.c **** TU_ATTR_WEAK usbd_class_driver_t const* usbd_app_driver_get_cb(uint8_t* driver_count) {
 419:lib/TinyUSB/src/device/usbd.c ****   *driver_count = 0;
 420:lib/TinyUSB/src/device/usbd.c ****   return NULL;
 421:lib/TinyUSB/src/device/usbd.c **** }
 422:lib/TinyUSB/src/device/usbd.c **** 
 423:lib/TinyUSB/src/device/usbd.c **** TU_ATTR_WEAK bool dcd_edpt_xfer_fifo(uint8_t rhport, uint8_t ep_addr, tu_fifo_t * ff, uint16_t tota
 424:lib/TinyUSB/src/device/usbd.c ****   (void) rhport; (void) ep_addr; (void) ff; (void) total_bytes; (void) is_isr;
 425:lib/TinyUSB/src/device/usbd.c ****   return false;
 426:lib/TinyUSB/src/device/usbd.c **** }
 427:lib/TinyUSB/src/device/usbd.c **** 
 428:lib/TinyUSB/src/device/usbd.c **** TU_ATTR_WEAK bool dcd_configure(uint8_t rhport, uint32_t cfg_id, const void* cfg_param) {
 429:lib/TinyUSB/src/device/usbd.c ****   (void) rhport; (void) cfg_id; (void) cfg_param;
 430:lib/TinyUSB/src/device/usbd.c ****   return false;
 431:lib/TinyUSB/src/device/usbd.c **** }
 432:lib/TinyUSB/src/device/usbd.c **** 
 433:lib/TinyUSB/src/device/usbd.c **** //--------------------------------------------------------------------+
 434:lib/TinyUSB/src/device/usbd.c **** // Debug
 435:lib/TinyUSB/src/device/usbd.c **** //--------------------------------------------------------------------+
 436:lib/TinyUSB/src/device/usbd.c **** #if CFG_TUSB_DEBUG >= CFG_TUD_LOG_LEVEL
 437:lib/TinyUSB/src/device/usbd.c **** static char const *const _usbd_event_str[DCD_EVENT_COUNT] = {
 438:lib/TinyUSB/src/device/usbd.c ****     "Invalid",
 439:lib/TinyUSB/src/device/usbd.c ****     "Bus Reset",
 440:lib/TinyUSB/src/device/usbd.c ****     "Unplugged",
 441:lib/TinyUSB/src/device/usbd.c ****     "SOF",
 442:lib/TinyUSB/src/device/usbd.c ****     "Suspend",
 443:lib/TinyUSB/src/device/usbd.c ****     "Resume",
 444:lib/TinyUSB/src/device/usbd.c ****     "Setup Received",
 445:lib/TinyUSB/src/device/usbd.c ****     "Xfer Complete",
 446:lib/TinyUSB/src/device/usbd.c ****     "Func Call"
 447:lib/TinyUSB/src/device/usbd.c **** };
 448:lib/TinyUSB/src/device/usbd.c **** 
 449:lib/TinyUSB/src/device/usbd.c **** // for usbd_control to print the name of control complete driver
 450:lib/TinyUSB/src/device/usbd.c **** void usbd_driver_print_control_complete_name(usbd_control_xfer_cb_t callback) {
 451:lib/TinyUSB/src/device/usbd.c ****   for (uint8_t i = 0; i < TOTAL_DRIVER_COUNT; i++) {
 452:lib/TinyUSB/src/device/usbd.c ****     usbd_class_driver_t const* driver = get_driver(i);
 453:lib/TinyUSB/src/device/usbd.c ****     if (driver && driver->control_xfer_cb == callback) {
 454:lib/TinyUSB/src/device/usbd.c ****       TU_LOG_USBD("%s control complete\r\n", driver->name);
 455:lib/TinyUSB/src/device/usbd.c ****       return;
 456:lib/TinyUSB/src/device/usbd.c ****     }
 457:lib/TinyUSB/src/device/usbd.c ****   }
 458:lib/TinyUSB/src/device/usbd.c **** }
 459:lib/TinyUSB/src/device/usbd.c **** 
 460:lib/TinyUSB/src/device/usbd.c **** #endif
 461:lib/TinyUSB/src/device/usbd.c **** 
ARM GAS  C:\Users\krisa\AppData\Local\Temp\cc7LeJkl.s 			page 10


 462:lib/TinyUSB/src/device/usbd.c **** //--------------------------------------------------------------------+
 463:lib/TinyUSB/src/device/usbd.c **** // Application API
 464:lib/TinyUSB/src/device/usbd.c **** //--------------------------------------------------------------------+
 465:lib/TinyUSB/src/device/usbd.c **** tusb_speed_t tud_speed_get(void) {
 466:lib/TinyUSB/src/device/usbd.c ****   return (tusb_speed_t) _usbd_dev.speed;
 467:lib/TinyUSB/src/device/usbd.c **** }
 468:lib/TinyUSB/src/device/usbd.c **** 
 469:lib/TinyUSB/src/device/usbd.c **** bool tud_connected(void) {
 470:lib/TinyUSB/src/device/usbd.c ****   return _usbd_dev.connected;
 471:lib/TinyUSB/src/device/usbd.c **** }
 472:lib/TinyUSB/src/device/usbd.c **** 
 473:lib/TinyUSB/src/device/usbd.c **** bool tud_mounted(void) {
 474:lib/TinyUSB/src/device/usbd.c ****   return _usbd_dev.cfg_num ? true : false;
 475:lib/TinyUSB/src/device/usbd.c **** }
 476:lib/TinyUSB/src/device/usbd.c **** 
 477:lib/TinyUSB/src/device/usbd.c **** bool tud_suspended(void) {
 478:lib/TinyUSB/src/device/usbd.c ****   return _usbd_dev.suspended;
 479:lib/TinyUSB/src/device/usbd.c **** }
 480:lib/TinyUSB/src/device/usbd.c **** 
 481:lib/TinyUSB/src/device/usbd.c **** bool tud_remote_wakeup(void) {
 482:lib/TinyUSB/src/device/usbd.c ****   // only wake up host if this feature is enabled and we are suspended
 483:lib/TinyUSB/src/device/usbd.c ****   TU_VERIFY(_usbd_dev.suspended && _usbd_dev.remote_wakeup_en);
 484:lib/TinyUSB/src/device/usbd.c ****   dcd_remote_wakeup(_usbd_rhport);
 485:lib/TinyUSB/src/device/usbd.c ****   return true;
 486:lib/TinyUSB/src/device/usbd.c **** }
 487:lib/TinyUSB/src/device/usbd.c **** 
 488:lib/TinyUSB/src/device/usbd.c **** bool tud_disconnect(void) {
 489:lib/TinyUSB/src/device/usbd.c ****   dcd_disconnect(_usbd_rhport);
 490:lib/TinyUSB/src/device/usbd.c ****   return true;
 491:lib/TinyUSB/src/device/usbd.c **** }
 492:lib/TinyUSB/src/device/usbd.c **** 
 493:lib/TinyUSB/src/device/usbd.c **** bool tud_connect(void) {
 494:lib/TinyUSB/src/device/usbd.c ****   dcd_connect(_usbd_rhport);
 495:lib/TinyUSB/src/device/usbd.c ****   return true;
 496:lib/TinyUSB/src/device/usbd.c **** }
 497:lib/TinyUSB/src/device/usbd.c **** 
 498:lib/TinyUSB/src/device/usbd.c **** void tud_sof_cb_enable(bool en) {
 499:lib/TinyUSB/src/device/usbd.c ****   usbd_sof_enable(_usbd_rhport, SOF_CONSUMER_USER, en);
 500:lib/TinyUSB/src/device/usbd.c **** }
 501:lib/TinyUSB/src/device/usbd.c **** 
 502:lib/TinyUSB/src/device/usbd.c **** bool tud_inited(void) {
 503:lib/TinyUSB/src/device/usbd.c ****   return _usbd_rhport != RHPORT_INVALID;
 504:lib/TinyUSB/src/device/usbd.c **** }
 505:lib/TinyUSB/src/device/usbd.c **** 
 506:lib/TinyUSB/src/device/usbd.c **** bool tud_configure(uint8_t rhport, uint32_t cfg_id, const void* cfg_param) {
 507:lib/TinyUSB/src/device/usbd.c ****   return dcd_configure(rhport, cfg_id, cfg_param);
 508:lib/TinyUSB/src/device/usbd.c **** }
 509:lib/TinyUSB/src/device/usbd.c **** 
 510:lib/TinyUSB/src/device/usbd.c **** bool tud_rhport_init(uint8_t rhport, const tusb_rhport_init_t* rh_init) {
 511:lib/TinyUSB/src/device/usbd.c ****   if (tud_inited()) {
 512:lib/TinyUSB/src/device/usbd.c ****     return true; // skip if already initialized
 513:lib/TinyUSB/src/device/usbd.c ****   }
 514:lib/TinyUSB/src/device/usbd.c ****   TU_ASSERT(rh_init);
 515:lib/TinyUSB/src/device/usbd.c ****  #if CFG_TUSB_DEBUG >= CFG_TUD_LOG_LEVEL
 516:lib/TinyUSB/src/device/usbd.c ****   char const* speed_str = 0;
 517:lib/TinyUSB/src/device/usbd.c ****   switch (rh_init->speed) {
 518:lib/TinyUSB/src/device/usbd.c ****     case TUSB_SPEED_HIGH:
ARM GAS  C:\Users\krisa\AppData\Local\Temp\cc7LeJkl.s 			page 11


 519:lib/TinyUSB/src/device/usbd.c ****       speed_str = "High";
 520:lib/TinyUSB/src/device/usbd.c ****     break;
 521:lib/TinyUSB/src/device/usbd.c ****     case TUSB_SPEED_FULL:
 522:lib/TinyUSB/src/device/usbd.c ****       speed_str = "Full";
 523:lib/TinyUSB/src/device/usbd.c ****     break;
 524:lib/TinyUSB/src/device/usbd.c ****     case TUSB_SPEED_LOW:
 525:lib/TinyUSB/src/device/usbd.c ****       speed_str = "Low";
 526:lib/TinyUSB/src/device/usbd.c ****     break;
 527:lib/TinyUSB/src/device/usbd.c ****     case TUSB_SPEED_AUTO:
 528:lib/TinyUSB/src/device/usbd.c ****       speed_str = "Auto";
 529:lib/TinyUSB/src/device/usbd.c ****     break;
 530:lib/TinyUSB/src/device/usbd.c ****   default:
 531:lib/TinyUSB/src/device/usbd.c ****     break;
 532:lib/TinyUSB/src/device/usbd.c ****   }
 533:lib/TinyUSB/src/device/usbd.c ****   TU_LOG_USBD("USBD init on controller %u, speed = %s\r\n", rhport, speed_str);
 534:lib/TinyUSB/src/device/usbd.c ****   TU_LOG_INT(CFG_TUD_LOG_LEVEL, sizeof(usbd_device_t));
 535:lib/TinyUSB/src/device/usbd.c ****   TU_LOG_INT(CFG_TUD_LOG_LEVEL, sizeof(dcd_event_t));
 536:lib/TinyUSB/src/device/usbd.c ****   TU_LOG_INT(CFG_TUD_LOG_LEVEL, sizeof(tu_fifo_t));
 537:lib/TinyUSB/src/device/usbd.c ****   TU_LOG_INT(CFG_TUD_LOG_LEVEL, sizeof(tu_edpt_stream_t));
 538:lib/TinyUSB/src/device/usbd.c **** #endif
 539:lib/TinyUSB/src/device/usbd.c **** 
 540:lib/TinyUSB/src/device/usbd.c ****   tu_varclr(&_usbd_dev);
 541:lib/TinyUSB/src/device/usbd.c ****   _usbd_queued_setup = 0;
 542:lib/TinyUSB/src/device/usbd.c **** 
 543:lib/TinyUSB/src/device/usbd.c ****   osal_spin_init(&_usbd_spin);
 544:lib/TinyUSB/src/device/usbd.c **** 
 545:lib/TinyUSB/src/device/usbd.c **** #if OSAL_MUTEX_REQUIRED
 546:lib/TinyUSB/src/device/usbd.c ****   // Init device mutex
 547:lib/TinyUSB/src/device/usbd.c ****   _usbd_mutex = osal_mutex_create(&_ubsd_mutexdef);
 548:lib/TinyUSB/src/device/usbd.c ****   TU_ASSERT(_usbd_mutex);
 549:lib/TinyUSB/src/device/usbd.c **** #endif
 550:lib/TinyUSB/src/device/usbd.c **** 
 551:lib/TinyUSB/src/device/usbd.c ****   // Init device queue & task
 552:lib/TinyUSB/src/device/usbd.c ****   _usbd_q = osal_queue_create(&_usbd_qdef);
 553:lib/TinyUSB/src/device/usbd.c ****   TU_ASSERT(_usbd_q);
 554:lib/TinyUSB/src/device/usbd.c **** 
 555:lib/TinyUSB/src/device/usbd.c ****   // Get application driver if available
 556:lib/TinyUSB/src/device/usbd.c ****   _app_driver = usbd_app_driver_get_cb(&_app_driver_count);
 557:lib/TinyUSB/src/device/usbd.c ****   TU_ASSERT(_app_driver_count + BUILTIN_DRIVER_COUNT <= UINT8_MAX);
 558:lib/TinyUSB/src/device/usbd.c **** 
 559:lib/TinyUSB/src/device/usbd.c ****   // Init class drivers
 560:lib/TinyUSB/src/device/usbd.c ****   for (uint8_t i = 0; i < TOTAL_DRIVER_COUNT; i++) {
 561:lib/TinyUSB/src/device/usbd.c ****     usbd_class_driver_t const* driver = get_driver(i);
 562:lib/TinyUSB/src/device/usbd.c ****     TU_ASSERT(driver && driver->init);
 563:lib/TinyUSB/src/device/usbd.c ****     TU_LOG_USBD("%s init\r\n", driver->name);
 564:lib/TinyUSB/src/device/usbd.c ****     driver->init();
 565:lib/TinyUSB/src/device/usbd.c ****   }
 566:lib/TinyUSB/src/device/usbd.c **** 
 567:lib/TinyUSB/src/device/usbd.c ****   _usbd_rhport = rhport;
 568:lib/TinyUSB/src/device/usbd.c **** 
 569:lib/TinyUSB/src/device/usbd.c ****   // Init device controller driver
 570:lib/TinyUSB/src/device/usbd.c ****   TU_ASSERT(dcd_init(rhport, rh_init));
 571:lib/TinyUSB/src/device/usbd.c ****   dcd_int_enable(rhport);
 572:lib/TinyUSB/src/device/usbd.c **** 
 573:lib/TinyUSB/src/device/usbd.c ****   return true;
 574:lib/TinyUSB/src/device/usbd.c **** }
 575:lib/TinyUSB/src/device/usbd.c **** 
ARM GAS  C:\Users\krisa\AppData\Local\Temp\cc7LeJkl.s 			page 12


 576:lib/TinyUSB/src/device/usbd.c **** bool tud_deinit(uint8_t rhport) {
 577:lib/TinyUSB/src/device/usbd.c ****   if (!tud_inited()) {
 578:lib/TinyUSB/src/device/usbd.c ****     return true; // skip if not initialized
 579:lib/TinyUSB/src/device/usbd.c ****   }
 580:lib/TinyUSB/src/device/usbd.c **** 
 581:lib/TinyUSB/src/device/usbd.c ****   TU_LOG_USBD("USBD deinit on controller %u\r\n", rhport);
 582:lib/TinyUSB/src/device/usbd.c **** 
 583:lib/TinyUSB/src/device/usbd.c ****   // Deinit device controller driver
 584:lib/TinyUSB/src/device/usbd.c ****   dcd_int_disable(rhport);
 585:lib/TinyUSB/src/device/usbd.c ****   dcd_disconnect(rhport);
 586:lib/TinyUSB/src/device/usbd.c ****   TU_VERIFY(dcd_deinit(rhport));
 587:lib/TinyUSB/src/device/usbd.c **** 
 588:lib/TinyUSB/src/device/usbd.c ****   // Deinit class drivers
 589:lib/TinyUSB/src/device/usbd.c ****   for (uint8_t i = 0; i < TOTAL_DRIVER_COUNT; i++) {
 590:lib/TinyUSB/src/device/usbd.c ****     usbd_class_driver_t const* driver = get_driver(i);
 591:lib/TinyUSB/src/device/usbd.c ****     if(driver && driver->deinit) {
 592:lib/TinyUSB/src/device/usbd.c ****       TU_LOG_USBD("%s deinit\r\n", driver->name);
 593:lib/TinyUSB/src/device/usbd.c ****       driver->deinit();
 594:lib/TinyUSB/src/device/usbd.c ****     }
 595:lib/TinyUSB/src/device/usbd.c ****   }
 596:lib/TinyUSB/src/device/usbd.c **** 
 597:lib/TinyUSB/src/device/usbd.c ****   // Deinit device queue & task
 598:lib/TinyUSB/src/device/usbd.c ****   osal_queue_delete(_usbd_q);
 599:lib/TinyUSB/src/device/usbd.c ****   _usbd_q = NULL;
 600:lib/TinyUSB/src/device/usbd.c **** 
 601:lib/TinyUSB/src/device/usbd.c **** #if OSAL_MUTEX_REQUIRED
 602:lib/TinyUSB/src/device/usbd.c ****   // TODO make sure there is no task waiting on this mutex
 603:lib/TinyUSB/src/device/usbd.c ****   osal_mutex_delete(_usbd_mutex);
 604:lib/TinyUSB/src/device/usbd.c ****   _usbd_mutex = NULL;
 605:lib/TinyUSB/src/device/usbd.c **** #endif
 606:lib/TinyUSB/src/device/usbd.c **** 
 607:lib/TinyUSB/src/device/usbd.c ****   _usbd_rhport = RHPORT_INVALID;
 608:lib/TinyUSB/src/device/usbd.c ****   return true;
 609:lib/TinyUSB/src/device/usbd.c **** }
 610:lib/TinyUSB/src/device/usbd.c **** 
 611:lib/TinyUSB/src/device/usbd.c **** static void configuration_reset(uint8_t rhport) {
  56              		.loc 1 611 49 is_stmt 1 view -0
  57              		.cfi_startproc
  58              		@ args = 0, pretend = 0, frame = 0
  59              		@ frame_needed = 0, uses_anonymous_args = 0
  60              		.loc 1 611 49 is_stmt 0 view .LVU8
  61 0000 38B5     		push	{r3, r4, r5, lr}
  62              	.LCFI0:
  63              		.cfi_def_cfa_offset 16
  64              		.cfi_offset 3, -16
  65              		.cfi_offset 4, -12
  66              		.cfi_offset 5, -8
  67              		.cfi_offset 14, -4
  68 0002 0546     		mov	r5, r0
 612:lib/TinyUSB/src/device/usbd.c ****   for (uint8_t i = 0; i < TOTAL_DRIVER_COUNT; i++) {
  69              		.loc 1 612 3 is_stmt 1 view .LVU9
  70              	.LBB224:
  71              		.loc 1 612 8 view .LVU10
  72              	.LVL3:
  73              		.loc 1 612 16 is_stmt 0 view .LVU11
  74 0004 0024     		movs	r4, #0
  75              		.loc 1 612 3 view .LVU12
ARM GAS  C:\Users\krisa\AppData\Local\Temp\cc7LeJkl.s 			page 13


  76 0006 0EE0     		b	.L3
  77              	.LVL4:
  78              	.L4:
  79              	.LBB225:
  80              	.LBB226:
  81              	.LBB227:
 355:lib/TinyUSB/src/device/usbd.c ****     if (drvid < BUILTIN_DRIVER_COUNT) {
  82              		.loc 1 355 5 is_stmt 1 view .LVU13
 355:lib/TinyUSB/src/device/usbd.c ****     if (drvid < BUILTIN_DRIVER_COUNT) {
  83              		.loc 1 355 11 is_stmt 0 view .LVU14
  84 0008 E31A     		subs	r3, r4, r3
  85 000a DBB2     		uxtb	r3, r3
  86              	.LVL5:
 356:lib/TinyUSB/src/device/usbd.c ****       driver = &_usbd_driver[drvid];
  87              		.loc 1 356 5 is_stmt 1 view .LVU15
 356:lib/TinyUSB/src/device/usbd.c ****       driver = &_usbd_driver[drvid];
  88              		.loc 1 356 8 is_stmt 0 view .LVU16
  89 000c 012B     		cmp	r3, #1
  90 000e 19D8     		bhi	.L6
 357:lib/TinyUSB/src/device/usbd.c ****     }
  91              		.loc 1 357 7 is_stmt 1 view .LVU17
 357:lib/TinyUSB/src/device/usbd.c ****     }
  92              		.loc 1 357 14 is_stmt 0 view .LVU18
  93 0010 03EBC303 		add	r3, r3, r3, lsl #3
  94              	.LVL6:
 357:lib/TinyUSB/src/device/usbd.c ****     }
  95              		.loc 1 357 14 view .LVU19
  96 0014 1B4A     		ldr	r2, .L13
  97 0016 02EB8303 		add	r3, r2, r3, lsl #2
  98              	.LVL7:
  99              	.L5:
 361:lib/TinyUSB/src/device/usbd.c **** }
 100              		.loc 1 361 3 is_stmt 1 view .LVU20
 361:lib/TinyUSB/src/device/usbd.c **** }
 101              		.loc 1 361 3 is_stmt 0 view .LVU21
 102              	.LBE227:
 103              	.LBE226:
 613:lib/TinyUSB/src/device/usbd.c ****     usbd_class_driver_t const* driver = get_driver(i);
 614:lib/TinyUSB/src/device/usbd.c ****     TU_ASSERT(driver,);
 104              		.loc 1 614 5 is_stmt 1 view .LVU22
 105              		.loc 1 614 5 view .LVU23
 106 001a 9BB1     		cbz	r3, .L6
 107              		.loc 1 614 5 discriminator 2 view .LVU24
 615:lib/TinyUSB/src/device/usbd.c ****     driver->reset(rhport);
 108              		.loc 1 615 5 discriminator 2 view .LVU25
 109              		.loc 1 615 11 is_stmt 0 discriminator 2 view .LVU26
 110 001c DB68     		ldr	r3, [r3, #12]
 111              	.LVL8:
 112              		.loc 1 615 5 discriminator 2 view .LVU27
 113 001e 2846     		mov	r0, r5
 114 0020 9847     		blx	r3
 115              	.LVL9:
 116              	.LBE225:
 612:lib/TinyUSB/src/device/usbd.c ****     usbd_class_driver_t const* driver = get_driver(i);
 117              		.loc 1 612 47 is_stmt 1 discriminator 2 view .LVU28
 612:lib/TinyUSB/src/device/usbd.c ****     usbd_class_driver_t const* driver = get_driver(i);
 118              		.loc 1 612 48 is_stmt 0 discriminator 2 view .LVU29
ARM GAS  C:\Users\krisa\AppData\Local\Temp\cc7LeJkl.s 			page 14


 119 0022 0134     		adds	r4, r4, #1
 120              	.LVL10:
 612:lib/TinyUSB/src/device/usbd.c ****     usbd_class_driver_t const* driver = get_driver(i);
 121              		.loc 1 612 48 discriminator 2 view .LVU30
 122 0024 E4B2     		uxtb	r4, r4
 123              	.LVL11:
 124              	.L3:
 612:lib/TinyUSB/src/device/usbd.c ****     usbd_class_driver_t const* driver = get_driver(i);
 125              		.loc 1 612 23 is_stmt 1 discriminator 2 view .LVU31
 612:lib/TinyUSB/src/device/usbd.c ****     usbd_class_driver_t const* driver = get_driver(i);
 126              		.loc 1 612 27 is_stmt 0 discriminator 2 view .LVU32
 127 0026 184B     		ldr	r3, .L13+4
 128 0028 1B78     		ldrb	r3, [r3]	@ zero_extendqisi2
 129 002a 9A1C     		adds	r2, r3, #2
 130 002c D2B2     		uxtb	r2, r2
 612:lib/TinyUSB/src/device/usbd.c ****     usbd_class_driver_t const* driver = get_driver(i);
 131              		.loc 1 612 3 discriminator 2 view .LVU33
 132 002e A242     		cmp	r2, r4
 133 0030 11D9     		bls	.L12
 134              	.LBB231:
 613:lib/TinyUSB/src/device/usbd.c ****     usbd_class_driver_t const* driver = get_driver(i);
 135              		.loc 1 613 5 is_stmt 1 view .LVU34
 136              	.LVL12:
 137              	.LBB229:
 138              	.LBI226:
 349:lib/TinyUSB/src/device/usbd.c ****   usbd_class_driver_t const *driver = NULL;
 139              		.loc 1 349 65 view .LVU35
 140              	.LBB228:
 350:lib/TinyUSB/src/device/usbd.c ****   if (drvid < _app_driver_count) {
 141              		.loc 1 350 3 view .LVU36
 351:lib/TinyUSB/src/device/usbd.c ****     // Application drivers
 142              		.loc 1 351 3 view .LVU37
 351:lib/TinyUSB/src/device/usbd.c ****     // Application drivers
 143              		.loc 1 351 6 is_stmt 0 view .LVU38
 144 0032 A342     		cmp	r3, r4
 145 0034 E8D9     		bls	.L4
 353:lib/TinyUSB/src/device/usbd.c ****   } else{
 146              		.loc 1 353 5 is_stmt 1 view .LVU39
 353:lib/TinyUSB/src/device/usbd.c ****   } else{
 147              		.loc 1 353 14 is_stmt 0 view .LVU40
 148 0036 154B     		ldr	r3, .L13+8
 149 0038 1B68     		ldr	r3, [r3]
 353:lib/TinyUSB/src/device/usbd.c ****   } else{
 150              		.loc 1 353 26 view .LVU41
 151 003a 04EBC402 		add	r2, r4, r4, lsl #3
 353:lib/TinyUSB/src/device/usbd.c ****   } else{
 152              		.loc 1 353 12 view .LVU42
 153 003e 03EB8203 		add	r3, r3, r2, lsl #2
 154              	.LVL13:
 353:lib/TinyUSB/src/device/usbd.c ****   } else{
 155              		.loc 1 353 12 view .LVU43
 156 0042 EAE7     		b	.L5
 157              	.LVL14:
 158              	.L6:
 353:lib/TinyUSB/src/device/usbd.c ****   } else{
 159              		.loc 1 353 12 view .LVU44
 160              	.LBE228:
ARM GAS  C:\Users\krisa\AppData\Local\Temp\cc7LeJkl.s 			page 15


 161              	.LBE229:
 614:lib/TinyUSB/src/device/usbd.c ****     driver->reset(rhport);
 162              		.loc 1 614 5 is_stmt 1 discriminator 1 view .LVU45
 614:lib/TinyUSB/src/device/usbd.c ****     driver->reset(rhport);
 163              		.loc 1 614 5 discriminator 1 view .LVU46
 614:lib/TinyUSB/src/device/usbd.c ****     driver->reset(rhport);
 164              		.loc 1 614 5 discriminator 1 view .LVU47
 614:lib/TinyUSB/src/device/usbd.c ****     driver->reset(rhport);
 165              		.loc 1 614 5 discriminator 1 view .LVU48
 166              	.LBB230:
 614:lib/TinyUSB/src/device/usbd.c ****     driver->reset(rhport);
 167              		.loc 1 614 5 discriminator 1 view .LVU49
 614:lib/TinyUSB/src/device/usbd.c ****     driver->reset(rhport);
 168              		.loc 1 614 5 discriminator 1 view .LVU50
 169 0044 4FF0E023 		mov	r3, #-536813568
 170 0048 D3F8F03D 		ldr	r3, [r3, #3568]
 171 004c 13F0010F 		tst	r3, #1
 172 0050 00D0     		beq	.L2
 614:lib/TinyUSB/src/device/usbd.c ****     driver->reset(rhport);
 173              		.loc 1 614 5 discriminator 3 view .LVU51
 174              		.syntax unified
 175              	@ 614 "lib/TinyUSB/src/device/usbd.c" 1
 176 0052 00BE     		BKPT #0
 177              	
 178              	@ 0 "" 2
 179              		.thumb
 180              		.syntax unified
 181              	.LBE230:
 614:lib/TinyUSB/src/device/usbd.c ****     driver->reset(rhport);
 182              		.loc 1 614 5 discriminator 3 view .LVU52
 614:lib/TinyUSB/src/device/usbd.c ****     driver->reset(rhport);
 183              		.loc 1 614 5 discriminator 3 view .LVU53
 184              	.LVL15:
 185              	.L2:
 614:lib/TinyUSB/src/device/usbd.c ****     driver->reset(rhport);
 186              		.loc 1 614 5 is_stmt 0 discriminator 3 view .LVU54
 187              	.LBE231:
 188              	.LBE224:
 616:lib/TinyUSB/src/device/usbd.c ****   }
 617:lib/TinyUSB/src/device/usbd.c **** 
 618:lib/TinyUSB/src/device/usbd.c ****   tu_varclr(&_usbd_dev);
 619:lib/TinyUSB/src/device/usbd.c ****   (void)memset(_usbd_dev.itf2drv, TUSB_INDEX_INVALID_8, sizeof(_usbd_dev.itf2drv)); // invalid mapp
 620:lib/TinyUSB/src/device/usbd.c ****   (void)memset(_usbd_dev.ep2drv, TUSB_INDEX_INVALID_8, sizeof(_usbd_dev.ep2drv));   // invalid mapp
 621:lib/TinyUSB/src/device/usbd.c **** }
 189              		.loc 1 621 1 view .LVU55
 190 0054 38BD     		pop	{r3, r4, r5, pc}
 191              	.LVL16:
 192              	.L12:
 618:lib/TinyUSB/src/device/usbd.c ****   (void)memset(_usbd_dev.itf2drv, TUSB_INDEX_INVALID_8, sizeof(_usbd_dev.itf2drv)); // invalid mapp
 193              		.loc 1 618 3 is_stmt 1 view .LVU56
 194 0056 0E4C     		ldr	r4, .L13+12
 195              	.LVL17:
 618:lib/TinyUSB/src/device/usbd.c ****   (void)memset(_usbd_dev.itf2drv, TUSB_INDEX_INVALID_8, sizeof(_usbd_dev.itf2drv)); // invalid mapp
 196              		.loc 1 618 3 is_stmt 0 view .LVU57
 197 0058 2F22     		movs	r2, #47
 198 005a 0021     		movs	r1, #0
 199 005c 2046     		mov	r0, r4
ARM GAS  C:\Users\krisa\AppData\Local\Temp\cc7LeJkl.s 			page 16


 200 005e FFF7FEFF 		bl	memset
 201              	.LVL18:
 619:lib/TinyUSB/src/device/usbd.c ****   (void)memset(_usbd_dev.ep2drv, TUSB_INDEX_INVALID_8, sizeof(_usbd_dev.ep2drv));   // invalid mapp
 202              		.loc 1 619 3 is_stmt 1 view .LVU58
 619:lib/TinyUSB/src/device/usbd.c ****   (void)memset(_usbd_dev.ep2drv, TUSB_INDEX_INVALID_8, sizeof(_usbd_dev.ep2drv));   // invalid mapp
 203              		.loc 1 619 9 is_stmt 0 view .LVU59
 204 0062 4FF0FF33 		mov	r3, #-1
 205 0066 C4F80730 		str	r3, [r4, #7]	@ unaligned
 206 006a C4F80B30 		str	r3, [r4, #11]	@ unaligned
 207 006e C4F80F30 		str	r3, [r4, #15]	@ unaligned
 208 0072 C4F81330 		str	r3, [r4, #19]	@ unaligned
 620:lib/TinyUSB/src/device/usbd.c **** }
 209              		.loc 1 620 3 is_stmt 1 view .LVU60
 620:lib/TinyUSB/src/device/usbd.c **** }
 210              		.loc 1 620 9 is_stmt 0 view .LVU61
 211 0076 C4F81730 		str	r3, [r4, #23]	@ unaligned
 212 007a C4F81B30 		str	r3, [r4, #27]	@ unaligned
 213 007e C4F81F30 		str	r3, [r4, #31]	@ unaligned
 214 0082 E7E7     		b	.L2
 215              	.L14:
 216              		.align	2
 217              	.L13:
 218 0084 00000000 		.word	.LANCHOR1
 219 0088 00000000 		.word	.LANCHOR2
 220 008c 00000000 		.word	.LANCHOR0
 221 0090 00000000 		.word	.LANCHOR3
 222              		.cfi_endproc
 223              	.LFE148:
 225              		.section	.text.usbd_int_set,"ax",%progbits
 226              		.align	1
 227              		.global	usbd_int_set
 228              		.syntax unified
 229              		.thumb
 230              		.thumb_func
 232              	usbd_int_set:
 233              	.LVL19:
 234              	.LFB157:
 622:lib/TinyUSB/src/device/usbd.c **** 
 623:lib/TinyUSB/src/device/usbd.c **** static void usbd_reset(uint8_t rhport) {
 624:lib/TinyUSB/src/device/usbd.c ****   configuration_reset(rhport);
 625:lib/TinyUSB/src/device/usbd.c ****   usbd_control_reset();
 626:lib/TinyUSB/src/device/usbd.c **** }
 627:lib/TinyUSB/src/device/usbd.c **** 
 628:lib/TinyUSB/src/device/usbd.c **** bool tud_task_event_ready(void) {
 629:lib/TinyUSB/src/device/usbd.c ****   TU_VERIFY(tud_inited()); // Skip if stack is not initialized
 630:lib/TinyUSB/src/device/usbd.c ****   return !osal_queue_empty(_usbd_q);
 631:lib/TinyUSB/src/device/usbd.c **** }
 632:lib/TinyUSB/src/device/usbd.c **** 
 633:lib/TinyUSB/src/device/usbd.c **** //--------------------------------------------------------------------+
 634:lib/TinyUSB/src/device/usbd.c **** // USBD Task
 635:lib/TinyUSB/src/device/usbd.c **** //--------------------------------------------------------------------+
 636:lib/TinyUSB/src/device/usbd.c **** /* USB Device Driver task
 637:lib/TinyUSB/src/device/usbd.c ****  * This top level thread manages all device controller event and delegates events to class-specific
 638:lib/TinyUSB/src/device/usbd.c ****  * This should be called periodically within the mainloop or rtos thread.
 639:lib/TinyUSB/src/device/usbd.c ****  *
 640:lib/TinyUSB/src/device/usbd.c ****     int main(void) {
 641:lib/TinyUSB/src/device/usbd.c ****       application_init();
ARM GAS  C:\Users\krisa\AppData\Local\Temp\cc7LeJkl.s 			page 17


 642:lib/TinyUSB/src/device/usbd.c ****       tusb_init(0, TUSB_ROLE_DEVICE);
 643:lib/TinyUSB/src/device/usbd.c **** 
 644:lib/TinyUSB/src/device/usbd.c ****       while(1) { // the mainloop
 645:lib/TinyUSB/src/device/usbd.c ****         application_code();
 646:lib/TinyUSB/src/device/usbd.c ****         tud_task(); // tinyusb device task
 647:lib/TinyUSB/src/device/usbd.c ****       }
 648:lib/TinyUSB/src/device/usbd.c ****     }
 649:lib/TinyUSB/src/device/usbd.c ****  */
 650:lib/TinyUSB/src/device/usbd.c **** void tud_task_ext(uint32_t timeout_ms, bool in_isr) {
 651:lib/TinyUSB/src/device/usbd.c ****   (void) in_isr; // not implemented yet
 652:lib/TinyUSB/src/device/usbd.c **** 
 653:lib/TinyUSB/src/device/usbd.c ****   // Skip if stack is not initialized
 654:lib/TinyUSB/src/device/usbd.c ****   if (!tud_inited()) {
 655:lib/TinyUSB/src/device/usbd.c ****     return;
 656:lib/TinyUSB/src/device/usbd.c ****   }
 657:lib/TinyUSB/src/device/usbd.c **** 
 658:lib/TinyUSB/src/device/usbd.c ****   // Loop until there is no more events in the queue
 659:lib/TinyUSB/src/device/usbd.c ****   while (1) {
 660:lib/TinyUSB/src/device/usbd.c ****     dcd_event_t event;
 661:lib/TinyUSB/src/device/usbd.c ****     if (!osal_queue_receive(_usbd_q, &event, timeout_ms)) {
 662:lib/TinyUSB/src/device/usbd.c ****       return;
 663:lib/TinyUSB/src/device/usbd.c ****     }
 664:lib/TinyUSB/src/device/usbd.c **** 
 665:lib/TinyUSB/src/device/usbd.c **** #if CFG_TUSB_DEBUG >= CFG_TUD_LOG_LEVEL
 666:lib/TinyUSB/src/device/usbd.c ****     if (event.event_id == DCD_EVENT_SETUP_RECEIVED) {
 667:lib/TinyUSB/src/device/usbd.c ****       TU_LOG_USBD("\r\n"); // extra line for setup
 668:lib/TinyUSB/src/device/usbd.c ****     }
 669:lib/TinyUSB/src/device/usbd.c ****     TU_LOG_USBD("USBD %s ", event.event_id < DCD_EVENT_COUNT ? _usbd_event_str[event.event_id] : "C
 670:lib/TinyUSB/src/device/usbd.c **** #endif
 671:lib/TinyUSB/src/device/usbd.c **** 
 672:lib/TinyUSB/src/device/usbd.c ****     switch (event.event_id) {
 673:lib/TinyUSB/src/device/usbd.c ****       case DCD_EVENT_BUS_RESET:
 674:lib/TinyUSB/src/device/usbd.c ****         TU_LOG_USBD(": %s Speed\r\n", tu_str_speed[event.bus_reset.speed]);
 675:lib/TinyUSB/src/device/usbd.c ****         usbd_reset(event.rhport);
 676:lib/TinyUSB/src/device/usbd.c ****         _usbd_dev.speed = event.bus_reset.speed;
 677:lib/TinyUSB/src/device/usbd.c ****         break;
 678:lib/TinyUSB/src/device/usbd.c **** 
 679:lib/TinyUSB/src/device/usbd.c ****       case DCD_EVENT_UNPLUGGED:
 680:lib/TinyUSB/src/device/usbd.c ****         TU_LOG_USBD("\r\n");
 681:lib/TinyUSB/src/device/usbd.c ****         usbd_reset(event.rhport);
 682:lib/TinyUSB/src/device/usbd.c ****         tud_umount_cb();
 683:lib/TinyUSB/src/device/usbd.c ****         break;
 684:lib/TinyUSB/src/device/usbd.c **** 
 685:lib/TinyUSB/src/device/usbd.c ****       case DCD_EVENT_SETUP_RECEIVED:
 686:lib/TinyUSB/src/device/usbd.c ****         TU_ASSERT(_usbd_queued_setup > 0,);
 687:lib/TinyUSB/src/device/usbd.c ****         _usbd_queued_setup--;
 688:lib/TinyUSB/src/device/usbd.c ****         TU_LOG_BUF(CFG_TUD_LOG_LEVEL, &event.setup_received, 8);
 689:lib/TinyUSB/src/device/usbd.c ****         if (_usbd_queued_setup != 0) {
 690:lib/TinyUSB/src/device/usbd.c ****           TU_LOG_USBD("  Skipped since there is other SETUP in queue\r\n");
 691:lib/TinyUSB/src/device/usbd.c ****           break;
 692:lib/TinyUSB/src/device/usbd.c ****         }
 693:lib/TinyUSB/src/device/usbd.c **** 
 694:lib/TinyUSB/src/device/usbd.c ****         // Mark as connected after receiving 1st setup packet.
 695:lib/TinyUSB/src/device/usbd.c ****         // But it is easier to set it every time instead of wasting time to check then set
 696:lib/TinyUSB/src/device/usbd.c ****         _usbd_dev.connected = 1;
 697:lib/TinyUSB/src/device/usbd.c **** 
 698:lib/TinyUSB/src/device/usbd.c ****         // mark both in & out control as free
ARM GAS  C:\Users\krisa\AppData\Local\Temp\cc7LeJkl.s 			page 18


 699:lib/TinyUSB/src/device/usbd.c ****         _usbd_dev.ep_status[0][TUSB_DIR_OUT].busy = 0;
 700:lib/TinyUSB/src/device/usbd.c ****         _usbd_dev.ep_status[0][TUSB_DIR_OUT].claimed = 0;
 701:lib/TinyUSB/src/device/usbd.c ****         _usbd_dev.ep_status[0][TUSB_DIR_IN].busy = 0;
 702:lib/TinyUSB/src/device/usbd.c ****         _usbd_dev.ep_status[0][TUSB_DIR_IN].claimed = 0;
 703:lib/TinyUSB/src/device/usbd.c **** 
 704:lib/TinyUSB/src/device/usbd.c ****         // Process control request
 705:lib/TinyUSB/src/device/usbd.c ****         if (!process_control_request(event.rhport, &event.setup_received)) {
 706:lib/TinyUSB/src/device/usbd.c ****           TU_LOG_USBD("  Stall EP0\r\n");
 707:lib/TinyUSB/src/device/usbd.c ****           // Failed -> stall both control endpoint IN and OUT
 708:lib/TinyUSB/src/device/usbd.c ****           dcd_edpt_stall(event.rhport, 0);
 709:lib/TinyUSB/src/device/usbd.c ****           dcd_edpt_stall(event.rhport, 0 | TUSB_DIR_IN_MASK);
 710:lib/TinyUSB/src/device/usbd.c ****         }
 711:lib/TinyUSB/src/device/usbd.c ****         break;
 712:lib/TinyUSB/src/device/usbd.c **** 
 713:lib/TinyUSB/src/device/usbd.c ****       case DCD_EVENT_XFER_COMPLETE: {
 714:lib/TinyUSB/src/device/usbd.c ****         // Invoke the class callback associated with the endpoint address
 715:lib/TinyUSB/src/device/usbd.c ****         uint8_t const ep_addr = event.xfer_complete.ep_addr;
 716:lib/TinyUSB/src/device/usbd.c ****         uint8_t const epnum = tu_edpt_number(ep_addr);
 717:lib/TinyUSB/src/device/usbd.c ****         uint8_t const ep_dir = tu_edpt_dir(ep_addr);
 718:lib/TinyUSB/src/device/usbd.c **** 
 719:lib/TinyUSB/src/device/usbd.c ****         TU_LOG_USBD("on EP %02X with %u bytes\r\n", ep_addr, (unsigned int) event.xfer_complete.len
 720:lib/TinyUSB/src/device/usbd.c **** 
 721:lib/TinyUSB/src/device/usbd.c ****         _usbd_dev.ep_status[epnum][ep_dir].busy = 0;
 722:lib/TinyUSB/src/device/usbd.c ****         _usbd_dev.ep_status[epnum][ep_dir].claimed = 0;
 723:lib/TinyUSB/src/device/usbd.c **** 
 724:lib/TinyUSB/src/device/usbd.c ****         if (0 == epnum) {
 725:lib/TinyUSB/src/device/usbd.c ****           usbd_control_xfer_cb(event.rhport, ep_addr, (xfer_result_t) event.xfer_complete.result, e
 726:lib/TinyUSB/src/device/usbd.c ****         } else {
 727:lib/TinyUSB/src/device/usbd.c ****           usbd_class_driver_t const* driver = get_driver(_usbd_dev.ep2drv[epnum][ep_dir]);
 728:lib/TinyUSB/src/device/usbd.c ****           TU_ASSERT(driver,);
 729:lib/TinyUSB/src/device/usbd.c **** 
 730:lib/TinyUSB/src/device/usbd.c ****           TU_LOG_USBD("  %s xfer callback\r\n", driver->name);
 731:lib/TinyUSB/src/device/usbd.c ****           driver->xfer_cb(event.rhport, ep_addr, (xfer_result_t) event.xfer_complete.result, event.
 732:lib/TinyUSB/src/device/usbd.c ****         }
 733:lib/TinyUSB/src/device/usbd.c ****         break;
 734:lib/TinyUSB/src/device/usbd.c ****       }
 735:lib/TinyUSB/src/device/usbd.c **** 
 736:lib/TinyUSB/src/device/usbd.c ****       case DCD_EVENT_SUSPEND:
 737:lib/TinyUSB/src/device/usbd.c ****         // NOTE: When plugging/unplugging device, the D+/D- state are unstable and
 738:lib/TinyUSB/src/device/usbd.c ****         // can accidentally meet the SUSPEND condition ( Bus Idle for 3ms ), which result in a seri
 739:lib/TinyUSB/src/device/usbd.c ****         // e.g suspend -> resume -> unplug/plug. Skip suspend/resume if not connected
 740:lib/TinyUSB/src/device/usbd.c ****         if (_usbd_dev.connected) {
 741:lib/TinyUSB/src/device/usbd.c ****           TU_LOG_USBD(": Remote Wakeup = %u\r\n", _usbd_dev.remote_wakeup_en);
 742:lib/TinyUSB/src/device/usbd.c ****           tud_suspend_cb(_usbd_dev.remote_wakeup_en);
 743:lib/TinyUSB/src/device/usbd.c ****         } else {
 744:lib/TinyUSB/src/device/usbd.c ****           TU_LOG_USBD(" Skipped\r\n");
 745:lib/TinyUSB/src/device/usbd.c ****         }
 746:lib/TinyUSB/src/device/usbd.c ****         break;
 747:lib/TinyUSB/src/device/usbd.c **** 
 748:lib/TinyUSB/src/device/usbd.c ****       case DCD_EVENT_RESUME:
 749:lib/TinyUSB/src/device/usbd.c ****         if (_usbd_dev.connected) {
 750:lib/TinyUSB/src/device/usbd.c ****           TU_LOG_USBD("\r\n");
 751:lib/TinyUSB/src/device/usbd.c ****           tud_resume_cb();
 752:lib/TinyUSB/src/device/usbd.c ****         } else {
 753:lib/TinyUSB/src/device/usbd.c ****           TU_LOG_USBD(" Skipped\r\n");
 754:lib/TinyUSB/src/device/usbd.c ****         }
 755:lib/TinyUSB/src/device/usbd.c ****         break;
ARM GAS  C:\Users\krisa\AppData\Local\Temp\cc7LeJkl.s 			page 19


 756:lib/TinyUSB/src/device/usbd.c **** 
 757:lib/TinyUSB/src/device/usbd.c ****       case USBD_EVENT_FUNC_CALL:
 758:lib/TinyUSB/src/device/usbd.c ****         TU_LOG_USBD("\r\n");
 759:lib/TinyUSB/src/device/usbd.c ****         if (event.func_call.func != NULL) {
 760:lib/TinyUSB/src/device/usbd.c ****           event.func_call.func(event.func_call.param);
 761:lib/TinyUSB/src/device/usbd.c ****         }
 762:lib/TinyUSB/src/device/usbd.c ****         break;
 763:lib/TinyUSB/src/device/usbd.c **** 
 764:lib/TinyUSB/src/device/usbd.c ****       case DCD_EVENT_SOF:
 765:lib/TinyUSB/src/device/usbd.c ****         if (tu_bit_test(_usbd_dev.sof_consumer, SOF_CONSUMER_USER)) {
 766:lib/TinyUSB/src/device/usbd.c ****           TU_LOG_USBD("\r\n");
 767:lib/TinyUSB/src/device/usbd.c ****           tud_sof_cb(event.sof.frame_count);
 768:lib/TinyUSB/src/device/usbd.c ****         }
 769:lib/TinyUSB/src/device/usbd.c ****       break;
 770:lib/TinyUSB/src/device/usbd.c **** 
 771:lib/TinyUSB/src/device/usbd.c ****       default:
 772:lib/TinyUSB/src/device/usbd.c ****         TU_BREAKPOINT();
 773:lib/TinyUSB/src/device/usbd.c ****         break;
 774:lib/TinyUSB/src/device/usbd.c ****     }
 775:lib/TinyUSB/src/device/usbd.c **** 
 776:lib/TinyUSB/src/device/usbd.c **** #if CFG_TUSB_OS != OPT_OS_NONE && CFG_TUSB_OS != OPT_OS_PICO
 777:lib/TinyUSB/src/device/usbd.c ****     // return if there is no more events, for application to run other background
 778:lib/TinyUSB/src/device/usbd.c ****     if (osal_queue_empty(_usbd_q)) { return; }
 779:lib/TinyUSB/src/device/usbd.c **** #endif
 780:lib/TinyUSB/src/device/usbd.c ****   }
 781:lib/TinyUSB/src/device/usbd.c **** }
 782:lib/TinyUSB/src/device/usbd.c **** 
 783:lib/TinyUSB/src/device/usbd.c **** //--------------------------------------------------------------------+
 784:lib/TinyUSB/src/device/usbd.c **** // Control Request Parser & Handling
 785:lib/TinyUSB/src/device/usbd.c **** //--------------------------------------------------------------------+
 786:lib/TinyUSB/src/device/usbd.c **** 
 787:lib/TinyUSB/src/device/usbd.c **** // Helper to invoke class driver control request handler
 788:lib/TinyUSB/src/device/usbd.c **** static bool invoke_class_control(uint8_t rhport, usbd_class_driver_t const * driver, tusb_control_r
 789:lib/TinyUSB/src/device/usbd.c ****   usbd_control_set_complete_callback(driver->control_xfer_cb);
 790:lib/TinyUSB/src/device/usbd.c ****   TU_LOG_USBD("  %s control request\r\n", driver->name);
 791:lib/TinyUSB/src/device/usbd.c ****   return driver->control_xfer_cb(rhport, CONTROL_STAGE_SETUP, request);
 792:lib/TinyUSB/src/device/usbd.c **** }
 793:lib/TinyUSB/src/device/usbd.c **** 
 794:lib/TinyUSB/src/device/usbd.c **** // This handles the actual request and its response.
 795:lib/TinyUSB/src/device/usbd.c **** // Returns false if unable to complete the request, causing caller to stall control endpoints.
 796:lib/TinyUSB/src/device/usbd.c **** static bool process_control_request(uint8_t rhport, tusb_control_request_t const * p_request) {
 797:lib/TinyUSB/src/device/usbd.c ****   usbd_control_set_complete_callback(NULL);
 798:lib/TinyUSB/src/device/usbd.c ****   TU_ASSERT(p_request->bmRequestType_bit.type < TUSB_REQ_TYPE_INVALID);
 799:lib/TinyUSB/src/device/usbd.c **** 
 800:lib/TinyUSB/src/device/usbd.c ****   // Vendor request
 801:lib/TinyUSB/src/device/usbd.c ****   if ( p_request->bmRequestType_bit.type == TUSB_REQ_TYPE_VENDOR ) {
 802:lib/TinyUSB/src/device/usbd.c ****     usbd_control_set_complete_callback(tud_vendor_control_xfer_cb);
 803:lib/TinyUSB/src/device/usbd.c ****     return tud_vendor_control_xfer_cb(rhport, CONTROL_STAGE_SETUP, p_request);
 804:lib/TinyUSB/src/device/usbd.c ****   }
 805:lib/TinyUSB/src/device/usbd.c **** 
 806:lib/TinyUSB/src/device/usbd.c **** #if CFG_TUSB_DEBUG >= CFG_TUD_LOG_LEVEL
 807:lib/TinyUSB/src/device/usbd.c ****   if (TUSB_REQ_TYPE_STANDARD == p_request->bmRequestType_bit.type && p_request->bRequest <= TUSB_RE
 808:lib/TinyUSB/src/device/usbd.c ****     TU_LOG_USBD("  %s", tu_str_std_request[p_request->bRequest]);
 809:lib/TinyUSB/src/device/usbd.c ****     if (TUSB_REQ_GET_DESCRIPTOR != p_request->bRequest) TU_LOG_USBD("\r\n");
 810:lib/TinyUSB/src/device/usbd.c ****   }
 811:lib/TinyUSB/src/device/usbd.c **** #endif
 812:lib/TinyUSB/src/device/usbd.c **** 
ARM GAS  C:\Users\krisa\AppData\Local\Temp\cc7LeJkl.s 			page 20


 813:lib/TinyUSB/src/device/usbd.c ****   switch (p_request->bmRequestType_bit.recipient) { //-V2520
 814:lib/TinyUSB/src/device/usbd.c ****     //------------- Device Requests e.g in enumeration -------------//
 815:lib/TinyUSB/src/device/usbd.c ****     case TUSB_REQ_RCPT_DEVICE:
 816:lib/TinyUSB/src/device/usbd.c ****       if ( TUSB_REQ_TYPE_CLASS == p_request->bmRequestType_bit.type ) {
 817:lib/TinyUSB/src/device/usbd.c ****         uint8_t const itf = tu_u16_low(p_request->wIndex);
 818:lib/TinyUSB/src/device/usbd.c ****         TU_VERIFY(itf < TU_ARRAY_SIZE(_usbd_dev.itf2drv));
 819:lib/TinyUSB/src/device/usbd.c **** 
 820:lib/TinyUSB/src/device/usbd.c ****         usbd_class_driver_t const * driver = get_driver(_usbd_dev.itf2drv[itf]);
 821:lib/TinyUSB/src/device/usbd.c ****         TU_VERIFY(driver);
 822:lib/TinyUSB/src/device/usbd.c **** 
 823:lib/TinyUSB/src/device/usbd.c ****         // forward to class driver: "non-STD request to Interface"
 824:lib/TinyUSB/src/device/usbd.c ****         return invoke_class_control(rhport, driver, p_request);
 825:lib/TinyUSB/src/device/usbd.c ****       }
 826:lib/TinyUSB/src/device/usbd.c **** 
 827:lib/TinyUSB/src/device/usbd.c ****       if (TUSB_REQ_TYPE_STANDARD != p_request->bmRequestType_bit.type) {
 828:lib/TinyUSB/src/device/usbd.c ****         // Non-standard request is not supported
 829:lib/TinyUSB/src/device/usbd.c ****         TU_BREAKPOINT();
 830:lib/TinyUSB/src/device/usbd.c ****         return false;
 831:lib/TinyUSB/src/device/usbd.c ****       }
 832:lib/TinyUSB/src/device/usbd.c **** 
 833:lib/TinyUSB/src/device/usbd.c ****       switch (p_request->bRequest) { //-V2520
 834:lib/TinyUSB/src/device/usbd.c ****         case TUSB_REQ_SET_ADDRESS:
 835:lib/TinyUSB/src/device/usbd.c ****           // Depending on mcu, status phase could be sent either before or after changing device ad
 836:lib/TinyUSB/src/device/usbd.c ****           // or even require stack to not response with status at all
 837:lib/TinyUSB/src/device/usbd.c ****           // Therefore DCD must take full responsibility to response and include zlp status packet 
 838:lib/TinyUSB/src/device/usbd.c ****           usbd_control_set_request(p_request); // set request since DCD has no access to tud_contro
 839:lib/TinyUSB/src/device/usbd.c ****           dcd_set_address(rhport, (uint8_t) p_request->wValue);
 840:lib/TinyUSB/src/device/usbd.c ****           // skip tud_control_status()
 841:lib/TinyUSB/src/device/usbd.c ****           _usbd_dev.addressed = 1;
 842:lib/TinyUSB/src/device/usbd.c ****         break;
 843:lib/TinyUSB/src/device/usbd.c **** 
 844:lib/TinyUSB/src/device/usbd.c ****         case TUSB_REQ_GET_CONFIGURATION: {
 845:lib/TinyUSB/src/device/usbd.c ****           uint8_t cfg_num = _usbd_dev.cfg_num;
 846:lib/TinyUSB/src/device/usbd.c ****           tud_control_xfer(rhport, p_request, &cfg_num, 1);
 847:lib/TinyUSB/src/device/usbd.c ****         }
 848:lib/TinyUSB/src/device/usbd.c ****         break;
 849:lib/TinyUSB/src/device/usbd.c **** 
 850:lib/TinyUSB/src/device/usbd.c ****         case TUSB_REQ_SET_CONFIGURATION: {
 851:lib/TinyUSB/src/device/usbd.c ****           uint8_t const cfg_num = (uint8_t) p_request->wValue;
 852:lib/TinyUSB/src/device/usbd.c **** 
 853:lib/TinyUSB/src/device/usbd.c ****           // Only process if new configure is different
 854:lib/TinyUSB/src/device/usbd.c ****           if (_usbd_dev.cfg_num != cfg_num) {
 855:lib/TinyUSB/src/device/usbd.c ****             if (_usbd_dev.cfg_num != 0) {
 856:lib/TinyUSB/src/device/usbd.c ****               // already configured: need to clear all endpoints and driver first
 857:lib/TinyUSB/src/device/usbd.c ****               TU_LOG_USBD("  Clear current Configuration (%u) before switching\r\n", _usbd_dev.cfg_
 858:lib/TinyUSB/src/device/usbd.c **** 
 859:lib/TinyUSB/src/device/usbd.c ****               dcd_sof_enable(rhport, false);
 860:lib/TinyUSB/src/device/usbd.c ****               dcd_edpt_close_all(rhport);
 861:lib/TinyUSB/src/device/usbd.c **** 
 862:lib/TinyUSB/src/device/usbd.c ****               // close all drivers and current configured state except bus speed
 863:lib/TinyUSB/src/device/usbd.c ****               const uint8_t speed = _usbd_dev.speed;
 864:lib/TinyUSB/src/device/usbd.c ****               configuration_reset(rhport);
 865:lib/TinyUSB/src/device/usbd.c **** 
 866:lib/TinyUSB/src/device/usbd.c ****               _usbd_dev.speed = speed; // restore speed
 867:lib/TinyUSB/src/device/usbd.c ****             }
 868:lib/TinyUSB/src/device/usbd.c **** 
 869:lib/TinyUSB/src/device/usbd.c ****             _usbd_dev.cfg_num = cfg_num;
ARM GAS  C:\Users\krisa\AppData\Local\Temp\cc7LeJkl.s 			page 21


 870:lib/TinyUSB/src/device/usbd.c **** 
 871:lib/TinyUSB/src/device/usbd.c ****             // Handle the new configuration
 872:lib/TinyUSB/src/device/usbd.c ****             if (cfg_num == 0) {
 873:lib/TinyUSB/src/device/usbd.c ****               tud_umount_cb();
 874:lib/TinyUSB/src/device/usbd.c ****             } else {
 875:lib/TinyUSB/src/device/usbd.c ****               if (!process_set_config(rhport, cfg_num)) {
 876:lib/TinyUSB/src/device/usbd.c ****                 _usbd_dev.cfg_num = 0;
 877:lib/TinyUSB/src/device/usbd.c ****                 TU_ASSERT(false);
 878:lib/TinyUSB/src/device/usbd.c ****               }
 879:lib/TinyUSB/src/device/usbd.c ****               tud_mount_cb();
 880:lib/TinyUSB/src/device/usbd.c ****             }
 881:lib/TinyUSB/src/device/usbd.c ****           }
 882:lib/TinyUSB/src/device/usbd.c **** 
 883:lib/TinyUSB/src/device/usbd.c ****           tud_control_status(rhport, p_request);
 884:lib/TinyUSB/src/device/usbd.c ****         }
 885:lib/TinyUSB/src/device/usbd.c ****         break;
 886:lib/TinyUSB/src/device/usbd.c **** 
 887:lib/TinyUSB/src/device/usbd.c ****         case TUSB_REQ_GET_DESCRIPTOR:
 888:lib/TinyUSB/src/device/usbd.c ****           TU_VERIFY(process_get_descriptor(rhport, p_request));
 889:lib/TinyUSB/src/device/usbd.c ****         break;
 890:lib/TinyUSB/src/device/usbd.c **** 
 891:lib/TinyUSB/src/device/usbd.c ****         case TUSB_REQ_SET_FEATURE:
 892:lib/TinyUSB/src/device/usbd.c ****           switch(p_request->wValue) { //-V2520
 893:lib/TinyUSB/src/device/usbd.c ****             case TUSB_REQ_FEATURE_REMOTE_WAKEUP:
 894:lib/TinyUSB/src/device/usbd.c ****               TU_LOG_USBD("    Enable Remote Wakeup\r\n");
 895:lib/TinyUSB/src/device/usbd.c ****               // Host may enable remote wake up before suspending especially HID device
 896:lib/TinyUSB/src/device/usbd.c ****               _usbd_dev.remote_wakeup_en = 1;
 897:lib/TinyUSB/src/device/usbd.c ****               tud_control_status(rhport, p_request);
 898:lib/TinyUSB/src/device/usbd.c ****               break;
 899:lib/TinyUSB/src/device/usbd.c **** 
 900:lib/TinyUSB/src/device/usbd.c ****             #if CFG_TUD_TEST_MODE
 901:lib/TinyUSB/src/device/usbd.c ****             case TUSB_REQ_FEATURE_TEST_MODE: {
 902:lib/TinyUSB/src/device/usbd.c ****               // Only handle the test mode if supported and valid
 903:lib/TinyUSB/src/device/usbd.c ****               TU_VERIFY(0 == tu_u16_low(p_request->wIndex));
 904:lib/TinyUSB/src/device/usbd.c **** 
 905:lib/TinyUSB/src/device/usbd.c ****               uint8_t const selector = tu_u16_high(p_request->wIndex);
 906:lib/TinyUSB/src/device/usbd.c ****               TU_VERIFY(TUSB_FEATURE_TEST_J <= selector && selector <= TUSB_FEATURE_TEST_FORCE_ENAB
 907:lib/TinyUSB/src/device/usbd.c **** 
 908:lib/TinyUSB/src/device/usbd.c ****               usbd_control_set_complete_callback(process_test_mode_cb);
 909:lib/TinyUSB/src/device/usbd.c ****               tud_control_status(rhport, p_request);
 910:lib/TinyUSB/src/device/usbd.c ****               break;
 911:lib/TinyUSB/src/device/usbd.c ****             }
 912:lib/TinyUSB/src/device/usbd.c ****             #endif
 913:lib/TinyUSB/src/device/usbd.c **** 
 914:lib/TinyUSB/src/device/usbd.c ****             // Stall unsupported feature selector
 915:lib/TinyUSB/src/device/usbd.c ****             default: return false;
 916:lib/TinyUSB/src/device/usbd.c ****           }
 917:lib/TinyUSB/src/device/usbd.c ****         break;
 918:lib/TinyUSB/src/device/usbd.c **** 
 919:lib/TinyUSB/src/device/usbd.c ****         case TUSB_REQ_CLEAR_FEATURE:
 920:lib/TinyUSB/src/device/usbd.c ****           // Only support remote wakeup for device feature
 921:lib/TinyUSB/src/device/usbd.c ****           TU_VERIFY(TUSB_REQ_FEATURE_REMOTE_WAKEUP == p_request->wValue);
 922:lib/TinyUSB/src/device/usbd.c ****           TU_LOG_USBD("    Disable Remote Wakeup\r\n");
 923:lib/TinyUSB/src/device/usbd.c **** 
 924:lib/TinyUSB/src/device/usbd.c ****           // Host may disable remote wake up after resuming
 925:lib/TinyUSB/src/device/usbd.c ****           _usbd_dev.remote_wakeup_en = 0;
 926:lib/TinyUSB/src/device/usbd.c ****           tud_control_status(rhport, p_request);
ARM GAS  C:\Users\krisa\AppData\Local\Temp\cc7LeJkl.s 			page 22


 927:lib/TinyUSB/src/device/usbd.c ****           break;
 928:lib/TinyUSB/src/device/usbd.c **** 
 929:lib/TinyUSB/src/device/usbd.c ****         case TUSB_REQ_GET_STATUS: {
 930:lib/TinyUSB/src/device/usbd.c ****           // Device status bit mask
 931:lib/TinyUSB/src/device/usbd.c ****           // - Bit 0: Self Powered TODO must invoke callback to get actual status
 932:lib/TinyUSB/src/device/usbd.c ****           // - Bit 1: Remote Wakeup enabled
 933:lib/TinyUSB/src/device/usbd.c ****           uint16_t status = (uint16_t)_usbd_dev.dev_state_bm;
 934:lib/TinyUSB/src/device/usbd.c ****           tud_control_xfer(rhport, p_request, &status, 2);
 935:lib/TinyUSB/src/device/usbd.c ****           break;
 936:lib/TinyUSB/src/device/usbd.c ****         }
 937:lib/TinyUSB/src/device/usbd.c **** 
 938:lib/TinyUSB/src/device/usbd.c ****         // Unknown/Unsupported request
 939:lib/TinyUSB/src/device/usbd.c ****         default: TU_BREAKPOINT(); return false;
 940:lib/TinyUSB/src/device/usbd.c ****       }
 941:lib/TinyUSB/src/device/usbd.c ****     break;
 942:lib/TinyUSB/src/device/usbd.c **** 
 943:lib/TinyUSB/src/device/usbd.c ****     //------------- Class/Interface Specific Request -------------//
 944:lib/TinyUSB/src/device/usbd.c ****     case TUSB_REQ_RCPT_INTERFACE: {
 945:lib/TinyUSB/src/device/usbd.c ****       uint8_t const itf = tu_u16_low(p_request->wIndex);
 946:lib/TinyUSB/src/device/usbd.c ****       TU_VERIFY(itf < TU_ARRAY_SIZE(_usbd_dev.itf2drv));
 947:lib/TinyUSB/src/device/usbd.c **** 
 948:lib/TinyUSB/src/device/usbd.c ****       usbd_class_driver_t const * driver = get_driver(_usbd_dev.itf2drv[itf]);
 949:lib/TinyUSB/src/device/usbd.c ****       TU_VERIFY(driver);
 950:lib/TinyUSB/src/device/usbd.c **** 
 951:lib/TinyUSB/src/device/usbd.c ****       // all requests to Interface (STD or Class) is forwarded to class driver.
 952:lib/TinyUSB/src/device/usbd.c ****       // notable requests are: GET HID REPORT DESCRIPTOR, SET_INTERFACE, GET_INTERFACE
 953:lib/TinyUSB/src/device/usbd.c ****       if (!invoke_class_control(rhport, driver, p_request)) {
 954:lib/TinyUSB/src/device/usbd.c ****         // For GET_INTERFACE and SET_INTERFACE, it is mandatory to respond even if the class
 955:lib/TinyUSB/src/device/usbd.c ****         // driver doesn't use alternate settings or implement this
 956:lib/TinyUSB/src/device/usbd.c ****         TU_VERIFY(TUSB_REQ_TYPE_STANDARD == p_request->bmRequestType_bit.type);
 957:lib/TinyUSB/src/device/usbd.c **** 
 958:lib/TinyUSB/src/device/usbd.c ****         // Clear complete callback if driver set since it can also stall the request.
 959:lib/TinyUSB/src/device/usbd.c ****         usbd_control_set_complete_callback(NULL);
 960:lib/TinyUSB/src/device/usbd.c **** 
 961:lib/TinyUSB/src/device/usbd.c ****         switch (p_request->bRequest) { //-V2520
 962:lib/TinyUSB/src/device/usbd.c ****           case TUSB_REQ_GET_INTERFACE: {
 963:lib/TinyUSB/src/device/usbd.c ****             uint8_t alternate = 0;
 964:lib/TinyUSB/src/device/usbd.c ****             tud_control_xfer(rhport, p_request, &alternate, 1);
 965:lib/TinyUSB/src/device/usbd.c ****             break;
 966:lib/TinyUSB/src/device/usbd.c ****           }
 967:lib/TinyUSB/src/device/usbd.c **** 
 968:lib/TinyUSB/src/device/usbd.c ****           case TUSB_REQ_SET_INTERFACE:
 969:lib/TinyUSB/src/device/usbd.c ****             tud_control_status(rhport, p_request);
 970:lib/TinyUSB/src/device/usbd.c ****             break;
 971:lib/TinyUSB/src/device/usbd.c **** 
 972:lib/TinyUSB/src/device/usbd.c ****           default: return false;
 973:lib/TinyUSB/src/device/usbd.c ****         }
 974:lib/TinyUSB/src/device/usbd.c ****       }
 975:lib/TinyUSB/src/device/usbd.c ****       break;
 976:lib/TinyUSB/src/device/usbd.c ****     }
 977:lib/TinyUSB/src/device/usbd.c **** 
 978:lib/TinyUSB/src/device/usbd.c ****     //------------- Endpoint Request -------------//
 979:lib/TinyUSB/src/device/usbd.c ****     case TUSB_REQ_RCPT_ENDPOINT: {
 980:lib/TinyUSB/src/device/usbd.c ****       uint8_t const ep_addr = tu_u16_low(p_request->wIndex);
 981:lib/TinyUSB/src/device/usbd.c ****       uint8_t const ep_num  = tu_edpt_number(ep_addr);
 982:lib/TinyUSB/src/device/usbd.c ****       uint8_t const ep_dir  = tu_edpt_dir(ep_addr);
 983:lib/TinyUSB/src/device/usbd.c **** 
ARM GAS  C:\Users\krisa\AppData\Local\Temp\cc7LeJkl.s 			page 23


 984:lib/TinyUSB/src/device/usbd.c ****       TU_ASSERT(ep_num < TU_ARRAY_SIZE(_usbd_dev.ep2drv) );
 985:lib/TinyUSB/src/device/usbd.c ****       usbd_class_driver_t const * driver = get_driver(_usbd_dev.ep2drv[ep_num][ep_dir]);
 986:lib/TinyUSB/src/device/usbd.c **** 
 987:lib/TinyUSB/src/device/usbd.c ****       if (TUSB_REQ_TYPE_STANDARD != p_request->bmRequestType_bit.type) {
 988:lib/TinyUSB/src/device/usbd.c ****         // Forward class request to its driver
 989:lib/TinyUSB/src/device/usbd.c ****         TU_VERIFY(driver);
 990:lib/TinyUSB/src/device/usbd.c ****         return invoke_class_control(rhport, driver, p_request);
 991:lib/TinyUSB/src/device/usbd.c ****       } else {
 992:lib/TinyUSB/src/device/usbd.c ****         // Handle STD request to endpoint
 993:lib/TinyUSB/src/device/usbd.c ****         switch (p_request->bRequest) { //-V2520
 994:lib/TinyUSB/src/device/usbd.c ****           case TUSB_REQ_GET_STATUS: {
 995:lib/TinyUSB/src/device/usbd.c ****             uint16_t status = usbd_edpt_stalled(rhport, ep_addr) ? 0x0001u : 0x0000u;
 996:lib/TinyUSB/src/device/usbd.c ****             tud_control_xfer(rhport, p_request, &status, 2);
 997:lib/TinyUSB/src/device/usbd.c ****           }
 998:lib/TinyUSB/src/device/usbd.c ****           break;
 999:lib/TinyUSB/src/device/usbd.c **** 
1000:lib/TinyUSB/src/device/usbd.c ****           case TUSB_REQ_CLEAR_FEATURE:
1001:lib/TinyUSB/src/device/usbd.c ****           case TUSB_REQ_SET_FEATURE: {
1002:lib/TinyUSB/src/device/usbd.c ****             if ( TUSB_REQ_FEATURE_EDPT_HALT == p_request->wValue ) {
1003:lib/TinyUSB/src/device/usbd.c ****               if ( TUSB_REQ_CLEAR_FEATURE ==  p_request->bRequest ) {
1004:lib/TinyUSB/src/device/usbd.c ****                 usbd_edpt_clear_stall(rhport, ep_addr);
1005:lib/TinyUSB/src/device/usbd.c ****               }else {
1006:lib/TinyUSB/src/device/usbd.c ****                 usbd_edpt_stall(rhport, ep_addr);
1007:lib/TinyUSB/src/device/usbd.c ****               }
1008:lib/TinyUSB/src/device/usbd.c ****             }
1009:lib/TinyUSB/src/device/usbd.c **** 
1010:lib/TinyUSB/src/device/usbd.c ****             if (driver != NULL) {
1011:lib/TinyUSB/src/device/usbd.c ****               // Some classes such as USBTMC needs to clear/re-init its buffer when receiving CLEAR
1012:lib/TinyUSB/src/device/usbd.c ****               // We will also forward std request targeted endpoint to class drivers as well
1013:lib/TinyUSB/src/device/usbd.c **** 
1014:lib/TinyUSB/src/device/usbd.c ****               // STD request must always be ACKed regardless of driver returned value
1015:lib/TinyUSB/src/device/usbd.c ****               // Also clear complete callback if driver set since it can also stall the request.
1016:lib/TinyUSB/src/device/usbd.c ****               (void) invoke_class_control(rhport, driver, p_request);
1017:lib/TinyUSB/src/device/usbd.c ****               usbd_control_set_complete_callback(NULL);
1018:lib/TinyUSB/src/device/usbd.c **** 
1019:lib/TinyUSB/src/device/usbd.c ****               // skip ZLP status if driver already did that
1020:lib/TinyUSB/src/device/usbd.c ****               if (!_usbd_dev.ep_status[0][TUSB_DIR_IN].busy) {
1021:lib/TinyUSB/src/device/usbd.c ****                 tud_control_status(rhport, p_request);
1022:lib/TinyUSB/src/device/usbd.c ****               }
1023:lib/TinyUSB/src/device/usbd.c ****             }
1024:lib/TinyUSB/src/device/usbd.c ****           }
1025:lib/TinyUSB/src/device/usbd.c ****           break;
1026:lib/TinyUSB/src/device/usbd.c **** 
1027:lib/TinyUSB/src/device/usbd.c ****           // Unknown/Unsupported request
1028:lib/TinyUSB/src/device/usbd.c ****           default:
1029:lib/TinyUSB/src/device/usbd.c ****             TU_BREAKPOINT();
1030:lib/TinyUSB/src/device/usbd.c ****             return false;
1031:lib/TinyUSB/src/device/usbd.c ****         }
1032:lib/TinyUSB/src/device/usbd.c ****       }
1033:lib/TinyUSB/src/device/usbd.c ****       break;
1034:lib/TinyUSB/src/device/usbd.c ****     }
1035:lib/TinyUSB/src/device/usbd.c **** 
1036:lib/TinyUSB/src/device/usbd.c ****     // Unknown recipient
1037:lib/TinyUSB/src/device/usbd.c ****     default:
1038:lib/TinyUSB/src/device/usbd.c ****       TU_BREAKPOINT();
1039:lib/TinyUSB/src/device/usbd.c ****       return false;
1040:lib/TinyUSB/src/device/usbd.c ****   }
ARM GAS  C:\Users\krisa\AppData\Local\Temp\cc7LeJkl.s 			page 24


1041:lib/TinyUSB/src/device/usbd.c **** 
1042:lib/TinyUSB/src/device/usbd.c ****   return true;
1043:lib/TinyUSB/src/device/usbd.c **** }
1044:lib/TinyUSB/src/device/usbd.c **** 
1045:lib/TinyUSB/src/device/usbd.c **** // Process Set Configure Request
1046:lib/TinyUSB/src/device/usbd.c **** // This function parse configuration descriptor & open drivers accordingly
1047:lib/TinyUSB/src/device/usbd.c **** static bool process_set_config(uint8_t rhport, uint8_t cfg_num) {
1048:lib/TinyUSB/src/device/usbd.c ****   // index is cfg_num-1
1049:lib/TinyUSB/src/device/usbd.c ****   const tusb_desc_configuration_t *desc_cfg =
1050:lib/TinyUSB/src/device/usbd.c ****     (const tusb_desc_configuration_t *)tud_descriptor_configuration_cb(cfg_num - 1);
1051:lib/TinyUSB/src/device/usbd.c ****   TU_ASSERT(desc_cfg != NULL && desc_cfg->bDescriptorType == TUSB_DESC_CONFIGURATION);
1052:lib/TinyUSB/src/device/usbd.c **** 
1053:lib/TinyUSB/src/device/usbd.c ****   // Parse configuration descriptor
1054:lib/TinyUSB/src/device/usbd.c ****   _usbd_dev.self_powered = (desc_cfg->bmAttributes & TUSB_DESC_CONFIG_ATT_SELF_POWERED) ? 1u : 0u;
1055:lib/TinyUSB/src/device/usbd.c **** 
1056:lib/TinyUSB/src/device/usbd.c ****   // Parse interface descriptor
1057:lib/TinyUSB/src/device/usbd.c ****   const uint8_t *p_desc   = ((const uint8_t *)desc_cfg) + sizeof(tusb_desc_configuration_t);
1058:lib/TinyUSB/src/device/usbd.c ****   const uint8_t *desc_end = ((const uint8_t *)desc_cfg) + tu_le16toh(desc_cfg->wTotalLength);
1059:lib/TinyUSB/src/device/usbd.c **** 
1060:lib/TinyUSB/src/device/usbd.c ****   while (tu_desc_in_bounds(p_desc, desc_end)) {
1061:lib/TinyUSB/src/device/usbd.c ****     // Class will always start with Interface Association (if any) and then Interface descriptor
1062:lib/TinyUSB/src/device/usbd.c ****     if (TUSB_DESC_INTERFACE_ASSOCIATION == tu_desc_type(p_desc)) {
1063:lib/TinyUSB/src/device/usbd.c ****       p_desc = tu_desc_next(p_desc); // next to Interface
1064:lib/TinyUSB/src/device/usbd.c ****       continue;
1065:lib/TinyUSB/src/device/usbd.c ****     }
1066:lib/TinyUSB/src/device/usbd.c **** 
1067:lib/TinyUSB/src/device/usbd.c ****     TU_ASSERT(TUSB_DESC_INTERFACE == tu_desc_type(p_desc));
1068:lib/TinyUSB/src/device/usbd.c ****     const tusb_desc_interface_t *desc_itf = (const tusb_desc_interface_t *)p_desc;
1069:lib/TinyUSB/src/device/usbd.c **** 
1070:lib/TinyUSB/src/device/usbd.c ****     // Find driver for this interface
1071:lib/TinyUSB/src/device/usbd.c ****     const uint16_t remaining_len = (uint16_t)(desc_end - p_desc);
1072:lib/TinyUSB/src/device/usbd.c ****     uint8_t        drv_id;
1073:lib/TinyUSB/src/device/usbd.c ****     for (drv_id = 0; drv_id < TOTAL_DRIVER_COUNT; drv_id++) {
1074:lib/TinyUSB/src/device/usbd.c ****       const usbd_class_driver_t *driver = get_driver(drv_id);
1075:lib/TinyUSB/src/device/usbd.c ****       TU_ASSERT(driver);
1076:lib/TinyUSB/src/device/usbd.c ****       const uint16_t drv_len = driver->open(rhport, desc_itf, remaining_len);
1077:lib/TinyUSB/src/device/usbd.c **** 
1078:lib/TinyUSB/src/device/usbd.c ****       if ((sizeof(tusb_desc_interface_t) <= drv_len) && (drv_len <= remaining_len)) {
1079:lib/TinyUSB/src/device/usbd.c ****         // Open successfully
1080:lib/TinyUSB/src/device/usbd.c ****         TU_LOG_USBD("  %s opened\r\n", driver->name);
1081:lib/TinyUSB/src/device/usbd.c **** 
1082:lib/TinyUSB/src/device/usbd.c ****         // bind found driver to all interfaces and endpoint within drv_len
1083:lib/TinyUSB/src/device/usbd.c ****         TU_ASSERT(tu_bind_driver_to_ep_itf(drv_id, _usbd_dev.ep2drv, _usbd_dev.itf2drv, CFG_TUD_INT
1084:lib/TinyUSB/src/device/usbd.c ****                                            drv_len));
1085:lib/TinyUSB/src/device/usbd.c **** 
1086:lib/TinyUSB/src/device/usbd.c ****         p_desc += drv_len; // next Interface
1087:lib/TinyUSB/src/device/usbd.c ****         break; // exit driver find loop
1088:lib/TinyUSB/src/device/usbd.c ****       }
1089:lib/TinyUSB/src/device/usbd.c ****     }
1090:lib/TinyUSB/src/device/usbd.c **** 
1091:lib/TinyUSB/src/device/usbd.c ****     // Failed if there is no supported drivers
1092:lib/TinyUSB/src/device/usbd.c ****     TU_ASSERT(drv_id < TOTAL_DRIVER_COUNT);
1093:lib/TinyUSB/src/device/usbd.c ****   }
1094:lib/TinyUSB/src/device/usbd.c **** 
1095:lib/TinyUSB/src/device/usbd.c ****   return true;
1096:lib/TinyUSB/src/device/usbd.c **** }
1097:lib/TinyUSB/src/device/usbd.c **** 
ARM GAS  C:\Users\krisa\AppData\Local\Temp\cc7LeJkl.s 			page 25


1098:lib/TinyUSB/src/device/usbd.c **** // return descriptor's buffer and update desc_len
1099:lib/TinyUSB/src/device/usbd.c **** static bool process_get_descriptor(uint8_t rhport, tusb_control_request_t const * p_request)
1100:lib/TinyUSB/src/device/usbd.c **** {
1101:lib/TinyUSB/src/device/usbd.c ****   tusb_desc_type_t const desc_type = (tusb_desc_type_t) tu_u16_high(p_request->wValue);
1102:lib/TinyUSB/src/device/usbd.c ****   uint8_t const desc_index = tu_u16_low( p_request->wValue );
1103:lib/TinyUSB/src/device/usbd.c **** 
1104:lib/TinyUSB/src/device/usbd.c ****   switch(desc_type) { //-V2520
1105:lib/TinyUSB/src/device/usbd.c ****     case TUSB_DESC_DEVICE: {
1106:lib/TinyUSB/src/device/usbd.c ****       TU_LOG_USBD(" Device\r\n");
1107:lib/TinyUSB/src/device/usbd.c **** 
1108:lib/TinyUSB/src/device/usbd.c ****       void* desc_device = (void*) (uintptr_t) tud_descriptor_device_cb();
1109:lib/TinyUSB/src/device/usbd.c ****       TU_ASSERT(desc_device);
1110:lib/TinyUSB/src/device/usbd.c **** 
1111:lib/TinyUSB/src/device/usbd.c ****       // Only response with exactly 1 Packet if: not addressed and host requested more data than de
1112:lib/TinyUSB/src/device/usbd.c ****       // This only happens with the very first get device descriptor and EP0 size = 8 or 16.
1113:lib/TinyUSB/src/device/usbd.c ****       if ((CFG_TUD_ENDPOINT0_SIZE < sizeof(tusb_desc_device_t)) && !_usbd_dev.addressed &&
1114:lib/TinyUSB/src/device/usbd.c ****           ((tusb_control_request_t const*) p_request)->wLength > sizeof(tusb_desc_device_t)) {
1115:lib/TinyUSB/src/device/usbd.c ****         // Hack here: we modify the request length to prevent usbd_control response with zlp
1116:lib/TinyUSB/src/device/usbd.c ****         // since we are responding with 1 packet & less data than wLength.
1117:lib/TinyUSB/src/device/usbd.c ****         tusb_control_request_t mod_request = *p_request;
1118:lib/TinyUSB/src/device/usbd.c ****         mod_request.wLength = CFG_TUD_ENDPOINT0_SIZE;
1119:lib/TinyUSB/src/device/usbd.c **** 
1120:lib/TinyUSB/src/device/usbd.c ****         return tud_control_xfer(rhport, &mod_request, desc_device, CFG_TUD_ENDPOINT0_SIZE);
1121:lib/TinyUSB/src/device/usbd.c ****       }else {
1122:lib/TinyUSB/src/device/usbd.c ****         return tud_control_xfer(rhport, p_request, desc_device, sizeof(tusb_desc_device_t));
1123:lib/TinyUSB/src/device/usbd.c ****       }
1124:lib/TinyUSB/src/device/usbd.c ****     }
1125:lib/TinyUSB/src/device/usbd.c ****     // break; // unreachable
1126:lib/TinyUSB/src/device/usbd.c **** 
1127:lib/TinyUSB/src/device/usbd.c ****     case TUSB_DESC_BOS: {
1128:lib/TinyUSB/src/device/usbd.c ****       TU_LOG_USBD(" BOS\r\n");
1129:lib/TinyUSB/src/device/usbd.c **** 
1130:lib/TinyUSB/src/device/usbd.c ****       // requested by host if USB > 2.0 ( i.e 2.1 or 3.x )
1131:lib/TinyUSB/src/device/usbd.c ****       uintptr_t desc_bos = (uintptr_t) tud_descriptor_bos_cb();
1132:lib/TinyUSB/src/device/usbd.c ****       TU_VERIFY(desc_bos != 0);
1133:lib/TinyUSB/src/device/usbd.c **** 
1134:lib/TinyUSB/src/device/usbd.c ****       // Use offsetof to avoid pointer to the odd/misaligned address
1135:lib/TinyUSB/src/device/usbd.c ****       uint16_t const total_len = tu_le16toh( tu_unaligned_read16((const void*) (desc_bos + offsetof
1136:lib/TinyUSB/src/device/usbd.c **** 
1137:lib/TinyUSB/src/device/usbd.c ****       return tud_control_xfer(rhport, p_request, (void*) desc_bos, total_len);
1138:lib/TinyUSB/src/device/usbd.c ****     }
1139:lib/TinyUSB/src/device/usbd.c ****     // break; // unreachable
1140:lib/TinyUSB/src/device/usbd.c **** 
1141:lib/TinyUSB/src/device/usbd.c ****     case TUSB_DESC_CONFIGURATION:
1142:lib/TinyUSB/src/device/usbd.c ****     case TUSB_DESC_OTHER_SPEED_CONFIG: {
1143:lib/TinyUSB/src/device/usbd.c ****       uintptr_t desc_config;
1144:lib/TinyUSB/src/device/usbd.c **** 
1145:lib/TinyUSB/src/device/usbd.c ****       if ( desc_type == TUSB_DESC_CONFIGURATION ) {
1146:lib/TinyUSB/src/device/usbd.c ****         TU_LOG_USBD(" Configuration[%u]\r\n", desc_index);
1147:lib/TinyUSB/src/device/usbd.c ****         desc_config = (uintptr_t) tud_descriptor_configuration_cb(desc_index);
1148:lib/TinyUSB/src/device/usbd.c ****         TU_ASSERT(desc_config != 0);
1149:lib/TinyUSB/src/device/usbd.c ****       }else {
1150:lib/TinyUSB/src/device/usbd.c ****         // Host only request this after getting Device Qualifier descriptor
1151:lib/TinyUSB/src/device/usbd.c ****         TU_LOG_USBD(" Other Speed Configuration\r\n");
1152:lib/TinyUSB/src/device/usbd.c ****         desc_config = (uintptr_t) tud_descriptor_other_speed_configuration_cb(desc_index);
1153:lib/TinyUSB/src/device/usbd.c ****         TU_VERIFY(desc_config != 0);
1154:lib/TinyUSB/src/device/usbd.c ****       }
ARM GAS  C:\Users\krisa\AppData\Local\Temp\cc7LeJkl.s 			page 26


1155:lib/TinyUSB/src/device/usbd.c **** 
1156:lib/TinyUSB/src/device/usbd.c ****       // Use offsetof to avoid pointer to the odd/misaligned address
1157:lib/TinyUSB/src/device/usbd.c ****       uint16_t const total_len = tu_le16toh( tu_unaligned_read16((const void*) (desc_config + offse
1158:lib/TinyUSB/src/device/usbd.c **** 
1159:lib/TinyUSB/src/device/usbd.c ****       return tud_control_xfer(rhport, p_request, (void*) desc_config, total_len);
1160:lib/TinyUSB/src/device/usbd.c ****     }
1161:lib/TinyUSB/src/device/usbd.c ****     // break; // unreachable
1162:lib/TinyUSB/src/device/usbd.c **** 
1163:lib/TinyUSB/src/device/usbd.c ****     case TUSB_DESC_STRING: {
1164:lib/TinyUSB/src/device/usbd.c ****       TU_LOG_USBD(" String[%u]\r\n", desc_index);
1165:lib/TinyUSB/src/device/usbd.c **** 
1166:lib/TinyUSB/src/device/usbd.c ****       // String Descriptor always uses the desc set from user
1167:lib/TinyUSB/src/device/usbd.c ****       uint8_t const* desc_str = (uint8_t const*) tud_descriptor_string_cb(desc_index, tu_le16toh(p_
1168:lib/TinyUSB/src/device/usbd.c ****       TU_VERIFY(desc_str);
1169:lib/TinyUSB/src/device/usbd.c **** 
1170:lib/TinyUSB/src/device/usbd.c ****       // first byte of descriptor is its size
1171:lib/TinyUSB/src/device/usbd.c ****       return tud_control_xfer(rhport, p_request, (void*) (uintptr_t) desc_str, tu_desc_len(desc_str
1172:lib/TinyUSB/src/device/usbd.c ****     }
1173:lib/TinyUSB/src/device/usbd.c ****     // break; // unreachable
1174:lib/TinyUSB/src/device/usbd.c **** 
1175:lib/TinyUSB/src/device/usbd.c ****     case TUSB_DESC_DEVICE_QUALIFIER: {
1176:lib/TinyUSB/src/device/usbd.c ****       TU_LOG_USBD(" Device Qualifier\r\n");
1177:lib/TinyUSB/src/device/usbd.c ****       uint8_t const* desc_qualifier = tud_descriptor_device_qualifier_cb();
1178:lib/TinyUSB/src/device/usbd.c ****       TU_VERIFY(desc_qualifier);
1179:lib/TinyUSB/src/device/usbd.c ****       return tud_control_xfer(rhport, p_request, (void*) (uintptr_t) desc_qualifier, tu_desc_len(de
1180:lib/TinyUSB/src/device/usbd.c ****     }
1181:lib/TinyUSB/src/device/usbd.c ****     // break; // unreachable
1182:lib/TinyUSB/src/device/usbd.c **** 
1183:lib/TinyUSB/src/device/usbd.c ****     default: return false;
1184:lib/TinyUSB/src/device/usbd.c ****   }
1185:lib/TinyUSB/src/device/usbd.c **** }
1186:lib/TinyUSB/src/device/usbd.c **** 
1187:lib/TinyUSB/src/device/usbd.c **** //--------------------------------------------------------------------+
1188:lib/TinyUSB/src/device/usbd.c **** // DCD Event Handler
1189:lib/TinyUSB/src/device/usbd.c **** //--------------------------------------------------------------------+
1190:lib/TinyUSB/src/device/usbd.c **** TU_ATTR_FAST_FUNC void dcd_event_handler(dcd_event_t const* event, bool in_isr) {
1191:lib/TinyUSB/src/device/usbd.c ****   bool send = false;
1192:lib/TinyUSB/src/device/usbd.c ****   switch (event->event_id) {
1193:lib/TinyUSB/src/device/usbd.c ****     case DCD_EVENT_UNPLUGGED:
1194:lib/TinyUSB/src/device/usbd.c ****       _usbd_dev.connected = 0;
1195:lib/TinyUSB/src/device/usbd.c ****       _usbd_dev.addressed = 0;
1196:lib/TinyUSB/src/device/usbd.c ****       _usbd_dev.cfg_num = 0;
1197:lib/TinyUSB/src/device/usbd.c ****       _usbd_dev.suspended = 0;
1198:lib/TinyUSB/src/device/usbd.c ****       send = true;
1199:lib/TinyUSB/src/device/usbd.c ****       break;
1200:lib/TinyUSB/src/device/usbd.c **** 
1201:lib/TinyUSB/src/device/usbd.c ****     case DCD_EVENT_SUSPEND:
1202:lib/TinyUSB/src/device/usbd.c ****       // NOTE: When plugging/unplugging device, the D+/D- state are unstable and
1203:lib/TinyUSB/src/device/usbd.c ****       // can accidentally meet the SUSPEND condition ( Bus Idle for 3ms ).
1204:lib/TinyUSB/src/device/usbd.c ****       // In addition, some MCUs such as SAMD or boards that haven no VBUS detection cannot distingu
1205:lib/TinyUSB/src/device/usbd.c ****       // suspended vs disconnected. We will skip handling SUSPEND/RESUME event if not currently con
1206:lib/TinyUSB/src/device/usbd.c ****       if (_usbd_dev.connected) {
1207:lib/TinyUSB/src/device/usbd.c ****         _usbd_dev.suspended = 1;
1208:lib/TinyUSB/src/device/usbd.c ****         send = true;
1209:lib/TinyUSB/src/device/usbd.c ****       }
1210:lib/TinyUSB/src/device/usbd.c ****       break;
1211:lib/TinyUSB/src/device/usbd.c **** 
ARM GAS  C:\Users\krisa\AppData\Local\Temp\cc7LeJkl.s 			page 27


1212:lib/TinyUSB/src/device/usbd.c ****     case DCD_EVENT_RESUME:
1213:lib/TinyUSB/src/device/usbd.c ****       // skip event if not connected (especially required for SAMD)
1214:lib/TinyUSB/src/device/usbd.c ****       if (_usbd_dev.connected) {
1215:lib/TinyUSB/src/device/usbd.c ****         _usbd_dev.suspended = 0;
1216:lib/TinyUSB/src/device/usbd.c ****         send = true;
1217:lib/TinyUSB/src/device/usbd.c ****       }
1218:lib/TinyUSB/src/device/usbd.c ****       break;
1219:lib/TinyUSB/src/device/usbd.c **** 
1220:lib/TinyUSB/src/device/usbd.c ****     case DCD_EVENT_SOF:
1221:lib/TinyUSB/src/device/usbd.c ****       // SOF driver handler in ISR context
1222:lib/TinyUSB/src/device/usbd.c ****       for (uint8_t i = 0; i < TOTAL_DRIVER_COUNT; i++) {
1223:lib/TinyUSB/src/device/usbd.c ****         usbd_class_driver_t const* driver = get_driver(i);
1224:lib/TinyUSB/src/device/usbd.c ****         if (driver && driver->sof) {
1225:lib/TinyUSB/src/device/usbd.c ****           driver->sof(event->rhport, event->sof.frame_count);
1226:lib/TinyUSB/src/device/usbd.c ****         }
1227:lib/TinyUSB/src/device/usbd.c ****       }
1228:lib/TinyUSB/src/device/usbd.c **** 
1229:lib/TinyUSB/src/device/usbd.c ****       // Some MCUs after running dcd_remote_wakeup() does not have way to detect the end of remote 
1230:lib/TinyUSB/src/device/usbd.c ****       // which last 1-15 ms. DCD can use SOF as a clear indicator that bus is back to operational
1231:lib/TinyUSB/src/device/usbd.c ****       if (_usbd_dev.suspended) {
1232:lib/TinyUSB/src/device/usbd.c ****         _usbd_dev.suspended = 0;
1233:lib/TinyUSB/src/device/usbd.c **** 
1234:lib/TinyUSB/src/device/usbd.c ****         dcd_event_t const event_resume = {.rhport = event->rhport, .event_id = DCD_EVENT_RESUME};
1235:lib/TinyUSB/src/device/usbd.c ****         queue_event(&event_resume, in_isr);
1236:lib/TinyUSB/src/device/usbd.c ****       }
1237:lib/TinyUSB/src/device/usbd.c **** 
1238:lib/TinyUSB/src/device/usbd.c ****       if (tu_bit_test(_usbd_dev.sof_consumer, SOF_CONSUMER_USER)) {
1239:lib/TinyUSB/src/device/usbd.c ****         dcd_event_t const event_sof = {.rhport = event->rhport, .event_id = DCD_EVENT_SOF, .sof.fra
1240:lib/TinyUSB/src/device/usbd.c ****         queue_event(&event_sof, in_isr);
1241:lib/TinyUSB/src/device/usbd.c ****       }
1242:lib/TinyUSB/src/device/usbd.c ****       break;
1243:lib/TinyUSB/src/device/usbd.c **** 
1244:lib/TinyUSB/src/device/usbd.c ****     case DCD_EVENT_SETUP_RECEIVED:
1245:lib/TinyUSB/src/device/usbd.c ****       _usbd_queued_setup++;
1246:lib/TinyUSB/src/device/usbd.c ****       send = true;
1247:lib/TinyUSB/src/device/usbd.c ****       break;
1248:lib/TinyUSB/src/device/usbd.c **** 
1249:lib/TinyUSB/src/device/usbd.c ****     case DCD_EVENT_XFER_COMPLETE: {
1250:lib/TinyUSB/src/device/usbd.c ****       // Invoke the class callback associated with the endpoint address
1251:lib/TinyUSB/src/device/usbd.c ****       uint8_t const ep_addr = event->xfer_complete.ep_addr;
1252:lib/TinyUSB/src/device/usbd.c ****       uint8_t const epnum = tu_edpt_number(ep_addr);
1253:lib/TinyUSB/src/device/usbd.c ****       uint8_t const ep_dir = tu_edpt_dir(ep_addr);
1254:lib/TinyUSB/src/device/usbd.c **** 
1255:lib/TinyUSB/src/device/usbd.c ****       send = true;
1256:lib/TinyUSB/src/device/usbd.c ****       if(epnum > 0) {
1257:lib/TinyUSB/src/device/usbd.c ****         usbd_class_driver_t const* driver = get_driver(_usbd_dev.ep2drv[epnum][ep_dir]);
1258:lib/TinyUSB/src/device/usbd.c **** 
1259:lib/TinyUSB/src/device/usbd.c ****         if (driver && driver->xfer_isr) {
1260:lib/TinyUSB/src/device/usbd.c ****           _usbd_dev.ep_status[epnum][ep_dir].busy = 0;
1261:lib/TinyUSB/src/device/usbd.c ****           _usbd_dev.ep_status[epnum][ep_dir].claimed = 0;
1262:lib/TinyUSB/src/device/usbd.c **** 
1263:lib/TinyUSB/src/device/usbd.c ****           send = !driver->xfer_isr(event->rhport, ep_addr, (xfer_result_t) event->xfer_complete.res
1264:lib/TinyUSB/src/device/usbd.c **** 
1265:lib/TinyUSB/src/device/usbd.c ****           // xfer_isr() is deferred to xfer_cb(), revert busy/claimed status
1266:lib/TinyUSB/src/device/usbd.c ****           if (send) {
1267:lib/TinyUSB/src/device/usbd.c ****             _usbd_dev.ep_status[epnum][ep_dir].busy = 1;
1268:lib/TinyUSB/src/device/usbd.c ****             _usbd_dev.ep_status[epnum][ep_dir].claimed = 1;
ARM GAS  C:\Users\krisa\AppData\Local\Temp\cc7LeJkl.s 			page 28


1269:lib/TinyUSB/src/device/usbd.c ****           }
1270:lib/TinyUSB/src/device/usbd.c ****         }
1271:lib/TinyUSB/src/device/usbd.c ****       }
1272:lib/TinyUSB/src/device/usbd.c ****       break;
1273:lib/TinyUSB/src/device/usbd.c ****     }
1274:lib/TinyUSB/src/device/usbd.c **** 
1275:lib/TinyUSB/src/device/usbd.c ****     default:
1276:lib/TinyUSB/src/device/usbd.c ****       send = true;
1277:lib/TinyUSB/src/device/usbd.c ****       break;
1278:lib/TinyUSB/src/device/usbd.c ****   }
1279:lib/TinyUSB/src/device/usbd.c **** 
1280:lib/TinyUSB/src/device/usbd.c ****   if (send) {
1281:lib/TinyUSB/src/device/usbd.c ****     queue_event(event, in_isr);
1282:lib/TinyUSB/src/device/usbd.c ****   }
1283:lib/TinyUSB/src/device/usbd.c **** }
1284:lib/TinyUSB/src/device/usbd.c **** 
1285:lib/TinyUSB/src/device/usbd.c **** //--------------------------------------------------------------------+
1286:lib/TinyUSB/src/device/usbd.c **** // USBD API For Class Driver
1287:lib/TinyUSB/src/device/usbd.c **** //--------------------------------------------------------------------+
1288:lib/TinyUSB/src/device/usbd.c **** 
1289:lib/TinyUSB/src/device/usbd.c **** void usbd_int_set(bool enabled) {
 235              		.loc 1 1289 33 is_stmt 1 view -0
 236              		.cfi_startproc
 237              		@ args = 0, pretend = 0, frame = 0
 238              		@ frame_needed = 0, uses_anonymous_args = 0
 239              		.loc 1 1289 33 is_stmt 0 view .LVU63
 240 0000 08B5     		push	{r3, lr}
 241              	.LCFI1:
 242              		.cfi_def_cfa_offset 8
 243              		.cfi_offset 3, -8
 244              		.cfi_offset 14, -4
1290:lib/TinyUSB/src/device/usbd.c ****   if (enabled) {
 245              		.loc 1 1290 3 is_stmt 1 view .LVU64
 246              		.loc 1 1290 6 is_stmt 0 view .LVU65
 247 0002 20B1     		cbz	r0, .L16
1291:lib/TinyUSB/src/device/usbd.c ****     dcd_int_enable(_usbd_rhport);
 248              		.loc 1 1291 5 is_stmt 1 view .LVU66
 249 0004 044B     		ldr	r3, .L19
 250 0006 1878     		ldrb	r0, [r3]	@ zero_extendqisi2
 251              	.LVL20:
 252              		.loc 1 1291 5 is_stmt 0 view .LVU67
 253 0008 FFF7FEFF 		bl	dcd_int_enable
 254              	.LVL21:
 255              	.L15:
1292:lib/TinyUSB/src/device/usbd.c ****   } else {
1293:lib/TinyUSB/src/device/usbd.c ****     dcd_int_disable(_usbd_rhport);
1294:lib/TinyUSB/src/device/usbd.c ****   }
1295:lib/TinyUSB/src/device/usbd.c **** }
 256              		.loc 1 1295 1 view .LVU68
 257 000c 08BD     		pop	{r3, pc}
 258              	.LVL22:
 259              	.L16:
1293:lib/TinyUSB/src/device/usbd.c ****   }
 260              		.loc 1 1293 5 is_stmt 1 view .LVU69
 261 000e 024B     		ldr	r3, .L19
 262 0010 1878     		ldrb	r0, [r3]	@ zero_extendqisi2
 263              	.LVL23:
ARM GAS  C:\Users\krisa\AppData\Local\Temp\cc7LeJkl.s 			page 29


1293:lib/TinyUSB/src/device/usbd.c ****   }
 264              		.loc 1 1293 5 is_stmt 0 view .LVU70
 265 0012 FFF7FEFF 		bl	dcd_int_disable
 266              	.LVL24:
 267              		.loc 1 1295 1 view .LVU71
 268 0016 F9E7     		b	.L15
 269              	.L20:
 270              		.align	2
 271              	.L19:
 272 0018 00000000 		.word	.LANCHOR4
 273              		.cfi_endproc
 274              	.LFE157:
 276              		.section	.text.usbd_reset,"ax",%progbits
 277              		.align	1
 278              		.syntax unified
 279              		.thumb
 280              		.thumb_func
 282              	usbd_reset:
 283              	.LVL25:
 284              	.LFB149:
 623:lib/TinyUSB/src/device/usbd.c ****   configuration_reset(rhport);
 285              		.loc 1 623 40 is_stmt 1 view -0
 286              		.cfi_startproc
 287              		@ args = 0, pretend = 0, frame = 0
 288              		@ frame_needed = 0, uses_anonymous_args = 0
 623:lib/TinyUSB/src/device/usbd.c ****   configuration_reset(rhport);
 289              		.loc 1 623 40 is_stmt 0 view .LVU73
 290 0000 08B5     		push	{r3, lr}
 291              	.LCFI2:
 292              		.cfi_def_cfa_offset 8
 293              		.cfi_offset 3, -8
 294              		.cfi_offset 14, -4
 624:lib/TinyUSB/src/device/usbd.c ****   usbd_control_reset();
 295              		.loc 1 624 3 is_stmt 1 view .LVU74
 296 0002 FFF7FEFF 		bl	configuration_reset
 297              	.LVL26:
 625:lib/TinyUSB/src/device/usbd.c **** }
 298              		.loc 1 625 3 view .LVU75
 299 0006 FFF7FEFF 		bl	usbd_control_reset
 300              	.LVL27:
 626:lib/TinyUSB/src/device/usbd.c **** 
 301              		.loc 1 626 1 is_stmt 0 view .LVU76
 302 000a 08BD     		pop	{r3, pc}
 303              		.cfi_endproc
 304              	.LFE149:
 306              		.section	.text.invoke_class_control,"ax",%progbits
 307              		.align	1
 308              		.syntax unified
 309              		.thumb
 310              		.thumb_func
 312              	invoke_class_control:
 313              	.LVL28:
 314              	.LFB152:
 788:lib/TinyUSB/src/device/usbd.c ****   usbd_control_set_complete_callback(driver->control_xfer_cb);
 315              		.loc 1 788 126 is_stmt 1 view -0
 316              		.cfi_startproc
 317              		@ args = 0, pretend = 0, frame = 0
ARM GAS  C:\Users\krisa\AppData\Local\Temp\cc7LeJkl.s 			page 30


 318              		@ frame_needed = 0, uses_anonymous_args = 0
 788:lib/TinyUSB/src/device/usbd.c ****   usbd_control_set_complete_callback(driver->control_xfer_cb);
 319              		.loc 1 788 126 is_stmt 0 view .LVU78
 320 0000 70B5     		push	{r4, r5, r6, lr}
 321              	.LCFI3:
 322              		.cfi_def_cfa_offset 16
 323              		.cfi_offset 4, -16
 324              		.cfi_offset 5, -12
 325              		.cfi_offset 6, -8
 326              		.cfi_offset 14, -4
 327 0002 0546     		mov	r5, r0
 328 0004 0C46     		mov	r4, r1
 329 0006 1646     		mov	r6, r2
 789:lib/TinyUSB/src/device/usbd.c ****   TU_LOG_USBD("  %s control request\r\n", driver->name);
 330              		.loc 1 789 3 is_stmt 1 view .LVU79
 331 0008 4869     		ldr	r0, [r1, #20]
 332              	.LVL29:
 789:lib/TinyUSB/src/device/usbd.c ****   TU_LOG_USBD("  %s control request\r\n", driver->name);
 333              		.loc 1 789 3 is_stmt 0 view .LVU80
 334 000a FFF7FEFF 		bl	usbd_control_set_complete_callback
 335              	.LVL30:
 790:lib/TinyUSB/src/device/usbd.c ****   return driver->control_xfer_cb(rhport, CONTROL_STAGE_SETUP, request);
 336              		.loc 1 790 56 is_stmt 1 view .LVU81
 791:lib/TinyUSB/src/device/usbd.c **** }
 337              		.loc 1 791 3 view .LVU82
 791:lib/TinyUSB/src/device/usbd.c **** }
 338              		.loc 1 791 16 is_stmt 0 view .LVU83
 339 000e 6369     		ldr	r3, [r4, #20]
 791:lib/TinyUSB/src/device/usbd.c **** }
 340              		.loc 1 791 10 view .LVU84
 341 0010 3246     		mov	r2, r6
 342 0012 0121     		movs	r1, #1
 343 0014 2846     		mov	r0, r5
 344 0016 9847     		blx	r3
 345              	.LVL31:
 792:lib/TinyUSB/src/device/usbd.c **** 
 346              		.loc 1 792 1 view .LVU85
 347 0018 70BD     		pop	{r4, r5, r6, pc}
 792:lib/TinyUSB/src/device/usbd.c **** 
 348              		.loc 1 792 1 view .LVU86
 349              		.cfi_endproc
 350              	.LFE152:
 352              		.section	.text.process_set_config,"ax",%progbits
 353              		.align	1
 354              		.syntax unified
 355              		.thumb
 356              		.thumb_func
 358              	process_set_config:
 359              	.LVL32:
 360              	.LFB154:
1047:lib/TinyUSB/src/device/usbd.c ****   // index is cfg_num-1
 361              		.loc 1 1047 65 is_stmt 1 view -0
 362              		.cfi_startproc
 363              		@ args = 0, pretend = 0, frame = 0
 364              		@ frame_needed = 0, uses_anonymous_args = 0
1047:lib/TinyUSB/src/device/usbd.c ****   // index is cfg_num-1
 365              		.loc 1 1047 65 is_stmt 0 view .LVU88
ARM GAS  C:\Users\krisa\AppData\Local\Temp\cc7LeJkl.s 			page 31


 366 0000 2DE9F043 		push	{r4, r5, r6, r7, r8, r9, lr}
 367              	.LCFI4:
 368              		.cfi_def_cfa_offset 28
 369              		.cfi_offset 4, -28
 370              		.cfi_offset 5, -24
 371              		.cfi_offset 6, -20
 372              		.cfi_offset 7, -16
 373              		.cfi_offset 8, -12
 374              		.cfi_offset 9, -8
 375              		.cfi_offset 14, -4
 376 0004 83B0     		sub	sp, sp, #12
 377              	.LCFI5:
 378              		.cfi_def_cfa_offset 40
 379 0006 0746     		mov	r7, r0
1049:lib/TinyUSB/src/device/usbd.c ****     (const tusb_desc_configuration_t *)tud_descriptor_configuration_cb(cfg_num - 1);
 380              		.loc 1 1049 3 is_stmt 1 view .LVU89
1050:lib/TinyUSB/src/device/usbd.c ****   TU_ASSERT(desc_cfg != NULL && desc_cfg->bDescriptorType == TUSB_DESC_CONFIGURATION);
 381              		.loc 1 1050 40 is_stmt 0 view .LVU90
 382 0008 481E     		subs	r0, r1, #1
 383              	.LVL33:
1050:lib/TinyUSB/src/device/usbd.c ****   TU_ASSERT(desc_cfg != NULL && desc_cfg->bDescriptorType == TUSB_DESC_CONFIGURATION);
 384              		.loc 1 1050 40 view .LVU91
 385 000a C0B2     		uxtb	r0, r0
 386 000c FFF7FEFF 		bl	tud_descriptor_configuration_cb
 387              	.LVL34:
1051:lib/TinyUSB/src/device/usbd.c **** 
 388              		.loc 1 1051 3 is_stmt 1 view .LVU92
1051:lib/TinyUSB/src/device/usbd.c **** 
 389              		.loc 1 1051 3 view .LVU93
 390 0010 18B1     		cbz	r0, .L26
 391 0012 0646     		mov	r6, r0
1051:lib/TinyUSB/src/device/usbd.c **** 
 392              		.loc 1 1051 3 is_stmt 0 discriminator 2 view .LVU94
 393 0014 4378     		ldrb	r3, [r0, #1]	@ zero_extendqisi2
 394 0016 022B     		cmp	r3, #2
 395 0018 0BD0     		beq	.L27
 396              	.L26:
1051:lib/TinyUSB/src/device/usbd.c **** 
 397              		.loc 1 1051 3 is_stmt 1 discriminator 3 view .LVU95
1051:lib/TinyUSB/src/device/usbd.c **** 
 398              		.loc 1 1051 3 discriminator 3 view .LVU96
1051:lib/TinyUSB/src/device/usbd.c **** 
 399              		.loc 1 1051 3 discriminator 3 view .LVU97
1051:lib/TinyUSB/src/device/usbd.c **** 
 400              		.loc 1 1051 3 discriminator 3 view .LVU98
 401              	.LBB232:
1051:lib/TinyUSB/src/device/usbd.c **** 
 402              		.loc 1 1051 3 discriminator 3 view .LVU99
 403              	.LVL35:
1051:lib/TinyUSB/src/device/usbd.c **** 
 404              		.loc 1 1051 3 discriminator 3 view .LVU100
 405 001a 4FF0E023 		mov	r3, #-536813568
 406 001e D3F8F03D 		ldr	r3, [r3, #3568]
 407 0022 13F0010F 		tst	r3, #1
 408 0026 00D0     		beq	.L28
1051:lib/TinyUSB/src/device/usbd.c **** 
 409              		.loc 1 1051 3 discriminator 5 view .LVU101
ARM GAS  C:\Users\krisa\AppData\Local\Temp\cc7LeJkl.s 			page 32


 410              		.syntax unified
 411              	@ 1051 "lib/TinyUSB/src/device/usbd.c" 1
 412 0028 00BE     		BKPT #0
 413              	
 414              	@ 0 "" 2
 415              		.thumb
 416              		.syntax unified
 417              	.L28:
 418              	.LBE232:
1051:lib/TinyUSB/src/device/usbd.c **** 
 419              		.loc 1 1051 3 discriminator 7 view .LVU102
1051:lib/TinyUSB/src/device/usbd.c **** 
 420              		.loc 1 1051 3 discriminator 7 view .LVU103
 421 002a 0020     		movs	r0, #0
 422              	.LVL36:
 423              	.L29:
1096:lib/TinyUSB/src/device/usbd.c **** 
 424              		.loc 1 1096 1 is_stmt 0 view .LVU104
 425 002c 03B0     		add	sp, sp, #12
 426              	.LCFI6:
 427              		.cfi_remember_state
 428              		.cfi_def_cfa_offset 28
 429              		@ sp needed
 430 002e BDE8F083 		pop	{r4, r5, r6, r7, r8, r9, pc}
 431              	.LVL37:
 432              	.L27:
 433              	.LCFI7:
 434              		.cfi_restore_state
1051:lib/TinyUSB/src/device/usbd.c **** 
 435              		.loc 1 1051 3 is_stmt 1 discriminator 4 view .LVU105
1054:lib/TinyUSB/src/device/usbd.c **** 
 436              		.loc 1 1054 3 discriminator 4 view .LVU106
1054:lib/TinyUSB/src/device/usbd.c **** 
 437              		.loc 1 1054 37 is_stmt 0 discriminator 4 view .LVU107
 438 0032 C379     		ldrb	r3, [r0, #7]	@ zero_extendqisi2
1054:lib/TinyUSB/src/device/usbd.c **** 
 439              		.loc 1 1054 94 discriminator 4 view .LVU108
 440 0034 C3F38013 		ubfx	r3, r3, #6, #1
1054:lib/TinyUSB/src/device/usbd.c **** 
 441              		.loc 1 1054 26 discriminator 4 view .LVU109
 442 0038 414A     		ldr	r2, .L56
 443 003a D178     		ldrb	r1, [r2, #3]	@ zero_extendqisi2
 444 003c 63F30001 		bfi	r1, r3, #0, #1
 445 0040 D170     		strb	r1, [r2, #3]
1057:lib/TinyUSB/src/device/usbd.c ****   const uint8_t *desc_end = ((const uint8_t *)desc_cfg) + tu_le16toh(desc_cfg->wTotalLength);
 446              		.loc 1 1057 3 is_stmt 1 discriminator 4 view .LVU110
1057:lib/TinyUSB/src/device/usbd.c ****   const uint8_t *desc_end = ((const uint8_t *)desc_cfg) + tu_le16toh(desc_cfg->wTotalLength);
 447              		.loc 1 1057 18 is_stmt 0 discriminator 4 view .LVU111
 448 0042 00F10905 		add	r5, r0, #9
 449              	.LVL38:
1058:lib/TinyUSB/src/device/usbd.c **** 
 450              		.loc 1 1058 3 is_stmt 1 discriminator 4 view .LVU112
1058:lib/TinyUSB/src/device/usbd.c **** 
 451              		.loc 1 1058 59 is_stmt 0 discriminator 4 view .LVU113
 452 0046 4388     		ldrh	r3, [r0, #2]	@ unaligned
1058:lib/TinyUSB/src/device/usbd.c **** 
 453              		.loc 1 1058 18 discriminator 4 view .LVU114
ARM GAS  C:\Users\krisa\AppData\Local\Temp\cc7LeJkl.s 			page 33


 454 0048 1E44     		add	r6, r6, r3
 455              	.LVL39:
1060:lib/TinyUSB/src/device/usbd.c ****     // Class will always start with Interface Association (if any) and then Interface descriptor
 456              		.loc 1 1060 3 is_stmt 1 discriminator 4 view .LVU115
 457              	.L30:
 458              	.LBB233:
1092:lib/TinyUSB/src/device/usbd.c ****   }
 459              		.loc 1 1092 5 discriminator 2 view .LVU116
 460              	.LBE233:
1060:lib/TinyUSB/src/device/usbd.c ****     // Class will always start with Interface Association (if any) and then Interface descriptor
 461              		.loc 1 1060 9 discriminator 2 view .LVU117
 462              	.LBB248:
 463              	.LBI248:
 464              		.file 2 "lib/TinyUSB/src/common/tusb_common.h"
   1:lib/TinyUSB/src/common/tusb_common.h **** /*
   2:lib/TinyUSB/src/common/tusb_common.h ****  * The MIT License (MIT)
   3:lib/TinyUSB/src/common/tusb_common.h ****  *
   4:lib/TinyUSB/src/common/tusb_common.h ****  * Copyright (c) 2019 Ha Thach (tinyusb.org)
   5:lib/TinyUSB/src/common/tusb_common.h ****  *
   6:lib/TinyUSB/src/common/tusb_common.h ****  * Permission is hereby granted, free of charge, to any person obtaining a copy
   7:lib/TinyUSB/src/common/tusb_common.h ****  * of this software and associated documentation files (the "Software"), to deal
   8:lib/TinyUSB/src/common/tusb_common.h ****  * in the Software without restriction, including without limitation the rights
   9:lib/TinyUSB/src/common/tusb_common.h ****  * to use, copy, modify, merge, publish, distribute, sublicense, and/or sell
  10:lib/TinyUSB/src/common/tusb_common.h ****  * copies of the Software, and to permit persons to whom the Software is
  11:lib/TinyUSB/src/common/tusb_common.h ****  * furnished to do so, subject to the following conditions:
  12:lib/TinyUSB/src/common/tusb_common.h ****  *
  13:lib/TinyUSB/src/common/tusb_common.h ****  * The above copyright notice and this permission notice shall be included in
  14:lib/TinyUSB/src/common/tusb_common.h ****  * all copies or substantial portions of the Software.
  15:lib/TinyUSB/src/common/tusb_common.h ****  *
  16:lib/TinyUSB/src/common/tusb_common.h ****  * THE SOFTWARE IS PROVIDED "AS IS", WITHOUT WARRANTY OF ANY KIND, EXPRESS OR
  17:lib/TinyUSB/src/common/tusb_common.h ****  * IMPLIED, INCLUDING BUT NOT LIMITED TO THE WARRANTIES OF MERCHANTABILITY,
  18:lib/TinyUSB/src/common/tusb_common.h ****  * FITNESS FOR A PARTICULAR PURPOSE AND NONINFRINGEMENT. IN NO EVENT SHALL THE
  19:lib/TinyUSB/src/common/tusb_common.h ****  * AUTHORS OR COPYRIGHT HOLDERS BE LIABLE FOR ANY CLAIM, DAMAGES OR OTHER
  20:lib/TinyUSB/src/common/tusb_common.h ****  * LIABILITY, WHETHER IN AN ACTION OF CONTRACT, TORT OR OTHERWISE, ARISING FROM,
  21:lib/TinyUSB/src/common/tusb_common.h ****  * OUT OF OR IN CONNECTION WITH THE SOFTWARE OR THE USE OR OTHER DEALINGS IN
  22:lib/TinyUSB/src/common/tusb_common.h ****  * THE SOFTWARE.
  23:lib/TinyUSB/src/common/tusb_common.h ****  *
  24:lib/TinyUSB/src/common/tusb_common.h ****  * This file is part of the TinyUSB stack.
  25:lib/TinyUSB/src/common/tusb_common.h ****  */
  26:lib/TinyUSB/src/common/tusb_common.h **** 
  27:lib/TinyUSB/src/common/tusb_common.h **** #ifndef TUSB_COMMON_H_
  28:lib/TinyUSB/src/common/tusb_common.h **** #define TUSB_COMMON_H_
  29:lib/TinyUSB/src/common/tusb_common.h **** 
  30:lib/TinyUSB/src/common/tusb_common.h **** #ifdef __cplusplus
  31:lib/TinyUSB/src/common/tusb_common.h ****  extern "C" {
  32:lib/TinyUSB/src/common/tusb_common.h **** #endif
  33:lib/TinyUSB/src/common/tusb_common.h **** 
  34:lib/TinyUSB/src/common/tusb_common.h **** //--------------------------------------------------------------------+
  35:lib/TinyUSB/src/common/tusb_common.h **** // Macros Helper
  36:lib/TinyUSB/src/common/tusb_common.h **** //--------------------------------------------------------------------+
  37:lib/TinyUSB/src/common/tusb_common.h **** #define TU_ARRAY_SIZE(_arr)           ( sizeof(_arr) / sizeof(_arr[0]) )
  38:lib/TinyUSB/src/common/tusb_common.h **** #define TU_FIELD_SIZE(_type, _field)  (sizeof(((_type *)0)->_field))
  39:lib/TinyUSB/src/common/tusb_common.h **** #define TU_MIN(_x, _y)                ( ( (_x) < (_y) ) ? (_x) : (_y) )
  40:lib/TinyUSB/src/common/tusb_common.h **** #define TU_MAX(_x, _y)                ( ( (_x) > (_y) ) ? (_x) : (_y) )
  41:lib/TinyUSB/src/common/tusb_common.h **** #define TU_DIV_CEIL(n, d)             (((n) + (d) - 1) / (d))
  42:lib/TinyUSB/src/common/tusb_common.h **** #define TU_DIV_ROUND_NEAREST(v, d)    (((v) + (d)/2) / (d) ) // round to nearest integer
  43:lib/TinyUSB/src/common/tusb_common.h **** 
ARM GAS  C:\Users\krisa\AppData\Local\Temp\cc7LeJkl.s 			page 34


  44:lib/TinyUSB/src/common/tusb_common.h **** #define TU_U16(_high, _low)           ((uint16_t) ((((uint16_t) (_high)) << 8) | ((uint16_t) (_low)
  45:lib/TinyUSB/src/common/tusb_common.h **** #define TU_U16_HIGH(_u16)             ((uint8_t) (((uint16_t) (_u16) >> 8) & 0x00ffu))
  46:lib/TinyUSB/src/common/tusb_common.h **** #define TU_U16_LOW(_u16)              ((uint8_t) ((uint16_t) (_u16) & 0x00ffu))
  47:lib/TinyUSB/src/common/tusb_common.h **** #define U16_TO_U8S_BE(_u16)           TU_U16_HIGH(_u16), TU_U16_LOW(_u16)
  48:lib/TinyUSB/src/common/tusb_common.h **** #define U16_TO_U8S_LE(_u16)           TU_U16_LOW(_u16), TU_U16_HIGH(_u16)
  49:lib/TinyUSB/src/common/tusb_common.h **** 
  50:lib/TinyUSB/src/common/tusb_common.h **** #define TU_U24(_high, _mid, _low)     ((uint32_t) ((((uint32_t) (_high)) << 16) | (((uint32_t) (_mi
  51:lib/TinyUSB/src/common/tusb_common.h **** #define TU_U24_HIGH(_u24)             ((uint8_t) (((uint32_t) (_u24) >> 16) & 0x0000ffu))
  52:lib/TinyUSB/src/common/tusb_common.h **** #define TU_U24_MID(_u24)              ((uint8_t) (((uint32_t) (_u24) >>  8) & 0x0000ffu))
  53:lib/TinyUSB/src/common/tusb_common.h **** #define TU_U24_LOW(_u24)              ((uint8_t) ((uint32_t) (_u24) & 0x0000ffu))
  54:lib/TinyUSB/src/common/tusb_common.h **** #define U24_TO_U8S_BE(_u24)           TU_U24_HIGH(_u24), TU_U24_MID(_u24), TU_U24_LOW(_u24)
  55:lib/TinyUSB/src/common/tusb_common.h **** #define U24_TO_U8S_LE(_u24)           TU_U24_LOW(_u24), TU_U24_MID(_u24), TU_U24_HIGH(_u24)
  56:lib/TinyUSB/src/common/tusb_common.h **** 
  57:lib/TinyUSB/src/common/tusb_common.h **** #define TU_U32_BYTE3(_u32)            ((uint8_t) ((((uint32_t) _u32) >> 24) & 0x000000ff)) // MSB
  58:lib/TinyUSB/src/common/tusb_common.h **** #define TU_U32_BYTE2(_u32)            ((uint8_t) ((((uint32_t) _u32) >> 16) & 0x000000ff))
  59:lib/TinyUSB/src/common/tusb_common.h **** #define TU_U32_BYTE1(_u32)            ((uint8_t) ((((uint32_t) _u32) >>  8) & 0x000000ff))
  60:lib/TinyUSB/src/common/tusb_common.h **** #define TU_U32_BYTE0(_u32)            ((uint8_t) (((uint32_t)  _u32)        & 0x000000ff)) // LSB
  61:lib/TinyUSB/src/common/tusb_common.h **** 
  62:lib/TinyUSB/src/common/tusb_common.h **** #define U32_TO_U8S_BE(_u32)           TU_U32_BYTE3(_u32), TU_U32_BYTE2(_u32), TU_U32_BYTE1(_u32), T
  63:lib/TinyUSB/src/common/tusb_common.h **** #define U32_TO_U8S_LE(_u32)           TU_U32_BYTE0(_u32), TU_U32_BYTE1(_u32), TU_U32_BYTE2(_u32), T
  64:lib/TinyUSB/src/common/tusb_common.h **** 
  65:lib/TinyUSB/src/common/tusb_common.h **** #define TU_BIT(n)                     (1UL << (n))
  66:lib/TinyUSB/src/common/tusb_common.h **** 
  67:lib/TinyUSB/src/common/tusb_common.h **** // Generate a mask with bit from high (31) to low (0) set, e.g TU_GENMASK(3, 0) = 0b1111
  68:lib/TinyUSB/src/common/tusb_common.h **** #define TU_GENMASK(h, l)              ( (UINT32_MAX << (l)) & (UINT32_MAX >> (31 - (h))) )
  69:lib/TinyUSB/src/common/tusb_common.h **** 
  70:lib/TinyUSB/src/common/tusb_common.h **** //--------------------------------------------------------------------+
  71:lib/TinyUSB/src/common/tusb_common.h **** // Includes
  72:lib/TinyUSB/src/common/tusb_common.h **** //--------------------------------------------------------------------+
  73:lib/TinyUSB/src/common/tusb_common.h **** 
  74:lib/TinyUSB/src/common/tusb_common.h **** // Standard Headers
  75:lib/TinyUSB/src/common/tusb_common.h **** #include <stdbool.h>
  76:lib/TinyUSB/src/common/tusb_common.h **** #include <stdint.h>
  77:lib/TinyUSB/src/common/tusb_common.h **** #include <inttypes.h>
  78:lib/TinyUSB/src/common/tusb_common.h **** #include <stddef.h>
  79:lib/TinyUSB/src/common/tusb_common.h **** #include <string.h>
  80:lib/TinyUSB/src/common/tusb_common.h **** 
  81:lib/TinyUSB/src/common/tusb_common.h **** // Tinyusb Common Headers
  82:lib/TinyUSB/src/common/tusb_common.h **** #include "tusb_option.h"
  83:lib/TinyUSB/src/common/tusb_common.h **** #include "tusb_compiler.h"
  84:lib/TinyUSB/src/common/tusb_common.h **** #include "tusb_verify.h"
  85:lib/TinyUSB/src/common/tusb_common.h **** #include "tusb_types.h"
  86:lib/TinyUSB/src/common/tusb_common.h **** #include "tusb_debug.h"
  87:lib/TinyUSB/src/common/tusb_common.h **** 
  88:lib/TinyUSB/src/common/tusb_common.h **** //--------------------------------------------------------------------+
  89:lib/TinyUSB/src/common/tusb_common.h **** // API implemented by application if needed
  90:lib/TinyUSB/src/common/tusb_common.h **** // TODO move to a more obvious place/file
  91:lib/TinyUSB/src/common/tusb_common.h **** //--------------------------------------------------------------------+
  92:lib/TinyUSB/src/common/tusb_common.h **** 
  93:lib/TinyUSB/src/common/tusb_common.h **** // Get current milliseconds, required by some port/configuration without RTOS
  94:lib/TinyUSB/src/common/tusb_common.h **** extern uint32_t tusb_time_millis_api(void);
  95:lib/TinyUSB/src/common/tusb_common.h **** 
  96:lib/TinyUSB/src/common/tusb_common.h **** // Delay in milliseconds, use tusb_time_millis_api() by default. required by some port/configuratio
  97:lib/TinyUSB/src/common/tusb_common.h **** extern void tusb_time_delay_ms_api(uint32_t ms);
  98:lib/TinyUSB/src/common/tusb_common.h **** 
  99:lib/TinyUSB/src/common/tusb_common.h **** // flush data cache
 100:lib/TinyUSB/src/common/tusb_common.h **** extern void tusb_app_dcache_flush(uintptr_t addr, uint32_t data_size);
ARM GAS  C:\Users\krisa\AppData\Local\Temp\cc7LeJkl.s 			page 35


 101:lib/TinyUSB/src/common/tusb_common.h **** 
 102:lib/TinyUSB/src/common/tusb_common.h **** // invalidate data cache
 103:lib/TinyUSB/src/common/tusb_common.h **** extern void tusb_app_dcache_invalidate(uintptr_t addr, uint32_t data_size);
 104:lib/TinyUSB/src/common/tusb_common.h **** 
 105:lib/TinyUSB/src/common/tusb_common.h **** // Optional physical <-> virtual address translation
 106:lib/TinyUSB/src/common/tusb_common.h **** extern void* tusb_app_virt_to_phys(void *virt_addr);
 107:lib/TinyUSB/src/common/tusb_common.h **** extern void* tusb_app_phys_to_virt(void *phys_addr);
 108:lib/TinyUSB/src/common/tusb_common.h **** 
 109:lib/TinyUSB/src/common/tusb_common.h **** //--------------------------------------------------------------------+
 110:lib/TinyUSB/src/common/tusb_common.h **** // Internal Inline Functions
 111:lib/TinyUSB/src/common/tusb_common.h **** //--------------------------------------------------------------------+
 112:lib/TinyUSB/src/common/tusb_common.h **** 
 113:lib/TinyUSB/src/common/tusb_common.h **** //------------- Mem -------------//
 114:lib/TinyUSB/src/common/tusb_common.h **** #define tu_memclr(buffer, size)  (void) memset((buffer), 0, (size))
 115:lib/TinyUSB/src/common/tusb_common.h **** #define tu_varclr(_var)          tu_memclr(_var, sizeof(*(_var)))
 116:lib/TinyUSB/src/common/tusb_common.h **** 
 117:lib/TinyUSB/src/common/tusb_common.h **** // This is a backport of memset_s from c11
 118:lib/TinyUSB/src/common/tusb_common.h **** TU_ATTR_ALWAYS_INLINE static inline int tu_memset_s(void *dest, size_t destsz, int ch, size_t count
 119:lib/TinyUSB/src/common/tusb_common.h ****   // Validate parameters
 120:lib/TinyUSB/src/common/tusb_common.h ****   if (dest == NULL) {
 121:lib/TinyUSB/src/common/tusb_common.h ****     return -1;
 122:lib/TinyUSB/src/common/tusb_common.h ****   }
 123:lib/TinyUSB/src/common/tusb_common.h **** 
 124:lib/TinyUSB/src/common/tusb_common.h ****   if (count == 0u) {
 125:lib/TinyUSB/src/common/tusb_common.h ****     return 0;
 126:lib/TinyUSB/src/common/tusb_common.h ****   }
 127:lib/TinyUSB/src/common/tusb_common.h **** 
 128:lib/TinyUSB/src/common/tusb_common.h ****   if (count > destsz) {
 129:lib/TinyUSB/src/common/tusb_common.h ****     return -1;
 130:lib/TinyUSB/src/common/tusb_common.h ****   }
 131:lib/TinyUSB/src/common/tusb_common.h **** 
 132:lib/TinyUSB/src/common/tusb_common.h ****   (void) memset(dest, ch, count);
 133:lib/TinyUSB/src/common/tusb_common.h ****   return 0;
 134:lib/TinyUSB/src/common/tusb_common.h **** }
 135:lib/TinyUSB/src/common/tusb_common.h **** 
 136:lib/TinyUSB/src/common/tusb_common.h **** // This is a backport of memcpy_s from c11
 137:lib/TinyUSB/src/common/tusb_common.h **** TU_ATTR_ALWAYS_INLINE static inline int tu_memcpy_s(void *dest, size_t destsz, const void *src, siz
 138:lib/TinyUSB/src/common/tusb_common.h ****   if (dest == NULL) {
 139:lib/TinyUSB/src/common/tusb_common.h ****     return -1;
 140:lib/TinyUSB/src/common/tusb_common.h ****   }
 141:lib/TinyUSB/src/common/tusb_common.h **** 
 142:lib/TinyUSB/src/common/tusb_common.h ****   if (count == 0u) {
 143:lib/TinyUSB/src/common/tusb_common.h ****     return 0;
 144:lib/TinyUSB/src/common/tusb_common.h ****   }
 145:lib/TinyUSB/src/common/tusb_common.h **** 
 146:lib/TinyUSB/src/common/tusb_common.h ****   if (src == NULL) {
 147:lib/TinyUSB/src/common/tusb_common.h ****     return -1;
 148:lib/TinyUSB/src/common/tusb_common.h ****   }
 149:lib/TinyUSB/src/common/tusb_common.h **** 
 150:lib/TinyUSB/src/common/tusb_common.h ****   if (count > destsz) {
 151:lib/TinyUSB/src/common/tusb_common.h ****     return -1;
 152:lib/TinyUSB/src/common/tusb_common.h ****   }
 153:lib/TinyUSB/src/common/tusb_common.h **** 
 154:lib/TinyUSB/src/common/tusb_common.h ****   (void) memcpy(dest, src, count);
 155:lib/TinyUSB/src/common/tusb_common.h ****   return 0;
 156:lib/TinyUSB/src/common/tusb_common.h **** }
 157:lib/TinyUSB/src/common/tusb_common.h **** 
ARM GAS  C:\Users\krisa\AppData\Local\Temp\cc7LeJkl.s 			page 36


 158:lib/TinyUSB/src/common/tusb_common.h **** TU_ATTR_ALWAYS_INLINE static inline bool tu_mem_is_zero(const void *buffer, size_t size) {
 159:lib/TinyUSB/src/common/tusb_common.h ****   const uint8_t* buf8 = (const uint8_t*) buffer;
 160:lib/TinyUSB/src/common/tusb_common.h ****   for (size_t i = 0; i < size; i++) {
 161:lib/TinyUSB/src/common/tusb_common.h ****     if (buf8[i] != 0) { return false; }
 162:lib/TinyUSB/src/common/tusb_common.h ****   }
 163:lib/TinyUSB/src/common/tusb_common.h ****   return true;
 164:lib/TinyUSB/src/common/tusb_common.h **** }
 165:lib/TinyUSB/src/common/tusb_common.h **** 
 166:lib/TinyUSB/src/common/tusb_common.h **** TU_ATTR_ALWAYS_INLINE static inline bool tu_mem_is_ff(const void *buffer, size_t size) {
 167:lib/TinyUSB/src/common/tusb_common.h ****   const uint8_t* buf8 = (const uint8_t*) buffer;
 168:lib/TinyUSB/src/common/tusb_common.h ****   for (size_t i = 0; i < size; i++) {
 169:lib/TinyUSB/src/common/tusb_common.h ****     if (buf8[i] != 0xff) { return false; }
 170:lib/TinyUSB/src/common/tusb_common.h ****   }
 171:lib/TinyUSB/src/common/tusb_common.h ****   return true;
 172:lib/TinyUSB/src/common/tusb_common.h **** }
 173:lib/TinyUSB/src/common/tusb_common.h **** 
 174:lib/TinyUSB/src/common/tusb_common.h **** 
 175:lib/TinyUSB/src/common/tusb_common.h **** //------------- Bytes -------------//
 176:lib/TinyUSB/src/common/tusb_common.h **** TU_ATTR_ALWAYS_INLINE static inline uint32_t tu_u32(uint8_t b3, uint8_t b2, uint8_t b1, uint8_t b0)
 177:lib/TinyUSB/src/common/tusb_common.h ****   return (((uint32_t)b3) << 24) | (((uint32_t)b2) << 16) | (((uint32_t)b1) << 8) | b0;
 178:lib/TinyUSB/src/common/tusb_common.h **** }
 179:lib/TinyUSB/src/common/tusb_common.h **** 
 180:lib/TinyUSB/src/common/tusb_common.h **** TU_ATTR_ALWAYS_INLINE static inline uint32_t tu_u32_from_u16(uint16_t high, uint16_t low) {
 181:lib/TinyUSB/src/common/tusb_common.h ****   return (((uint32_t)high) << 16) | low;
 182:lib/TinyUSB/src/common/tusb_common.h **** }
 183:lib/TinyUSB/src/common/tusb_common.h **** 
 184:lib/TinyUSB/src/common/tusb_common.h **** TU_ATTR_ALWAYS_INLINE static inline uint16_t tu_u16(uint8_t high, uint8_t low) {
 185:lib/TinyUSB/src/common/tusb_common.h ****   return (uint16_t)((((uint16_t)high) << 8) | low);
 186:lib/TinyUSB/src/common/tusb_common.h **** }
 187:lib/TinyUSB/src/common/tusb_common.h **** 
 188:lib/TinyUSB/src/common/tusb_common.h **** TU_ATTR_ALWAYS_INLINE static inline uint8_t tu_u32_byte3(uint32_t ui32) { return TU_U32_BYTE3(ui32)
 189:lib/TinyUSB/src/common/tusb_common.h **** TU_ATTR_ALWAYS_INLINE static inline uint8_t tu_u32_byte2(uint32_t ui32) { return TU_U32_BYTE2(ui32)
 190:lib/TinyUSB/src/common/tusb_common.h **** TU_ATTR_ALWAYS_INLINE static inline uint8_t tu_u32_byte1(uint32_t ui32) { return TU_U32_BYTE1(ui32)
 191:lib/TinyUSB/src/common/tusb_common.h **** TU_ATTR_ALWAYS_INLINE static inline uint8_t tu_u32_byte0(uint32_t ui32) { return TU_U32_BYTE0(ui32)
 192:lib/TinyUSB/src/common/tusb_common.h **** 
 193:lib/TinyUSB/src/common/tusb_common.h **** TU_ATTR_ALWAYS_INLINE static inline uint16_t tu_u32_high16(uint32_t ui32) { return (uint16_t) (ui32
 194:lib/TinyUSB/src/common/tusb_common.h **** TU_ATTR_ALWAYS_INLINE static inline uint16_t tu_u32_low16 (uint32_t ui32) { return (uint16_t) (ui32
 195:lib/TinyUSB/src/common/tusb_common.h **** 
 196:lib/TinyUSB/src/common/tusb_common.h **** TU_ATTR_ALWAYS_INLINE static inline uint8_t tu_u16_high(uint16_t ui16) { return TU_U16_HIGH(ui16); 
 197:lib/TinyUSB/src/common/tusb_common.h **** TU_ATTR_ALWAYS_INLINE static inline uint8_t tu_u16_low (uint16_t ui16) { return TU_U16_LOW(ui16); }
 198:lib/TinyUSB/src/common/tusb_common.h **** 
 199:lib/TinyUSB/src/common/tusb_common.h **** //------------- Bits -------------//
 200:lib/TinyUSB/src/common/tusb_common.h **** TU_ATTR_ALWAYS_INLINE static inline uint32_t tu_bit_set  (uint32_t value, uint8_t pos) { return val
 201:lib/TinyUSB/src/common/tusb_common.h **** TU_ATTR_ALWAYS_INLINE static inline uint32_t tu_bit_clear(uint32_t value, uint8_t pos) { return val
 202:lib/TinyUSB/src/common/tusb_common.h **** TU_ATTR_ALWAYS_INLINE static inline bool     tu_bit_test (uint32_t value, uint8_t pos) { return (va
 203:lib/TinyUSB/src/common/tusb_common.h **** 
 204:lib/TinyUSB/src/common/tusb_common.h **** //------------- Min -------------//
 205:lib/TinyUSB/src/common/tusb_common.h **** TU_ATTR_ALWAYS_INLINE static inline uint8_t  tu_min8  (uint8_t  x, uint8_t y ) { return (x < y) ? x
 206:lib/TinyUSB/src/common/tusb_common.h **** TU_ATTR_ALWAYS_INLINE static inline uint16_t tu_min16 (uint16_t x, uint16_t y) { return (x < y) ? x
 207:lib/TinyUSB/src/common/tusb_common.h **** TU_ATTR_ALWAYS_INLINE static inline uint32_t tu_min32 (uint32_t x, uint32_t y) { return (x < y) ? x
 208:lib/TinyUSB/src/common/tusb_common.h **** 
 209:lib/TinyUSB/src/common/tusb_common.h **** //------------- Max -------------//
 210:lib/TinyUSB/src/common/tusb_common.h **** TU_ATTR_ALWAYS_INLINE static inline uint8_t  tu_max8  (uint8_t  x, uint8_t y ) { return (x > y) ? x
 211:lib/TinyUSB/src/common/tusb_common.h **** TU_ATTR_ALWAYS_INLINE static inline uint16_t tu_max16 (uint16_t x, uint16_t y) { return (x > y) ? x
 212:lib/TinyUSB/src/common/tusb_common.h **** TU_ATTR_ALWAYS_INLINE static inline uint32_t tu_max32 (uint32_t x, uint32_t y) { return (x > y) ? x
 213:lib/TinyUSB/src/common/tusb_common.h **** 
 214:lib/TinyUSB/src/common/tusb_common.h **** //------------- Align -------------//
ARM GAS  C:\Users\krisa\AppData\Local\Temp\cc7LeJkl.s 			page 37


 215:lib/TinyUSB/src/common/tusb_common.h **** TU_ATTR_ALWAYS_INLINE static inline uint32_t tu_align(uint32_t value, uint32_t alignment) {
 216:lib/TinyUSB/src/common/tusb_common.h ****   return value & ((uint32_t) ~(alignment-1));
 217:lib/TinyUSB/src/common/tusb_common.h **** }
 218:lib/TinyUSB/src/common/tusb_common.h **** 
 219:lib/TinyUSB/src/common/tusb_common.h **** TU_ATTR_ALWAYS_INLINE static inline uint32_t tu_align4  (uint32_t value) { return (value & 0xFFFFFF
 220:lib/TinyUSB/src/common/tusb_common.h **** TU_ATTR_ALWAYS_INLINE static inline uint32_t tu_align8  (uint32_t value) { return (value & 0xFFFFFF
 221:lib/TinyUSB/src/common/tusb_common.h **** TU_ATTR_ALWAYS_INLINE static inline uint32_t tu_align16 (uint32_t value) { return (value & 0xFFFFFF
 222:lib/TinyUSB/src/common/tusb_common.h **** TU_ATTR_ALWAYS_INLINE static inline uint32_t tu_align32 (uint32_t value) { return (value & 0xFFFFFF
 223:lib/TinyUSB/src/common/tusb_common.h **** TU_ATTR_ALWAYS_INLINE static inline uint32_t tu_align4k (uint32_t value) { return (value & 0xFFFFF0
 224:lib/TinyUSB/src/common/tusb_common.h **** TU_ATTR_ALWAYS_INLINE static inline uint32_t tu_offset4k(uint32_t value) { return (value & 0xFFFUL)
 225:lib/TinyUSB/src/common/tusb_common.h **** 
 226:lib/TinyUSB/src/common/tusb_common.h **** TU_ATTR_ALWAYS_INLINE static inline bool tu_is_aligned32(uint32_t value) { return (value & 0x1FUL) 
 227:lib/TinyUSB/src/common/tusb_common.h **** TU_ATTR_ALWAYS_INLINE static inline bool tu_is_aligned64(uint64_t value) { return (value & 0x3FUL) 
 228:lib/TinyUSB/src/common/tusb_common.h **** 
 229:lib/TinyUSB/src/common/tusb_common.h **** //------------- Mathematics -------------//
 230:lib/TinyUSB/src/common/tusb_common.h **** TU_ATTR_ALWAYS_INLINE static inline uint32_t tu_div_ceil(uint32_t v, uint32_t d) { return TU_DIV_CE
 231:lib/TinyUSB/src/common/tusb_common.h **** TU_ATTR_ALWAYS_INLINE static inline uint32_t tu_div_round_nearest(uint32_t v, uint32_t d) { return 
 232:lib/TinyUSB/src/common/tusb_common.h **** 
 233:lib/TinyUSB/src/common/tusb_common.h **** TU_ATTR_ALWAYS_INLINE static inline uint32_t tu_round_up(uint32_t v, uint32_t f) { return tu_div_ce
 234:lib/TinyUSB/src/common/tusb_common.h **** 
 235:lib/TinyUSB/src/common/tusb_common.h **** // log2 of a value is its MSB's position
 236:lib/TinyUSB/src/common/tusb_common.h **** // TODO use clz TODO remove
 237:lib/TinyUSB/src/common/tusb_common.h **** TU_ATTR_ALWAYS_INLINE static inline uint8_t tu_log2(uint32_t value) {
 238:lib/TinyUSB/src/common/tusb_common.h ****   uint8_t result = 0;
 239:lib/TinyUSB/src/common/tusb_common.h ****   while ((value >>= 1u) != 0u) {
 240:lib/TinyUSB/src/common/tusb_common.h ****     result++;
 241:lib/TinyUSB/src/common/tusb_common.h ****   }
 242:lib/TinyUSB/src/common/tusb_common.h ****   return result;
 243:lib/TinyUSB/src/common/tusb_common.h **** }
 244:lib/TinyUSB/src/common/tusb_common.h **** 
 245:lib/TinyUSB/src/common/tusb_common.h **** //static inline uint8_t tu_log2(uint32_t value)
 246:lib/TinyUSB/src/common/tusb_common.h **** //{
 247:lib/TinyUSB/src/common/tusb_common.h **** //   return sizeof(uint32_t) * CHAR_BIT - __builtin_clz(x) - 1;
 248:lib/TinyUSB/src/common/tusb_common.h **** //}
 249:lib/TinyUSB/src/common/tusb_common.h **** 
 250:lib/TinyUSB/src/common/tusb_common.h **** TU_ATTR_ALWAYS_INLINE static inline bool tu_is_power_of_two(uint32_t value) {
 251:lib/TinyUSB/src/common/tusb_common.h ****    return (value != 0) && ((value & (value - 1)) == 0);
 252:lib/TinyUSB/src/common/tusb_common.h **** }
 253:lib/TinyUSB/src/common/tusb_common.h **** 
 254:lib/TinyUSB/src/common/tusb_common.h **** //------------- Unaligned Access -------------//
 255:lib/TinyUSB/src/common/tusb_common.h **** #if TUP_ARCH_STRICT_ALIGN
 256:lib/TinyUSB/src/common/tusb_common.h **** 
 257:lib/TinyUSB/src/common/tusb_common.h **** // Rely on compiler to generate correct code for unaligned access
 258:lib/TinyUSB/src/common/tusb_common.h **** typedef struct { uint16_t val; } TU_ATTR_PACKED tu_unaligned_uint16_t;
 259:lib/TinyUSB/src/common/tusb_common.h **** typedef struct { uint32_t val; } TU_ATTR_PACKED tu_unaligned_uint32_t;
 260:lib/TinyUSB/src/common/tusb_common.h **** 
 261:lib/TinyUSB/src/common/tusb_common.h **** TU_ATTR_ALWAYS_INLINE static inline uint32_t tu_unaligned_read32(const void *mem) {
 262:lib/TinyUSB/src/common/tusb_common.h ****   tu_unaligned_uint32_t const *ua32 = (tu_unaligned_uint32_t const *) mem;
 263:lib/TinyUSB/src/common/tusb_common.h ****   return ua32->val;
 264:lib/TinyUSB/src/common/tusb_common.h **** }
 265:lib/TinyUSB/src/common/tusb_common.h **** 
 266:lib/TinyUSB/src/common/tusb_common.h **** TU_ATTR_ALWAYS_INLINE static inline void tu_unaligned_write32(void *mem, uint32_t value) {
 267:lib/TinyUSB/src/common/tusb_common.h ****   tu_unaligned_uint32_t *ua32 = (tu_unaligned_uint32_t *) mem;
 268:lib/TinyUSB/src/common/tusb_common.h ****   ua32->val = value;
 269:lib/TinyUSB/src/common/tusb_common.h **** }
 270:lib/TinyUSB/src/common/tusb_common.h **** 
 271:lib/TinyUSB/src/common/tusb_common.h **** TU_ATTR_ALWAYS_INLINE static inline uint16_t tu_unaligned_read16(const void *mem) {
ARM GAS  C:\Users\krisa\AppData\Local\Temp\cc7LeJkl.s 			page 38


 272:lib/TinyUSB/src/common/tusb_common.h ****   tu_unaligned_uint16_t const *ua16 = (tu_unaligned_uint16_t const *) mem;
 273:lib/TinyUSB/src/common/tusb_common.h ****   return ua16->val;
 274:lib/TinyUSB/src/common/tusb_common.h **** }
 275:lib/TinyUSB/src/common/tusb_common.h **** 
 276:lib/TinyUSB/src/common/tusb_common.h **** TU_ATTR_ALWAYS_INLINE static inline void tu_unaligned_write16(void *mem, uint16_t value) {
 277:lib/TinyUSB/src/common/tusb_common.h ****   tu_unaligned_uint16_t *ua16 = (tu_unaligned_uint16_t *) mem;
 278:lib/TinyUSB/src/common/tusb_common.h ****   ua16->val = value;
 279:lib/TinyUSB/src/common/tusb_common.h **** }
 280:lib/TinyUSB/src/common/tusb_common.h **** 
 281:lib/TinyUSB/src/common/tusb_common.h **** #elif TUP_MCU_STRICT_ALIGN
 282:lib/TinyUSB/src/common/tusb_common.h **** 
 283:lib/TinyUSB/src/common/tusb_common.h **** // MCU such as LPC_IP3511 Highspeed cannot access unaligned memory on USB_RAM although it is ARM M4
 284:lib/TinyUSB/src/common/tusb_common.h **** // We have to manually pick up bytes since tu_unaligned_uint32_t will still generate unaligned code
 285:lib/TinyUSB/src/common/tusb_common.h **** // NOTE: volatile cast to memory to prevent compiler to optimize and generate unaligned code
 286:lib/TinyUSB/src/common/tusb_common.h **** // TODO Big Endian may need minor changes
 287:lib/TinyUSB/src/common/tusb_common.h **** TU_ATTR_ALWAYS_INLINE static inline uint32_t tu_unaligned_read32(const void* mem) {
 288:lib/TinyUSB/src/common/tusb_common.h ****   volatile uint8_t const* buf8 = (uint8_t const*) mem;
 289:lib/TinyUSB/src/common/tusb_common.h ****   return tu_u32(buf8[3], buf8[2], buf8[1], buf8[0]);
 290:lib/TinyUSB/src/common/tusb_common.h **** }
 291:lib/TinyUSB/src/common/tusb_common.h **** 
 292:lib/TinyUSB/src/common/tusb_common.h **** TU_ATTR_ALWAYS_INLINE static inline void tu_unaligned_write32(void* mem, uint32_t value) {
 293:lib/TinyUSB/src/common/tusb_common.h ****   volatile uint8_t* buf8 = (uint8_t*) mem;
 294:lib/TinyUSB/src/common/tusb_common.h ****   buf8[0] = tu_u32_byte0(value);
 295:lib/TinyUSB/src/common/tusb_common.h ****   buf8[1] = tu_u32_byte1(value);
 296:lib/TinyUSB/src/common/tusb_common.h ****   buf8[2] = tu_u32_byte2(value);
 297:lib/TinyUSB/src/common/tusb_common.h ****   buf8[3] = tu_u32_byte3(value);
 298:lib/TinyUSB/src/common/tusb_common.h **** }
 299:lib/TinyUSB/src/common/tusb_common.h **** 
 300:lib/TinyUSB/src/common/tusb_common.h **** TU_ATTR_ALWAYS_INLINE static inline uint16_t tu_unaligned_read16(const void* mem) {
 301:lib/TinyUSB/src/common/tusb_common.h ****   volatile uint8_t const* buf8 = (uint8_t const*) mem;
 302:lib/TinyUSB/src/common/tusb_common.h ****   return tu_u16(buf8[1], buf8[0]);
 303:lib/TinyUSB/src/common/tusb_common.h **** }
 304:lib/TinyUSB/src/common/tusb_common.h **** 
 305:lib/TinyUSB/src/common/tusb_common.h **** TU_ATTR_ALWAYS_INLINE static inline void tu_unaligned_write16(void* mem, uint16_t value) {
 306:lib/TinyUSB/src/common/tusb_common.h ****   volatile uint8_t* buf8 = (uint8_t*) mem;
 307:lib/TinyUSB/src/common/tusb_common.h ****   buf8[0] = tu_u16_low(value);
 308:lib/TinyUSB/src/common/tusb_common.h ****   buf8[1] = tu_u16_high(value);
 309:lib/TinyUSB/src/common/tusb_common.h **** }
 310:lib/TinyUSB/src/common/tusb_common.h **** 
 311:lib/TinyUSB/src/common/tusb_common.h **** #else
 312:lib/TinyUSB/src/common/tusb_common.h **** 
 313:lib/TinyUSB/src/common/tusb_common.h **** // MCU that could access unaligned memory natively
 314:lib/TinyUSB/src/common/tusb_common.h **** TU_ATTR_ALWAYS_INLINE static inline uint32_t tu_unaligned_read32(const void *mem) {
 315:lib/TinyUSB/src/common/tusb_common.h ****   return *((uint32_t const *) mem);
 316:lib/TinyUSB/src/common/tusb_common.h **** }
 317:lib/TinyUSB/src/common/tusb_common.h **** 
 318:lib/TinyUSB/src/common/tusb_common.h **** TU_ATTR_ALWAYS_INLINE static inline uint16_t tu_unaligned_read16(const void *mem) {
 319:lib/TinyUSB/src/common/tusb_common.h ****   return *((uint16_t const *) mem);
 320:lib/TinyUSB/src/common/tusb_common.h **** }
 321:lib/TinyUSB/src/common/tusb_common.h **** 
 322:lib/TinyUSB/src/common/tusb_common.h **** TU_ATTR_ALWAYS_INLINE static inline void tu_unaligned_write32(void *mem, uint32_t value) {
 323:lib/TinyUSB/src/common/tusb_common.h ****   *((uint32_t *) mem) = value;
 324:lib/TinyUSB/src/common/tusb_common.h **** }
 325:lib/TinyUSB/src/common/tusb_common.h **** 
 326:lib/TinyUSB/src/common/tusb_common.h **** TU_ATTR_ALWAYS_INLINE static inline void tu_unaligned_write16(void *mem, uint16_t value) {
 327:lib/TinyUSB/src/common/tusb_common.h ****   *((uint16_t *) mem) = value;
 328:lib/TinyUSB/src/common/tusb_common.h **** }
ARM GAS  C:\Users\krisa\AppData\Local\Temp\cc7LeJkl.s 			page 39


 329:lib/TinyUSB/src/common/tusb_common.h **** 
 330:lib/TinyUSB/src/common/tusb_common.h **** #endif
 331:lib/TinyUSB/src/common/tusb_common.h **** 
 332:lib/TinyUSB/src/common/tusb_common.h **** // scatter read 4 bytes from two buffers. Parameter are not checked
 333:lib/TinyUSB/src/common/tusb_common.h **** TU_ATTR_ALWAYS_INLINE static inline uint32_t tu_scatter_read32(const uint8_t *buf1, uint8_t len1, c
 334:lib/TinyUSB/src/common/tusb_common.h ****                                                                uint8_t len2) {
 335:lib/TinyUSB/src/common/tusb_common.h ****   uint32_t result = 0;
 336:lib/TinyUSB/src/common/tusb_common.h ****   uint8_t  shift  = 0;
 337:lib/TinyUSB/src/common/tusb_common.h **** 
 338:lib/TinyUSB/src/common/tusb_common.h ****   for (uint8_t i = 0; i < len1; ++i) {
 339:lib/TinyUSB/src/common/tusb_common.h ****     result |= ((uint32_t)buf1[i]) << shift;
 340:lib/TinyUSB/src/common/tusb_common.h ****     shift += 8;
 341:lib/TinyUSB/src/common/tusb_common.h ****   }
 342:lib/TinyUSB/src/common/tusb_common.h **** 
 343:lib/TinyUSB/src/common/tusb_common.h ****   for (uint8_t i = 0; i < len2; ++i) {
 344:lib/TinyUSB/src/common/tusb_common.h ****     result |= ((uint32_t)buf2[i]) << shift;
 345:lib/TinyUSB/src/common/tusb_common.h ****     shift += 8;
 346:lib/TinyUSB/src/common/tusb_common.h ****   }
 347:lib/TinyUSB/src/common/tusb_common.h **** 
 348:lib/TinyUSB/src/common/tusb_common.h ****   return result;
 349:lib/TinyUSB/src/common/tusb_common.h **** }
 350:lib/TinyUSB/src/common/tusb_common.h **** 
 351:lib/TinyUSB/src/common/tusb_common.h **** // scatter write 4 bytes to two buffers. Parameter are not checked
 352:lib/TinyUSB/src/common/tusb_common.h **** TU_ATTR_ALWAYS_INLINE static inline void tu_scatter_write32(uint32_t value, uint8_t *buf1, uint8_t 
 353:lib/TinyUSB/src/common/tusb_common.h ****                                                             uint8_t *buf2, uint8_t len2) {
 354:lib/TinyUSB/src/common/tusb_common.h ****   for (uint8_t i = 0; i < len1; ++i) {
 355:lib/TinyUSB/src/common/tusb_common.h ****     buf1[i] = (uint8_t)(value & 0xFF);
 356:lib/TinyUSB/src/common/tusb_common.h ****     value >>= 8;
 357:lib/TinyUSB/src/common/tusb_common.h ****   }
 358:lib/TinyUSB/src/common/tusb_common.h **** 
 359:lib/TinyUSB/src/common/tusb_common.h ****   for (uint8_t i = 0; i < len2; ++i) {
 360:lib/TinyUSB/src/common/tusb_common.h ****     buf2[i] = (uint8_t)(value & 0xFF);
 361:lib/TinyUSB/src/common/tusb_common.h ****     value >>= 8;
 362:lib/TinyUSB/src/common/tusb_common.h ****   }
 363:lib/TinyUSB/src/common/tusb_common.h **** }
 364:lib/TinyUSB/src/common/tusb_common.h **** 
 365:lib/TinyUSB/src/common/tusb_common.h **** //--------------------------------------------------------------------+
 366:lib/TinyUSB/src/common/tusb_common.h **** // Descriptor helper
 367:lib/TinyUSB/src/common/tusb_common.h **** //--------------------------------------------------------------------+
 368:lib/TinyUSB/src/common/tusb_common.h **** 
 369:lib/TinyUSB/src/common/tusb_common.h **** // return next descriptor
 370:lib/TinyUSB/src/common/tusb_common.h **** TU_ATTR_ALWAYS_INLINE static inline uint8_t const * tu_desc_next(void const* desc) {
 371:lib/TinyUSB/src/common/tusb_common.h ****   uint8_t const* desc8 = (uint8_t const*) desc;
 372:lib/TinyUSB/src/common/tusb_common.h ****   return desc8 + desc8[DESC_OFFSET_LEN];
 373:lib/TinyUSB/src/common/tusb_common.h **** }
 374:lib/TinyUSB/src/common/tusb_common.h **** 
 375:lib/TinyUSB/src/common/tusb_common.h **** // get descriptor length
 376:lib/TinyUSB/src/common/tusb_common.h **** TU_ATTR_ALWAYS_INLINE static inline uint8_t tu_desc_len(void const* desc) {
 377:lib/TinyUSB/src/common/tusb_common.h ****   return ((uint8_t const*) desc)[DESC_OFFSET_LEN];
 378:lib/TinyUSB/src/common/tusb_common.h **** }
 379:lib/TinyUSB/src/common/tusb_common.h **** 
 380:lib/TinyUSB/src/common/tusb_common.h **** // get descriptor type
 381:lib/TinyUSB/src/common/tusb_common.h **** TU_ATTR_ALWAYS_INLINE static inline uint8_t tu_desc_type(void const* desc) {
 382:lib/TinyUSB/src/common/tusb_common.h ****   return ((uint8_t const*) desc)[DESC_OFFSET_TYPE];
 383:lib/TinyUSB/src/common/tusb_common.h **** }
 384:lib/TinyUSB/src/common/tusb_common.h **** 
 385:lib/TinyUSB/src/common/tusb_common.h **** // get descriptor subtype
ARM GAS  C:\Users\krisa\AppData\Local\Temp\cc7LeJkl.s 			page 40


 386:lib/TinyUSB/src/common/tusb_common.h **** TU_ATTR_ALWAYS_INLINE static inline uint8_t tu_desc_subtype(void const* desc) {
 387:lib/TinyUSB/src/common/tusb_common.h ****   return ((uint8_t const*) desc)[DESC_OFFSET_SUBTYPE];
 388:lib/TinyUSB/src/common/tusb_common.h **** }
 389:lib/TinyUSB/src/common/tusb_common.h **** 
 390:lib/TinyUSB/src/common/tusb_common.h **** TU_ATTR_ALWAYS_INLINE static inline bool tu_desc_in_bounds(const uint8_t *p_desc, const uint8_t *de
 465              		.loc 2 390 42 discriminator 2 view .LVU118
 466              	.LBB249:
 391:lib/TinyUSB/src/common/tusb_common.h ****   return p_desc < desc_end && tu_desc_next(p_desc) <= desc_end;
 467              		.loc 2 391 3 discriminator 2 view .LVU119
 468              		.loc 2 391 28 is_stmt 0 discriminator 2 view .LVU120
 469 004a B542     		cmp	r5, r6
 470 004c 67D2     		bcs	.L49
 471              	.LVL40:
 472              	.LBB250:
 473              	.LBI250:
 370:lib/TinyUSB/src/common/tusb_common.h ****   uint8_t const* desc8 = (uint8_t const*) desc;
 474              		.loc 2 370 53 is_stmt 1 view .LVU121
 475              	.LBB251:
 371:lib/TinyUSB/src/common/tusb_common.h ****   return desc8 + desc8[DESC_OFFSET_LEN];
 476              		.loc 2 371 3 view .LVU122
 372:lib/TinyUSB/src/common/tusb_common.h **** }
 477              		.loc 2 372 3 view .LVU123
 372:lib/TinyUSB/src/common/tusb_common.h **** }
 478              		.loc 2 372 23 is_stmt 0 view .LVU124
 479 004e 2B78     		ldrb	r3, [r5]	@ zero_extendqisi2
 372:lib/TinyUSB/src/common/tusb_common.h **** }
 480              		.loc 2 372 16 view .LVU125
 481 0050 2B44     		add	r3, r3, r5
 482              	.LVL41:
 372:lib/TinyUSB/src/common/tusb_common.h **** }
 483              		.loc 2 372 16 view .LVU126
 484              	.LBE251:
 485              	.LBE250:
 486              		.loc 2 391 28 view .LVU127
 487 0052 9E42     		cmp	r6, r3
 488 0054 70D3     		bcc	.L50
 489 0056 0123     		movs	r3, #1
 490 0058 62E0     		b	.L47
 491              	.LVL42:
 492              	.L54:
 493              		.loc 2 391 28 view .LVU128
 494              	.LBE249:
 495              	.LBE248:
 496              	.LBB254:
1063:lib/TinyUSB/src/device/usbd.c ****       continue;
 497              		.loc 1 1063 7 is_stmt 1 view .LVU129
 498              	.LBB234:
 499              	.LBI234:
 370:lib/TinyUSB/src/common/tusb_common.h ****   uint8_t const* desc8 = (uint8_t const*) desc;
 500              		.loc 2 370 53 view .LVU130
 501              	.LBB235:
 371:lib/TinyUSB/src/common/tusb_common.h ****   return desc8 + desc8[DESC_OFFSET_LEN];
 502              		.loc 2 371 3 view .LVU131
 372:lib/TinyUSB/src/common/tusb_common.h **** }
 503              		.loc 2 372 3 view .LVU132
 372:lib/TinyUSB/src/common/tusb_common.h **** }
 504              		.loc 2 372 23 is_stmt 0 view .LVU133
ARM GAS  C:\Users\krisa\AppData\Local\Temp\cc7LeJkl.s 			page 41


 505 005a 2B78     		ldrb	r3, [r5]	@ zero_extendqisi2
 372:lib/TinyUSB/src/common/tusb_common.h **** }
 506              		.loc 2 372 16 view .LVU134
 507 005c 1D44     		add	r5, r5, r3
 508              	.LVL43:
 372:lib/TinyUSB/src/common/tusb_common.h **** }
 509              		.loc 2 372 16 view .LVU135
 510              	.LBE235:
 511              	.LBE234:
1064:lib/TinyUSB/src/device/usbd.c ****     }
 512              		.loc 1 1064 7 is_stmt 1 view .LVU136
 513 005e F4E7     		b	.L30
 514              	.L55:
1067:lib/TinyUSB/src/device/usbd.c ****     const tusb_desc_interface_t *desc_itf = (const tusb_desc_interface_t *)p_desc;
 515              		.loc 1 1067 5 discriminator 1 view .LVU137
1067:lib/TinyUSB/src/device/usbd.c ****     const tusb_desc_interface_t *desc_itf = (const tusb_desc_interface_t *)p_desc;
 516              		.loc 1 1067 5 discriminator 1 view .LVU138
1067:lib/TinyUSB/src/device/usbd.c ****     const tusb_desc_interface_t *desc_itf = (const tusb_desc_interface_t *)p_desc;
 517              		.loc 1 1067 5 discriminator 1 view .LVU139
1067:lib/TinyUSB/src/device/usbd.c ****     const tusb_desc_interface_t *desc_itf = (const tusb_desc_interface_t *)p_desc;
 518              		.loc 1 1067 5 discriminator 1 view .LVU140
 519              	.LBB236:
1067:lib/TinyUSB/src/device/usbd.c ****     const tusb_desc_interface_t *desc_itf = (const tusb_desc_interface_t *)p_desc;
 520              		.loc 1 1067 5 discriminator 1 view .LVU141
 521              	.LVL44:
1067:lib/TinyUSB/src/device/usbd.c ****     const tusb_desc_interface_t *desc_itf = (const tusb_desc_interface_t *)p_desc;
 522              		.loc 1 1067 5 discriminator 1 view .LVU142
 523 0060 4FF0E023 		mov	r3, #-536813568
 524 0064 D3F8F03D 		ldr	r3, [r3, #3568]
 525 0068 13F0010F 		tst	r3, #1
 526 006c 00D0     		beq	.L34
1067:lib/TinyUSB/src/device/usbd.c ****     const tusb_desc_interface_t *desc_itf = (const tusb_desc_interface_t *)p_desc;
 527              		.loc 1 1067 5 discriminator 3 view .LVU143
 528              		.syntax unified
 529              	@ 1067 "lib/TinyUSB/src/device/usbd.c" 1
 530 006e 00BE     		BKPT #0
 531              	
 532              	@ 0 "" 2
 533              		.thumb
 534              		.syntax unified
 535              	.L34:
 536              	.LBE236:
1067:lib/TinyUSB/src/device/usbd.c ****     const tusb_desc_interface_t *desc_itf = (const tusb_desc_interface_t *)p_desc;
 537              		.loc 1 1067 5 discriminator 5 view .LVU144
1067:lib/TinyUSB/src/device/usbd.c ****     const tusb_desc_interface_t *desc_itf = (const tusb_desc_interface_t *)p_desc;
 538              		.loc 1 1067 5 discriminator 5 view .LVU145
 539 0070 0020     		movs	r0, #0
 540 0072 DBE7     		b	.L29
 541              	.LVL45:
 542              	.L36:
 543              	.LBB237:
 544              	.LBB238:
 545              	.LBB239:
 355:lib/TinyUSB/src/device/usbd.c ****     if (drvid < BUILTIN_DRIVER_COUNT) {
 546              		.loc 1 355 5 view .LVU146
 355:lib/TinyUSB/src/device/usbd.c ****     if (drvid < BUILTIN_DRIVER_COUNT) {
 547              		.loc 1 355 11 is_stmt 0 view .LVU147
ARM GAS  C:\Users\krisa\AppData\Local\Temp\cc7LeJkl.s 			page 42


 548 0074 E31A     		subs	r3, r4, r3
 549 0076 DBB2     		uxtb	r3, r3
 550              	.LVL46:
 356:lib/TinyUSB/src/device/usbd.c ****       driver = &_usbd_driver[drvid];
 551              		.loc 1 356 5 is_stmt 1 view .LVU148
 356:lib/TinyUSB/src/device/usbd.c ****       driver = &_usbd_driver[drvid];
 552              		.loc 1 356 8 is_stmt 0 view .LVU149
 553 0078 012B     		cmp	r3, #1
 554 007a 05D8     		bhi	.L38
 357:lib/TinyUSB/src/device/usbd.c ****     }
 555              		.loc 1 357 7 is_stmt 1 view .LVU150
 357:lib/TinyUSB/src/device/usbd.c ****     }
 556              		.loc 1 357 14 is_stmt 0 view .LVU151
 557 007c 03EBC303 		add	r3, r3, r3, lsl #3
 558              	.LVL47:
 357:lib/TinyUSB/src/device/usbd.c ****     }
 559              		.loc 1 357 14 view .LVU152
 560 0080 304A     		ldr	r2, .L56+4
 561 0082 02EB8303 		add	r3, r2, r3, lsl #2
 562              	.LVL48:
 357:lib/TinyUSB/src/device/usbd.c ****     }
 563              		.loc 1 357 14 view .LVU153
 564 0086 22E0     		b	.L37
 565              	.LVL49:
 566              	.L38:
 357:lib/TinyUSB/src/device/usbd.c ****     }
 567              		.loc 1 357 14 view .LVU154
 568              	.LBE239:
 569              	.LBE238:
1075:lib/TinyUSB/src/device/usbd.c ****       const uint16_t drv_len = driver->open(rhport, desc_itf, remaining_len);
 570              		.loc 1 1075 7 is_stmt 1 discriminator 1 view .LVU155
1075:lib/TinyUSB/src/device/usbd.c ****       const uint16_t drv_len = driver->open(rhport, desc_itf, remaining_len);
 571              		.loc 1 1075 7 discriminator 1 view .LVU156
1075:lib/TinyUSB/src/device/usbd.c ****       const uint16_t drv_len = driver->open(rhport, desc_itf, remaining_len);
 572              		.loc 1 1075 7 discriminator 1 view .LVU157
1075:lib/TinyUSB/src/device/usbd.c ****       const uint16_t drv_len = driver->open(rhport, desc_itf, remaining_len);
 573              		.loc 1 1075 7 discriminator 1 view .LVU158
 574              	.LBB241:
1075:lib/TinyUSB/src/device/usbd.c ****       const uint16_t drv_len = driver->open(rhport, desc_itf, remaining_len);
 575              		.loc 1 1075 7 discriminator 1 view .LVU159
1075:lib/TinyUSB/src/device/usbd.c ****       const uint16_t drv_len = driver->open(rhport, desc_itf, remaining_len);
 576              		.loc 1 1075 7 discriminator 1 view .LVU160
 577 0088 4FF0E023 		mov	r3, #-536813568
 578 008c D3F8F03D 		ldr	r3, [r3, #3568]
 579 0090 13F0010F 		tst	r3, #1
 580 0094 00D0     		beq	.L40
1075:lib/TinyUSB/src/device/usbd.c ****       const uint16_t drv_len = driver->open(rhport, desc_itf, remaining_len);
 581              		.loc 1 1075 7 discriminator 3 view .LVU161
 582              		.syntax unified
 583              	@ 1075 "lib/TinyUSB/src/device/usbd.c" 1
 584 0096 00BE     		BKPT #0
 585              	
 586              	@ 0 "" 2
 587              		.thumb
 588              		.syntax unified
 589              	.L40:
 590              	.LBE241:
ARM GAS  C:\Users\krisa\AppData\Local\Temp\cc7LeJkl.s 			page 43


1075:lib/TinyUSB/src/device/usbd.c ****       const uint16_t drv_len = driver->open(rhport, desc_itf, remaining_len);
 591              		.loc 1 1075 7 discriminator 5 view .LVU162
1075:lib/TinyUSB/src/device/usbd.c ****       const uint16_t drv_len = driver->open(rhport, desc_itf, remaining_len);
 592              		.loc 1 1075 7 discriminator 5 view .LVU163
 593 0098 0020     		movs	r0, #0
 594 009a C7E7     		b	.L29
 595              	.LVL50:
 596              	.L52:
1083:lib/TinyUSB/src/device/usbd.c ****                                            drv_len));
 597              		.loc 1 1083 9 discriminator 1 view .LVU164
1083:lib/TinyUSB/src/device/usbd.c ****                                            drv_len));
 598              		.loc 1 1083 9 discriminator 1 view .LVU165
1083:lib/TinyUSB/src/device/usbd.c ****                                            drv_len));
 599              		.loc 1 1083 9 discriminator 1 view .LVU166
1083:lib/TinyUSB/src/device/usbd.c ****                                            drv_len));
 600              		.loc 1 1083 9 discriminator 1 view .LVU167
 601              	.LBB242:
1083:lib/TinyUSB/src/device/usbd.c ****                                            drv_len));
 602              		.loc 1 1083 9 discriminator 1 view .LVU168
1083:lib/TinyUSB/src/device/usbd.c ****                                            drv_len));
 603              		.loc 1 1083 9 discriminator 1 view .LVU169
 604 009c 4FF0E023 		mov	r3, #-536813568
 605 00a0 D3F8F03D 		ldr	r3, [r3, #3568]
 606 00a4 13F0010F 		tst	r3, #1
 607 00a8 C0D0     		beq	.L29
1083:lib/TinyUSB/src/device/usbd.c ****                                            drv_len));
 608              		.loc 1 1083 9 discriminator 3 view .LVU170
 609              		.syntax unified
 610              	@ 1083 "lib/TinyUSB/src/device/usbd.c" 1
 611 00aa 00BE     		BKPT #0
 612              	
 613              	@ 0 "" 2
 614              		.thumb
 615              		.syntax unified
 616              	.LBE242:
1083:lib/TinyUSB/src/device/usbd.c ****                                            drv_len));
 617              		.loc 1 1083 9 discriminator 3 view .LVU171
1083:lib/TinyUSB/src/device/usbd.c ****                                            drv_len));
 618              		.loc 1 1083 9 discriminator 3 view .LVU172
 619 00ac BEE7     		b	.L29
 620              	.LVL51:
 621              	.L41:
1083:lib/TinyUSB/src/device/usbd.c ****                                            drv_len));
 622              		.loc 1 1083 9 is_stmt 0 discriminator 3 view .LVU173
 623              	.LBE237:
1073:lib/TinyUSB/src/device/usbd.c ****       const usbd_class_driver_t *driver = get_driver(drv_id);
 624              		.loc 1 1073 51 is_stmt 1 discriminator 2 view .LVU174
1073:lib/TinyUSB/src/device/usbd.c ****       const usbd_class_driver_t *driver = get_driver(drv_id);
 625              		.loc 1 1073 57 is_stmt 0 discriminator 2 view .LVU175
 626 00ae 0134     		adds	r4, r4, #1
 627              	.LVL52:
1073:lib/TinyUSB/src/device/usbd.c ****       const usbd_class_driver_t *driver = get_driver(drv_id);
 628              		.loc 1 1073 57 discriminator 2 view .LVU176
 629 00b0 E4B2     		uxtb	r4, r4
 630              	.LVL53:
 631              	.L35:
1073:lib/TinyUSB/src/device/usbd.c ****       const usbd_class_driver_t *driver = get_driver(drv_id);
ARM GAS  C:\Users\krisa\AppData\Local\Temp\cc7LeJkl.s 			page 44


 632              		.loc 1 1073 22 is_stmt 1 discriminator 1 view .LVU177
1073:lib/TinyUSB/src/device/usbd.c ****       const usbd_class_driver_t *driver = get_driver(drv_id);
 633              		.loc 1 1073 31 is_stmt 0 discriminator 1 view .LVU178
 634 00b2 254B     		ldr	r3, .L56+8
 635 00b4 1B78     		ldrb	r3, [r3]	@ zero_extendqisi2
 636 00b6 9A1C     		adds	r2, r3, #2
 637 00b8 D2B2     		uxtb	r2, r2
1073:lib/TinyUSB/src/device/usbd.c ****       const usbd_class_driver_t *driver = get_driver(drv_id);
 638              		.loc 1 1073 5 discriminator 1 view .LVU179
 639 00ba A242     		cmp	r2, r4
 640 00bc 1FD9     		bls	.L44
 641              	.LBB244:
1074:lib/TinyUSB/src/device/usbd.c ****       TU_ASSERT(driver);
 642              		.loc 1 1074 7 is_stmt 1 view .LVU180
 643              	.LVL54:
 644              	.LBB243:
 645              	.LBI238:
 349:lib/TinyUSB/src/device/usbd.c ****   usbd_class_driver_t const *driver = NULL;
 646              		.loc 1 349 65 view .LVU181
 647              	.LBB240:
 350:lib/TinyUSB/src/device/usbd.c ****   if (drvid < _app_driver_count) {
 648              		.loc 1 350 3 view .LVU182
 351:lib/TinyUSB/src/device/usbd.c ****     // Application drivers
 649              		.loc 1 351 3 view .LVU183
 351:lib/TinyUSB/src/device/usbd.c ****     // Application drivers
 650              		.loc 1 351 6 is_stmt 0 view .LVU184
 651 00be A342     		cmp	r3, r4
 652 00c0 D8D9     		bls	.L36
 353:lib/TinyUSB/src/device/usbd.c ****   } else{
 653              		.loc 1 353 5 is_stmt 1 view .LVU185
 353:lib/TinyUSB/src/device/usbd.c ****   } else{
 654              		.loc 1 353 14 is_stmt 0 view .LVU186
 655 00c2 224B     		ldr	r3, .L56+12
 656 00c4 1B68     		ldr	r3, [r3]
 353:lib/TinyUSB/src/device/usbd.c ****   } else{
 657              		.loc 1 353 26 view .LVU187
 658 00c6 04EBC402 		add	r2, r4, r4, lsl #3
 353:lib/TinyUSB/src/device/usbd.c ****   } else{
 659              		.loc 1 353 12 view .LVU188
 660 00ca 03EB8203 		add	r3, r3, r2, lsl #2
 661              	.LVL55:
 662              	.L37:
 361:lib/TinyUSB/src/device/usbd.c **** }
 663              		.loc 1 361 3 is_stmt 1 view .LVU189
 361:lib/TinyUSB/src/device/usbd.c **** }
 664              		.loc 1 361 3 is_stmt 0 view .LVU190
 665              	.LBE240:
 666              	.LBE243:
1075:lib/TinyUSB/src/device/usbd.c ****       const uint16_t drv_len = driver->open(rhport, desc_itf, remaining_len);
 667              		.loc 1 1075 7 is_stmt 1 view .LVU191
1075:lib/TinyUSB/src/device/usbd.c ****       const uint16_t drv_len = driver->open(rhport, desc_itf, remaining_len);
 668              		.loc 1 1075 7 view .LVU192
 669 00ce 002B     		cmp	r3, #0
 670 00d0 DAD0     		beq	.L38
1075:lib/TinyUSB/src/device/usbd.c ****       const uint16_t drv_len = driver->open(rhport, desc_itf, remaining_len);
 671              		.loc 1 1075 7 discriminator 2 view .LVU193
1076:lib/TinyUSB/src/device/usbd.c **** 
ARM GAS  C:\Users\krisa\AppData\Local\Temp\cc7LeJkl.s 			page 45


 672              		.loc 1 1076 7 discriminator 2 view .LVU194
1076:lib/TinyUSB/src/device/usbd.c **** 
 673              		.loc 1 1076 38 is_stmt 0 discriminator 2 view .LVU195
 674 00d2 1B69     		ldr	r3, [r3, #16]
 675              	.LVL56:
1076:lib/TinyUSB/src/device/usbd.c **** 
 676              		.loc 1 1076 32 discriminator 2 view .LVU196
 677 00d4 4246     		mov	r2, r8
 678 00d6 2946     		mov	r1, r5
 679 00d8 3846     		mov	r0, r7
 680 00da 9847     		blx	r3
 681              	.LVL57:
 682 00dc 8146     		mov	r9, r0
 683              	.LVL58:
1078:lib/TinyUSB/src/device/usbd.c ****         // Open successfully
 684              		.loc 1 1078 7 is_stmt 1 discriminator 2 view .LVU197
1078:lib/TinyUSB/src/device/usbd.c ****         // Open successfully
 685              		.loc 1 1078 10 is_stmt 0 discriminator 2 view .LVU198
 686 00de 0828     		cmp	r0, #8
 687 00e0 E5D9     		bls	.L41
1078:lib/TinyUSB/src/device/usbd.c ****         // Open successfully
 688              		.loc 1 1078 54 discriminator 1 view .LVU199
 689 00e2 8045     		cmp	r8, r0
 690 00e4 E3D3     		bcc	.L41
1080:lib/TinyUSB/src/device/usbd.c **** 
 691              		.loc 1 1080 53 is_stmt 1 view .LVU200
1083:lib/TinyUSB/src/device/usbd.c ****                                            drv_len));
 692              		.loc 1 1083 9 view .LVU201
1083:lib/TinyUSB/src/device/usbd.c ****                                            drv_len));
 693              		.loc 1 1083 9 view .LVU202
 694 00e6 1649     		ldr	r1, .L56
 695 00e8 0190     		str	r0, [sp, #4]
 696 00ea 0095     		str	r5, [sp]
 697 00ec 1023     		movs	r3, #16
 698 00ee CA1D     		adds	r2, r1, #7
 699 00f0 1731     		adds	r1, r1, #23
 700 00f2 2046     		mov	r0, r4
 701              	.LVL59:
1083:lib/TinyUSB/src/device/usbd.c ****                                            drv_len));
 702              		.loc 1 1083 9 is_stmt 0 view .LVU203
 703 00f4 FFF7FEFF 		bl	tu_bind_driver_to_ep_itf
 704              	.LVL60:
 705 00f8 0028     		cmp	r0, #0
 706 00fa CFD0     		beq	.L52
1083:lib/TinyUSB/src/device/usbd.c ****                                            drv_len));
 707              		.loc 1 1083 9 is_stmt 1 discriminator 2 view .LVU204
1086:lib/TinyUSB/src/device/usbd.c ****         break; // exit driver find loop
 708              		.loc 1 1086 9 discriminator 2 view .LVU205
1086:lib/TinyUSB/src/device/usbd.c ****         break; // exit driver find loop
 709              		.loc 1 1086 16 is_stmt 0 discriminator 2 view .LVU206
 710 00fc 4D44     		add	r5, r5, r9
 711              	.LVL61:
1087:lib/TinyUSB/src/device/usbd.c ****       }
 712              		.loc 1 1087 9 is_stmt 1 discriminator 2 view .LVU207
 713              	.L44:
1087:lib/TinyUSB/src/device/usbd.c ****       }
 714              		.loc 1 1087 9 is_stmt 0 discriminator 2 view .LVU208
ARM GAS  C:\Users\krisa\AppData\Local\Temp\cc7LeJkl.s 			page 46


 715              	.LBE244:
1092:lib/TinyUSB/src/device/usbd.c ****   }
 716              		.loc 1 1092 5 is_stmt 1 view .LVU209
1092:lib/TinyUSB/src/device/usbd.c ****   }
 717              		.loc 1 1092 5 view .LVU210
 718 00fe 124B     		ldr	r3, .L56+8
 719 0100 1B78     		ldrb	r3, [r3]	@ zero_extendqisi2
 720 0102 0233     		adds	r3, r3, #2
 721 0104 DBB2     		uxtb	r3, r3
 722 0106 A342     		cmp	r3, r4
 723 0108 9FD8     		bhi	.L30
1092:lib/TinyUSB/src/device/usbd.c ****   }
 724              		.loc 1 1092 5 discriminator 1 view .LVU211
1092:lib/TinyUSB/src/device/usbd.c ****   }
 725              		.loc 1 1092 5 discriminator 1 view .LVU212
1092:lib/TinyUSB/src/device/usbd.c ****   }
 726              		.loc 1 1092 5 discriminator 1 view .LVU213
1092:lib/TinyUSB/src/device/usbd.c ****   }
 727              		.loc 1 1092 5 discriminator 1 view .LVU214
 728              	.LBB245:
1092:lib/TinyUSB/src/device/usbd.c ****   }
 729              		.loc 1 1092 5 discriminator 1 view .LVU215
 730              	.LVL62:
1092:lib/TinyUSB/src/device/usbd.c ****   }
 731              		.loc 1 1092 5 discriminator 1 view .LVU216
 732 010a 4FF0E023 		mov	r3, #-536813568
 733 010e D3F8F03D 		ldr	r3, [r3, #3568]
 734 0112 13F0010F 		tst	r3, #1
 735 0116 00D0     		beq	.L46
1092:lib/TinyUSB/src/device/usbd.c ****   }
 736              		.loc 1 1092 5 discriminator 3 view .LVU217
 737              		.syntax unified
 738              	@ 1092 "lib/TinyUSB/src/device/usbd.c" 1
 739 0118 00BE     		BKPT #0
 740              	
 741              	@ 0 "" 2
 742              		.thumb
 743              		.syntax unified
 744              	.L46:
 745              	.LBE245:
1092:lib/TinyUSB/src/device/usbd.c ****   }
 746              		.loc 1 1092 5 discriminator 5 view .LVU218
1092:lib/TinyUSB/src/device/usbd.c ****   }
 747              		.loc 1 1092 5 discriminator 5 view .LVU219
 748 011a 0020     		movs	r0, #0
 749 011c 86E7     		b	.L29
 750              	.LVL63:
 751              	.L49:
1092:lib/TinyUSB/src/device/usbd.c ****   }
 752              		.loc 1 1092 5 is_stmt 0 discriminator 5 view .LVU220
 753              	.LBE254:
 754              	.LBB255:
 755              	.LBB252:
 756              		.loc 2 391 28 view .LVU221
 757 011e 0023     		movs	r3, #0
 758              	.L47:
 759              	.LVL64:
ARM GAS  C:\Users\krisa\AppData\Local\Temp\cc7LeJkl.s 			page 47


 760              		.loc 2 391 28 view .LVU222
 761              	.LBE252:
 762              	.LBE255:
1060:lib/TinyUSB/src/device/usbd.c ****     // Class will always start with Interface Association (if any) and then Interface descriptor
 763              		.loc 1 1060 9 view .LVU223
 764 0120 63B1     		cbz	r3, .L53
 765              	.LBB256:
1062:lib/TinyUSB/src/device/usbd.c ****       p_desc = tu_desc_next(p_desc); // next to Interface
 766              		.loc 1 1062 5 is_stmt 1 view .LVU224
 767              	.LVL65:
 768              	.LBB246:
 769              	.LBI246:
 381:lib/TinyUSB/src/common/tusb_common.h ****   return ((uint8_t const*) desc)[DESC_OFFSET_TYPE];
 770              		.loc 2 381 45 view .LVU225
 771              	.LBB247:
 382:lib/TinyUSB/src/common/tusb_common.h **** }
 772              		.loc 2 382 3 view .LVU226
 382:lib/TinyUSB/src/common/tusb_common.h **** }
 773              		.loc 2 382 33 is_stmt 0 view .LVU227
 774 0122 6B78     		ldrb	r3, [r5, #1]	@ zero_extendqisi2
 775              	.LVL66:
 382:lib/TinyUSB/src/common/tusb_common.h **** }
 776              		.loc 2 382 33 view .LVU228
 777              	.LBE247:
 778              	.LBE246:
1062:lib/TinyUSB/src/device/usbd.c ****       p_desc = tu_desc_next(p_desc); // next to Interface
 779              		.loc 1 1062 8 view .LVU229
 780 0124 0B2B     		cmp	r3, #11
 781 0126 98D0     		beq	.L54
1067:lib/TinyUSB/src/device/usbd.c ****     const tusb_desc_interface_t *desc_itf = (const tusb_desc_interface_t *)p_desc;
 782              		.loc 1 1067 5 is_stmt 1 view .LVU230
1067:lib/TinyUSB/src/device/usbd.c ****     const tusb_desc_interface_t *desc_itf = (const tusb_desc_interface_t *)p_desc;
 783              		.loc 1 1067 5 view .LVU231
 784              	.LVL67:
1067:lib/TinyUSB/src/device/usbd.c ****     const tusb_desc_interface_t *desc_itf = (const tusb_desc_interface_t *)p_desc;
 785              		.loc 1 1067 5 is_stmt 0 view .LVU232
 786              	.LBE256:
 382:lib/TinyUSB/src/common/tusb_common.h **** }
 787              		.loc 2 382 3 is_stmt 1 view .LVU233
 788              	.LBB257:
1067:lib/TinyUSB/src/device/usbd.c ****     const tusb_desc_interface_t *desc_itf = (const tusb_desc_interface_t *)p_desc;
 789              		.loc 1 1067 5 is_stmt 0 view .LVU234
 790 0128 042B     		cmp	r3, #4
 791 012a 99D1     		bne	.L55
1067:lib/TinyUSB/src/device/usbd.c ****     const tusb_desc_interface_t *desc_itf = (const tusb_desc_interface_t *)p_desc;
 792              		.loc 1 1067 5 is_stmt 1 discriminator 2 view .LVU235
1068:lib/TinyUSB/src/device/usbd.c **** 
 793              		.loc 1 1068 5 discriminator 2 view .LVU236
 794              	.LVL68:
1071:lib/TinyUSB/src/device/usbd.c ****     uint8_t        drv_id;
 795              		.loc 1 1071 5 discriminator 2 view .LVU237
1071:lib/TinyUSB/src/device/usbd.c ****     uint8_t        drv_id;
 796              		.loc 1 1071 56 is_stmt 0 discriminator 2 view .LVU238
 797 012c A6EB0508 		sub	r8, r6, r5
1071:lib/TinyUSB/src/device/usbd.c ****     uint8_t        drv_id;
 798              		.loc 1 1071 20 discriminator 2 view .LVU239
 799 0130 1FFA88F8 		uxth	r8, r8
ARM GAS  C:\Users\krisa\AppData\Local\Temp\cc7LeJkl.s 			page 48


 800              	.LVL69:
1072:lib/TinyUSB/src/device/usbd.c ****     for (drv_id = 0; drv_id < TOTAL_DRIVER_COUNT; drv_id++) {
 801              		.loc 1 1072 5 is_stmt 1 discriminator 2 view .LVU240
1073:lib/TinyUSB/src/device/usbd.c ****       const usbd_class_driver_t *driver = get_driver(drv_id);
 802              		.loc 1 1073 5 discriminator 2 view .LVU241
1073:lib/TinyUSB/src/device/usbd.c ****       const usbd_class_driver_t *driver = get_driver(drv_id);
 803              		.loc 1 1073 17 is_stmt 0 discriminator 2 view .LVU242
 804 0134 0024     		movs	r4, #0
1073:lib/TinyUSB/src/device/usbd.c ****       const usbd_class_driver_t *driver = get_driver(drv_id);
 805              		.loc 1 1073 5 discriminator 2 view .LVU243
 806 0136 BCE7     		b	.L35
 807              	.LVL70:
 808              	.L50:
1073:lib/TinyUSB/src/device/usbd.c ****       const usbd_class_driver_t *driver = get_driver(drv_id);
 809              		.loc 1 1073 5 discriminator 2 view .LVU244
 810              	.LBE257:
 811              	.LBB258:
 812              	.LBB253:
 813              		.loc 2 391 28 view .LVU245
 814 0138 0023     		movs	r3, #0
 815 013a F1E7     		b	.L47
 816              	.LVL71:
 817              	.L53:
 818              		.loc 2 391 28 view .LVU246
 819              	.LBE253:
 820              	.LBE258:
1095:lib/TinyUSB/src/device/usbd.c **** }
 821              		.loc 1 1095 10 view .LVU247
 822 013c 0120     		movs	r0, #1
 823 013e 75E7     		b	.L29
 824              	.L57:
 825              		.align	2
 826              	.L56:
 827 0140 00000000 		.word	.LANCHOR3
 828 0144 00000000 		.word	.LANCHOR1
 829 0148 00000000 		.word	.LANCHOR2
 830 014c 00000000 		.word	.LANCHOR0
 831              		.cfi_endproc
 832              	.LFE154:
 834              		.section	.text.tud_event_hook_cb,"ax",%progbits
 835              		.align	1
 836              		.weak	tud_event_hook_cb
 837              		.syntax unified
 838              		.thumb
 839              		.thumb_func
 841              	tud_event_hook_cb:
 842              	.LVL72:
 843              	.LFB115:
  48:lib/TinyUSB/src/device/usbd.c ****   (void) rhport; (void) eventid; (void) in_isr;
 844              		.loc 1 48 84 is_stmt 1 view -0
 845              		.cfi_startproc
 846              		@ args = 0, pretend = 0, frame = 0
 847              		@ frame_needed = 0, uses_anonymous_args = 0
 848              		@ link register save eliminated.
  49:lib/TinyUSB/src/device/usbd.c **** }
 849              		.loc 1 49 3 view .LVU249
  49:lib/TinyUSB/src/device/usbd.c **** }
ARM GAS  C:\Users\krisa\AppData\Local\Temp\cc7LeJkl.s 			page 49


 850              		.loc 1 49 18 view .LVU250
  49:lib/TinyUSB/src/device/usbd.c **** }
 851              		.loc 1 49 34 view .LVU251
  50:lib/TinyUSB/src/device/usbd.c **** 
 852              		.loc 1 50 1 is_stmt 0 view .LVU252
 853 0000 7047     		bx	lr
 854              		.cfi_endproc
 855              	.LFE115:
 857              		.section	.text.tud_sof_cb,"ax",%progbits
 858              		.align	1
 859              		.weak	tud_sof_cb
 860              		.syntax unified
 861              		.thumb
 862              		.thumb_func
 864              	tud_sof_cb:
 865              	.LVL73:
 866              	.LFB116:
  52:lib/TinyUSB/src/device/usbd.c ****   (void) frame_count;
 867              		.loc 1 52 52 is_stmt 1 view -0
 868              		.cfi_startproc
 869              		@ args = 0, pretend = 0, frame = 0
 870              		@ frame_needed = 0, uses_anonymous_args = 0
 871              		@ link register save eliminated.
  53:lib/TinyUSB/src/device/usbd.c **** }
 872              		.loc 1 53 3 view .LVU254
  54:lib/TinyUSB/src/device/usbd.c **** 
 873              		.loc 1 54 1 is_stmt 0 view .LVU255
 874 0000 7047     		bx	lr
 875              		.cfi_endproc
 876              	.LFE116:
 878              		.section	.text.tud_descriptor_bos_cb,"ax",%progbits
 879              		.align	1
 880              		.weak	tud_descriptor_bos_cb
 881              		.syntax unified
 882              		.thumb
 883              		.thumb_func
 885              	tud_descriptor_bos_cb:
 886              	.LFB117:
  56:lib/TinyUSB/src/device/usbd.c ****   return NULL;
 887              		.loc 1 56 57 is_stmt 1 view -0
 888              		.cfi_startproc
 889              		@ args = 0, pretend = 0, frame = 0
 890              		@ frame_needed = 0, uses_anonymous_args = 0
 891              		@ link register save eliminated.
  57:lib/TinyUSB/src/device/usbd.c **** }
 892              		.loc 1 57 3 view .LVU257
  58:lib/TinyUSB/src/device/usbd.c **** 
 893              		.loc 1 58 1 is_stmt 0 view .LVU258
 894 0000 0020     		movs	r0, #0
 895 0002 7047     		bx	lr
 896              		.cfi_endproc
 897              	.LFE117:
 899              		.section	.text.tud_descriptor_device_qualifier_cb,"ax",%progbits
 900              		.align	1
 901              		.weak	tud_descriptor_device_qualifier_cb
 902              		.syntax unified
 903              		.thumb
ARM GAS  C:\Users\krisa\AppData\Local\Temp\cc7LeJkl.s 			page 50


 904              		.thumb_func
 906              	tud_descriptor_device_qualifier_cb:
 907              	.LFB118:
  60:lib/TinyUSB/src/device/usbd.c ****   return NULL;
 908              		.loc 1 60 70 is_stmt 1 view -0
 909              		.cfi_startproc
 910              		@ args = 0, pretend = 0, frame = 0
 911              		@ frame_needed = 0, uses_anonymous_args = 0
 912              		@ link register save eliminated.
  61:lib/TinyUSB/src/device/usbd.c **** }
 913              		.loc 1 61 3 view .LVU260
  62:lib/TinyUSB/src/device/usbd.c **** 
 914              		.loc 1 62 1 is_stmt 0 view .LVU261
 915 0000 0020     		movs	r0, #0
 916 0002 7047     		bx	lr
 917              		.cfi_endproc
 918              	.LFE118:
 920              		.section	.text.tud_descriptor_other_speed_configuration_cb,"ax",%progbits
 921              		.align	1
 922              		.weak	tud_descriptor_other_speed_configuration_cb
 923              		.syntax unified
 924              		.thumb
 925              		.thumb_func
 927              	tud_descriptor_other_speed_configuration_cb:
 928              	.LVL74:
 929              	.LFB119:
  64:lib/TinyUSB/src/device/usbd.c ****   (void) index;
 930              		.loc 1 64 88 is_stmt 1 view -0
 931              		.cfi_startproc
 932              		@ args = 0, pretend = 0, frame = 0
 933              		@ frame_needed = 0, uses_anonymous_args = 0
 934              		@ link register save eliminated.
  65:lib/TinyUSB/src/device/usbd.c ****   return NULL;
 935              		.loc 1 65 3 view .LVU263
  66:lib/TinyUSB/src/device/usbd.c **** }
 936              		.loc 1 66 3 view .LVU264
  67:lib/TinyUSB/src/device/usbd.c **** 
 937              		.loc 1 67 1 is_stmt 0 view .LVU265
 938 0000 0020     		movs	r0, #0
 939              	.LVL75:
  67:lib/TinyUSB/src/device/usbd.c **** 
 940              		.loc 1 67 1 view .LVU266
 941 0002 7047     		bx	lr
 942              		.cfi_endproc
 943              	.LFE119:
 945              		.section	.text.process_get_descriptor,"ax",%progbits
 946              		.align	1
 947              		.syntax unified
 948              		.thumb
 949              		.thumb_func
 951              	process_get_descriptor:
 952              	.LVL76:
 953              	.LFB155:
1100:lib/TinyUSB/src/device/usbd.c ****   tusb_desc_type_t const desc_type = (tusb_desc_type_t) tu_u16_high(p_request->wValue);
 954              		.loc 1 1100 1 is_stmt 1 view -0
 955              		.cfi_startproc
 956              		@ args = 0, pretend = 0, frame = 0
ARM GAS  C:\Users\krisa\AppData\Local\Temp\cc7LeJkl.s 			page 51


 957              		@ frame_needed = 0, uses_anonymous_args = 0
1100:lib/TinyUSB/src/device/usbd.c ****   tusb_desc_type_t const desc_type = (tusb_desc_type_t) tu_u16_high(p_request->wValue);
 958              		.loc 1 1100 1 is_stmt 0 view .LVU268
 959 0000 38B5     		push	{r3, r4, r5, lr}
 960              	.LCFI8:
 961              		.cfi_def_cfa_offset 16
 962              		.cfi_offset 3, -16
 963              		.cfi_offset 4, -12
 964              		.cfi_offset 5, -8
 965              		.cfi_offset 14, -4
 966 0002 0546     		mov	r5, r0
 967 0004 0C46     		mov	r4, r1
1101:lib/TinyUSB/src/device/usbd.c ****   uint8_t const desc_index = tu_u16_low( p_request->wValue );
 968              		.loc 1 1101 3 is_stmt 1 view .LVU269
1101:lib/TinyUSB/src/device/usbd.c ****   uint8_t const desc_index = tu_u16_low( p_request->wValue );
 969              		.loc 1 1101 57 is_stmt 0 view .LVU270
 970 0006 4B88     		ldrh	r3, [r1, #2]	@ unaligned
 971              	.LVL77:
 972              	.LBB259:
 973              	.LBI259:
 196:lib/TinyUSB/src/common/tusb_common.h **** TU_ATTR_ALWAYS_INLINE static inline uint8_t tu_u16_low (uint16_t ui16) { return TU_U16_LOW(ui16); }
 974              		.loc 2 196 45 is_stmt 1 view .LVU271
 975              	.LBB260:
 196:lib/TinyUSB/src/common/tusb_common.h **** TU_ATTR_ALWAYS_INLINE static inline uint8_t tu_u16_low (uint16_t ui16) { return TU_U16_LOW(ui16); }
 976              		.loc 2 196 74 view .LVU272
 196:lib/TinyUSB/src/common/tusb_common.h **** TU_ATTR_ALWAYS_INLINE static inline uint8_t tu_u16_low (uint16_t ui16) { return TU_U16_LOW(ui16); }
 977              		.loc 2 196 81 is_stmt 0 view .LVU273
 978 0008 1A0A     		lsrs	r2, r3, #8
 979              	.LVL78:
 196:lib/TinyUSB/src/common/tusb_common.h **** TU_ATTR_ALWAYS_INLINE static inline uint8_t tu_u16_low (uint16_t ui16) { return TU_U16_LOW(ui16); }
 980              		.loc 2 196 81 view .LVU274
 981              	.LBE260:
 982              	.LBE259:
1102:lib/TinyUSB/src/device/usbd.c **** 
 983              		.loc 1 1102 3 is_stmt 1 view .LVU275
 984              	.LBB261:
 985              	.LBI261:
 197:lib/TinyUSB/src/common/tusb_common.h **** 
 986              		.loc 2 197 45 view .LVU276
 987              	.LBB262:
 197:lib/TinyUSB/src/common/tusb_common.h **** 
 988              		.loc 2 197 74 view .LVU277
 197:lib/TinyUSB/src/common/tusb_common.h **** 
 989              		.loc 2 197 81 is_stmt 0 view .LVU278
 990 000a D8B2     		uxtb	r0, r3
 991              	.LVL79:
 197:lib/TinyUSB/src/common/tusb_common.h **** 
 992              		.loc 2 197 81 view .LVU279
 993              	.LBE262:
 994              	.LBE261:
1104:lib/TinyUSB/src/device/usbd.c ****     case TUSB_DESC_DEVICE: {
 995              		.loc 1 1104 3 is_stmt 1 view .LVU280
 996 000c 531E     		subs	r3, r2, #1
 997 000e 0E2B     		cmp	r3, #14
 998 0010 58D8     		bhi	.L76
 999 0012 DFE803F0 		tbb	[pc, r3]
 1000              	.LVL80:
ARM GAS  C:\Users\krisa\AppData\Local\Temp\cc7LeJkl.s 			page 52


 1001              	.L66:
 1002 0016 08       		.byte	(.L70-.L66)/2
 1003 0017 27       		.byte	(.L67-.L66)/2
 1004 0018 42       		.byte	(.L69-.L66)/2
 1005 0019 57       		.byte	(.L76-.L66)/2
 1006 001a 57       		.byte	(.L76-.L66)/2
 1007 001b 4D       		.byte	(.L68-.L66)/2
 1008 001c 27       		.byte	(.L67-.L66)/2
 1009 001d 57       		.byte	(.L76-.L66)/2
 1010 001e 57       		.byte	(.L76-.L66)/2
 1011 001f 57       		.byte	(.L76-.L66)/2
 1012 0020 57       		.byte	(.L76-.L66)/2
 1013 0021 57       		.byte	(.L76-.L66)/2
 1014 0022 57       		.byte	(.L76-.L66)/2
 1015 0023 57       		.byte	(.L76-.L66)/2
 1016 0024 1C       		.byte	(.L65-.L66)/2
 1017 0025 00       		.p2align 1
 1018              	.L70:
 1019              	.LBB263:
1106:lib/TinyUSB/src/device/usbd.c **** 
 1020              		.loc 1 1106 33 view .LVU281
1108:lib/TinyUSB/src/device/usbd.c ****       TU_ASSERT(desc_device);
 1021              		.loc 1 1108 7 view .LVU282
1108:lib/TinyUSB/src/device/usbd.c ****       TU_ASSERT(desc_device);
 1022              		.loc 1 1108 47 is_stmt 0 view .LVU283
 1023 0026 FFF7FEFF 		bl	tud_descriptor_device_cb
 1024              	.LVL81:
1109:lib/TinyUSB/src/device/usbd.c **** 
 1025              		.loc 1 1109 7 is_stmt 1 view .LVU284
1109:lib/TinyUSB/src/device/usbd.c **** 
 1026              		.loc 1 1109 7 view .LVU285
 1027 002a 0246     		mov	r2, r0
 1028 002c 28B1     		cbz	r0, .L82
1109:lib/TinyUSB/src/device/usbd.c **** 
 1029              		.loc 1 1109 7 view .LVU286
1113:lib/TinyUSB/src/device/usbd.c ****           ((tusb_control_request_t const*) p_request)->wLength > sizeof(tusb_desc_device_t)) {
 1030              		.loc 1 1113 7 view .LVU287
1122:lib/TinyUSB/src/device/usbd.c ****       }
 1031              		.loc 1 1122 9 view .LVU288
1122:lib/TinyUSB/src/device/usbd.c ****       }
 1032              		.loc 1 1122 16 is_stmt 0 view .LVU289
 1033 002e 1223     		movs	r3, #18
 1034 0030 2146     		mov	r1, r4
 1035 0032 2846     		mov	r0, r5
 1036              	.LVL82:
1122:lib/TinyUSB/src/device/usbd.c ****       }
 1037              		.loc 1 1122 16 view .LVU290
 1038 0034 FFF7FEFF 		bl	tud_control_xfer
 1039              	.LVL83:
1122:lib/TinyUSB/src/device/usbd.c ****       }
 1040              		.loc 1 1122 16 view .LVU291
 1041 0038 45E0     		b	.L64
 1042              	.LVL84:
 1043              	.L82:
1109:lib/TinyUSB/src/device/usbd.c **** 
 1044              		.loc 1 1109 7 is_stmt 1 discriminator 1 view .LVU292
1109:lib/TinyUSB/src/device/usbd.c **** 
ARM GAS  C:\Users\krisa\AppData\Local\Temp\cc7LeJkl.s 			page 53


 1045              		.loc 1 1109 7 discriminator 1 view .LVU293
1109:lib/TinyUSB/src/device/usbd.c **** 
 1046              		.loc 1 1109 7 discriminator 1 view .LVU294
1109:lib/TinyUSB/src/device/usbd.c **** 
 1047              		.loc 1 1109 7 discriminator 1 view .LVU295
 1048              	.LBB264:
1109:lib/TinyUSB/src/device/usbd.c **** 
 1049              		.loc 1 1109 7 discriminator 1 view .LVU296
1109:lib/TinyUSB/src/device/usbd.c **** 
 1050              		.loc 1 1109 7 discriminator 1 view .LVU297
 1051 003a 4FF0E023 		mov	r3, #-536813568
 1052 003e D3F8F03D 		ldr	r3, [r3, #3568]
 1053 0042 13F0010F 		tst	r3, #1
 1054 0046 00D0     		beq	.L72
1109:lib/TinyUSB/src/device/usbd.c **** 
 1055              		.loc 1 1109 7 discriminator 3 view .LVU298
 1056              		.syntax unified
 1057              	@ 1109 "lib/TinyUSB/src/device/usbd.c" 1
 1058 0048 00BE     		BKPT #0
 1059              	
 1060              	@ 0 "" 2
 1061              		.thumb
 1062              		.syntax unified
 1063              	.L72:
 1064              	.LBE264:
1109:lib/TinyUSB/src/device/usbd.c **** 
 1065              		.loc 1 1109 7 discriminator 5 view .LVU299
1109:lib/TinyUSB/src/device/usbd.c **** 
 1066              		.loc 1 1109 7 discriminator 5 view .LVU300
 1067 004a 0020     		movs	r0, #0
 1068              	.LVL85:
1109:lib/TinyUSB/src/device/usbd.c **** 
 1069              		.loc 1 1109 7 is_stmt 0 discriminator 5 view .LVU301
 1070 004c 3BE0     		b	.L64
 1071              	.LVL86:
 1072              	.L65:
1109:lib/TinyUSB/src/device/usbd.c **** 
 1073              		.loc 1 1109 7 discriminator 5 view .LVU302
 1074              	.LBE263:
 1075              	.LBB265:
1128:lib/TinyUSB/src/device/usbd.c **** 
 1076              		.loc 1 1128 30 is_stmt 1 view .LVU303
1131:lib/TinyUSB/src/device/usbd.c ****       TU_VERIFY(desc_bos != 0);
 1077              		.loc 1 1131 7 view .LVU304
1131:lib/TinyUSB/src/device/usbd.c ****       TU_VERIFY(desc_bos != 0);
 1078              		.loc 1 1131 40 is_stmt 0 view .LVU305
 1079 004e FFF7FEFF 		bl	tud_descriptor_bos_cb
 1080              	.LVL87:
1132:lib/TinyUSB/src/device/usbd.c **** 
 1081              		.loc 1 1132 7 is_stmt 1 view .LVU306
1132:lib/TinyUSB/src/device/usbd.c **** 
 1082              		.loc 1 1132 7 view .LVU307
 1083 0052 0246     		mov	r2, r0
 1084 0054 0028     		cmp	r0, #0
 1085 0056 37D0     		beq	.L77
1132:lib/TinyUSB/src/device/usbd.c **** 
 1086              		.loc 1 1132 7 discriminator 2 view .LVU308
ARM GAS  C:\Users\krisa\AppData\Local\Temp\cc7LeJkl.s 			page 54


1135:lib/TinyUSB/src/device/usbd.c **** 
 1087              		.loc 1 1135 7 discriminator 2 view .LVU309
 1088              	.LVL88:
 1089              	.LBB266:
 1090              	.LBI266:
 318:lib/TinyUSB/src/common/tusb_common.h ****   return *((uint16_t const *) mem);
 1091              		.loc 2 318 46 discriminator 2 view .LVU310
 1092              	.LBB267:
 319:lib/TinyUSB/src/common/tusb_common.h **** }
 1093              		.loc 2 319 3 discriminator 2 view .LVU311
 319:lib/TinyUSB/src/common/tusb_common.h **** }
 1094              		.loc 2 319 3 is_stmt 0 discriminator 2 view .LVU312
 1095              	.LBE267:
 1096              	.LBE266:
1137:lib/TinyUSB/src/device/usbd.c ****     }
 1097              		.loc 1 1137 7 is_stmt 1 discriminator 2 view .LVU313
1137:lib/TinyUSB/src/device/usbd.c ****     }
 1098              		.loc 1 1137 14 is_stmt 0 discriminator 2 view .LVU314
 1099 0058 4388     		ldrh	r3, [r0, #2]
 1100 005a 2146     		mov	r1, r4
 1101 005c 2846     		mov	r0, r5
 1102              	.LVL89:
1137:lib/TinyUSB/src/device/usbd.c ****     }
 1103              		.loc 1 1137 14 discriminator 2 view .LVU315
 1104 005e FFF7FEFF 		bl	tud_control_xfer
 1105              	.LVL90:
1137:lib/TinyUSB/src/device/usbd.c ****     }
 1106              		.loc 1 1137 14 discriminator 2 view .LVU316
 1107 0062 30E0     		b	.L64
 1108              	.LVL91:
 1109              	.L67:
1137:lib/TinyUSB/src/device/usbd.c ****     }
 1110              		.loc 1 1137 14 discriminator 2 view .LVU317
 1111              	.LBE265:
 1112              	.LBB268:
1143:lib/TinyUSB/src/device/usbd.c **** 
 1113              		.loc 1 1143 7 is_stmt 1 view .LVU318
1145:lib/TinyUSB/src/device/usbd.c ****         TU_LOG_USBD(" Configuration[%u]\r\n", desc_index);
 1114              		.loc 1 1145 7 view .LVU319
1145:lib/TinyUSB/src/device/usbd.c ****         TU_LOG_USBD(" Configuration[%u]\r\n", desc_index);
 1115              		.loc 1 1145 10 is_stmt 0 view .LVU320
 1116 0064 022A     		cmp	r2, #2
 1117 0066 09D0     		beq	.L83
1151:lib/TinyUSB/src/device/usbd.c ****         desc_config = (uintptr_t) tud_descriptor_other_speed_configuration_cb(desc_index);
 1118              		.loc 1 1151 54 is_stmt 1 view .LVU321
1152:lib/TinyUSB/src/device/usbd.c ****         TU_VERIFY(desc_config != 0);
 1119              		.loc 1 1152 9 view .LVU322
1152:lib/TinyUSB/src/device/usbd.c ****         TU_VERIFY(desc_config != 0);
 1120              		.loc 1 1152 35 is_stmt 0 view .LVU323
 1121 0068 FFF7FEFF 		bl	tud_descriptor_other_speed_configuration_cb
 1122              	.LVL92:
1153:lib/TinyUSB/src/device/usbd.c ****       }
 1123              		.loc 1 1153 9 is_stmt 1 view .LVU324
1153:lib/TinyUSB/src/device/usbd.c ****       }
 1124              		.loc 1 1153 9 view .LVU325
 1125 006c 0246     		mov	r2, r0
 1126 006e 68B3     		cbz	r0, .L78
ARM GAS  C:\Users\krisa\AppData\Local\Temp\cc7LeJkl.s 			page 55


 1127              	.L74:
1153:lib/TinyUSB/src/device/usbd.c ****       }
 1128              		.loc 1 1153 9 discriminator 2 view .LVU326
1157:lib/TinyUSB/src/device/usbd.c **** 
 1129              		.loc 1 1157 7 discriminator 2 view .LVU327
 1130              	.LVL93:
 1131              	.LBB269:
 1132              	.LBI269:
 318:lib/TinyUSB/src/common/tusb_common.h ****   return *((uint16_t const *) mem);
 1133              		.loc 2 318 46 discriminator 2 view .LVU328
 1134              	.LBB270:
 319:lib/TinyUSB/src/common/tusb_common.h **** }
 1135              		.loc 2 319 3 discriminator 2 view .LVU329
 319:lib/TinyUSB/src/common/tusb_common.h **** }
 1136              		.loc 2 319 3 is_stmt 0 discriminator 2 view .LVU330
 1137              	.LBE270:
 1138              	.LBE269:
1159:lib/TinyUSB/src/device/usbd.c ****     }
 1139              		.loc 1 1159 7 is_stmt 1 discriminator 2 view .LVU331
1159:lib/TinyUSB/src/device/usbd.c ****     }
 1140              		.loc 1 1159 14 is_stmt 0 discriminator 2 view .LVU332
 1141 0070 5388     		ldrh	r3, [r2, #2]
 1142 0072 2146     		mov	r1, r4
 1143 0074 2846     		mov	r0, r5
 1144              	.LVL94:
1159:lib/TinyUSB/src/device/usbd.c ****     }
 1145              		.loc 1 1159 14 discriminator 2 view .LVU333
 1146 0076 FFF7FEFF 		bl	tud_control_xfer
 1147              	.LVL95:
1159:lib/TinyUSB/src/device/usbd.c ****     }
 1148              		.loc 1 1159 14 discriminator 2 view .LVU334
 1149 007a 24E0     		b	.L64
 1150              	.LVL96:
 1151              	.L83:
1146:lib/TinyUSB/src/device/usbd.c ****         desc_config = (uintptr_t) tud_descriptor_configuration_cb(desc_index);
 1152              		.loc 1 1146 58 is_stmt 1 view .LVU335
1147:lib/TinyUSB/src/device/usbd.c ****         TU_ASSERT(desc_config != 0);
 1153              		.loc 1 1147 9 view .LVU336
1147:lib/TinyUSB/src/device/usbd.c ****         TU_ASSERT(desc_config != 0);
 1154              		.loc 1 1147 35 is_stmt 0 view .LVU337
 1155 007c FFF7FEFF 		bl	tud_descriptor_configuration_cb
 1156              	.LVL97:
1148:lib/TinyUSB/src/device/usbd.c ****       }else {
 1157              		.loc 1 1148 9 is_stmt 1 view .LVU338
1148:lib/TinyUSB/src/device/usbd.c ****       }else {
 1158              		.loc 1 1148 9 view .LVU339
 1159 0080 0246     		mov	r2, r0
 1160 0082 0028     		cmp	r0, #0
 1161 0084 F4D1     		bne	.L74
1148:lib/TinyUSB/src/device/usbd.c ****       }else {
 1162              		.loc 1 1148 9 discriminator 1 view .LVU340
1148:lib/TinyUSB/src/device/usbd.c ****       }else {
 1163              		.loc 1 1148 9 discriminator 1 view .LVU341
1148:lib/TinyUSB/src/device/usbd.c ****       }else {
 1164              		.loc 1 1148 9 discriminator 1 view .LVU342
1148:lib/TinyUSB/src/device/usbd.c ****       }else {
 1165              		.loc 1 1148 9 discriminator 1 view .LVU343
ARM GAS  C:\Users\krisa\AppData\Local\Temp\cc7LeJkl.s 			page 56


 1166              	.LBB271:
1148:lib/TinyUSB/src/device/usbd.c ****       }else {
 1167              		.loc 1 1148 9 discriminator 1 view .LVU344
 1168              	.LVL98:
1148:lib/TinyUSB/src/device/usbd.c ****       }else {
 1169              		.loc 1 1148 9 discriminator 1 view .LVU345
 1170 0086 4FF0E023 		mov	r3, #-536813568
 1171 008a D3F8F03D 		ldr	r3, [r3, #3568]
 1172 008e 13F0010F 		tst	r3, #1
 1173 0092 00D0     		beq	.L75
1148:lib/TinyUSB/src/device/usbd.c ****       }else {
 1174              		.loc 1 1148 9 discriminator 3 view .LVU346
 1175              		.syntax unified
 1176              	@ 1148 "lib/TinyUSB/src/device/usbd.c" 1
 1177 0094 00BE     		BKPT #0
 1178              	
 1179              	@ 0 "" 2
 1180              		.thumb
 1181              		.syntax unified
 1182              	.L75:
 1183              	.LBE271:
1148:lib/TinyUSB/src/device/usbd.c ****       }else {
 1184              		.loc 1 1148 9 discriminator 5 view .LVU347
1148:lib/TinyUSB/src/device/usbd.c ****       }else {
 1185              		.loc 1 1148 9 discriminator 5 view .LVU348
 1186 0096 0020     		movs	r0, #0
 1187              	.LVL99:
1148:lib/TinyUSB/src/device/usbd.c ****       }else {
 1188              		.loc 1 1148 9 is_stmt 0 discriminator 5 view .LVU349
 1189 0098 15E0     		b	.L64
 1190              	.LVL100:
 1191              	.L69:
1148:lib/TinyUSB/src/device/usbd.c ****       }else {
 1192              		.loc 1 1148 9 discriminator 5 view .LVU350
 1193              	.LBE268:
 1194              	.LBB272:
1164:lib/TinyUSB/src/device/usbd.c **** 
 1195              		.loc 1 1164 49 is_stmt 1 view .LVU351
1167:lib/TinyUSB/src/device/usbd.c ****       TU_VERIFY(desc_str);
 1196              		.loc 1 1167 7 view .LVU352
1167:lib/TinyUSB/src/device/usbd.c ****       TU_VERIFY(desc_str);
 1197              		.loc 1 1167 50 is_stmt 0 view .LVU353
 1198 009a A188     		ldrh	r1, [r4, #4]	@ unaligned
 1199 009c FFF7FEFF 		bl	tud_descriptor_string_cb
 1200              	.LVL101:
1168:lib/TinyUSB/src/device/usbd.c **** 
 1201              		.loc 1 1168 7 is_stmt 1 view .LVU354
1168:lib/TinyUSB/src/device/usbd.c **** 
 1202              		.loc 1 1168 7 view .LVU355
 1203 00a0 0246     		mov	r2, r0
 1204 00a2 A8B1     		cbz	r0, .L79
1168:lib/TinyUSB/src/device/usbd.c **** 
 1205              		.loc 1 1168 7 view .LVU356
1171:lib/TinyUSB/src/device/usbd.c ****     }
 1206              		.loc 1 1171 7 view .LVU357
 1207              	.LVL102:
 1208              	.LBB273:
ARM GAS  C:\Users\krisa\AppData\Local\Temp\cc7LeJkl.s 			page 57


 1209              	.LBI273:
 376:lib/TinyUSB/src/common/tusb_common.h ****   return ((uint8_t const*) desc)[DESC_OFFSET_LEN];
 1210              		.loc 2 376 45 view .LVU358
 1211              	.LBB274:
 377:lib/TinyUSB/src/common/tusb_common.h **** }
 1212              		.loc 2 377 3 view .LVU359
 377:lib/TinyUSB/src/common/tusb_common.h **** }
 1213              		.loc 2 377 3 is_stmt 0 view .LVU360
 1214              	.LBE274:
 1215              	.LBE273:
1171:lib/TinyUSB/src/device/usbd.c ****     }
 1216              		.loc 1 1171 14 view .LVU361
 1217 00a4 0378     		ldrb	r3, [r0]	@ zero_extendqisi2
 1218 00a6 2146     		mov	r1, r4
 1219 00a8 2846     		mov	r0, r5
 1220              	.LVL103:
1171:lib/TinyUSB/src/device/usbd.c ****     }
 1221              		.loc 1 1171 14 view .LVU362
 1222 00aa FFF7FEFF 		bl	tud_control_xfer
 1223              	.LVL104:
1171:lib/TinyUSB/src/device/usbd.c ****     }
 1224              		.loc 1 1171 14 view .LVU363
 1225 00ae 0AE0     		b	.L64
 1226              	.LVL105:
 1227              	.L68:
1171:lib/TinyUSB/src/device/usbd.c ****     }
 1228              		.loc 1 1171 14 view .LVU364
 1229              	.LBE272:
 1230              	.LBB275:
1176:lib/TinyUSB/src/device/usbd.c ****       uint8_t const* desc_qualifier = tud_descriptor_device_qualifier_cb();
 1231              		.loc 1 1176 43 is_stmt 1 view .LVU365
1177:lib/TinyUSB/src/device/usbd.c ****       TU_VERIFY(desc_qualifier);
 1232              		.loc 1 1177 7 view .LVU366
1177:lib/TinyUSB/src/device/usbd.c ****       TU_VERIFY(desc_qualifier);
 1233              		.loc 1 1177 39 is_stmt 0 view .LVU367
 1234 00b0 FFF7FEFF 		bl	tud_descriptor_device_qualifier_cb
 1235              	.LVL106:
1178:lib/TinyUSB/src/device/usbd.c ****       return tud_control_xfer(rhport, p_request, (void*) (uintptr_t) desc_qualifier, tu_desc_len(de
 1236              		.loc 1 1178 7 is_stmt 1 view .LVU368
1178:lib/TinyUSB/src/device/usbd.c ****       return tud_control_xfer(rhport, p_request, (void*) (uintptr_t) desc_qualifier, tu_desc_len(de
 1237              		.loc 1 1178 7 view .LVU369
 1238 00b4 0246     		mov	r2, r0
 1239 00b6 68B1     		cbz	r0, .L80
1178:lib/TinyUSB/src/device/usbd.c ****       return tud_control_xfer(rhport, p_request, (void*) (uintptr_t) desc_qualifier, tu_desc_len(de
 1240              		.loc 1 1178 7 view .LVU370
1179:lib/TinyUSB/src/device/usbd.c ****     }
 1241              		.loc 1 1179 7 view .LVU371
 1242              	.LVL107:
 1243              	.LBB276:
 1244              	.LBI276:
 376:lib/TinyUSB/src/common/tusb_common.h ****   return ((uint8_t const*) desc)[DESC_OFFSET_LEN];
 1245              		.loc 2 376 45 view .LVU372
 1246              	.LBB277:
 377:lib/TinyUSB/src/common/tusb_common.h **** }
 1247              		.loc 2 377 3 view .LVU373
 377:lib/TinyUSB/src/common/tusb_common.h **** }
 1248              		.loc 2 377 3 is_stmt 0 view .LVU374
ARM GAS  C:\Users\krisa\AppData\Local\Temp\cc7LeJkl.s 			page 58


 1249              	.LBE277:
 1250              	.LBE276:
1179:lib/TinyUSB/src/device/usbd.c ****     }
 1251              		.loc 1 1179 14 view .LVU375
 1252 00b8 0378     		ldrb	r3, [r0]	@ zero_extendqisi2
 1253 00ba 2146     		mov	r1, r4
 1254 00bc 2846     		mov	r0, r5
 1255              	.LVL108:
1179:lib/TinyUSB/src/device/usbd.c ****     }
 1256              		.loc 1 1179 14 view .LVU376
 1257 00be FFF7FEFF 		bl	tud_control_xfer
 1258              	.LVL109:
1179:lib/TinyUSB/src/device/usbd.c ****     }
 1259              		.loc 1 1179 14 view .LVU377
 1260 00c2 00E0     		b	.L64
 1261              	.LVL110:
 1262              	.L76:
1179:lib/TinyUSB/src/device/usbd.c ****     }
 1263              		.loc 1 1179 14 view .LVU378
 1264              	.LBE275:
1104:lib/TinyUSB/src/device/usbd.c ****     case TUSB_DESC_DEVICE: {
 1265              		.loc 1 1104 3 view .LVU379
 1266 00c4 0020     		movs	r0, #0
 1267              	.LVL111:
 1268              	.L64:
1185:lib/TinyUSB/src/device/usbd.c **** 
 1269              		.loc 1 1185 1 discriminator 1 view .LVU380
 1270 00c6 38BD     		pop	{r3, r4, r5, pc}
 1271              	.LVL112:
 1272              	.L77:
 1273              	.LBB278:
1132:lib/TinyUSB/src/device/usbd.c **** 
 1274              		.loc 1 1132 7 view .LVU381
 1275 00c8 0020     		movs	r0, #0
 1276              	.LVL113:
1132:lib/TinyUSB/src/device/usbd.c **** 
 1277              		.loc 1 1132 7 view .LVU382
 1278 00ca FCE7     		b	.L64
 1279              	.LVL114:
 1280              	.L78:
1132:lib/TinyUSB/src/device/usbd.c **** 
 1281              		.loc 1 1132 7 view .LVU383
 1282              	.LBE278:
 1283              	.LBB279:
1153:lib/TinyUSB/src/device/usbd.c ****       }
 1284              		.loc 1 1153 9 view .LVU384
 1285 00cc 0020     		movs	r0, #0
 1286              	.LVL115:
1153:lib/TinyUSB/src/device/usbd.c ****       }
 1287              		.loc 1 1153 9 view .LVU385
 1288 00ce FAE7     		b	.L64
 1289              	.LVL116:
 1290              	.L79:
1153:lib/TinyUSB/src/device/usbd.c ****       }
 1291              		.loc 1 1153 9 view .LVU386
 1292              	.LBE279:
 1293              	.LBB280:
ARM GAS  C:\Users\krisa\AppData\Local\Temp\cc7LeJkl.s 			page 59


1168:lib/TinyUSB/src/device/usbd.c **** 
 1294              		.loc 1 1168 7 view .LVU387
 1295 00d0 0020     		movs	r0, #0
 1296              	.LVL117:
1168:lib/TinyUSB/src/device/usbd.c **** 
 1297              		.loc 1 1168 7 view .LVU388
 1298 00d2 F8E7     		b	.L64
 1299              	.LVL118:
 1300              	.L80:
1168:lib/TinyUSB/src/device/usbd.c **** 
 1301              		.loc 1 1168 7 view .LVU389
 1302              	.LBE280:
 1303              	.LBB281:
1178:lib/TinyUSB/src/device/usbd.c ****       return tud_control_xfer(rhport, p_request, (void*) (uintptr_t) desc_qualifier, tu_desc_len(de
 1304              		.loc 1 1178 7 view .LVU390
 1305 00d4 0020     		movs	r0, #0
 1306              	.LVL119:
1178:lib/TinyUSB/src/device/usbd.c ****       return tud_control_xfer(rhport, p_request, (void*) (uintptr_t) desc_qualifier, tu_desc_len(de
 1307              		.loc 1 1178 7 view .LVU391
 1308 00d6 F6E7     		b	.L64
 1309              	.LBE281:
 1310              		.cfi_endproc
 1311              	.LFE155:
 1313              		.section	.text.tud_mount_cb,"ax",%progbits
 1314              		.align	1
 1315              		.weak	tud_mount_cb
 1316              		.syntax unified
 1317              		.thumb
 1318              		.thumb_func
 1320              	tud_mount_cb:
 1321              	.LFB120:
  69:lib/TinyUSB/src/device/usbd.c **** }
 1322              		.loc 1 69 38 is_stmt 1 view -0
 1323              		.cfi_startproc
 1324              		@ args = 0, pretend = 0, frame = 0
 1325              		@ frame_needed = 0, uses_anonymous_args = 0
 1326              		@ link register save eliminated.
  70:lib/TinyUSB/src/device/usbd.c **** 
 1327              		.loc 1 70 1 view .LVU393
 1328 0000 7047     		bx	lr
 1329              		.cfi_endproc
 1330              	.LFE120:
 1332              		.section	.text.tud_umount_cb,"ax",%progbits
 1333              		.align	1
 1334              		.weak	tud_umount_cb
 1335              		.syntax unified
 1336              		.thumb
 1337              		.thumb_func
 1339              	tud_umount_cb:
 1340              	.LFB121:
  72:lib/TinyUSB/src/device/usbd.c **** }
 1341              		.loc 1 72 39 view -0
 1342              		.cfi_startproc
 1343              		@ args = 0, pretend = 0, frame = 0
 1344              		@ frame_needed = 0, uses_anonymous_args = 0
 1345              		@ link register save eliminated.
  73:lib/TinyUSB/src/device/usbd.c **** 
ARM GAS  C:\Users\krisa\AppData\Local\Temp\cc7LeJkl.s 			page 60


 1346              		.loc 1 73 1 view .LVU395
 1347 0000 7047     		bx	lr
 1348              		.cfi_endproc
 1349              	.LFE121:
 1351              		.section	.text.tud_suspend_cb,"ax",%progbits
 1352              		.align	1
 1353              		.weak	tud_suspend_cb
 1354              		.syntax unified
 1355              		.thumb
 1356              		.thumb_func
 1358              	tud_suspend_cb:
 1359              	.LVL120:
 1360              	.LFB122:
  75:lib/TinyUSB/src/device/usbd.c ****   (void) remote_wakeup_en;
 1361              		.loc 1 75 57 view -0
 1362              		.cfi_startproc
 1363              		@ args = 0, pretend = 0, frame = 0
 1364              		@ frame_needed = 0, uses_anonymous_args = 0
 1365              		@ link register save eliminated.
  76:lib/TinyUSB/src/device/usbd.c **** }
 1366              		.loc 1 76 3 view .LVU397
  77:lib/TinyUSB/src/device/usbd.c **** 
 1367              		.loc 1 77 1 is_stmt 0 view .LVU398
 1368 0000 7047     		bx	lr
 1369              		.cfi_endproc
 1370              	.LFE122:
 1372              		.section	.text.tud_resume_cb,"ax",%progbits
 1373              		.align	1
 1374              		.weak	tud_resume_cb
 1375              		.syntax unified
 1376              		.thumb
 1377              		.thumb_func
 1379              	tud_resume_cb:
 1380              	.LFB123:
  79:lib/TinyUSB/src/device/usbd.c **** }
 1381              		.loc 1 79 39 is_stmt 1 view -0
 1382              		.cfi_startproc
 1383              		@ args = 0, pretend = 0, frame = 0
 1384              		@ frame_needed = 0, uses_anonymous_args = 0
 1385              		@ link register save eliminated.
  80:lib/TinyUSB/src/device/usbd.c **** 
 1386              		.loc 1 80 1 view .LVU400
 1387 0000 7047     		bx	lr
 1388              		.cfi_endproc
 1389              	.LFE123:
 1391              		.section	.text.dcd_deinit,"ax",%progbits
 1392              		.align	1
 1393              		.weak	dcd_deinit
 1394              		.syntax unified
 1395              		.thumb
 1396              		.thumb_func
 1398              	dcd_deinit:
 1399              	.LVL121:
 1400              	.LFB125:
  87:lib/TinyUSB/src/device/usbd.c ****   (void) rhport;
 1401              		.loc 1 87 46 view -0
 1402              		.cfi_startproc
ARM GAS  C:\Users\krisa\AppData\Local\Temp\cc7LeJkl.s 			page 61


 1403              		@ args = 0, pretend = 0, frame = 0
 1404              		@ frame_needed = 0, uses_anonymous_args = 0
 1405              		@ link register save eliminated.
  88:lib/TinyUSB/src/device/usbd.c ****   return false;
 1406              		.loc 1 88 3 view .LVU402
  89:lib/TinyUSB/src/device/usbd.c **** }
 1407              		.loc 1 89 3 view .LVU403
  90:lib/TinyUSB/src/device/usbd.c **** 
 1408              		.loc 1 90 1 is_stmt 0 view .LVU404
 1409 0000 0020     		movs	r0, #0
 1410              	.LVL122:
  90:lib/TinyUSB/src/device/usbd.c **** 
 1411              		.loc 1 90 1 view .LVU405
 1412 0002 7047     		bx	lr
 1413              		.cfi_endproc
 1414              	.LFE125:
 1416              		.section	.text.dcd_connect,"ax",%progbits
 1417              		.align	1
 1418              		.weak	dcd_connect
 1419              		.syntax unified
 1420              		.thumb
 1421              		.thumb_func
 1423              	dcd_connect:
 1424              	.LVL123:
 1425              	.LFB126:
  92:lib/TinyUSB/src/device/usbd.c ****   (void) rhport;
 1426              		.loc 1 92 47 is_stmt 1 view -0
 1427              		.cfi_startproc
 1428              		@ args = 0, pretend = 0, frame = 0
 1429              		@ frame_needed = 0, uses_anonymous_args = 0
 1430              		@ link register save eliminated.
  93:lib/TinyUSB/src/device/usbd.c **** }
 1431              		.loc 1 93 3 view .LVU407
  94:lib/TinyUSB/src/device/usbd.c **** 
 1432              		.loc 1 94 1 is_stmt 0 view .LVU408
 1433 0000 7047     		bx	lr
 1434              		.cfi_endproc
 1435              	.LFE126:
 1437              		.section	.text.dcd_disconnect,"ax",%progbits
 1438              		.align	1
 1439              		.weak	dcd_disconnect
 1440              		.syntax unified
 1441              		.thumb
 1442              		.thumb_func
 1444              	dcd_disconnect:
 1445              	.LVL124:
 1446              	.LFB127:
  96:lib/TinyUSB/src/device/usbd.c ****   (void) rhport;
 1447              		.loc 1 96 50 is_stmt 1 view -0
 1448              		.cfi_startproc
 1449              		@ args = 0, pretend = 0, frame = 0
 1450              		@ frame_needed = 0, uses_anonymous_args = 0
 1451              		@ link register save eliminated.
  97:lib/TinyUSB/src/device/usbd.c **** }
 1452              		.loc 1 97 3 view .LVU410
  98:lib/TinyUSB/src/device/usbd.c **** 
 1453              		.loc 1 98 1 is_stmt 0 view .LVU411
ARM GAS  C:\Users\krisa\AppData\Local\Temp\cc7LeJkl.s 			page 62


 1454 0000 7047     		bx	lr
 1455              		.cfi_endproc
 1456              	.LFE127:
 1458              		.section	.text.dcd_dcache_clean,"ax",%progbits
 1459              		.align	1
 1460              		.weak	dcd_dcache_clean
 1461              		.syntax unified
 1462              		.thumb
 1463              		.thumb_func
 1465              	dcd_dcache_clean:
 1466              	.LVL125:
 1467              	.LFB128:
 100:lib/TinyUSB/src/device/usbd.c ****   (void) addr; (void) data_size;
 1468              		.loc 1 100 74 is_stmt 1 view -0
 1469              		.cfi_startproc
 1470              		@ args = 0, pretend = 0, frame = 0
 1471              		@ frame_needed = 0, uses_anonymous_args = 0
 1472              		@ link register save eliminated.
 101:lib/TinyUSB/src/device/usbd.c ****   return true;
 1473              		.loc 1 101 3 view .LVU413
 101:lib/TinyUSB/src/device/usbd.c ****   return true;
 1474              		.loc 1 101 16 view .LVU414
 102:lib/TinyUSB/src/device/usbd.c **** }
 1475              		.loc 1 102 3 view .LVU415
 103:lib/TinyUSB/src/device/usbd.c **** 
 1476              		.loc 1 103 1 is_stmt 0 view .LVU416
 1477 0000 0120     		movs	r0, #1
 1478              	.LVL126:
 103:lib/TinyUSB/src/device/usbd.c **** 
 1479              		.loc 1 103 1 view .LVU417
 1480 0002 7047     		bx	lr
 1481              		.cfi_endproc
 1482              	.LFE128:
 1484              		.section	.text.dcd_dcache_invalidate,"ax",%progbits
 1485              		.align	1
 1486              		.weak	dcd_dcache_invalidate
 1487              		.syntax unified
 1488              		.thumb
 1489              		.thumb_func
 1491              	dcd_dcache_invalidate:
 1492              	.LVL127:
 1493              	.LFB129:
 105:lib/TinyUSB/src/device/usbd.c ****   (void) addr; (void) data_size;
 1494              		.loc 1 105 79 is_stmt 1 view -0
 1495              		.cfi_startproc
 1496              		@ args = 0, pretend = 0, frame = 0
 1497              		@ frame_needed = 0, uses_anonymous_args = 0
 1498              		@ link register save eliminated.
 106:lib/TinyUSB/src/device/usbd.c ****   return true;
 1499              		.loc 1 106 3 view .LVU419
 106:lib/TinyUSB/src/device/usbd.c ****   return true;
 1500              		.loc 1 106 16 view .LVU420
 107:lib/TinyUSB/src/device/usbd.c **** }
 1501              		.loc 1 107 3 view .LVU421
 108:lib/TinyUSB/src/device/usbd.c **** 
 1502              		.loc 1 108 1 is_stmt 0 view .LVU422
 1503 0000 0120     		movs	r0, #1
ARM GAS  C:\Users\krisa\AppData\Local\Temp\cc7LeJkl.s 			page 63


 1504              	.LVL128:
 108:lib/TinyUSB/src/device/usbd.c **** 
 1505              		.loc 1 108 1 view .LVU423
 1506 0002 7047     		bx	lr
 1507              		.cfi_endproc
 1508              	.LFE129:
 1510              		.section	.text.dcd_dcache_clean_invalidate,"ax",%progbits
 1511              		.align	1
 1512              		.weak	dcd_dcache_clean_invalidate
 1513              		.syntax unified
 1514              		.thumb
 1515              		.thumb_func
 1517              	dcd_dcache_clean_invalidate:
 1518              	.LVL129:
 1519              	.LFB130:
 110:lib/TinyUSB/src/device/usbd.c ****   (void) addr; (void) data_size;
 1520              		.loc 1 110 85 is_stmt 1 view -0
 1521              		.cfi_startproc
 1522              		@ args = 0, pretend = 0, frame = 0
 1523              		@ frame_needed = 0, uses_anonymous_args = 0
 1524              		@ link register save eliminated.
 111:lib/TinyUSB/src/device/usbd.c ****   return true;
 1525              		.loc 1 111 3 view .LVU425
 111:lib/TinyUSB/src/device/usbd.c ****   return true;
 1526              		.loc 1 111 16 view .LVU426
 112:lib/TinyUSB/src/device/usbd.c **** }
 1527              		.loc 1 112 3 view .LVU427
 113:lib/TinyUSB/src/device/usbd.c **** 
 1528              		.loc 1 113 1 is_stmt 0 view .LVU428
 1529 0000 0120     		movs	r0, #1
 1530              	.LVL130:
 113:lib/TinyUSB/src/device/usbd.c **** 
 1531              		.loc 1 113 1 view .LVU429
 1532 0002 7047     		bx	lr
 1533              		.cfi_endproc
 1534              	.LFE130:
 1536              		.section	.text.usbd_app_driver_get_cb,"ax",%progbits
 1537              		.align	1
 1538              		.weak	usbd_app_driver_get_cb
 1539              		.syntax unified
 1540              		.thumb
 1541              		.thumb_func
 1543              	usbd_app_driver_get_cb:
 1544              	.LVL131:
 1545              	.LFB133:
 418:lib/TinyUSB/src/device/usbd.c ****   *driver_count = 0;
 1546              		.loc 1 418 87 is_stmt 1 view -0
 1547              		.cfi_startproc
 1548              		@ args = 0, pretend = 0, frame = 0
 1549              		@ frame_needed = 0, uses_anonymous_args = 0
 1550              		@ link register save eliminated.
 418:lib/TinyUSB/src/device/usbd.c ****   *driver_count = 0;
 1551              		.loc 1 418 87 is_stmt 0 view .LVU431
 1552 0000 0346     		mov	r3, r0
 419:lib/TinyUSB/src/device/usbd.c ****   return NULL;
 1553              		.loc 1 419 3 is_stmt 1 view .LVU432
 419:lib/TinyUSB/src/device/usbd.c ****   return NULL;
ARM GAS  C:\Users\krisa\AppData\Local\Temp\cc7LeJkl.s 			page 64


 1554              		.loc 1 419 17 is_stmt 0 view .LVU433
 1555 0002 0020     		movs	r0, #0
 1556              	.LVL132:
 419:lib/TinyUSB/src/device/usbd.c ****   return NULL;
 1557              		.loc 1 419 17 view .LVU434
 1558 0004 1870     		strb	r0, [r3]
 420:lib/TinyUSB/src/device/usbd.c **** }
 1559              		.loc 1 420 3 is_stmt 1 view .LVU435
 421:lib/TinyUSB/src/device/usbd.c **** 
 1560              		.loc 1 421 1 is_stmt 0 view .LVU436
 1561 0006 7047     		bx	lr
 1562              		.cfi_endproc
 1563              	.LFE133:
 1565              		.section	.text.dcd_edpt_xfer_fifo,"ax",%progbits
 1566              		.align	1
 1567              		.weak	dcd_edpt_xfer_fifo
 1568              		.syntax unified
 1569              		.thumb
 1570              		.thumb_func
 1572              	dcd_edpt_xfer_fifo:
 1573              	.LVL133:
 1574              	.LFB134:
 423:lib/TinyUSB/src/device/usbd.c ****   (void) rhport; (void) ep_addr; (void) ff; (void) total_bytes; (void) is_isr;
 1575              		.loc 1 423 122 is_stmt 1 view -0
 1576              		.cfi_startproc
 1577              		@ args = 4, pretend = 0, frame = 0
 1578              		@ frame_needed = 0, uses_anonymous_args = 0
 1579              		@ link register save eliminated.
 424:lib/TinyUSB/src/device/usbd.c ****   return false;
 1580              		.loc 1 424 3 view .LVU438
 424:lib/TinyUSB/src/device/usbd.c ****   return false;
 1581              		.loc 1 424 18 view .LVU439
 424:lib/TinyUSB/src/device/usbd.c ****   return false;
 1582              		.loc 1 424 34 view .LVU440
 424:lib/TinyUSB/src/device/usbd.c ****   return false;
 1583              		.loc 1 424 45 view .LVU441
 424:lib/TinyUSB/src/device/usbd.c ****   return false;
 1584              		.loc 1 424 65 view .LVU442
 425:lib/TinyUSB/src/device/usbd.c **** }
 1585              		.loc 1 425 3 view .LVU443
 426:lib/TinyUSB/src/device/usbd.c **** 
 1586              		.loc 1 426 1 is_stmt 0 view .LVU444
 1587 0000 0020     		movs	r0, #0
 1588              	.LVL134:
 426:lib/TinyUSB/src/device/usbd.c **** 
 1589              		.loc 1 426 1 view .LVU445
 1590 0002 7047     		bx	lr
 1591              		.cfi_endproc
 1592              	.LFE134:
 1594              		.section	.text.dcd_configure,"ax",%progbits
 1595              		.align	1
 1596              		.weak	dcd_configure
 1597              		.syntax unified
 1598              		.thumb
 1599              		.thumb_func
 1601              	dcd_configure:
 1602              	.LVL135:
ARM GAS  C:\Users\krisa\AppData\Local\Temp\cc7LeJkl.s 			page 65


 1603              	.LFB135:
 428:lib/TinyUSB/src/device/usbd.c ****   (void) rhport; (void) cfg_id; (void) cfg_param;
 1604              		.loc 1 428 89 is_stmt 1 view -0
 1605              		.cfi_startproc
 1606              		@ args = 0, pretend = 0, frame = 0
 1607              		@ frame_needed = 0, uses_anonymous_args = 0
 1608              		@ link register save eliminated.
 429:lib/TinyUSB/src/device/usbd.c ****   return false;
 1609              		.loc 1 429 3 view .LVU447
 429:lib/TinyUSB/src/device/usbd.c ****   return false;
 1610              		.loc 1 429 18 view .LVU448
 429:lib/TinyUSB/src/device/usbd.c ****   return false;
 1611              		.loc 1 429 33 view .LVU449
 430:lib/TinyUSB/src/device/usbd.c **** }
 1612              		.loc 1 430 3 view .LVU450
 431:lib/TinyUSB/src/device/usbd.c **** 
 1613              		.loc 1 431 1 is_stmt 0 view .LVU451
 1614 0000 0020     		movs	r0, #0
 1615              	.LVL136:
 431:lib/TinyUSB/src/device/usbd.c **** 
 1616              		.loc 1 431 1 view .LVU452
 1617 0002 7047     		bx	lr
 1618              		.cfi_endproc
 1619              	.LFE135:
 1621              		.section	.text.tud_speed_get,"ax",%progbits
 1622              		.align	1
 1623              		.global	tud_speed_get
 1624              		.syntax unified
 1625              		.thumb
 1626              		.thumb_func
 1628              	tud_speed_get:
 1629              	.LFB136:
 465:lib/TinyUSB/src/device/usbd.c ****   return (tusb_speed_t) _usbd_dev.speed;
 1630              		.loc 1 465 34 is_stmt 1 view -0
 1631              		.cfi_startproc
 1632              		@ args = 0, pretend = 0, frame = 0
 1633              		@ frame_needed = 0, uses_anonymous_args = 0
 1634              		@ link register save eliminated.
 466:lib/TinyUSB/src/device/usbd.c **** }
 1635              		.loc 1 466 3 view .LVU454
 467:lib/TinyUSB/src/device/usbd.c **** 
 1636              		.loc 1 467 1 is_stmt 0 view .LVU455
 1637 0000 014B     		ldr	r3, .L98
 1638 0002 5879     		ldrb	r0, [r3, #5]	@ zero_extendqisi2
 1639 0004 7047     		bx	lr
 1640              	.L99:
 1641 0006 00BF     		.align	2
 1642              	.L98:
 1643 0008 00000000 		.word	.LANCHOR3
 1644              		.cfi_endproc
 1645              	.LFE136:
 1647              		.section	.text.tud_connected,"ax",%progbits
 1648              		.align	1
 1649              		.global	tud_connected
 1650              		.syntax unified
 1651              		.thumb
 1652              		.thumb_func
ARM GAS  C:\Users\krisa\AppData\Local\Temp\cc7LeJkl.s 			page 66


 1654              	tud_connected:
 1655              	.LFB137:
 469:lib/TinyUSB/src/device/usbd.c ****   return _usbd_dev.connected;
 1656              		.loc 1 469 26 is_stmt 1 view -0
 1657              		.cfi_startproc
 1658              		@ args = 0, pretend = 0, frame = 0
 1659              		@ frame_needed = 0, uses_anonymous_args = 0
 1660              		@ link register save eliminated.
 470:lib/TinyUSB/src/device/usbd.c **** }
 1661              		.loc 1 470 3 view .LVU457
 470:lib/TinyUSB/src/device/usbd.c **** }
 1662              		.loc 1 470 19 is_stmt 0 view .LVU458
 1663 0000 024B     		ldr	r3, .L101
 1664 0002 1878     		ldrb	r0, [r3]	@ zero_extendqisi2
 471:lib/TinyUSB/src/device/usbd.c **** 
 1665              		.loc 1 471 1 view .LVU459
 1666 0004 0038     		subs	r0, r0, #0
 1667 0006 18BF     		it	ne
 1668 0008 0120     		movne	r0, #1
 1669 000a 7047     		bx	lr
 1670              	.L102:
 1671              		.align	2
 1672              	.L101:
 1673 000c 00000000 		.word	.LANCHOR3
 1674              		.cfi_endproc
 1675              	.LFE137:
 1677              		.section	.text.tud_mounted,"ax",%progbits
 1678              		.align	1
 1679              		.global	tud_mounted
 1680              		.syntax unified
 1681              		.thumb
 1682              		.thumb_func
 1684              	tud_mounted:
 1685              	.LFB138:
 473:lib/TinyUSB/src/device/usbd.c ****   return _usbd_dev.cfg_num ? true : false;
 1686              		.loc 1 473 24 is_stmt 1 view -0
 1687              		.cfi_startproc
 1688              		@ args = 0, pretend = 0, frame = 0
 1689              		@ frame_needed = 0, uses_anonymous_args = 0
 1690              		@ link register save eliminated.
 474:lib/TinyUSB/src/device/usbd.c **** }
 1691              		.loc 1 474 3 view .LVU461
 474:lib/TinyUSB/src/device/usbd.c **** }
 1692              		.loc 1 474 19 is_stmt 0 view .LVU462
 1693 0000 024B     		ldr	r3, .L104
 1694 0002 1879     		ldrb	r0, [r3, #4]	@ zero_extendqisi2
 475:lib/TinyUSB/src/device/usbd.c **** 
 1695              		.loc 1 475 1 view .LVU463
 1696 0004 0038     		subs	r0, r0, #0
 1697 0006 18BF     		it	ne
 1698 0008 0120     		movne	r0, #1
 1699 000a 7047     		bx	lr
 1700              	.L105:
 1701              		.align	2
 1702              	.L104:
 1703 000c 00000000 		.word	.LANCHOR3
 1704              		.cfi_endproc
ARM GAS  C:\Users\krisa\AppData\Local\Temp\cc7LeJkl.s 			page 67


 1705              	.LFE138:
 1707              		.section	.text.tud_suspended,"ax",%progbits
 1708              		.align	1
 1709              		.global	tud_suspended
 1710              		.syntax unified
 1711              		.thumb
 1712              		.thumb_func
 1714              	tud_suspended:
 1715              	.LFB139:
 477:lib/TinyUSB/src/device/usbd.c ****   return _usbd_dev.suspended;
 1716              		.loc 1 477 26 is_stmt 1 view -0
 1717              		.cfi_startproc
 1718              		@ args = 0, pretend = 0, frame = 0
 1719              		@ frame_needed = 0, uses_anonymous_args = 0
 1720              		@ link register save eliminated.
 478:lib/TinyUSB/src/device/usbd.c **** }
 1721              		.loc 1 478 3 view .LVU465
 478:lib/TinyUSB/src/device/usbd.c **** }
 1722              		.loc 1 478 19 is_stmt 0 view .LVU466
 1723 0000 024B     		ldr	r3, .L107
 1724 0002 9878     		ldrb	r0, [r3, #2]	@ zero_extendqisi2
 479:lib/TinyUSB/src/device/usbd.c **** 
 1725              		.loc 1 479 1 view .LVU467
 1726 0004 0038     		subs	r0, r0, #0
 1727 0006 18BF     		it	ne
 1728 0008 0120     		movne	r0, #1
 1729 000a 7047     		bx	lr
 1730              	.L108:
 1731              		.align	2
 1732              	.L107:
 1733 000c 00000000 		.word	.LANCHOR3
 1734              		.cfi_endproc
 1735              	.LFE139:
 1737              		.section	.text.tud_remote_wakeup,"ax",%progbits
 1738              		.align	1
 1739              		.global	tud_remote_wakeup
 1740              		.syntax unified
 1741              		.thumb
 1742              		.thumb_func
 1744              	tud_remote_wakeup:
 1745              	.LFB140:
 481:lib/TinyUSB/src/device/usbd.c ****   // only wake up host if this feature is enabled and we are suspended
 1746              		.loc 1 481 30 is_stmt 1 view -0
 1747              		.cfi_startproc
 1748              		@ args = 0, pretend = 0, frame = 0
 1749              		@ frame_needed = 0, uses_anonymous_args = 0
 1750 0000 08B5     		push	{r3, lr}
 1751              	.LCFI9:
 1752              		.cfi_def_cfa_offset 8
 1753              		.cfi_offset 3, -8
 1754              		.cfi_offset 14, -4
 483:lib/TinyUSB/src/device/usbd.c ****   dcd_remote_wakeup(_usbd_rhport);
 1755              		.loc 1 483 3 view .LVU469
 483:lib/TinyUSB/src/device/usbd.c ****   dcd_remote_wakeup(_usbd_rhport);
 1756              		.loc 1 483 3 view .LVU470
 1757 0002 094B     		ldr	r3, .L115
 1758 0004 9B78     		ldrb	r3, [r3, #2]	@ zero_extendqisi2
ARM GAS  C:\Users\krisa\AppData\Local\Temp\cc7LeJkl.s 			page 68


 1759 0006 63B1     		cbz	r3, .L111
 483:lib/TinyUSB/src/device/usbd.c ****   dcd_remote_wakeup(_usbd_rhport);
 1760              		.loc 1 483 3 is_stmt 0 discriminator 2 view .LVU471
 1761 0008 074B     		ldr	r3, .L115
 1762 000a DB78     		ldrb	r3, [r3, #3]	@ zero_extendqisi2
 1763 000c 13F0020F 		tst	r3, #2
 1764 0010 01D1     		bne	.L114
 483:lib/TinyUSB/src/device/usbd.c ****   dcd_remote_wakeup(_usbd_rhport);
 1765              		.loc 1 483 3 view .LVU472
 1766 0012 0020     		movs	r0, #0
 1767 0014 06E0     		b	.L110
 1768              	.L114:
 483:lib/TinyUSB/src/device/usbd.c ****   dcd_remote_wakeup(_usbd_rhport);
 1769              		.loc 1 483 3 is_stmt 1 discriminator 4 view .LVU473
 484:lib/TinyUSB/src/device/usbd.c ****   return true;
 1770              		.loc 1 484 3 discriminator 4 view .LVU474
 1771 0016 054B     		ldr	r3, .L115+4
 1772 0018 1878     		ldrb	r0, [r3]	@ zero_extendqisi2
 1773 001a FFF7FEFF 		bl	dcd_remote_wakeup
 1774              	.LVL137:
 485:lib/TinyUSB/src/device/usbd.c **** }
 1775              		.loc 1 485 3 discriminator 4 view .LVU475
 485:lib/TinyUSB/src/device/usbd.c **** }
 1776              		.loc 1 485 10 is_stmt 0 discriminator 4 view .LVU476
 1777 001e 0120     		movs	r0, #1
 1778 0020 00E0     		b	.L110
 1779              	.L111:
 483:lib/TinyUSB/src/device/usbd.c ****   dcd_remote_wakeup(_usbd_rhport);
 1780              		.loc 1 483 3 view .LVU477
 1781 0022 0020     		movs	r0, #0
 1782              	.L110:
 486:lib/TinyUSB/src/device/usbd.c **** 
 1783              		.loc 1 486 1 view .LVU478
 1784 0024 08BD     		pop	{r3, pc}
 1785              	.L116:
 1786 0026 00BF     		.align	2
 1787              	.L115:
 1788 0028 00000000 		.word	.LANCHOR3
 1789 002c 00000000 		.word	.LANCHOR4
 1790              		.cfi_endproc
 1791              	.LFE140:
 1793              		.section	.text.tud_disconnect,"ax",%progbits
 1794              		.align	1
 1795              		.global	tud_disconnect
 1796              		.syntax unified
 1797              		.thumb
 1798              		.thumb_func
 1800              	tud_disconnect:
 1801              	.LFB141:
 488:lib/TinyUSB/src/device/usbd.c ****   dcd_disconnect(_usbd_rhport);
 1802              		.loc 1 488 27 is_stmt 1 view -0
 1803              		.cfi_startproc
 1804              		@ args = 0, pretend = 0, frame = 0
 1805              		@ frame_needed = 0, uses_anonymous_args = 0
 1806 0000 08B5     		push	{r3, lr}
 1807              	.LCFI10:
 1808              		.cfi_def_cfa_offset 8
ARM GAS  C:\Users\krisa\AppData\Local\Temp\cc7LeJkl.s 			page 69


 1809              		.cfi_offset 3, -8
 1810              		.cfi_offset 14, -4
 489:lib/TinyUSB/src/device/usbd.c ****   return true;
 1811              		.loc 1 489 3 view .LVU480
 1812 0002 034B     		ldr	r3, .L119
 1813 0004 1878     		ldrb	r0, [r3]	@ zero_extendqisi2
 1814 0006 FFF7FEFF 		bl	dcd_disconnect
 1815              	.LVL138:
 490:lib/TinyUSB/src/device/usbd.c **** }
 1816              		.loc 1 490 3 view .LVU481
 491:lib/TinyUSB/src/device/usbd.c **** 
 1817              		.loc 1 491 1 is_stmt 0 view .LVU482
 1818 000a 0120     		movs	r0, #1
 1819 000c 08BD     		pop	{r3, pc}
 1820              	.L120:
 1821 000e 00BF     		.align	2
 1822              	.L119:
 1823 0010 00000000 		.word	.LANCHOR4
 1824              		.cfi_endproc
 1825              	.LFE141:
 1827              		.section	.text.tud_connect,"ax",%progbits
 1828              		.align	1
 1829              		.global	tud_connect
 1830              		.syntax unified
 1831              		.thumb
 1832              		.thumb_func
 1834              	tud_connect:
 1835              	.LFB142:
 493:lib/TinyUSB/src/device/usbd.c ****   dcd_connect(_usbd_rhport);
 1836              		.loc 1 493 24 is_stmt 1 view -0
 1837              		.cfi_startproc
 1838              		@ args = 0, pretend = 0, frame = 0
 1839              		@ frame_needed = 0, uses_anonymous_args = 0
 1840 0000 08B5     		push	{r3, lr}
 1841              	.LCFI11:
 1842              		.cfi_def_cfa_offset 8
 1843              		.cfi_offset 3, -8
 1844              		.cfi_offset 14, -4
 494:lib/TinyUSB/src/device/usbd.c ****   return true;
 1845              		.loc 1 494 3 view .LVU484
 1846 0002 034B     		ldr	r3, .L123
 1847 0004 1878     		ldrb	r0, [r3]	@ zero_extendqisi2
 1848 0006 FFF7FEFF 		bl	dcd_connect
 1849              	.LVL139:
 495:lib/TinyUSB/src/device/usbd.c **** }
 1850              		.loc 1 495 3 view .LVU485
 496:lib/TinyUSB/src/device/usbd.c **** 
 1851              		.loc 1 496 1 is_stmt 0 view .LVU486
 1852 000a 0120     		movs	r0, #1
 1853 000c 08BD     		pop	{r3, pc}
 1854              	.L124:
 1855 000e 00BF     		.align	2
 1856              	.L123:
 1857 0010 00000000 		.word	.LANCHOR4
 1858              		.cfi_endproc
 1859              	.LFE142:
 1861              		.section	.text.tud_inited,"ax",%progbits
ARM GAS  C:\Users\krisa\AppData\Local\Temp\cc7LeJkl.s 			page 70


 1862              		.align	1
 1863              		.global	tud_inited
 1864              		.syntax unified
 1865              		.thumb
 1866              		.thumb_func
 1868              	tud_inited:
 1869              	.LFB144:
 502:lib/TinyUSB/src/device/usbd.c ****   return _usbd_rhport != RHPORT_INVALID;
 1870              		.loc 1 502 23 is_stmt 1 view -0
 1871              		.cfi_startproc
 1872              		@ args = 0, pretend = 0, frame = 0
 1873              		@ frame_needed = 0, uses_anonymous_args = 0
 1874              		@ link register save eliminated.
 503:lib/TinyUSB/src/device/usbd.c **** }
 1875              		.loc 1 503 3 view .LVU488
 503:lib/TinyUSB/src/device/usbd.c **** }
 1876              		.loc 1 503 23 is_stmt 0 view .LVU489
 1877 0000 024B     		ldr	r3, .L126
 1878 0002 1878     		ldrb	r0, [r3]	@ zero_extendqisi2
 504:lib/TinyUSB/src/device/usbd.c **** 
 1879              		.loc 1 504 1 view .LVU490
 1880 0004 FF38     		subs	r0, r0, #255
 1881 0006 18BF     		it	ne
 1882 0008 0120     		movne	r0, #1
 1883 000a 7047     		bx	lr
 1884              	.L127:
 1885              		.align	2
 1886              	.L126:
 1887 000c 00000000 		.word	.LANCHOR4
 1888              		.cfi_endproc
 1889              	.LFE144:
 1891              		.section	.text.tud_configure,"ax",%progbits
 1892              		.align	1
 1893              		.global	tud_configure
 1894              		.syntax unified
 1895              		.thumb
 1896              		.thumb_func
 1898              	tud_configure:
 1899              	.LVL140:
 1900              	.LFB145:
 506:lib/TinyUSB/src/device/usbd.c ****   return dcd_configure(rhport, cfg_id, cfg_param);
 1901              		.loc 1 506 76 is_stmt 1 view -0
 1902              		.cfi_startproc
 1903              		@ args = 0, pretend = 0, frame = 0
 1904              		@ frame_needed = 0, uses_anonymous_args = 0
 506:lib/TinyUSB/src/device/usbd.c ****   return dcd_configure(rhport, cfg_id, cfg_param);
 1905              		.loc 1 506 76 is_stmt 0 view .LVU492
 1906 0000 08B5     		push	{r3, lr}
 1907              	.LCFI12:
 1908              		.cfi_def_cfa_offset 8
 1909              		.cfi_offset 3, -8
 1910              		.cfi_offset 14, -4
 507:lib/TinyUSB/src/device/usbd.c **** }
 1911              		.loc 1 507 3 is_stmt 1 view .LVU493
 507:lib/TinyUSB/src/device/usbd.c **** }
 1912              		.loc 1 507 10 is_stmt 0 view .LVU494
 1913 0002 FFF7FEFF 		bl	dcd_configure
ARM GAS  C:\Users\krisa\AppData\Local\Temp\cc7LeJkl.s 			page 71


 1914              	.LVL141:
 508:lib/TinyUSB/src/device/usbd.c **** 
 1915              		.loc 1 508 1 view .LVU495
 1916 0006 08BD     		pop	{r3, pc}
 1917              		.cfi_endproc
 1918              	.LFE145:
 1920              		.section	.text.tud_rhport_init,"ax",%progbits
 1921              		.align	1
 1922              		.global	tud_rhport_init
 1923              		.syntax unified
 1924              		.thumb
 1925              		.thumb_func
 1927              	tud_rhport_init:
 1928              	.LVL142:
 1929              	.LFB146:
 510:lib/TinyUSB/src/device/usbd.c ****   if (tud_inited()) {
 1930              		.loc 1 510 73 is_stmt 1 view -0
 1931              		.cfi_startproc
 1932              		@ args = 0, pretend = 0, frame = 0
 1933              		@ frame_needed = 0, uses_anonymous_args = 0
 510:lib/TinyUSB/src/device/usbd.c ****   if (tud_inited()) {
 1934              		.loc 1 510 73 is_stmt 0 view .LVU497
 1935 0000 F8B5     		push	{r3, r4, r5, r6, r7, lr}
 1936              	.LCFI13:
 1937              		.cfi_def_cfa_offset 24
 1938              		.cfi_offset 3, -24
 1939              		.cfi_offset 4, -20
 1940              		.cfi_offset 5, -16
 1941              		.cfi_offset 6, -12
 1942              		.cfi_offset 7, -8
 1943              		.cfi_offset 14, -4
 1944 0002 0646     		mov	r6, r0
 1945 0004 0D46     		mov	r5, r1
 511:lib/TinyUSB/src/device/usbd.c ****     return true; // skip if already initialized
 1946              		.loc 1 511 3 is_stmt 1 view .LVU498
 511:lib/TinyUSB/src/device/usbd.c ****     return true; // skip if already initialized
 1947              		.loc 1 511 7 is_stmt 0 view .LVU499
 1948 0006 FFF7FEFF 		bl	tud_inited
 1949              	.LVL143:
 511:lib/TinyUSB/src/device/usbd.c ****     return true; // skip if already initialized
 1950              		.loc 1 511 6 view .LVU500
 1951 000a 0746     		mov	r7, r0
 1952 000c 0028     		cmp	r0, #0
 1953 000e 51D1     		bne	.L131
 514:lib/TinyUSB/src/device/usbd.c ****  #if CFG_TUSB_DEBUG >= CFG_TUD_LOG_LEVEL
 1954              		.loc 1 514 3 is_stmt 1 view .LVU501
 514:lib/TinyUSB/src/device/usbd.c ****  #if CFG_TUSB_DEBUG >= CFG_TUD_LOG_LEVEL
 1955              		.loc 1 514 3 view .LVU502
 1956 0010 C5B1     		cbz	r5, .L146
 514:lib/TinyUSB/src/device/usbd.c ****  #if CFG_TUSB_DEBUG >= CFG_TUD_LOG_LEVEL
 1957              		.loc 1 514 3 discriminator 2 view .LVU503
 540:lib/TinyUSB/src/device/usbd.c ****   _usbd_queued_setup = 0;
 1958              		.loc 1 540 3 discriminator 2 view .LVU504
 1959 0012 2F22     		movs	r2, #47
 1960 0014 0021     		movs	r1, #0
 1961 0016 3348     		ldr	r0, .L149
 1962 0018 FFF7FEFF 		bl	memset
ARM GAS  C:\Users\krisa\AppData\Local\Temp\cc7LeJkl.s 			page 72


 1963              	.LVL144:
 541:lib/TinyUSB/src/device/usbd.c **** 
 1964              		.loc 1 541 3 discriminator 2 view .LVU505
 541:lib/TinyUSB/src/device/usbd.c **** 
 1965              		.loc 1 541 22 is_stmt 0 discriminator 2 view .LVU506
 1966 001c 324B     		ldr	r3, .L149+4
 1967 001e 0022     		movs	r2, #0
 1968 0020 1A70     		strb	r2, [r3]
 543:lib/TinyUSB/src/device/usbd.c **** 
 1969              		.loc 1 543 3 is_stmt 1 discriminator 2 view .LVU507
 1970              	.LVL145:
 1971              		.file 3 "lib/TinyUSB/src/osal/osal_none.h"
   1:lib/TinyUSB/src/osal/osal_none.h **** /*
   2:lib/TinyUSB/src/osal/osal_none.h ****  * The MIT License (MIT)
   3:lib/TinyUSB/src/osal/osal_none.h ****  *
   4:lib/TinyUSB/src/osal/osal_none.h ****  * Copyright (c) 2019 Ha Thach (tinyusb.org)
   5:lib/TinyUSB/src/osal/osal_none.h ****  *
   6:lib/TinyUSB/src/osal/osal_none.h ****  * Permission is hereby granted, free of charge, to any person obtaining a copy
   7:lib/TinyUSB/src/osal/osal_none.h ****  * of this software and associated documentation files (the "Software"), to deal
   8:lib/TinyUSB/src/osal/osal_none.h ****  * in the Software without restriction, including without limitation the rights
   9:lib/TinyUSB/src/osal/osal_none.h ****  * to use, copy, modify, merge, publish, distribute, sublicense, and/or sell
  10:lib/TinyUSB/src/osal/osal_none.h ****  * copies of the Software, and to permit persons to whom the Software is
  11:lib/TinyUSB/src/osal/osal_none.h ****  * furnished to do so, subject to the following conditions:
  12:lib/TinyUSB/src/osal/osal_none.h ****  *
  13:lib/TinyUSB/src/osal/osal_none.h ****  * The above copyright notice and this permission notice shall be included in
  14:lib/TinyUSB/src/osal/osal_none.h ****  * all copies or substantial portions of the Software.
  15:lib/TinyUSB/src/osal/osal_none.h ****  *
  16:lib/TinyUSB/src/osal/osal_none.h ****  * THE SOFTWARE IS PROVIDED "AS IS", WITHOUT WARRANTY OF ANY KIND, EXPRESS OR
  17:lib/TinyUSB/src/osal/osal_none.h ****  * IMPLIED, INCLUDING BUT NOT LIMITED TO THE WARRANTIES OF MERCHANTABILITY,
  18:lib/TinyUSB/src/osal/osal_none.h ****  * FITNESS FOR A PARTICULAR PURPOSE AND NONINFRINGEMENT. IN NO EVENT SHALL THE
  19:lib/TinyUSB/src/osal/osal_none.h ****  * AUTHORS OR COPYRIGHT HOLDERS BE LIABLE FOR ANY CLAIM, DAMAGES OR OTHER
  20:lib/TinyUSB/src/osal/osal_none.h ****  * LIABILITY, WHETHER IN AN ACTION OF CONTRACT, TORT OR OTHERWISE, ARISING FROM,
  21:lib/TinyUSB/src/osal/osal_none.h ****  * OUT OF OR IN CONNECTION WITH THE SOFTWARE OR THE USE OR OTHER DEALINGS IN
  22:lib/TinyUSB/src/osal/osal_none.h ****  * THE SOFTWARE.
  23:lib/TinyUSB/src/osal/osal_none.h ****  *
  24:lib/TinyUSB/src/osal/osal_none.h ****  * This file is part of the TinyUSB stack.
  25:lib/TinyUSB/src/osal/osal_none.h ****  */
  26:lib/TinyUSB/src/osal/osal_none.h **** 
  27:lib/TinyUSB/src/osal/osal_none.h **** #ifndef TUSB_OSAL_NONE_H_
  28:lib/TinyUSB/src/osal/osal_none.h **** #define TUSB_OSAL_NONE_H_
  29:lib/TinyUSB/src/osal/osal_none.h **** 
  30:lib/TinyUSB/src/osal/osal_none.h **** #ifdef __cplusplus
  31:lib/TinyUSB/src/osal/osal_none.h **** extern "C" {
  32:lib/TinyUSB/src/osal/osal_none.h **** #endif
  33:lib/TinyUSB/src/osal/osal_none.h **** 
  34:lib/TinyUSB/src/osal/osal_none.h **** //--------------------------------------------------------------------+
  35:lib/TinyUSB/src/osal/osal_none.h **** // Spinlock API
  36:lib/TinyUSB/src/osal/osal_none.h **** //--------------------------------------------------------------------+
  37:lib/TinyUSB/src/osal/osal_none.h **** // Note: This implementation is designed for bare-metal single-core systems without RTOS.
  38:lib/TinyUSB/src/osal/osal_none.h **** // - Supports nested locking within the same execution context
  39:lib/TinyUSB/src/osal/osal_none.h **** // - NOT suitable for true SMP (Symmetric Multi-Processing) systems
  40:lib/TinyUSB/src/osal/osal_none.h **** // - NOT thread-safe for multi-threaded environments
  41:lib/TinyUSB/src/osal/osal_none.h **** // - Primarily manages interrupt enable/disable state for critical sections
  42:lib/TinyUSB/src/osal/osal_none.h **** typedef struct {
  43:lib/TinyUSB/src/osal/osal_none.h ****   void (* interrupt_set)(bool enabled);
  44:lib/TinyUSB/src/osal/osal_none.h ****   uint32_t nested_count;
  45:lib/TinyUSB/src/osal/osal_none.h **** } osal_spinlock_t;
ARM GAS  C:\Users\krisa\AppData\Local\Temp\cc7LeJkl.s 			page 73


  46:lib/TinyUSB/src/osal/osal_none.h **** 
  47:lib/TinyUSB/src/osal/osal_none.h **** // For SMP, spinlock must be locked by hardware, cannot just use interrupt
  48:lib/TinyUSB/src/osal/osal_none.h **** #define OSAL_SPINLOCK_DEF(_name, _int_set) \
  49:lib/TinyUSB/src/osal/osal_none.h ****   osal_spinlock_t _name = { .interrupt_set = _int_set, .nested_count = 0 }
  50:lib/TinyUSB/src/osal/osal_none.h **** 
  51:lib/TinyUSB/src/osal/osal_none.h **** TU_ATTR_ALWAYS_INLINE static inline void osal_spin_init(osal_spinlock_t *ctx) {
  52:lib/TinyUSB/src/osal/osal_none.h ****   (void) ctx;
 1972              		.loc 3 52 3 discriminator 2 view .LVU508
 552:lib/TinyUSB/src/device/usbd.c ****   TU_ASSERT(_usbd_q);
 1973              		.loc 1 552 3 discriminator 2 view .LVU509
 1974              	.LBB282:
 1975              	.LBI282:
  53:lib/TinyUSB/src/osal/osal_none.h **** }
  54:lib/TinyUSB/src/osal/osal_none.h **** 
  55:lib/TinyUSB/src/osal/osal_none.h **** TU_ATTR_ALWAYS_INLINE static inline void osal_spin_lock(osal_spinlock_t *ctx, bool in_isr) {
  56:lib/TinyUSB/src/osal/osal_none.h ****   // Disable interrupts first to make nested_count increment atomic
  57:lib/TinyUSB/src/osal/osal_none.h ****   if (!in_isr && ctx->nested_count == 0) {
  58:lib/TinyUSB/src/osal/osal_none.h ****     ctx->interrupt_set(false);
  59:lib/TinyUSB/src/osal/osal_none.h ****   }
  60:lib/TinyUSB/src/osal/osal_none.h ****   ctx->nested_count++;
  61:lib/TinyUSB/src/osal/osal_none.h **** }
  62:lib/TinyUSB/src/osal/osal_none.h **** 
  63:lib/TinyUSB/src/osal/osal_none.h **** TU_ATTR_ALWAYS_INLINE static inline void osal_spin_unlock(osal_spinlock_t *ctx, bool in_isr) {
  64:lib/TinyUSB/src/osal/osal_none.h ****   if (ctx->nested_count == 0) {
  65:lib/TinyUSB/src/osal/osal_none.h ****     return; // spin is not locked to begin with
  66:lib/TinyUSB/src/osal/osal_none.h ****   }
  67:lib/TinyUSB/src/osal/osal_none.h **** 
  68:lib/TinyUSB/src/osal/osal_none.h ****   ctx->nested_count--;
  69:lib/TinyUSB/src/osal/osal_none.h **** 
  70:lib/TinyUSB/src/osal/osal_none.h ****   // Only re-enable interrupts when fully unlocked
  71:lib/TinyUSB/src/osal/osal_none.h ****   if (!in_isr && ctx->nested_count == 0) {
  72:lib/TinyUSB/src/osal/osal_none.h ****     ctx->interrupt_set(true);
  73:lib/TinyUSB/src/osal/osal_none.h ****   }
  74:lib/TinyUSB/src/osal/osal_none.h **** }
  75:lib/TinyUSB/src/osal/osal_none.h **** 
  76:lib/TinyUSB/src/osal/osal_none.h **** //--------------------------------------------------------------------+
  77:lib/TinyUSB/src/osal/osal_none.h **** // Binary Semaphore API
  78:lib/TinyUSB/src/osal/osal_none.h **** //--------------------------------------------------------------------+
  79:lib/TinyUSB/src/osal/osal_none.h **** typedef struct {
  80:lib/TinyUSB/src/osal/osal_none.h ****   volatile uint16_t count;
  81:lib/TinyUSB/src/osal/osal_none.h **** } osal_semaphore_def_t;
  82:lib/TinyUSB/src/osal/osal_none.h **** 
  83:lib/TinyUSB/src/osal/osal_none.h **** typedef osal_semaphore_def_t* osal_semaphore_t;
  84:lib/TinyUSB/src/osal/osal_none.h **** 
